
build/main:     file format elf64-littleriscv


Disassembly of section .text:

ffffffc050202000 <_boot>:
ffffffc050202000:	10401073          	csrw	sie,zero
ffffffc050202004:	14401073          	csrw	sip,zero
ffffffc050202008:	50202137          	lui	sp,0x50202
ffffffc05020200c:	f1402573          	csrr	a0,mhartid
ffffffc050202010:	5a4000ef          	jal	ra,ffffffc0502025b4 <boot_kernel>

ffffffc050202014 <loop>:
ffffffc050202014:	10500073          	wfi
ffffffc050202018:	bff5                	j	ffffffc050202014 <loop>
	...

ffffffc05020201c <enable_ext>:
ffffffc05020201c:	20000293          	li	t0,512
ffffffc050202020:	1042a073          	csrs	sie,t0
ffffffc050202024:	8082                	ret
ffffffc050202026:	0001                	nop

ffffffc050202028 <enable_preempt>:
ffffffc050202028:	fff04293          	not	t0,zero
ffffffc05020202c:	dff00313          	li	t1,-513
ffffffc050202030:	0062f2b3          	and	t0,t0,t1
ffffffc050202034:	1042a073          	csrs	sie,t0
ffffffc050202038:	8082                	ret
ffffffc05020203a:	0001                	nop

ffffffc05020203c <disable_preempt>:
ffffffc05020203c:	10401073          	csrw	sie,zero
ffffffc050202040:	8082                	ret
ffffffc050202042:	0001                	nop

ffffffc050202044 <enable_interrupt>:
ffffffc050202044:	4289                	li	t0,2
ffffffc050202046:	1002a073          	csrs	sstatus,t0
ffffffc05020204a:	8082                	ret

ffffffc05020204c <disable_interrupt>:
ffffffc05020204c:	4289                	li	t0,2
ffffffc05020204e:	1002b073          	csrc	sstatus,t0
ffffffc050202052:	8082                	ret

ffffffc050202054 <clear_sip>:
ffffffc050202054:	14401073          	csrw	sip,zero
ffffffc050202058:	8082                	ret
ffffffc05020205a:	0001                	nop

ffffffc05020205c <switch_to>:
ffffffc05020205c:	00053283          	ld	t0,0(a0)
ffffffc050202060:	0012b023          	sd	ra,0(t0)
ffffffc050202064:	0022b423          	sd	sp,8(t0)
ffffffc050202068:	0082b823          	sd	s0,16(t0)
ffffffc05020206c:	0092bc23          	sd	s1,24(t0)
ffffffc050202070:	0322b023          	sd	s2,32(t0)
ffffffc050202074:	0332b423          	sd	s3,40(t0)
ffffffc050202078:	0342b823          	sd	s4,48(t0)
ffffffc05020207c:	0352bc23          	sd	s5,56(t0)
ffffffc050202080:	0562b023          	sd	s6,64(t0)
ffffffc050202084:	0572b423          	sd	s7,72(t0)
ffffffc050202088:	0582b823          	sd	s8,80(t0)
ffffffc05020208c:	0592bc23          	sd	s9,88(t0)
ffffffc050202090:	07a2b023          	sd	s10,96(t0)
ffffffc050202094:	07b2b423          	sd	s11,104(t0)
ffffffc050202098:	0005b283          	ld	t0,0(a1)
ffffffc05020209c:	0002b083          	ld	ra,0(t0)
ffffffc0502020a0:	0082b103          	ld	sp,8(t0)
ffffffc0502020a4:	0102b403          	ld	s0,16(t0)
ffffffc0502020a8:	0182b483          	ld	s1,24(t0)
ffffffc0502020ac:	0202b903          	ld	s2,32(t0)
ffffffc0502020b0:	0282b983          	ld	s3,40(t0)
ffffffc0502020b4:	0302ba03          	ld	s4,48(t0)
ffffffc0502020b8:	0382ba83          	ld	s5,56(t0)
ffffffc0502020bc:	0402bb03          	ld	s6,64(t0)
ffffffc0502020c0:	0482bb83          	ld	s7,72(t0)
ffffffc0502020c4:	0502bc03          	ld	s8,80(t0)
ffffffc0502020c8:	0582bc83          	ld	s9,88(t0)
ffffffc0502020cc:	0602bd03          	ld	s10,96(t0)
ffffffc0502020d0:	0682bd83          	ld	s11,104(t0)
ffffffc0502020d4:	00058213          	mv	tp,a1
ffffffc0502020d8:	8082                	ret
ffffffc0502020da:	0001                	nop

ffffffc0502020dc <ret_from_exception>:
ffffffc0502020dc:	322060ef          	jal	ra,ffffffc0502083fe <unlock_kernel>
ffffffc0502020e0:	00023103          	ld	sp,0(tp) # 0 <boot_stack_top_base-0x50202000>
ffffffc0502020e4:	6165                	addi	sp,sp,112
ffffffc0502020e6:	62b2                	ld	t0,264(sp)
ffffffc0502020e8:	14129073          	csrw	sepc,t0
ffffffc0502020ec:	6292                	ld	t0,256(sp)
ffffffc0502020ee:	10029073          	csrw	sstatus,t0
ffffffc0502020f2:	60a2                	ld	ra,8(sp)
ffffffc0502020f4:	61e2                	ld	gp,24(sp)
ffffffc0502020f6:	7202                	ld	tp,32(sp)
ffffffc0502020f8:	72a2                	ld	t0,40(sp)
ffffffc0502020fa:	7342                	ld	t1,48(sp)
ffffffc0502020fc:	73e2                	ld	t2,56(sp)
ffffffc0502020fe:	6406                	ld	s0,64(sp)
ffffffc050202100:	64a6                	ld	s1,72(sp)
ffffffc050202102:	6546                	ld	a0,80(sp)
ffffffc050202104:	65e6                	ld	a1,88(sp)
ffffffc050202106:	7606                	ld	a2,96(sp)
ffffffc050202108:	76a6                	ld	a3,104(sp)
ffffffc05020210a:	7746                	ld	a4,112(sp)
ffffffc05020210c:	77e6                	ld	a5,120(sp)
ffffffc05020210e:	680a                	ld	a6,128(sp)
ffffffc050202110:	68aa                	ld	a7,136(sp)
ffffffc050202112:	694a                	ld	s2,144(sp)
ffffffc050202114:	69ea                	ld	s3,152(sp)
ffffffc050202116:	7a0a                	ld	s4,160(sp)
ffffffc050202118:	7aaa                	ld	s5,168(sp)
ffffffc05020211a:	7b4a                	ld	s6,176(sp)
ffffffc05020211c:	7bea                	ld	s7,184(sp)
ffffffc05020211e:	6c0e                	ld	s8,192(sp)
ffffffc050202120:	6cae                	ld	s9,200(sp)
ffffffc050202122:	6d4e                	ld	s10,208(sp)
ffffffc050202124:	6dee                	ld	s11,216(sp)
ffffffc050202126:	7e0e                	ld	t3,224(sp)
ffffffc050202128:	7eae                	ld	t4,232(sp)
ffffffc05020212a:	7f4e                	ld	t5,240(sp)
ffffffc05020212c:	7fee                	ld	t6,248(sp)
ffffffc05020212e:	6142                	ld	sp,16(sp)
ffffffc050202130:	10200073          	sret

ffffffc050202134 <exception_handler_entry>:
ffffffc050202134:	00223423          	sd	sp,8(tp) # 8 <boot_stack_top_base-0x50201ff8>
ffffffc050202138:	00023103          	ld	sp,0(tp) # 0 <boot_stack_top_base-0x50202000>
ffffffc05020213c:	6165                	addi	sp,sp,112
ffffffc05020213e:	e002                	sd	zero,0(sp)
ffffffc050202140:	e406                	sd	ra,8(sp)
ffffffc050202142:	ec0e                	sd	gp,24(sp)
ffffffc050202144:	f012                	sd	tp,32(sp)
ffffffc050202146:	f416                	sd	t0,40(sp)
ffffffc050202148:	f81a                	sd	t1,48(sp)
ffffffc05020214a:	fc1e                	sd	t2,56(sp)
ffffffc05020214c:	e0a2                	sd	s0,64(sp)
ffffffc05020214e:	e4a6                	sd	s1,72(sp)
ffffffc050202150:	e8aa                	sd	a0,80(sp)
ffffffc050202152:	ecae                	sd	a1,88(sp)
ffffffc050202154:	f0b2                	sd	a2,96(sp)
ffffffc050202156:	f4b6                	sd	a3,104(sp)
ffffffc050202158:	f8ba                	sd	a4,112(sp)
ffffffc05020215a:	fcbe                	sd	a5,120(sp)
ffffffc05020215c:	e142                	sd	a6,128(sp)
ffffffc05020215e:	e546                	sd	a7,136(sp)
ffffffc050202160:	e94a                	sd	s2,144(sp)
ffffffc050202162:	ed4e                	sd	s3,152(sp)
ffffffc050202164:	f152                	sd	s4,160(sp)
ffffffc050202166:	f556                	sd	s5,168(sp)
ffffffc050202168:	f95a                	sd	s6,176(sp)
ffffffc05020216a:	fd5e                	sd	s7,184(sp)
ffffffc05020216c:	e1e2                	sd	s8,192(sp)
ffffffc05020216e:	e5e6                	sd	s9,200(sp)
ffffffc050202170:	e9ea                	sd	s10,208(sp)
ffffffc050202172:	edee                	sd	s11,216(sp)
ffffffc050202174:	f1f2                	sd	t3,224(sp)
ffffffc050202176:	f5f6                	sd	t4,232(sp)
ffffffc050202178:	f9fa                	sd	t5,240(sp)
ffffffc05020217a:	fdfe                	sd	t6,248(sp)
ffffffc05020217c:	00823283          	ld	t0,8(tp) # 8 <boot_stack_top_base-0x50201ff8>
ffffffc050202180:	e816                	sd	t0,16(sp)
ffffffc050202182:	000462b7          	lui	t0,0x46
ffffffc050202186:	10029073          	csrw	sstatus,t0
ffffffc05020218a:	100022f3          	csrr	t0,sstatus
ffffffc05020218e:	e216                	sd	t0,256(sp)
ffffffc050202190:	141022f3          	csrr	t0,sepc
ffffffc050202194:	e616                	sd	t0,264(sp)
ffffffc050202196:	143022f3          	csrr	t0,stval
ffffffc05020219a:	ea16                	sd	t0,272(sp)
ffffffc05020219c:	142022f3          	csrr	t0,scause
ffffffc0502021a0:	ee16                	sd	t0,280(sp)
ffffffc0502021a2:	7159                	addi	sp,sp,-112
ffffffc0502021a4:	000402b7          	lui	t0,0x40
ffffffc0502021a8:	1002a073          	csrs	sstatus,t0
ffffffc0502021ac:	00023283          	ld	t0,0(tp) # 0 <boot_stack_top_base-0x50202000>
ffffffc0502021b0:	07028513          	addi	a0,t0,112 # 40070 <boot_stack_top_base-0x501c1f90>
ffffffc0502021b4:	143025f3          	csrr	a1,stval
ffffffc0502021b8:	14202673          	csrr	a2,scause
ffffffc0502021bc:	1ed020ef          	jal	ra,ffffffc050204ba8 <interrupt_helper>
ffffffc0502021c0:	00000097          	auipc	ra,0x0
ffffffc0502021c4:	f1c08093          	addi	ra,ra,-228 # ffffffc0502020dc <ret_from_exception>
ffffffc0502021c8:	8082                	ret
	...

ffffffc0502021cc <setup_exception>:
ffffffc0502021cc:	00000297          	auipc	t0,0x0
ffffffc0502021d0:	f6828293          	addi	t0,t0,-152 # ffffffc050202134 <exception_handler_entry>
ffffffc0502021d4:	10529073          	csrw	stvec,t0
ffffffc0502021d8:	00008313          	mv	t1,ra
ffffffc0502021dc:	00030093          	mv	ra,t1
ffffffc0502021e0:	8082                	ret
	...

ffffffc0502021e4 <get_current_cpu_id>:
ffffffc0502021e4:	f1402573          	csrr	a0,mhartid
ffffffc0502021e8:	8082                	ret
	...

ffffffc0502021ec <_start>:
ffffffc0502021ec:	10401073          	csrw	sie,zero
ffffffc0502021f0:	14401073          	csrw	sip,zero
ffffffc0502021f4:	000402b7          	lui	t0,0x40
ffffffc0502021f8:	1002a073          	csrs	sstatus,t0
ffffffc0502021fc:	f14022f3          	csrr	t0,mhartid
ffffffc050202200:	02029963          	bnez	t0,ffffffc050202232 <second_core>
ffffffc050202204:	0000b297          	auipc	t0,0xb
ffffffc050202208:	85028293          	addi	t0,t0,-1968 # ffffffc05020ca54 <_edata>
ffffffc05020220c:	00067317          	auipc	t1,0x67
ffffffc050202210:	71c30313          	addi	t1,t1,1820 # ffffffc050269928 <__BSS_END__>
ffffffc050202214:	00000393          	li	t2,0

ffffffc050202218 <clbss>:
ffffffc050202218:	0072a023          	sw	t2,0(t0)
ffffffc05020221c:	0291                	addi	t0,t0,4
ffffffc05020221e:	fe629de3          	bne	t0,t1,ffffffc050202218 <clbss>
ffffffc050202222:	fc052137          	lui	sp,0xfc052
ffffffc050202226:	0011011b          	addiw	sp,sp,1
ffffffc05020222a:	00c11113          	slli	sp,sp,0xc
ffffffc05020222e:	02c010ef          	jal	ra,ffffffc05020325a <main>

ffffffc050202232 <second_core>:
ffffffc050202232:	fe029137          	lui	sp,0xfe029
ffffffc050202236:	0011011b          	addiw	sp,sp,1
ffffffc05020223a:	00d11113          	slli	sp,sp,0xd
ffffffc05020223e:	01c010ef          	jal	ra,ffffffc05020325a <main>

ffffffc050202242 <loop>:
ffffffc050202242:	a001                	j	ffffffc050202242 <loop>
	...

ffffffc050202246 <local_flush_tlb_all>:
ffffffc050202246:	1141                	addi	sp,sp,-16
ffffffc050202248:	e422                	sd	s0,8(sp)
ffffffc05020224a:	0800                	addi	s0,sp,16
ffffffc05020224c:	12000073          	sfence.vma
ffffffc050202250:	0001                	nop
ffffffc050202252:	6422                	ld	s0,8(sp)
ffffffc050202254:	0141                	addi	sp,sp,16
ffffffc050202256:	8082                	ret

ffffffc050202258 <set_satp>:
ffffffc050202258:	7179                	addi	sp,sp,-48
ffffffc05020225a:	f422                	sd	s0,40(sp)
ffffffc05020225c:	1800                	addi	s0,sp,48
ffffffc05020225e:	87aa                	mv	a5,a0
ffffffc050202260:	872e                	mv	a4,a1
ffffffc050202262:	fcc43823          	sd	a2,-48(s0)
ffffffc050202266:	fcf42e23          	sw	a5,-36(s0)
ffffffc05020226a:	87ba                	mv	a5,a4
ffffffc05020226c:	fcf42c23          	sw	a5,-40(s0)
ffffffc050202270:	fdc46783          	lwu	a5,-36(s0)
ffffffc050202274:	03c79713          	slli	a4,a5,0x3c
ffffffc050202278:	fd846783          	lwu	a5,-40(s0)
ffffffc05020227c:	17b2                	slli	a5,a5,0x2c
ffffffc05020227e:	8fd9                	or	a5,a5,a4
ffffffc050202280:	fd043703          	ld	a4,-48(s0)
ffffffc050202284:	8fd9                	or	a5,a5,a4
ffffffc050202286:	fef43423          	sd	a5,-24(s0)
ffffffc05020228a:	fe843783          	ld	a5,-24(s0)
ffffffc05020228e:	12000073          	sfence.vma
ffffffc050202292:	18079073          	csrw	satp,a5
ffffffc050202296:	0001                	nop
ffffffc050202298:	7422                	ld	s0,40(sp)
ffffffc05020229a:	6145                	addi	sp,sp,48
ffffffc05020229c:	8082                	ret

ffffffc05020229e <kva2pa>:
ffffffc05020229e:	7179                	addi	sp,sp,-48
ffffffc0502022a0:	f422                	sd	s0,40(sp)
ffffffc0502022a2:	1800                	addi	s0,sp,48
ffffffc0502022a4:	fca43c23          	sd	a0,-40(s0)
ffffffc0502022a8:	57fd                	li	a5,-1
ffffffc0502022aa:	9381                	srli	a5,a5,0x20
ffffffc0502022ac:	fef43423          	sd	a5,-24(s0)
ffffffc0502022b0:	fd843703          	ld	a4,-40(s0)
ffffffc0502022b4:	fe843783          	ld	a5,-24(s0)
ffffffc0502022b8:	8ff9                	and	a5,a5,a4
ffffffc0502022ba:	fef43023          	sd	a5,-32(s0)
ffffffc0502022be:	fe043783          	ld	a5,-32(s0)
ffffffc0502022c2:	853e                	mv	a0,a5
ffffffc0502022c4:	7422                	ld	s0,40(sp)
ffffffc0502022c6:	6145                	addi	sp,sp,48
ffffffc0502022c8:	8082                	ret

ffffffc0502022ca <pa2kva>:
ffffffc0502022ca:	7179                	addi	sp,sp,-48
ffffffc0502022cc:	f422                	sd	s0,40(sp)
ffffffc0502022ce:	1800                	addi	s0,sp,48
ffffffc0502022d0:	fca43c23          	sd	a0,-40(s0)
ffffffc0502022d4:	57fd                	li	a5,-1
ffffffc0502022d6:	179a                	slli	a5,a5,0x26
ffffffc0502022d8:	fef43423          	sd	a5,-24(s0)
ffffffc0502022dc:	fd843703          	ld	a4,-40(s0)
ffffffc0502022e0:	fe843783          	ld	a5,-24(s0)
ffffffc0502022e4:	8fd9                	or	a5,a5,a4
ffffffc0502022e6:	fef43023          	sd	a5,-32(s0)
ffffffc0502022ea:	fe043783          	ld	a5,-32(s0)
ffffffc0502022ee:	853e                	mv	a0,a5
ffffffc0502022f0:	7422                	ld	s0,40(sp)
ffffffc0502022f2:	6145                	addi	sp,sp,48
ffffffc0502022f4:	8082                	ret

ffffffc0502022f6 <get_pa>:
ffffffc0502022f6:	7179                	addi	sp,sp,-48
ffffffc0502022f8:	f422                	sd	s0,40(sp)
ffffffc0502022fa:	1800                	addi	s0,sp,48
ffffffc0502022fc:	fca43c23          	sd	a0,-40(s0)
ffffffc050202300:	fd843783          	ld	a5,-40(s0)
ffffffc050202304:	83a9                	srli	a5,a5,0xa
ffffffc050202306:	07b2                	slli	a5,a5,0xc
ffffffc050202308:	fef43423          	sd	a5,-24(s0)
ffffffc05020230c:	fe843783          	ld	a5,-24(s0)
ffffffc050202310:	853e                	mv	a0,a5
ffffffc050202312:	7422                	ld	s0,40(sp)
ffffffc050202314:	6145                	addi	sp,sp,48
ffffffc050202316:	8082                	ret

ffffffc050202318 <set_pfn>:
ffffffc050202318:	1101                	addi	sp,sp,-32
ffffffc05020231a:	ec22                	sd	s0,24(sp)
ffffffc05020231c:	1000                	addi	s0,sp,32
ffffffc05020231e:	fea43423          	sd	a0,-24(s0)
ffffffc050202322:	feb43023          	sd	a1,-32(s0)
ffffffc050202326:	fe843783          	ld	a5,-24(s0)
ffffffc05020232a:	639c                	ld	a5,0(a5)
ffffffc05020232c:	1ff7f713          	andi	a4,a5,511
ffffffc050202330:	fe843783          	ld	a5,-24(s0)
ffffffc050202334:	e398                	sd	a4,0(a5)
ffffffc050202336:	fe843783          	ld	a5,-24(s0)
ffffffc05020233a:	6398                	ld	a4,0(a5)
ffffffc05020233c:	fe043783          	ld	a5,-32(s0)
ffffffc050202340:	07aa                	slli	a5,a5,0xa
ffffffc050202342:	8f5d                	or	a4,a4,a5
ffffffc050202344:	fe843783          	ld	a5,-24(s0)
ffffffc050202348:	e398                	sd	a4,0(a5)
ffffffc05020234a:	0001                	nop
ffffffc05020234c:	6462                	ld	s0,24(sp)
ffffffc05020234e:	6105                	addi	sp,sp,32
ffffffc050202350:	8082                	ret

ffffffc050202352 <set_attribute>:
ffffffc050202352:	7179                	addi	sp,sp,-48
ffffffc050202354:	f422                	sd	s0,40(sp)
ffffffc050202356:	1800                	addi	s0,sp,48
ffffffc050202358:	fca43c23          	sd	a0,-40(s0)
ffffffc05020235c:	fcb43823          	sd	a1,-48(s0)
ffffffc050202360:	fd843783          	ld	a5,-40(s0)
ffffffc050202364:	639c                	ld	a5,0(a5)
ffffffc050202366:	c007f793          	andi	a5,a5,-1024
ffffffc05020236a:	fef43423          	sd	a5,-24(s0)
ffffffc05020236e:	fe843703          	ld	a4,-24(s0)
ffffffc050202372:	fd043783          	ld	a5,-48(s0)
ffffffc050202376:	8f5d                	or	a4,a4,a5
ffffffc050202378:	fd843783          	ld	a5,-40(s0)
ffffffc05020237c:	e398                	sd	a4,0(a5)
ffffffc05020237e:	0001                	nop
ffffffc050202380:	7422                	ld	s0,40(sp)
ffffffc050202382:	6145                	addi	sp,sp,48
ffffffc050202384:	8082                	ret

ffffffc050202386 <clear_pgdir>:
ffffffc050202386:	7179                	addi	sp,sp,-48
ffffffc050202388:	f422                	sd	s0,40(sp)
ffffffc05020238a:	1800                	addi	s0,sp,48
ffffffc05020238c:	fca43c23          	sd	a0,-40(s0)
ffffffc050202390:	fd843783          	ld	a5,-40(s0)
ffffffc050202394:	fef43023          	sd	a5,-32(s0)
ffffffc050202398:	fe042623          	sw	zero,-20(s0)
ffffffc05020239c:	a831                	j	ffffffc0502023b8 <clear_pgdir+0x32>
ffffffc05020239e:	fec42783          	lw	a5,-20(s0)
ffffffc0502023a2:	078e                	slli	a5,a5,0x3
ffffffc0502023a4:	fe043703          	ld	a4,-32(s0)
ffffffc0502023a8:	97ba                	add	a5,a5,a4
ffffffc0502023aa:	0007b023          	sd	zero,0(a5)
ffffffc0502023ae:	fec42783          	lw	a5,-20(s0)
ffffffc0502023b2:	2785                	addiw	a5,a5,1
ffffffc0502023b4:	fef42623          	sw	a5,-20(s0)
ffffffc0502023b8:	fec42783          	lw	a5,-20(s0)
ffffffc0502023bc:	0007871b          	sext.w	a4,a5
ffffffc0502023c0:	1ff00793          	li	a5,511
ffffffc0502023c4:	fce7dde3          	bge	a5,a4,ffffffc05020239e <clear_pgdir+0x18>
ffffffc0502023c8:	0001                	nop
ffffffc0502023ca:	0001                	nop
ffffffc0502023cc:	7422                	ld	s0,40(sp)
ffffffc0502023ce:	6145                	addi	sp,sp,48
ffffffc0502023d0:	8082                	ret

ffffffc0502023d2 <alloc_page>:
ffffffc0502023d2:	1141                	addi	sp,sp,-16
ffffffc0502023d4:	e422                	sd	s0,8(sp)
ffffffc0502023d6:	0800                	addi	s0,sp,16
ffffffc0502023d8:	0000a797          	auipc	a5,0xa
ffffffc0502023dc:	61878793          	addi	a5,a5,1560 # ffffffc05020c9f0 <pg_base.1078>
ffffffc0502023e0:	6398                	ld	a4,0(a5)
ffffffc0502023e2:	6785                	lui	a5,0x1
ffffffc0502023e4:	973e                	add	a4,a4,a5
ffffffc0502023e6:	0000a797          	auipc	a5,0xa
ffffffc0502023ea:	60a78793          	addi	a5,a5,1546 # ffffffc05020c9f0 <pg_base.1078>
ffffffc0502023ee:	e398                	sd	a4,0(a5)
ffffffc0502023f0:	0000a797          	auipc	a5,0xa
ffffffc0502023f4:	60078793          	addi	a5,a5,1536 # ffffffc05020c9f0 <pg_base.1078>
ffffffc0502023f8:	639c                	ld	a5,0(a5)
ffffffc0502023fa:	853e                	mv	a0,a5
ffffffc0502023fc:	6422                	ld	s0,8(sp)
ffffffc0502023fe:	0141                	addi	sp,sp,16
ffffffc050202400:	8082                	ret

ffffffc050202402 <map_page>:
ffffffc050202402:	711d                	addi	sp,sp,-96
ffffffc050202404:	ec86                	sd	ra,88(sp)
ffffffc050202406:	e8a2                	sd	s0,80(sp)
ffffffc050202408:	e4a6                	sd	s1,72(sp)
ffffffc05020240a:	1080                	addi	s0,sp,96
ffffffc05020240c:	faa43c23          	sd	a0,-72(s0)
ffffffc050202410:	fab43823          	sd	a1,-80(s0)
ffffffc050202414:	fac43423          	sd	a2,-88(s0)
ffffffc050202418:	fb843703          	ld	a4,-72(s0)
ffffffc05020241c:	57fd                	li	a5,-1
ffffffc05020241e:	83e5                	srli	a5,a5,0x19
ffffffc050202420:	8ff9                	and	a5,a5,a4
ffffffc050202422:	faf43c23          	sd	a5,-72(s0)
ffffffc050202426:	fb843783          	ld	a5,-72(s0)
ffffffc05020242a:	83f9                	srli	a5,a5,0x1e
ffffffc05020242c:	fcf43c23          	sd	a5,-40(s0)
ffffffc050202430:	fd843783          	ld	a5,-40(s0)
ffffffc050202434:	00979713          	slli	a4,a5,0x9
ffffffc050202438:	fb843783          	ld	a5,-72(s0)
ffffffc05020243c:	83d5                	srli	a5,a5,0x15
ffffffc05020243e:	8fb9                	xor	a5,a5,a4
ffffffc050202440:	fcf43823          	sd	a5,-48(s0)
ffffffc050202444:	fd843783          	ld	a5,-40(s0)
ffffffc050202448:	078e                	slli	a5,a5,0x3
ffffffc05020244a:	fa843703          	ld	a4,-88(s0)
ffffffc05020244e:	97ba                	add	a5,a5,a4
ffffffc050202450:	639c                	ld	a5,0(a5)
ffffffc050202452:	eba1                	bnez	a5,ffffffc0502024a2 <map_page+0xa0>
ffffffc050202454:	fd843783          	ld	a5,-40(s0)
ffffffc050202458:	078e                	slli	a5,a5,0x3
ffffffc05020245a:	fa843703          	ld	a4,-88(s0)
ffffffc05020245e:	00f704b3          	add	s1,a4,a5
ffffffc050202462:	f71ff0ef          	jal	ra,ffffffc0502023d2 <alloc_page>
ffffffc050202466:	87aa                	mv	a5,a0
ffffffc050202468:	83b1                	srli	a5,a5,0xc
ffffffc05020246a:	85be                	mv	a1,a5
ffffffc05020246c:	8526                	mv	a0,s1
ffffffc05020246e:	eabff0ef          	jal	ra,ffffffc050202318 <set_pfn>
ffffffc050202472:	fd843783          	ld	a5,-40(s0)
ffffffc050202476:	078e                	slli	a5,a5,0x3
ffffffc050202478:	fa843703          	ld	a4,-88(s0)
ffffffc05020247c:	97ba                	add	a5,a5,a4
ffffffc05020247e:	4585                	li	a1,1
ffffffc050202480:	853e                	mv	a0,a5
ffffffc050202482:	ed1ff0ef          	jal	ra,ffffffc050202352 <set_attribute>
ffffffc050202486:	fd843783          	ld	a5,-40(s0)
ffffffc05020248a:	078e                	slli	a5,a5,0x3
ffffffc05020248c:	fa843703          	ld	a4,-88(s0)
ffffffc050202490:	97ba                	add	a5,a5,a4
ffffffc050202492:	639c                	ld	a5,0(a5)
ffffffc050202494:	853e                	mv	a0,a5
ffffffc050202496:	e61ff0ef          	jal	ra,ffffffc0502022f6 <get_pa>
ffffffc05020249a:	87aa                	mv	a5,a0
ffffffc05020249c:	853e                	mv	a0,a5
ffffffc05020249e:	ee9ff0ef          	jal	ra,ffffffc050202386 <clear_pgdir>
ffffffc0502024a2:	fd843783          	ld	a5,-40(s0)
ffffffc0502024a6:	078e                	slli	a5,a5,0x3
ffffffc0502024a8:	fa843703          	ld	a4,-88(s0)
ffffffc0502024ac:	97ba                	add	a5,a5,a4
ffffffc0502024ae:	639c                	ld	a5,0(a5)
ffffffc0502024b0:	853e                	mv	a0,a5
ffffffc0502024b2:	e45ff0ef          	jal	ra,ffffffc0502022f6 <get_pa>
ffffffc0502024b6:	87aa                	mv	a5,a0
ffffffc0502024b8:	fcf43423          	sd	a5,-56(s0)
ffffffc0502024bc:	fd043783          	ld	a5,-48(s0)
ffffffc0502024c0:	078e                	slli	a5,a5,0x3
ffffffc0502024c2:	fc843703          	ld	a4,-56(s0)
ffffffc0502024c6:	973e                	add	a4,a4,a5
ffffffc0502024c8:	fb043783          	ld	a5,-80(s0)
ffffffc0502024cc:	83b1                	srli	a5,a5,0xc
ffffffc0502024ce:	85be                	mv	a1,a5
ffffffc0502024d0:	853a                	mv	a0,a4
ffffffc0502024d2:	e47ff0ef          	jal	ra,ffffffc050202318 <set_pfn>
ffffffc0502024d6:	fd043783          	ld	a5,-48(s0)
ffffffc0502024da:	078e                	slli	a5,a5,0x3
ffffffc0502024dc:	fc843703          	ld	a4,-56(s0)
ffffffc0502024e0:	97ba                	add	a5,a5,a4
ffffffc0502024e2:	0cf00593          	li	a1,207
ffffffc0502024e6:	853e                	mv	a0,a5
ffffffc0502024e8:	e6bff0ef          	jal	ra,ffffffc050202352 <set_attribute>
ffffffc0502024ec:	0001                	nop
ffffffc0502024ee:	60e6                	ld	ra,88(sp)
ffffffc0502024f0:	6446                	ld	s0,80(sp)
ffffffc0502024f2:	64a6                	ld	s1,72(sp)
ffffffc0502024f4:	6125                	addi	sp,sp,96
ffffffc0502024f6:	8082                	ret

ffffffc0502024f8 <enable_vm>:
ffffffc0502024f8:	1141                	addi	sp,sp,-16
ffffffc0502024fa:	e406                	sd	ra,8(sp)
ffffffc0502024fc:	e022                	sd	s0,0(sp)
ffffffc0502024fe:	0800                	addi	s0,sp,16
ffffffc050202500:	00051637          	lui	a2,0x51
ffffffc050202504:	4581                	li	a1,0
ffffffc050202506:	4521                	li	a0,8
ffffffc050202508:	d51ff0ef          	jal	ra,ffffffc050202258 <set_satp>
ffffffc05020250c:	d3bff0ef          	jal	ra,ffffffc050202246 <local_flush_tlb_all>
ffffffc050202510:	0001                	nop
ffffffc050202512:	60a2                	ld	ra,8(sp)
ffffffc050202514:	6402                	ld	s0,0(sp)
ffffffc050202516:	0141                	addi	sp,sp,16
ffffffc050202518:	8082                	ret

ffffffc05020251a <setup_vm>:
ffffffc05020251a:	7179                	addi	sp,sp,-48
ffffffc05020251c:	f406                	sd	ra,40(sp)
ffffffc05020251e:	f022                	sd	s0,32(sp)
ffffffc050202520:	1800                	addi	s0,sp,48
ffffffc050202522:	51000537          	lui	a0,0x51000
ffffffc050202526:	e61ff0ef          	jal	ra,ffffffc050202386 <clear_pgdir>
ffffffc05020252a:	510007b7          	lui	a5,0x51000
ffffffc05020252e:	fcf43c23          	sd	a5,-40(s0)
ffffffc050202532:	c0500793          	li	a5,-1019
ffffffc050202536:	07f2                	slli	a5,a5,0x1c
ffffffc050202538:	fef43423          	sd	a5,-24(s0)
ffffffc05020253c:	a025                	j	ffffffc050202564 <setup_vm+0x4a>
ffffffc05020253e:	fe843503          	ld	a0,-24(s0)
ffffffc050202542:	d5dff0ef          	jal	ra,ffffffc05020229e <kva2pa>
ffffffc050202546:	87aa                	mv	a5,a0
ffffffc050202548:	fd843603          	ld	a2,-40(s0)
ffffffc05020254c:	85be                	mv	a1,a5
ffffffc05020254e:	fe843503          	ld	a0,-24(s0)
ffffffc050202552:	eb1ff0ef          	jal	ra,ffffffc050202402 <map_page>
ffffffc050202556:	fe843703          	ld	a4,-24(s0)
ffffffc05020255a:	002007b7          	lui	a5,0x200
ffffffc05020255e:	97ba                	add	a5,a5,a4
ffffffc050202560:	fef43423          	sd	a5,-24(s0)
ffffffc050202564:	fe843703          	ld	a4,-24(s0)
ffffffc050202568:	e0300793          	li	a5,-509
ffffffc05020256c:	07f6                	slli	a5,a5,0x1d
ffffffc05020256e:	fcf768e3          	bltu	a4,a5,ffffffc05020253e <setup_vm+0x24>
ffffffc050202572:	500007b7          	lui	a5,0x50000
ffffffc050202576:	fef43023          	sd	a5,-32(s0)
ffffffc05020257a:	a005                	j	ffffffc05020259a <setup_vm+0x80>
ffffffc05020257c:	fd843603          	ld	a2,-40(s0)
ffffffc050202580:	fe043583          	ld	a1,-32(s0)
ffffffc050202584:	fe043503          	ld	a0,-32(s0)
ffffffc050202588:	e7bff0ef          	jal	ra,ffffffc050202402 <map_page>
ffffffc05020258c:	fe043703          	ld	a4,-32(s0)
ffffffc050202590:	002007b7          	lui	a5,0x200
ffffffc050202594:	97ba                	add	a5,a5,a4
ffffffc050202596:	fef43023          	sd	a5,-32(s0)
ffffffc05020259a:	fe043703          	ld	a4,-32(s0)
ffffffc05020259e:	510007b7          	lui	a5,0x51000
ffffffc0502025a2:	fcf76de3          	bltu	a4,a5,ffffffc05020257c <setup_vm+0x62>
ffffffc0502025a6:	f53ff0ef          	jal	ra,ffffffc0502024f8 <enable_vm>
ffffffc0502025aa:	0001                	nop
ffffffc0502025ac:	70a2                	ld	ra,40(sp)
ffffffc0502025ae:	7402                	ld	s0,32(sp)
ffffffc0502025b0:	6145                	addi	sp,sp,48
ffffffc0502025b2:	8082                	ret

ffffffc0502025b4 <boot_kernel>:
ffffffc0502025b4:	1101                	addi	sp,sp,-32
ffffffc0502025b6:	ec06                	sd	ra,24(sp)
ffffffc0502025b8:	e822                	sd	s0,16(sp)
ffffffc0502025ba:	1000                	addi	s0,sp,32
ffffffc0502025bc:	fea43423          	sd	a0,-24(s0)
ffffffc0502025c0:	fe843783          	ld	a5,-24(s0)
ffffffc0502025c4:	e781                	bnez	a5,ffffffc0502025cc <boot_kernel+0x18>
ffffffc0502025c6:	f55ff0ef          	jal	ra,ffffffc05020251a <setup_vm>
ffffffc0502025ca:	a019                	j	ffffffc0502025d0 <boot_kernel+0x1c>
ffffffc0502025cc:	f2dff0ef          	jal	ra,ffffffc0502024f8 <enable_vm>
ffffffc0502025d0:	00000797          	auipc	a5,0x0
ffffffc0502025d4:	c1c78793          	addi	a5,a5,-996 # ffffffc0502021ec <_start>
ffffffc0502025d8:	853e                	mv	a0,a5
ffffffc0502025da:	cf1ff0ef          	jal	ra,ffffffc0502022ca <pa2kva>
ffffffc0502025de:	87aa                	mv	a5,a0
ffffffc0502025e0:	fe843503          	ld	a0,-24(s0)
ffffffc0502025e4:	9782                	jalr	a5
ffffffc0502025e6:	4781                	li	a5,0
ffffffc0502025e8:	853e                	mv	a0,a5
ffffffc0502025ea:	60e2                	ld	ra,24(sp)
ffffffc0502025ec:	6442                	ld	s0,16(sp)
ffffffc0502025ee:	6105                	addi	sp,sp,32
ffffffc0502025f0:	8082                	ret

ffffffc0502025f2 <Enqueue>:
ffffffc0502025f2:	7179                	addi	sp,sp,-48
ffffffc0502025f4:	f422                	sd	s0,40(sp)
ffffffc0502025f6:	1800                	addi	s0,sp,48
ffffffc0502025f8:	fca43c23          	sd	a0,-40(s0)
ffffffc0502025fc:	fcb43823          	sd	a1,-48(s0)
ffffffc050202600:	fd843783          	ld	a5,-40(s0)
ffffffc050202604:	679c                	ld	a5,8(a5)
ffffffc050202606:	fef43423          	sd	a5,-24(s0)
ffffffc05020260a:	fd843783          	ld	a5,-40(s0)
ffffffc05020260e:	639c                	ld	a5,0(a5)
ffffffc050202610:	fef43023          	sd	a5,-32(s0)
ffffffc050202614:	fe843703          	ld	a4,-24(s0)
ffffffc050202618:	fd843783          	ld	a5,-40(s0)
ffffffc05020261c:	02f71f63          	bne	a4,a5,ffffffc05020265a <Enqueue+0x68>
ffffffc050202620:	fe043703          	ld	a4,-32(s0)
ffffffc050202624:	fd843783          	ld	a5,-40(s0)
ffffffc050202628:	02f71963          	bne	a4,a5,ffffffc05020265a <Enqueue+0x68>
ffffffc05020262c:	fd843783          	ld	a5,-40(s0)
ffffffc050202630:	fd043703          	ld	a4,-48(s0)
ffffffc050202634:	e398                	sd	a4,0(a5)
ffffffc050202636:	fd843783          	ld	a5,-40(s0)
ffffffc05020263a:	6398                	ld	a4,0(a5)
ffffffc05020263c:	fd843783          	ld	a5,-40(s0)
ffffffc050202640:	e798                	sd	a4,8(a5)
ffffffc050202642:	fd043783          	ld	a5,-48(s0)
ffffffc050202646:	fd843703          	ld	a4,-40(s0)
ffffffc05020264a:	e398                	sd	a4,0(a5)
ffffffc05020264c:	fd043783          	ld	a5,-48(s0)
ffffffc050202650:	6398                	ld	a4,0(a5)
ffffffc050202652:	fd043783          	ld	a5,-48(s0)
ffffffc050202656:	e798                	sd	a4,8(a5)
ffffffc050202658:	a035                	j	ffffffc050202684 <Enqueue+0x92>
ffffffc05020265a:	fd843783          	ld	a5,-40(s0)
ffffffc05020265e:	fd043703          	ld	a4,-48(s0)
ffffffc050202662:	e798                	sd	a4,8(a5)
ffffffc050202664:	fd043783          	ld	a5,-48(s0)
ffffffc050202668:	fe843703          	ld	a4,-24(s0)
ffffffc05020266c:	e398                	sd	a4,0(a5)
ffffffc05020266e:	fd043783          	ld	a5,-48(s0)
ffffffc050202672:	fd843703          	ld	a4,-40(s0)
ffffffc050202676:	e798                	sd	a4,8(a5)
ffffffc050202678:	fe843783          	ld	a5,-24(s0)
ffffffc05020267c:	fd043703          	ld	a4,-48(s0)
ffffffc050202680:	e798                	sd	a4,8(a5)
ffffffc050202682:	0001                	nop
ffffffc050202684:	0001                	nop
ffffffc050202686:	7422                	ld	s0,40(sp)
ffffffc050202688:	6145                	addi	sp,sp,48
ffffffc05020268a:	8082                	ret

ffffffc05020268c <Print_queue>:
ffffffc05020268c:	7139                	addi	sp,sp,-64
ffffffc05020268e:	fc06                	sd	ra,56(sp)
ffffffc050202690:	f822                	sd	s0,48(sp)
ffffffc050202692:	0080                	addi	s0,sp,64
ffffffc050202694:	fca43423          	sd	a0,-56(s0)
ffffffc050202698:	fc843783          	ld	a5,-56(s0)
ffffffc05020269c:	679c                	ld	a5,8(a5)
ffffffc05020269e:	fef43023          	sd	a5,-32(s0)
ffffffc0502026a2:	fc843783          	ld	a5,-56(s0)
ffffffc0502026a6:	639c                	ld	a5,0(a5)
ffffffc0502026a8:	fcf43c23          	sd	a5,-40(s0)
ffffffc0502026ac:	fe043783          	ld	a5,-32(s0)
ffffffc0502026b0:	fef43423          	sd	a5,-24(s0)
ffffffc0502026b4:	fe043703          	ld	a4,-32(s0)
ffffffc0502026b8:	fc843783          	ld	a5,-56(s0)
ffffffc0502026bc:	00f71f63          	bne	a4,a5,ffffffc0502026da <Print_queue+0x4e>
ffffffc0502026c0:	fd843703          	ld	a4,-40(s0)
ffffffc0502026c4:	fc843783          	ld	a5,-56(s0)
ffffffc0502026c8:	00f71963          	bne	a4,a5,ffffffc0502026da <Print_queue+0x4e>
ffffffc0502026cc:	00009517          	auipc	a0,0x9
ffffffc0502026d0:	cf450513          	addi	a0,a0,-780 # ffffffc05020b3c0 <strcat+0x6c>
ffffffc0502026d4:	115080ef          	jal	ra,ffffffc05020afe8 <printl>
ffffffc0502026d8:	a081                	j	ffffffc050202718 <Print_queue+0x8c>
ffffffc0502026da:	00009517          	auipc	a0,0x9
ffffffc0502026de:	cf650513          	addi	a0,a0,-778 # ffffffc05020b3d0 <strcat+0x7c>
ffffffc0502026e2:	107080ef          	jal	ra,ffffffc05020afe8 <printl>
ffffffc0502026e6:	fe843583          	ld	a1,-24(s0)
ffffffc0502026ea:	00009517          	auipc	a0,0x9
ffffffc0502026ee:	cee50513          	addi	a0,a0,-786 # ffffffc05020b3d8 <strcat+0x84>
ffffffc0502026f2:	0f7080ef          	jal	ra,ffffffc05020afe8 <printl>
ffffffc0502026f6:	fe843783          	ld	a5,-24(s0)
ffffffc0502026fa:	639c                	ld	a5,0(a5)
ffffffc0502026fc:	fef43423          	sd	a5,-24(s0)
ffffffc050202700:	fe843703          	ld	a4,-24(s0)
ffffffc050202704:	fc843783          	ld	a5,-56(s0)
ffffffc050202708:	fcf71fe3          	bne	a4,a5,ffffffc0502026e6 <Print_queue+0x5a>
ffffffc05020270c:	00009517          	auipc	a0,0x9
ffffffc050202710:	cd450513          	addi	a0,a0,-812 # ffffffc05020b3e0 <strcat+0x8c>
ffffffc050202714:	0d5080ef          	jal	ra,ffffffc05020afe8 <printl>
ffffffc050202718:	70e2                	ld	ra,56(sp)
ffffffc05020271a:	7442                	ld	s0,48(sp)
ffffffc05020271c:	6121                	addi	sp,sp,64
ffffffc05020271e:	8082                	ret

ffffffc050202720 <pa2kva>:
ffffffc050202720:	7179                	addi	sp,sp,-48
ffffffc050202722:	f422                	sd	s0,40(sp)
ffffffc050202724:	1800                	addi	s0,sp,48
ffffffc050202726:	fca43c23          	sd	a0,-40(s0)
ffffffc05020272a:	57fd                	li	a5,-1
ffffffc05020272c:	179a                	slli	a5,a5,0x26
ffffffc05020272e:	fef43423          	sd	a5,-24(s0)
ffffffc050202732:	fd843703          	ld	a4,-40(s0)
ffffffc050202736:	fe843783          	ld	a5,-24(s0)
ffffffc05020273a:	8fd9                	or	a5,a5,a4
ffffffc05020273c:	fef43023          	sd	a5,-32(s0)
ffffffc050202740:	fe043783          	ld	a5,-32(s0)
ffffffc050202744:	853e                	mv	a0,a5
ffffffc050202746:	7422                	ld	s0,40(sp)
ffffffc050202748:	6145                	addi	sp,sp,48
ffffffc05020274a:	8082                	ret

ffffffc05020274c <call_jmptab>:
ffffffc05020274c:	7139                	addi	sp,sp,-64
ffffffc05020274e:	fc06                	sd	ra,56(sp)
ffffffc050202750:	f822                	sd	s0,48(sp)
ffffffc050202752:	0080                	addi	s0,sp,64
ffffffc050202754:	fca43c23          	sd	a0,-40(s0)
ffffffc050202758:	fcb43823          	sd	a1,-48(s0)
ffffffc05020275c:	fcc43423          	sd	a2,-56(s0)
ffffffc050202760:	fcd43023          	sd	a3,-64(s0)
ffffffc050202764:	fd843783          	ld	a5,-40(s0)
ffffffc050202768:	00379713          	slli	a4,a5,0x3
ffffffc05020276c:	fe0297b7          	lui	a5,0xfe029
ffffffc050202770:	07b6                	slli	a5,a5,0xd
ffffffc050202772:	f0078793          	addi	a5,a5,-256 # fffffffffe028f00 <__BSS_END__+0x3faddbf5d8>
ffffffc050202776:	97ba                	add	a5,a5,a4
ffffffc050202778:	639c                	ld	a5,0(a5)
ffffffc05020277a:	fef43423          	sd	a5,-24(s0)
ffffffc05020277e:	fe843783          	ld	a5,-24(s0)
ffffffc050202782:	fef43023          	sd	a5,-32(s0)
ffffffc050202786:	fe043783          	ld	a5,-32(s0)
ffffffc05020278a:	fc043603          	ld	a2,-64(s0)
ffffffc05020278e:	fc843583          	ld	a1,-56(s0)
ffffffc050202792:	fd043503          	ld	a0,-48(s0)
ffffffc050202796:	9782                	jalr	a5
ffffffc050202798:	87aa                	mv	a5,a0
ffffffc05020279a:	853e                	mv	a0,a5
ffffffc05020279c:	70e2                	ld	ra,56(sp)
ffffffc05020279e:	7442                	ld	s0,48(sp)
ffffffc0502027a0:	6121                	addi	sp,sp,64
ffffffc0502027a2:	8082                	ret

ffffffc0502027a4 <bios_getchar>:
ffffffc0502027a4:	1141                	addi	sp,sp,-16
ffffffc0502027a6:	e406                	sd	ra,8(sp)
ffffffc0502027a8:	e022                	sd	s0,0(sp)
ffffffc0502027aa:	0800                	addi	s0,sp,16
ffffffc0502027ac:	4681                	li	a3,0
ffffffc0502027ae:	4601                	li	a2,0
ffffffc0502027b0:	4581                	li	a1,0
ffffffc0502027b2:	4509                	li	a0,2
ffffffc0502027b4:	f99ff0ef          	jal	ra,ffffffc05020274c <call_jmptab>
ffffffc0502027b8:	87aa                	mv	a5,a0
ffffffc0502027ba:	2781                	sext.w	a5,a5
ffffffc0502027bc:	853e                	mv	a0,a5
ffffffc0502027be:	60a2                	ld	ra,8(sp)
ffffffc0502027c0:	6402                	ld	s0,0(sp)
ffffffc0502027c2:	0141                	addi	sp,sp,16
ffffffc0502027c4:	8082                	ret

ffffffc0502027c6 <bios_read_fdt>:
ffffffc0502027c6:	1101                	addi	sp,sp,-32
ffffffc0502027c8:	ec06                	sd	ra,24(sp)
ffffffc0502027ca:	e822                	sd	s0,16(sp)
ffffffc0502027cc:	1000                	addi	s0,sp,32
ffffffc0502027ce:	87aa                	mv	a5,a0
ffffffc0502027d0:	fef42623          	sw	a5,-20(s0)
ffffffc0502027d4:	fec46783          	lwu	a5,-20(s0)
ffffffc0502027d8:	4681                	li	a3,0
ffffffc0502027da:	4601                	li	a2,0
ffffffc0502027dc:	85be                	mv	a1,a5
ffffffc0502027de:	451d                	li	a0,7
ffffffc0502027e0:	f6dff0ef          	jal	ra,ffffffc05020274c <call_jmptab>
ffffffc0502027e4:	87aa                	mv	a5,a0
ffffffc0502027e6:	853e                	mv	a0,a5
ffffffc0502027e8:	60e2                	ld	ra,24(sp)
ffffffc0502027ea:	6442                	ld	s0,16(sp)
ffffffc0502027ec:	6105                	addi	sp,sp,32
ffffffc0502027ee:	8082                	ret

ffffffc0502027f0 <init_pid_valid>:
ffffffc0502027f0:	1101                	addi	sp,sp,-32
ffffffc0502027f2:	ec22                	sd	s0,24(sp)
ffffffc0502027f4:	1000                	addi	s0,sp,32
ffffffc0502027f6:	0005a797          	auipc	a5,0x5a
ffffffc0502027fa:	89a78793          	addi	a5,a5,-1894 # ffffffc05025c090 <pid_valid>
ffffffc0502027fe:	4705                	li	a4,1
ffffffc050202800:	c398                	sw	a4,0(a5)
ffffffc050202802:	4785                	li	a5,1
ffffffc050202804:	fef42623          	sw	a5,-20(s0)
ffffffc050202808:	a005                	j	ffffffc050202828 <init_pid_valid+0x38>
ffffffc05020280a:	0005a717          	auipc	a4,0x5a
ffffffc05020280e:	88670713          	addi	a4,a4,-1914 # ffffffc05025c090 <pid_valid>
ffffffc050202812:	fec42783          	lw	a5,-20(s0)
ffffffc050202816:	078a                	slli	a5,a5,0x2
ffffffc050202818:	97ba                	add	a5,a5,a4
ffffffc05020281a:	0007a023          	sw	zero,0(a5)
ffffffc05020281e:	fec42783          	lw	a5,-20(s0)
ffffffc050202822:	2785                	addiw	a5,a5,1
ffffffc050202824:	fef42623          	sw	a5,-20(s0)
ffffffc050202828:	fec42783          	lw	a5,-20(s0)
ffffffc05020282c:	0007871b          	sext.w	a4,a5
ffffffc050202830:	47fd                	li	a5,31
ffffffc050202832:	fce7dce3          	bge	a5,a4,ffffffc05020280a <init_pid_valid+0x1a>
ffffffc050202836:	0001                	nop
ffffffc050202838:	0001                	nop
ffffffc05020283a:	6462                	ld	s0,24(sp)
ffffffc05020283c:	6105                	addi	sp,sp,32
ffffffc05020283e:	8082                	ret

ffffffc050202840 <init_jmptab>:
ffffffc050202840:	1101                	addi	sp,sp,-32
ffffffc050202842:	ec22                	sd	s0,24(sp)
ffffffc050202844:	1000                	addi	s0,sp,32
ffffffc050202846:	fe0297b7          	lui	a5,0xfe029
ffffffc05020284a:	07b6                	slli	a5,a5,0xd
ffffffc05020284c:	f0078793          	addi	a5,a5,-256 # fffffffffe028f00 <__BSS_END__+0x3faddbf5d8>
ffffffc050202850:	fef43423          	sd	a5,-24(s0)
ffffffc050202854:	fe843783          	ld	a5,-24(s0)
ffffffc050202858:	00001717          	auipc	a4,0x1
ffffffc05020285c:	bee70713          	addi	a4,a4,-1042 # ffffffc050203446 <port_write>
ffffffc050202860:	e398                	sd	a4,0(a5)
ffffffc050202862:	fe843783          	ld	a5,-24(s0)
ffffffc050202866:	07a1                	addi	a5,a5,8
ffffffc050202868:	00001717          	auipc	a4,0x1
ffffffc05020286c:	bb470713          	addi	a4,a4,-1100 # ffffffc05020341c <port_write_ch>
ffffffc050202870:	e398                	sd	a4,0(a5)
ffffffc050202872:	fe843783          	ld	a5,-24(s0)
ffffffc050202876:	07c1                	addi	a5,a5,16
ffffffc050202878:	00001717          	auipc	a4,0x1
ffffffc05020287c:	bf670713          	addi	a4,a4,-1034 # ffffffc05020346e <port_read_ch>
ffffffc050202880:	e398                	sd	a4,0(a5)
ffffffc050202882:	fe843783          	ld	a5,-24(s0)
ffffffc050202886:	07e1                	addi	a5,a5,24
ffffffc050202888:	00001717          	auipc	a4,0x1
ffffffc05020288c:	c4e70713          	addi	a4,a4,-946 # ffffffc0502034d6 <sd_read>
ffffffc050202890:	e398                	sd	a4,0(a5)
ffffffc050202892:	fe843783          	ld	a5,-24(s0)
ffffffc050202896:	02078793          	addi	a5,a5,32
ffffffc05020289a:	00001717          	auipc	a4,0x1
ffffffc05020289e:	bfa70713          	addi	a4,a4,-1030 # ffffffc050203494 <sd_write>
ffffffc0502028a2:	e398                	sd	a4,0(a5)
ffffffc0502028a4:	fe843783          	ld	a5,-24(s0)
ffffffc0502028a8:	02878793          	addi	a5,a5,40
ffffffc0502028ac:	00001717          	auipc	a4,0x1
ffffffc0502028b0:	cc070713          	addi	a4,a4,-832 # ffffffc05020356c <qemu_logging>
ffffffc0502028b4:	e398                	sd	a4,0(a5)
ffffffc0502028b6:	fe843783          	ld	a5,-24(s0)
ffffffc0502028ba:	03078793          	addi	a5,a5,48
ffffffc0502028be:	00001717          	auipc	a4,0x1
ffffffc0502028c2:	c5a70713          	addi	a4,a4,-934 # ffffffc050203518 <set_timer>
ffffffc0502028c6:	e398                	sd	a4,0(a5)
ffffffc0502028c8:	fe843783          	ld	a5,-24(s0)
ffffffc0502028cc:	03878793          	addi	a5,a5,56
ffffffc0502028d0:	00001717          	auipc	a4,0x1
ffffffc0502028d4:	c7070713          	addi	a4,a4,-912 # ffffffc050203540 <read_fdt>
ffffffc0502028d8:	e398                	sd	a4,0(a5)
ffffffc0502028da:	fe843783          	ld	a5,-24(s0)
ffffffc0502028de:	04078793          	addi	a5,a5,64
ffffffc0502028e2:	00001717          	auipc	a4,0x1
ffffffc0502028e6:	02e70713          	addi	a4,a4,46 # ffffffc050203910 <screen_move_cursor>
ffffffc0502028ea:	e398                	sd	a4,0(a5)
ffffffc0502028ec:	fe843783          	ld	a5,-24(s0)
ffffffc0502028f0:	04878793          	addi	a5,a5,72
ffffffc0502028f4:	00008717          	auipc	a4,0x8
ffffffc0502028f8:	5e470713          	addi	a4,a4,1508 # ffffffc05020aed8 <printk>
ffffffc0502028fc:	e398                	sd	a4,0(a5)
ffffffc0502028fe:	fe843783          	ld	a5,-24(s0)
ffffffc050202902:	05078793          	addi	a5,a5,80
ffffffc050202906:	00007717          	auipc	a4,0x7
ffffffc05020290a:	87470713          	addi	a4,a4,-1932 # ffffffc05020917a <do_scheduler>
ffffffc05020290e:	e398                	sd	a4,0(a5)
ffffffc050202910:	fe843783          	ld	a5,-24(s0)
ffffffc050202914:	05878793          	addi	a5,a5,88
ffffffc050202918:	00005717          	auipc	a4,0x5
ffffffc05020291c:	d9c70713          	addi	a4,a4,-612 # ffffffc0502076b4 <do_mutex_lock_init>
ffffffc050202920:	e398                	sd	a4,0(a5)
ffffffc050202922:	fe843783          	ld	a5,-24(s0)
ffffffc050202926:	06078793          	addi	a5,a5,96
ffffffc05020292a:	00005717          	auipc	a4,0x5
ffffffc05020292e:	e3270713          	addi	a4,a4,-462 # ffffffc05020775c <do_mutex_lock_acquire>
ffffffc050202932:	e398                	sd	a4,0(a5)
ffffffc050202934:	fe843783          	ld	a5,-24(s0)
ffffffc050202938:	06878793          	addi	a5,a5,104
ffffffc05020293c:	00005717          	auipc	a4,0x5
ffffffc050202940:	ef670713          	addi	a4,a4,-266 # ffffffc050207832 <do_mutex_lock_release>
ffffffc050202944:	e398                	sd	a4,0(a5)
ffffffc050202946:	0001                	nop
ffffffc050202948:	6462                	ld	s0,24(sp)
ffffffc05020294a:	6105                	addi	sp,sp,32
ffffffc05020294c:	8082                	ret

ffffffc05020294e <get_loc_and_num>:
ffffffc05020294e:	7139                	addi	sp,sp,-64
ffffffc050202950:	fc06                	sd	ra,56(sp)
ffffffc050202952:	f822                	sd	s0,48(sp)
ffffffc050202954:	0080                	addi	s0,sp,64
ffffffc050202956:	fca43423          	sd	a0,-56(s0)
ffffffc05020295a:	fcb43023          	sd	a1,-64(s0)
ffffffc05020295e:	e02817b7          	lui	a5,0xe0281
ffffffc050202962:	07a6                	slli	a5,a5,0x9
ffffffc050202964:	1fa78793          	addi	a5,a5,506 # ffffffffe02811fa <__BSS_END__+0x3f900178d2>
ffffffc050202968:	fef43423          	sd	a5,-24(s0)
ffffffc05020296c:	fe843783          	ld	a5,-24(s0)
ffffffc050202970:	fef43023          	sd	a5,-32(s0)
ffffffc050202974:	4609                	li	a2,2
ffffffc050202976:	fe043583          	ld	a1,-32(s0)
ffffffc05020297a:	fc843503          	ld	a0,-56(s0)
ffffffc05020297e:	6c2080ef          	jal	ra,ffffffc05020b040 <memcpy>
ffffffc050202982:	e02817b7          	lui	a5,0xe0281
ffffffc050202986:	07a6                	slli	a5,a5,0x9
ffffffc050202988:	1f478793          	addi	a5,a5,500 # ffffffffe02811f4 <__BSS_END__+0x3f900178cc>
ffffffc05020298c:	fcf43c23          	sd	a5,-40(s0)
ffffffc050202990:	fd843783          	ld	a5,-40(s0)
ffffffc050202994:	fcf43823          	sd	a5,-48(s0)
ffffffc050202998:	4609                	li	a2,2
ffffffc05020299a:	fd043583          	ld	a1,-48(s0)
ffffffc05020299e:	fc043503          	ld	a0,-64(s0)
ffffffc0502029a2:	69e080ef          	jal	ra,ffffffc05020b040 <memcpy>
ffffffc0502029a6:	0001                	nop
ffffffc0502029a8:	70e2                	ld	ra,56(sp)
ffffffc0502029aa:	7442                	ld	s0,48(sp)
ffffffc0502029ac:	6121                	addi	sp,sp,64
ffffffc0502029ae:	8082                	ret

ffffffc0502029b0 <init_task_info>:
ffffffc0502029b0:	7179                	addi	sp,sp,-48
ffffffc0502029b2:	f406                	sd	ra,40(sp)
ffffffc0502029b4:	f022                	sd	s0,32(sp)
ffffffc0502029b6:	1800                	addi	s0,sp,48
ffffffc0502029b8:	87aa                	mv	a5,a0
ffffffc0502029ba:	872e                	mv	a4,a1
ffffffc0502029bc:	fcf41f23          	sh	a5,-34(s0)
ffffffc0502029c0:	87ba                	mv	a5,a4
ffffffc0502029c2:	fcf41e23          	sh	a5,-36(s0)
ffffffc0502029c6:	fde41703          	lh	a4,-34(s0)
ffffffc0502029ca:	ff0157b7          	lui	a5,0xff015
ffffffc0502029ce:	07ba                	slli	a5,a5,0xe
ffffffc0502029d0:	97ba                	add	a5,a5,a4
ffffffc0502029d2:	fef43423          	sd	a5,-24(s0)
ffffffc0502029d6:	fe843783          	ld	a5,-24(s0)
ffffffc0502029da:	fef43023          	sd	a5,-32(s0)
ffffffc0502029de:	fdc41783          	lh	a5,-36(s0)
ffffffc0502029e2:	2781                	sext.w	a5,a5
ffffffc0502029e4:	873e                	mv	a4,a5
ffffffc0502029e6:	87ba                	mv	a5,a4
ffffffc0502029e8:	0037979b          	slliw	a5,a5,0x3
ffffffc0502029ec:	9fb9                	addw	a5,a5,a4
ffffffc0502029ee:	0027979b          	slliw	a5,a5,0x2
ffffffc0502029f2:	2781                	sext.w	a5,a5
ffffffc0502029f4:	863e                	mv	a2,a5
ffffffc0502029f6:	fe043583          	ld	a1,-32(s0)
ffffffc0502029fa:	0004c517          	auipc	a0,0x4c
ffffffc0502029fe:	7ce50513          	addi	a0,a0,1998 # ffffffc05024f1c8 <tasks>
ffffffc050202a02:	63e080ef          	jal	ra,ffffffc05020b040 <memcpy>
ffffffc050202a06:	0001                	nop
ffffffc050202a08:	70a2                	ld	ra,40(sp)
ffffffc050202a0a:	7402                	ld	s0,32(sp)
ffffffc050202a0c:	6145                	addi	sp,sp,48
ffffffc050202a0e:	8082                	ret

ffffffc050202a10 <init_pcb_stack>:
ffffffc050202a10:	7139                	addi	sp,sp,-64
ffffffc050202a12:	fc06                	sd	ra,56(sp)
ffffffc050202a14:	f822                	sd	s0,48(sp)
ffffffc050202a16:	0080                	addi	s0,sp,64
ffffffc050202a18:	fca43c23          	sd	a0,-40(s0)
ffffffc050202a1c:	fcb43823          	sd	a1,-48(s0)
ffffffc050202a20:	fcc43423          	sd	a2,-56(s0)
ffffffc050202a24:	fcd43023          	sd	a3,-64(s0)
ffffffc050202a28:	fd843783          	ld	a5,-40(s0)
ffffffc050202a2c:	ee078793          	addi	a5,a5,-288 # ffffffffff014ee0 <__BSS_END__+0x3faedab5b8>
ffffffc050202a30:	fef43423          	sd	a5,-24(s0)
ffffffc050202a34:	fe843583          	ld	a1,-24(s0)
ffffffc050202a38:	00009517          	auipc	a0,0x9
ffffffc050202a3c:	9b050513          	addi	a0,a0,-1616 # ffffffc05020b3e8 <strcat+0x94>
ffffffc050202a40:	5a8080ef          	jal	ra,ffffffc05020afe8 <printl>
ffffffc050202a44:	fc043783          	ld	a5,-64(s0)
ffffffc050202a48:	fd043703          	ld	a4,-48(s0)
ffffffc050202a4c:	e798                	sd	a4,8(a5)
ffffffc050202a4e:	fffff717          	auipc	a4,0xfffff
ffffffc050202a52:	68e70713          	addi	a4,a4,1678 # ffffffc0502020dc <ret_from_exception>
ffffffc050202a56:	fe843783          	ld	a5,-24(s0)
ffffffc050202a5a:	e798                	sd	a4,8(a5)
ffffffc050202a5c:	fe843783          	ld	a5,-24(s0)
ffffffc050202a60:	fd043703          	ld	a4,-48(s0)
ffffffc050202a64:	eb98                	sd	a4,16(a5)
ffffffc050202a66:	fc043703          	ld	a4,-64(s0)
ffffffc050202a6a:	fe843783          	ld	a5,-24(s0)
ffffffc050202a6e:	f398                	sd	a4,32(a5)
ffffffc050202a70:	fe843783          	ld	a5,-24(s0)
ffffffc050202a74:	fc843703          	ld	a4,-56(s0)
ffffffc050202a78:	10e7b423          	sd	a4,264(a5)
ffffffc050202a7c:	fe843783          	ld	a5,-24(s0)
ffffffc050202a80:	00040737          	lui	a4,0x40
ffffffc050202a84:	02070713          	addi	a4,a4,32 # 40020 <boot_stack_top_base-0x501c1fe0>
ffffffc050202a88:	10e7b023          	sd	a4,256(a5)
ffffffc050202a8c:	fe843783          	ld	a5,-24(s0)
ffffffc050202a90:	f9078793          	addi	a5,a5,-112
ffffffc050202a94:	fef43023          	sd	a5,-32(s0)
ffffffc050202a98:	fd843783          	ld	a5,-40(s0)
ffffffc050202a9c:	e7078713          	addi	a4,a5,-400
ffffffc050202aa0:	fc043783          	ld	a5,-64(s0)
ffffffc050202aa4:	e398                	sd	a4,0(a5)
ffffffc050202aa6:	fe043583          	ld	a1,-32(s0)
ffffffc050202aaa:	00009517          	auipc	a0,0x9
ffffffc050202aae:	95650513          	addi	a0,a0,-1706 # ffffffc05020b400 <strcat+0xac>
ffffffc050202ab2:	536080ef          	jal	ra,ffffffc05020afe8 <printl>
ffffffc050202ab6:	fffff717          	auipc	a4,0xfffff
ffffffc050202aba:	62670713          	addi	a4,a4,1574 # ffffffc0502020dc <ret_from_exception>
ffffffc050202abe:	fe043783          	ld	a5,-32(s0)
ffffffc050202ac2:	e398                	sd	a4,0(a5)
ffffffc050202ac4:	fe043783          	ld	a5,-32(s0)
ffffffc050202ac8:	639c                	ld	a5,0(a5)
ffffffc050202aca:	85be                	mv	a1,a5
ffffffc050202acc:	00009517          	auipc	a0,0x9
ffffffc050202ad0:	94c50513          	addi	a0,a0,-1716 # ffffffc05020b418 <strcat+0xc4>
ffffffc050202ad4:	514080ef          	jal	ra,ffffffc05020afe8 <printl>
ffffffc050202ad8:	fc843583          	ld	a1,-56(s0)
ffffffc050202adc:	00009517          	auipc	a0,0x9
ffffffc050202ae0:	95c50513          	addi	a0,a0,-1700 # ffffffc05020b438 <strcat+0xe4>
ffffffc050202ae4:	504080ef          	jal	ra,ffffffc05020afe8 <printl>
ffffffc050202ae8:	fc043783          	ld	a5,-64(s0)
ffffffc050202aec:	6398                	ld	a4,0(a5)
ffffffc050202aee:	fe043783          	ld	a5,-32(s0)
ffffffc050202af2:	e798                	sd	a4,8(a5)
ffffffc050202af4:	fe043783          	ld	a5,-32(s0)
ffffffc050202af8:	679c                	ld	a5,8(a5)
ffffffc050202afa:	85be                	mv	a1,a5
ffffffc050202afc:	00009517          	auipc	a0,0x9
ffffffc050202b00:	95c50513          	addi	a0,a0,-1700 # ffffffc05020b458 <strcat+0x104>
ffffffc050202b04:	4e4080ef          	jal	ra,ffffffc05020afe8 <printl>
ffffffc050202b08:	0001                	nop
ffffffc050202b0a:	70e2                	ld	ra,56(sp)
ffffffc050202b0c:	7442                	ld	s0,48(sp)
ffffffc050202b0e:	6121                	addi	sp,sp,64
ffffffc050202b10:	8082                	ret

ffffffc050202b12 <init_pcb>:
ffffffc050202b12:	711d                	addi	sp,sp,-96
ffffffc050202b14:	ec86                	sd	ra,88(sp)
ffffffc050202b16:	e8a2                	sd	s0,80(sp)
ffffffc050202b18:	e4a6                	sd	s1,72(sp)
ffffffc050202b1a:	1080                	addi	s0,sp,96
ffffffc050202b1c:	87aa                	mv	a5,a0
ffffffc050202b1e:	fab43023          	sd	a1,-96(s0)
ffffffc050202b22:	8732                	mv	a4,a2
ffffffc050202b24:	faf41723          	sh	a5,-82(s0)
ffffffc050202b28:	87ba                	mv	a5,a4
ffffffc050202b2a:	faf42423          	sw	a5,-88(s0)
ffffffc050202b2e:	fc042e23          	sw	zero,-36(s0)
ffffffc050202b32:	a101                	j	ffffffc050202f32 <init_pcb+0x420>
ffffffc050202b34:	fdc42703          	lw	a4,-36(s0)
ffffffc050202b38:	87ba                	mv	a5,a4
ffffffc050202b3a:	078e                	slli	a5,a5,0x3
ffffffc050202b3c:	97ba                	add	a5,a5,a4
ffffffc050202b3e:	078a                	slli	a5,a5,0x2
ffffffc050202b40:	01078713          	addi	a4,a5,16
ffffffc050202b44:	0004c797          	auipc	a5,0x4c
ffffffc050202b48:	68478793          	addi	a5,a5,1668 # ffffffc05024f1c8 <tasks>
ffffffc050202b4c:	97ba                	add	a5,a5,a4
ffffffc050202b4e:	85be                	mv	a1,a5
ffffffc050202b50:	00009517          	auipc	a0,0x9
ffffffc050202b54:	92850513          	addi	a0,a0,-1752 # ffffffc05020b478 <strcat+0x124>
ffffffc050202b58:	490080ef          	jal	ra,ffffffc05020afe8 <printl>
ffffffc050202b5c:	fdc42703          	lw	a4,-36(s0)
ffffffc050202b60:	87ba                	mv	a5,a4
ffffffc050202b62:	078e                	slli	a5,a5,0x3
ffffffc050202b64:	97ba                	add	a5,a5,a4
ffffffc050202b66:	078a                	slli	a5,a5,0x2
ffffffc050202b68:	01078713          	addi	a4,a5,16
ffffffc050202b6c:	0004c797          	auipc	a5,0x4c
ffffffc050202b70:	65c78793          	addi	a5,a5,1628 # ffffffc05024f1c8 <tasks>
ffffffc050202b74:	97ba                	add	a5,a5,a4
ffffffc050202b76:	fa043583          	ld	a1,-96(s0)
ffffffc050202b7a:	853e                	mv	a0,a5
ffffffc050202b7c:	5ca080ef          	jal	ra,ffffffc05020b146 <strcmp>
ffffffc050202b80:	87aa                	mv	a5,a0
ffffffc050202b82:	3a079363          	bnez	a5,ffffffc050202f28 <init_pcb+0x416>
ffffffc050202b86:	00059717          	auipc	a4,0x59
ffffffc050202b8a:	5a270713          	addi	a4,a4,1442 # ffffffc05025c128 <pcb>
ffffffc050202b8e:	fdc42683          	lw	a3,-36(s0)
ffffffc050202b92:	6b000793          	li	a5,1712
ffffffc050202b96:	02f687b3          	mul	a5,a3,a5
ffffffc050202b9a:	97ba                	add	a5,a5,a4
ffffffc050202b9c:	0807ac23          	sw	zero,152(a5)
ffffffc050202ba0:	fc042c23          	sw	zero,-40(s0)
ffffffc050202ba4:	a805                	j	ffffffc050202bd4 <init_pcb+0xc2>
ffffffc050202ba6:	00059717          	auipc	a4,0x59
ffffffc050202baa:	58270713          	addi	a4,a4,1410 # ffffffc05025c128 <pcb>
ffffffc050202bae:	fd842783          	lw	a5,-40(s0)
ffffffc050202bb2:	fdc42603          	lw	a2,-36(s0)
ffffffc050202bb6:	0d600693          	li	a3,214
ffffffc050202bba:	02d606b3          	mul	a3,a2,a3
ffffffc050202bbe:	97b6                	add	a5,a5,a3
ffffffc050202bc0:	07d1                	addi	a5,a5,20
ffffffc050202bc2:	078e                	slli	a5,a5,0x3
ffffffc050202bc4:	97ba                	add	a5,a5,a4
ffffffc050202bc6:	0007b023          	sd	zero,0(a5)
ffffffc050202bca:	fd842783          	lw	a5,-40(s0)
ffffffc050202bce:	2785                	addiw	a5,a5,1
ffffffc050202bd0:	fcf42c23          	sw	a5,-40(s0)
ffffffc050202bd4:	fd842783          	lw	a5,-40(s0)
ffffffc050202bd8:	0007871b          	sext.w	a4,a5
ffffffc050202bdc:	07f00793          	li	a5,127
ffffffc050202be0:	fce7d3e3          	bge	a5,a4,ffffffc050202ba6 <init_pcb+0x94>
ffffffc050202be4:	fdc42703          	lw	a4,-36(s0)
ffffffc050202be8:	6b000793          	li	a5,1712
ffffffc050202bec:	02f70733          	mul	a4,a4,a5
ffffffc050202bf0:	00059797          	auipc	a5,0x59
ffffffc050202bf4:	53878793          	addi	a5,a5,1336 # ffffffc05025c128 <pcb>
ffffffc050202bf8:	97ba                	add	a5,a5,a4
ffffffc050202bfa:	85be                	mv	a1,a5
ffffffc050202bfc:	4505                	li	a0,1
ffffffc050202bfe:	6bf020ef          	jal	ra,ffffffc050205abc <allocPgdir>
ffffffc050202c02:	862a                	mv	a2,a0
ffffffc050202c04:	00059717          	auipc	a4,0x59
ffffffc050202c08:	52470713          	addi	a4,a4,1316 # ffffffc05025c128 <pcb>
ffffffc050202c0c:	fdc42683          	lw	a3,-36(s0)
ffffffc050202c10:	6b000793          	li	a5,1712
ffffffc050202c14:	02f687b3          	mul	a5,a3,a5
ffffffc050202c18:	97ba                	add	a5,a5,a4
ffffffc050202c1a:	ebd0                	sd	a2,144(a5)
ffffffc050202c1c:	00059717          	auipc	a4,0x59
ffffffc050202c20:	50c70713          	addi	a4,a4,1292 # ffffffc05025c128 <pcb>
ffffffc050202c24:	fdc42683          	lw	a3,-36(s0)
ffffffc050202c28:	6b000793          	li	a5,1712
ffffffc050202c2c:	02f687b3          	mul	a5,a3,a5
ffffffc050202c30:	97ba                	add	a5,a5,a4
ffffffc050202c32:	6bc4                	ld	s1,144(a5)
ffffffc050202c34:	51000537          	lui	a0,0x51000
ffffffc050202c38:	ae9ff0ef          	jal	ra,ffffffc050202720 <pa2kva>
ffffffc050202c3c:	87aa                	mv	a5,a0
ffffffc050202c3e:	85be                	mv	a1,a5
ffffffc050202c40:	8526                	mv	a0,s1
ffffffc050202c42:	4f8030ef          	jal	ra,ffffffc05020613a <share_pgtable>
ffffffc050202c46:	fdc42703          	lw	a4,-36(s0)
ffffffc050202c4a:	6b000793          	li	a5,1712
ffffffc050202c4e:	02f70733          	mul	a4,a4,a5
ffffffc050202c52:	00059797          	auipc	a5,0x59
ffffffc050202c56:	4d678793          	addi	a5,a5,1238 # ffffffc05025c128 <pcb>
ffffffc050202c5a:	97ba                	add	a5,a5,a4
ffffffc050202c5c:	85be                	mv	a1,a5
ffffffc050202c5e:	4505                	li	a0,1
ffffffc050202c60:	735020ef          	jal	ra,ffffffc050205b94 <allocKernPage>
ffffffc050202c64:	862a                	mv	a2,a0
ffffffc050202c66:	00059717          	auipc	a4,0x59
ffffffc050202c6a:	4c270713          	addi	a4,a4,1218 # ffffffc05025c128 <pcb>
ffffffc050202c6e:	fdc42683          	lw	a3,-36(s0)
ffffffc050202c72:	6b000793          	li	a5,1712
ffffffc050202c76:	02f687b3          	mul	a5,a3,a5
ffffffc050202c7a:	97ba                	add	a5,a5,a4
ffffffc050202c7c:	ebb0                	sd	a2,80(a5)
ffffffc050202c7e:	00059717          	auipc	a4,0x59
ffffffc050202c82:	4aa70713          	addi	a4,a4,1194 # ffffffc05025c128 <pcb>
ffffffc050202c86:	fdc42683          	lw	a3,-36(s0)
ffffffc050202c8a:	6b000793          	li	a5,1712
ffffffc050202c8e:	02f687b3          	mul	a5,a3,a5
ffffffc050202c92:	97ba                	add	a5,a5,a4
ffffffc050202c94:	6bb8                	ld	a4,80(a5)
ffffffc050202c96:	6785                	lui	a5,0x1
ffffffc050202c98:	97ba                	add	a5,a5,a4
ffffffc050202c9a:	fcf43423          	sd	a5,-56(s0)
ffffffc050202c9e:	00059717          	auipc	a4,0x59
ffffffc050202ca2:	48a70713          	addi	a4,a4,1162 # ffffffc05025c128 <pcb>
ffffffc050202ca6:	fdc42683          	lw	a3,-36(s0)
ffffffc050202caa:	6b000793          	li	a5,1712
ffffffc050202cae:	02f687b3          	mul	a5,a3,a5
ffffffc050202cb2:	97ba                	add	a5,a5,a4
ffffffc050202cb4:	000f0737          	lui	a4,0xf0
ffffffc050202cb8:	0705                	addi	a4,a4,1
ffffffc050202cba:	0742                	slli	a4,a4,0x10
ffffffc050202cbc:	efb8                	sd	a4,88(a5)
ffffffc050202cbe:	00059717          	auipc	a4,0x59
ffffffc050202cc2:	46a70713          	addi	a4,a4,1130 # ffffffc05025c128 <pcb>
ffffffc050202cc6:	fdc42683          	lw	a3,-36(s0)
ffffffc050202cca:	6b000793          	li	a5,1712
ffffffc050202cce:	02f687b3          	mul	a5,a3,a5
ffffffc050202cd2:	97ba                	add	a5,a5,a4
ffffffc050202cd4:	6fb8                	ld	a4,88(a5)
ffffffc050202cd6:	6785                	lui	a5,0x1
ffffffc050202cd8:	97ba                	add	a5,a5,a4
ffffffc050202cda:	fcf43023          	sd	a5,-64(s0)
ffffffc050202cde:	00008517          	auipc	a0,0x8
ffffffc050202ce2:	7b250513          	addi	a0,a0,1970 # ffffffc05020b490 <strcat+0x13c>
ffffffc050202ce6:	302080ef          	jal	ra,ffffffc05020afe8 <printl>
ffffffc050202cea:	00059717          	auipc	a4,0x59
ffffffc050202cee:	43e70713          	addi	a4,a4,1086 # ffffffc05025c128 <pcb>
ffffffc050202cf2:	fdc42683          	lw	a3,-36(s0)
ffffffc050202cf6:	6b000793          	li	a5,1712
ffffffc050202cfa:	02f687b3          	mul	a5,a3,a5
ffffffc050202cfe:	97ba                	add	a5,a5,a4
ffffffc050202d00:	6bcc                	ld	a1,144(a5)
ffffffc050202d02:	fdc42703          	lw	a4,-36(s0)
ffffffc050202d06:	6b000793          	li	a5,1712
ffffffc050202d0a:	02f70733          	mul	a4,a4,a5
ffffffc050202d0e:	00059797          	auipc	a5,0x59
ffffffc050202d12:	41a78793          	addi	a5,a5,1050 # ffffffc05025c128 <pcb>
ffffffc050202d16:	97ba                	add	a5,a5,a4
ffffffc050202d18:	4685                	li	a3,1
ffffffc050202d1a:	863e                	mv	a2,a5
ffffffc050202d1c:	000f07b7          	lui	a5,0xf0
ffffffc050202d20:	0785                	addi	a5,a5,1
ffffffc050202d22:	01079513          	slli	a0,a5,0x10
ffffffc050202d26:	440030ef          	jal	ra,ffffffc050206166 <alloc_page_helper>
ffffffc050202d2a:	faa43c23          	sd	a0,-72(s0)
ffffffc050202d2e:	00059717          	auipc	a4,0x59
ffffffc050202d32:	3fa70713          	addi	a4,a4,1018 # ffffffc05025c128 <pcb>
ffffffc050202d36:	fdc42683          	lw	a3,-36(s0)
ffffffc050202d3a:	6b000793          	li	a5,1712
ffffffc050202d3e:	02f687b3          	mul	a5,a3,a5
ffffffc050202d42:	97ba                	add	a5,a5,a4
ffffffc050202d44:	6bd4                	ld	a3,144(a5)
ffffffc050202d46:	fdc42703          	lw	a4,-36(s0)
ffffffc050202d4a:	6b000793          	li	a5,1712
ffffffc050202d4e:	02f70733          	mul	a4,a4,a5
ffffffc050202d52:	00059797          	auipc	a5,0x59
ffffffc050202d56:	3d678793          	addi	a5,a5,982 # ffffffc05025c128 <pcb>
ffffffc050202d5a:	973e                	add	a4,a4,a5
ffffffc050202d5c:	fdc42783          	lw	a5,-36(s0)
ffffffc050202d60:	863a                	mv	a2,a4
ffffffc050202d62:	85b6                	mv	a1,a3
ffffffc050202d64:	853e                	mv	a0,a5
ffffffc050202d66:	400020ef          	jal	ra,ffffffc050205166 <load_task_img>
ffffffc050202d6a:	faa43823          	sd	a0,-80(s0)
ffffffc050202d6e:	fdc42703          	lw	a4,-36(s0)
ffffffc050202d72:	6b000793          	li	a5,1712
ffffffc050202d76:	02f707b3          	mul	a5,a4,a5
ffffffc050202d7a:	6a078713          	addi	a4,a5,1696
ffffffc050202d7e:	00059797          	auipc	a5,0x59
ffffffc050202d82:	3aa78793          	addi	a5,a5,938 # ffffffc05025c128 <pcb>
ffffffc050202d86:	00f706b3          	add	a3,a4,a5
ffffffc050202d8a:	fdc42703          	lw	a4,-36(s0)
ffffffc050202d8e:	87ba                	mv	a5,a4
ffffffc050202d90:	078e                	slli	a5,a5,0x3
ffffffc050202d92:	97ba                	add	a5,a5,a4
ffffffc050202d94:	078a                	slli	a5,a5,0x2
ffffffc050202d96:	01078713          	addi	a4,a5,16
ffffffc050202d9a:	0004c797          	auipc	a5,0x4c
ffffffc050202d9e:	42e78793          	addi	a5,a5,1070 # ffffffc05024f1c8 <tasks>
ffffffc050202da2:	97ba                	add	a5,a5,a4
ffffffc050202da4:	85be                	mv	a1,a5
ffffffc050202da6:	8536                	mv	a0,a3
ffffffc050202da8:	4d0080ef          	jal	ra,ffffffc05020b278 <strcpy>
ffffffc050202dac:	fdc42703          	lw	a4,-36(s0)
ffffffc050202db0:	6b000793          	li	a5,1712
ffffffc050202db4:	02f70733          	mul	a4,a4,a5
ffffffc050202db8:	00059797          	auipc	a5,0x59
ffffffc050202dbc:	37078793          	addi	a5,a5,880 # ffffffc05025c128 <pcb>
ffffffc050202dc0:	97ba                	add	a5,a5,a4
ffffffc050202dc2:	86be                	mv	a3,a5
ffffffc050202dc4:	fb043603          	ld	a2,-80(s0)
ffffffc050202dc8:	fc043583          	ld	a1,-64(s0)
ffffffc050202dcc:	fc843503          	ld	a0,-56(s0)
ffffffc050202dd0:	c41ff0ef          	jal	ra,ffffffc050202a10 <init_pcb_stack>
ffffffc050202dd4:	00059717          	auipc	a4,0x59
ffffffc050202dd8:	35470713          	addi	a4,a4,852 # ffffffc05025c128 <pcb>
ffffffc050202ddc:	fdc42683          	lw	a3,-36(s0)
ffffffc050202de0:	6b000793          	li	a5,1712
ffffffc050202de4:	02f687b3          	mul	a5,a3,a5
ffffffc050202de8:	97ba                	add	a5,a5,a4
ffffffc050202dea:	fa842703          	lw	a4,-88(s0)
ffffffc050202dee:	db98                	sw	a4,48(a5)
ffffffc050202df0:	00059717          	auipc	a4,0x59
ffffffc050202df4:	33870713          	addi	a4,a4,824 # ffffffc05025c128 <pcb>
ffffffc050202df8:	fdc42683          	lw	a3,-36(s0)
ffffffc050202dfc:	6b000793          	li	a5,1712
ffffffc050202e00:	02f687b3          	mul	a5,a3,a5
ffffffc050202e04:	97ba                	add	a5,a5,a4
ffffffc050202e06:	4705                	li	a4,1
ffffffc050202e08:	dbd8                	sw	a4,52(a5)
ffffffc050202e0a:	fc042a23          	sw	zero,-44(s0)
ffffffc050202e0e:	a805                	j	ffffffc050202e3e <init_pcb+0x32c>
ffffffc050202e10:	00059717          	auipc	a4,0x59
ffffffc050202e14:	31870713          	addi	a4,a4,792 # ffffffc05025c128 <pcb>
ffffffc050202e18:	fd442783          	lw	a5,-44(s0)
ffffffc050202e1c:	fdc42603          	lw	a2,-36(s0)
ffffffc050202e20:	1ac00693          	li	a3,428
ffffffc050202e24:	02d606b3          	mul	a3,a2,a3
ffffffc050202e28:	97b6                	add	a5,a5,a3
ffffffc050202e2a:	07e1                	addi	a5,a5,24
ffffffc050202e2c:	078a                	slli	a5,a5,0x2
ffffffc050202e2e:	97ba                	add	a5,a5,a4
ffffffc050202e30:	0007a023          	sw	zero,0(a5)
ffffffc050202e34:	fd442783          	lw	a5,-44(s0)
ffffffc050202e38:	2785                	addiw	a5,a5,1
ffffffc050202e3a:	fcf42a23          	sw	a5,-44(s0)
ffffffc050202e3e:	fd442783          	lw	a5,-44(s0)
ffffffc050202e42:	0007871b          	sext.w	a4,a5
ffffffc050202e46:	47a5                	li	a5,9
ffffffc050202e48:	fce7d4e3          	bge	a5,a4,ffffffc050202e10 <init_pcb+0x2fe>
ffffffc050202e4c:	00059717          	auipc	a4,0x59
ffffffc050202e50:	2dc70713          	addi	a4,a4,732 # ffffffc05025c128 <pcb>
ffffffc050202e54:	fdc42683          	lw	a3,-36(s0)
ffffffc050202e58:	6b000793          	li	a5,1712
ffffffc050202e5c:	02f687b3          	mul	a5,a3,a5
ffffffc050202e60:	97ba                	add	a5,a5,a4
ffffffc050202e62:	4705                	li	a4,1
ffffffc050202e64:	08e7a423          	sw	a4,136(a5)
ffffffc050202e68:	b7cff0ef          	jal	ra,ffffffc0502021e4 <get_current_cpu_id>
ffffffc050202e6c:	87aa                	mv	a5,a0
ffffffc050202e6e:	0007871b          	sext.w	a4,a5
ffffffc050202e72:	00059697          	auipc	a3,0x59
ffffffc050202e76:	2b668693          	addi	a3,a3,694 # ffffffc05025c128 <pcb>
ffffffc050202e7a:	fdc42603          	lw	a2,-36(s0)
ffffffc050202e7e:	6b000793          	li	a5,1712
ffffffc050202e82:	02f607b3          	mul	a5,a2,a5
ffffffc050202e86:	97b6                	add	a5,a5,a3
ffffffc050202e88:	08e7a623          	sw	a4,140(a5)
ffffffc050202e8c:	00059717          	auipc	a4,0x59
ffffffc050202e90:	29c70713          	addi	a4,a4,668 # ffffffc05025c128 <pcb>
ffffffc050202e94:	fdc42683          	lw	a3,-36(s0)
ffffffc050202e98:	6b000793          	li	a5,1712
ffffffc050202e9c:	02f687b3          	mul	a5,a3,a5
ffffffc050202ea0:	97ba                	add	a5,a5,a4
ffffffc050202ea2:	0207ae23          	sw	zero,60(a5)
ffffffc050202ea6:	00059717          	auipc	a4,0x59
ffffffc050202eaa:	28270713          	addi	a4,a4,642 # ffffffc05025c128 <pcb>
ffffffc050202eae:	fdc42683          	lw	a3,-36(s0)
ffffffc050202eb2:	6b000793          	li	a5,1712
ffffffc050202eb6:	02f687b3          	mul	a5,a3,a5
ffffffc050202eba:	97ba                	add	a5,a5,a4
ffffffc050202ebc:	0407a023          	sw	zero,64(a5)
ffffffc050202ec0:	00059717          	auipc	a4,0x59
ffffffc050202ec4:	26870713          	addi	a4,a4,616 # ffffffc05025c128 <pcb>
ffffffc050202ec8:	fdc42683          	lw	a3,-36(s0)
ffffffc050202ecc:	6b000793          	li	a5,1712
ffffffc050202ed0:	02f687b3          	mul	a5,a3,a5
ffffffc050202ed4:	97ba                	add	a5,a5,a4
ffffffc050202ed6:	4709                	li	a4,2
ffffffc050202ed8:	df98                	sw	a4,56(a5)
ffffffc050202eda:	00059717          	auipc	a4,0x59
ffffffc050202ede:	24e70713          	addi	a4,a4,590 # ffffffc05025c128 <pcb>
ffffffc050202ee2:	fdc42683          	lw	a3,-36(s0)
ffffffc050202ee6:	6b000793          	li	a5,1712
ffffffc050202eea:	02f687b3          	mul	a5,a3,a5
ffffffc050202eee:	97ba                	add	a5,a5,a4
ffffffc050202ef0:	0407b423          	sd	zero,72(a5)
ffffffc050202ef4:	fdc42703          	lw	a4,-36(s0)
ffffffc050202ef8:	6b000793          	li	a5,1712
ffffffc050202efc:	02f707b3          	mul	a5,a4,a5
ffffffc050202f00:	01078713          	addi	a4,a5,16
ffffffc050202f04:	00059797          	auipc	a5,0x59
ffffffc050202f08:	22478793          	addi	a5,a5,548 # ffffffc05025c128 <pcb>
ffffffc050202f0c:	97ba                	add	a5,a5,a4
ffffffc050202f0e:	85be                	mv	a1,a5
ffffffc050202f10:	0000a517          	auipc	a0,0xa
ffffffc050202f14:	a6050513          	addi	a0,a0,-1440 # ffffffc05020c970 <ready_queue>
ffffffc050202f18:	edaff0ef          	jal	ra,ffffffc0502025f2 <Enqueue>
ffffffc050202f1c:	0000a517          	auipc	a0,0xa
ffffffc050202f20:	a5450513          	addi	a0,a0,-1452 # ffffffc05020c970 <ready_queue>
ffffffc050202f24:	f68ff0ef          	jal	ra,ffffffc05020268c <Print_queue>
ffffffc050202f28:	fdc42783          	lw	a5,-36(s0)
ffffffc050202f2c:	2785                	addiw	a5,a5,1
ffffffc050202f2e:	fcf42e23          	sw	a5,-36(s0)
ffffffc050202f32:	fae41783          	lh	a5,-82(s0)
ffffffc050202f36:	0007871b          	sext.w	a4,a5
ffffffc050202f3a:	fdc42783          	lw	a5,-36(s0)
ffffffc050202f3e:	2781                	sext.w	a5,a5
ffffffc050202f40:	bee7cae3          	blt	a5,a4,ffffffc050202b34 <init_pcb+0x22>
ffffffc050202f44:	0001                	nop
ffffffc050202f46:	0001                	nop
ffffffc050202f48:	60e6                	ld	ra,88(sp)
ffffffc050202f4a:	6446                	ld	s0,80(sp)
ffffffc050202f4c:	64a6                	ld	s1,72(sp)
ffffffc050202f4e:	6125                	addi	sp,sp,96
ffffffc050202f50:	8082                	ret

ffffffc050202f52 <init_syscall>:
ffffffc050202f52:	1141                	addi	sp,sp,-16
ffffffc050202f54:	e422                	sd	s0,8(sp)
ffffffc050202f56:	0800                	addi	s0,sp,16
ffffffc050202f58:	00066797          	auipc	a5,0x66
ffffffc050202f5c:	7d078793          	addi	a5,a5,2000 # ffffffc050269728 <syscall>
ffffffc050202f60:	00007717          	auipc	a4,0x7
ffffffc050202f64:	c5470713          	addi	a4,a4,-940 # ffffffc050209bb4 <do_exec>
ffffffc050202f68:	e398                	sd	a4,0(a5)
ffffffc050202f6a:	00066797          	auipc	a5,0x66
ffffffc050202f6e:	7be78793          	addi	a5,a5,1982 # ffffffc050269728 <syscall>
ffffffc050202f72:	00007717          	auipc	a4,0x7
ffffffc050202f76:	c9a70713          	addi	a4,a4,-870 # ffffffc050209c0c <do_exit>
ffffffc050202f7a:	e798                	sd	a4,8(a5)
ffffffc050202f7c:	00066797          	auipc	a5,0x66
ffffffc050202f80:	7ac78793          	addi	a5,a5,1964 # ffffffc050269728 <syscall>
ffffffc050202f84:	00006717          	auipc	a4,0x6
ffffffc050202f88:	49070713          	addi	a4,a4,1168 # ffffffc050209414 <do_sleep>
ffffffc050202f8c:	eb98                	sd	a4,16(a5)
ffffffc050202f8e:	00066797          	auipc	a5,0x66
ffffffc050202f92:	79a78793          	addi	a5,a5,1946 # ffffffc050269728 <syscall>
ffffffc050202f96:	00007717          	auipc	a4,0x7
ffffffc050202f9a:	d0470713          	addi	a4,a4,-764 # ffffffc050209c9a <do_kill>
ffffffc050202f9e:	ef98                	sd	a4,24(a5)
ffffffc050202fa0:	00066797          	auipc	a5,0x66
ffffffc050202fa4:	78878793          	addi	a5,a5,1928 # ffffffc050269728 <syscall>
ffffffc050202fa8:	00007717          	auipc	a4,0x7
ffffffc050202fac:	e9e70713          	addi	a4,a4,-354 # ffffffc050209e46 <do_waitpid>
ffffffc050202fb0:	f398                	sd	a4,32(a5)
ffffffc050202fb2:	00066797          	auipc	a5,0x66
ffffffc050202fb6:	77678793          	addi	a5,a5,1910 # ffffffc050269728 <syscall>
ffffffc050202fba:	00007717          	auipc	a4,0x7
ffffffc050202fbe:	89870713          	addi	a4,a4,-1896 # ffffffc050209852 <do_process_show>
ffffffc050202fc2:	f798                	sd	a4,40(a5)
ffffffc050202fc4:	00066797          	auipc	a5,0x66
ffffffc050202fc8:	76478793          	addi	a5,a5,1892 # ffffffc050269728 <syscall>
ffffffc050202fcc:	00007717          	auipc	a4,0x7
ffffffc050202fd0:	f5670713          	addi	a4,a4,-170 # ffffffc050209f22 <do_getpid>
ffffffc050202fd4:	fb98                	sd	a4,48(a5)
ffffffc050202fd6:	00066797          	auipc	a5,0x66
ffffffc050202fda:	75278793          	addi	a5,a5,1874 # ffffffc050269728 <syscall>
ffffffc050202fde:	00006717          	auipc	a4,0x6
ffffffc050202fe2:	19c70713          	addi	a4,a4,412 # ffffffc05020917a <do_scheduler>
ffffffc050202fe6:	ff98                	sd	a4,56(a5)
ffffffc050202fe8:	00066797          	auipc	a5,0x66
ffffffc050202fec:	74078793          	addi	a5,a5,1856 # ffffffc050269728 <syscall>
ffffffc050202ff0:	00001717          	auipc	a4,0x1
ffffffc050202ff4:	97070713          	addi	a4,a4,-1680 # ffffffc050203960 <screen_write>
ffffffc050202ff8:	f3d8                	sd	a4,160(a5)
ffffffc050202ffa:	00066797          	auipc	a5,0x66
ffffffc050202ffe:	72e78793          	addi	a5,a5,1838 # ffffffc050269728 <syscall>
ffffffc050203002:	fffff717          	auipc	a4,0xfffff
ffffffc050203006:	7a270713          	addi	a4,a4,1954 # ffffffc0502027a4 <bios_getchar>
ffffffc05020300a:	f7d8                	sd	a4,168(a5)
ffffffc05020300c:	00066797          	auipc	a5,0x66
ffffffc050203010:	71c78793          	addi	a5,a5,1820 # ffffffc050269728 <syscall>
ffffffc050203014:	00001717          	auipc	a4,0x1
ffffffc050203018:	8fc70713          	addi	a4,a4,-1796 # ffffffc050203910 <screen_move_cursor>
ffffffc05020301c:	fbd8                	sd	a4,176(a5)
ffffffc05020301e:	00066797          	auipc	a5,0x66
ffffffc050203022:	70a78793          	addi	a5,a5,1802 # ffffffc050269728 <syscall>
ffffffc050203026:	00001717          	auipc	a4,0x1
ffffffc05020302a:	99870713          	addi	a4,a4,-1640 # ffffffc0502039be <screen_reflush>
ffffffc05020302e:	ffd8                	sd	a4,184(a5)
ffffffc050203030:	00066797          	auipc	a5,0x66
ffffffc050203034:	6f878793          	addi	a5,a5,1784 # ffffffc050269728 <syscall>
ffffffc050203038:	00001717          	auipc	a4,0x1
ffffffc05020303c:	83a70713          	addi	a4,a4,-1990 # ffffffc050203872 <screen_clear>
ffffffc050203040:	e3f8                	sd	a4,192(a5)
ffffffc050203042:	00066797          	auipc	a5,0x66
ffffffc050203046:	6e678793          	addi	a5,a5,1766 # ffffffc050269728 <syscall>
ffffffc05020304a:	00005717          	auipc	a4,0x5
ffffffc05020304e:	57470713          	addi	a4,a4,1396 # ffffffc0502085be <get_time_base>
ffffffc050203052:	fbf8                	sd	a4,240(a5)
ffffffc050203054:	00066797          	auipc	a5,0x66
ffffffc050203058:	6d478793          	addi	a5,a5,1748 # ffffffc050269728 <syscall>
ffffffc05020305c:	00005717          	auipc	a4,0x5
ffffffc050203060:	51670713          	addi	a4,a4,1302 # ffffffc050208572 <get_ticks>
ffffffc050203064:	fff8                	sd	a4,248(a5)
ffffffc050203066:	00066797          	auipc	a5,0x66
ffffffc05020306a:	6c278793          	addi	a5,a5,1730 # ffffffc050269728 <syscall>
ffffffc05020306e:	00004717          	auipc	a4,0x4
ffffffc050203072:	64670713          	addi	a4,a4,1606 # ffffffc0502076b4 <do_mutex_lock_init>
ffffffc050203076:	14e7b023          	sd	a4,320(a5)
ffffffc05020307a:	00066797          	auipc	a5,0x66
ffffffc05020307e:	6ae78793          	addi	a5,a5,1710 # ffffffc050269728 <syscall>
ffffffc050203082:	00004717          	auipc	a4,0x4
ffffffc050203086:	6da70713          	addi	a4,a4,1754 # ffffffc05020775c <do_mutex_lock_acquire>
ffffffc05020308a:	14e7b423          	sd	a4,328(a5)
ffffffc05020308e:	00066797          	auipc	a5,0x66
ffffffc050203092:	69a78793          	addi	a5,a5,1690 # ffffffc050269728 <syscall>
ffffffc050203096:	00004717          	auipc	a4,0x4
ffffffc05020309a:	79c70713          	addi	a4,a4,1948 # ffffffc050207832 <do_mutex_lock_release>
ffffffc05020309e:	14e7b823          	sd	a4,336(a5)
ffffffc0502030a2:	00066797          	auipc	a5,0x66
ffffffc0502030a6:	68678793          	addi	a5,a5,1670 # ffffffc050269728 <syscall>
ffffffc0502030aa:	1407bc23          	sd	zero,344(a5)
ffffffc0502030ae:	00066797          	auipc	a5,0x66
ffffffc0502030b2:	67a78793          	addi	a5,a5,1658 # ffffffc050269728 <syscall>
ffffffc0502030b6:	00005717          	auipc	a4,0x5
ffffffc0502030ba:	86870713          	addi	a4,a4,-1944 # ffffffc05020791e <do_barrier_init>
ffffffc0502030be:	16e7b023          	sd	a4,352(a5)
ffffffc0502030c2:	00066797          	auipc	a5,0x66
ffffffc0502030c6:	66678793          	addi	a5,a5,1638 # ffffffc050269728 <syscall>
ffffffc0502030ca:	00005717          	auipc	a4,0x5
ffffffc0502030ce:	8e670713          	addi	a4,a4,-1818 # ffffffc0502079b0 <do_barrier_wait>
ffffffc0502030d2:	16e7b423          	sd	a4,360(a5)
ffffffc0502030d6:	00066797          	auipc	a5,0x66
ffffffc0502030da:	65278793          	addi	a5,a5,1618 # ffffffc050269728 <syscall>
ffffffc0502030de:	00005717          	auipc	a4,0x5
ffffffc0502030e2:	a0670713          	addi	a4,a4,-1530 # ffffffc050207ae4 <do_barrier_destroy>
ffffffc0502030e6:	16e7b823          	sd	a4,368(a5)
ffffffc0502030ea:	00066797          	auipc	a5,0x66
ffffffc0502030ee:	63e78793          	addi	a5,a5,1598 # ffffffc050269728 <syscall>
ffffffc0502030f2:	00005717          	auipc	a4,0x5
ffffffc0502030f6:	a5c70713          	addi	a4,a4,-1444 # ffffffc050207b4e <do_condition_init>
ffffffc0502030fa:	16e7bc23          	sd	a4,376(a5)
ffffffc0502030fe:	00066797          	auipc	a5,0x66
ffffffc050203102:	62a78793          	addi	a5,a5,1578 # ffffffc050269728 <syscall>
ffffffc050203106:	00005717          	auipc	a4,0x5
ffffffc05020310a:	a9670713          	addi	a4,a4,-1386 # ffffffc050207b9c <do_condition_wait>
ffffffc05020310e:	18e7b023          	sd	a4,384(a5)
ffffffc050203112:	00066797          	auipc	a5,0x66
ffffffc050203116:	61678793          	addi	a5,a5,1558 # ffffffc050269728 <syscall>
ffffffc05020311a:	00005717          	auipc	a4,0x5
ffffffc05020311e:	ae470713          	addi	a4,a4,-1308 # ffffffc050207bfe <do_condition_signal>
ffffffc050203122:	18e7b423          	sd	a4,392(a5)
ffffffc050203126:	00066797          	auipc	a5,0x66
ffffffc05020312a:	60278793          	addi	a5,a5,1538 # ffffffc050269728 <syscall>
ffffffc05020312e:	00005717          	auipc	a4,0x5
ffffffc050203132:	b3470713          	addi	a4,a4,-1228 # ffffffc050207c62 <do_condition_broadcast>
ffffffc050203136:	18e7b823          	sd	a4,400(a5)
ffffffc05020313a:	00066797          	auipc	a5,0x66
ffffffc05020313e:	5ee78793          	addi	a5,a5,1518 # ffffffc050269728 <syscall>
ffffffc050203142:	00005717          	auipc	a4,0x5
ffffffc050203146:	c6870713          	addi	a4,a4,-920 # ffffffc050207daa <do_condition_destroy>
ffffffc05020314a:	18e7bc23          	sd	a4,408(a5)
ffffffc05020314e:	00066797          	auipc	a5,0x66
ffffffc050203152:	5da78793          	addi	a5,a5,1498 # ffffffc050269728 <syscall>
ffffffc050203156:	00005717          	auipc	a4,0x5
ffffffc05020315a:	d8670713          	addi	a4,a4,-634 # ffffffc050207edc <do_mbox_open>
ffffffc05020315e:	1ae7b023          	sd	a4,416(a5)
ffffffc050203162:	00066797          	auipc	a5,0x66
ffffffc050203166:	5c678793          	addi	a5,a5,1478 # ffffffc050269728 <syscall>
ffffffc05020316a:	00005717          	auipc	a4,0x5
ffffffc05020316e:	df470713          	addi	a4,a4,-524 # ffffffc050207f5e <do_mbox_close>
ffffffc050203172:	1ae7b423          	sd	a4,424(a5)
ffffffc050203176:	00066797          	auipc	a5,0x66
ffffffc05020317a:	5b278793          	addi	a5,a5,1458 # ffffffc050269728 <syscall>
ffffffc05020317e:	00005717          	auipc	a4,0x5
ffffffc050203182:	e5c70713          	addi	a4,a4,-420 # ffffffc050207fda <do_mbox_send>
ffffffc050203186:	1ae7b823          	sd	a4,432(a5)
ffffffc05020318a:	00066797          	auipc	a5,0x66
ffffffc05020318e:	59e78793          	addi	a5,a5,1438 # ffffffc050269728 <syscall>
ffffffc050203192:	00005717          	auipc	a4,0x5
ffffffc050203196:	00870713          	addi	a4,a4,8 # ffffffc05020819a <do_mbox_recv>
ffffffc05020319a:	1ae7bc23          	sd	a4,440(a5)
ffffffc05020319e:	00066797          	auipc	a5,0x66
ffffffc0502031a2:	58a78793          	addi	a5,a5,1418 # ffffffc050269728 <syscall>
ffffffc0502031a6:	00006717          	auipc	a4,0x6
ffffffc0502031aa:	36870713          	addi	a4,a4,872 # ffffffc05020950e <thread_create>
ffffffc0502031ae:	26e7b423          	sd	a4,616(a5)
ffffffc0502031b2:	00066797          	auipc	a5,0x66
ffffffc0502031b6:	57678793          	addi	a5,a5,1398 # ffffffc050269728 <syscall>
ffffffc0502031ba:	00007717          	auipc	a4,0x7
ffffffc0502031be:	d8270713          	addi	a4,a4,-638 # ffffffc050209f3c <taskset_exec>
ffffffc0502031c2:	26e7b823          	sd	a4,624(a5)
ffffffc0502031c6:	00066797          	auipc	a5,0x66
ffffffc0502031ca:	56278793          	addi	a5,a5,1378 # ffffffc050269728 <syscall>
ffffffc0502031ce:	00007717          	auipc	a4,0x7
ffffffc0502031d2:	ea470713          	addi	a4,a4,-348 # ffffffc05020a072 <taskset>
ffffffc0502031d6:	26e7bc23          	sd	a4,632(a5)
ffffffc0502031da:	00066797          	auipc	a5,0x66
ffffffc0502031de:	54e78793          	addi	a5,a5,1358 # ffffffc050269728 <syscall>
ffffffc0502031e2:	00003717          	auipc	a4,0x3
ffffffc0502031e6:	2b670713          	addi	a4,a4,694 # ffffffc050206498 <shm_page_get>
ffffffc0502031ea:	1ce7b023          	sd	a4,448(a5)
ffffffc0502031ee:	00066797          	auipc	a5,0x66
ffffffc0502031f2:	53a78793          	addi	a5,a5,1338 # ffffffc050269728 <syscall>
ffffffc0502031f6:	00003717          	auipc	a4,0x3
ffffffc0502031fa:	49670713          	addi	a4,a4,1174 # ffffffc05020668c <shm_page_dt>
ffffffc0502031fe:	1ce7b423          	sd	a4,456(a5)
ffffffc050203202:	00066797          	auipc	a5,0x66
ffffffc050203206:	52678793          	addi	a5,a5,1318 # ffffffc050269728 <syscall>
ffffffc05020320a:	00004717          	auipc	a4,0x4
ffffffc05020320e:	cd470713          	addi	a4,a4,-812 # ffffffc050206ede <get_page_addr>
ffffffc050203212:	28e7b023          	sd	a4,640(a5)
ffffffc050203216:	00066797          	auipc	a5,0x66
ffffffc05020321a:	51278793          	addi	a5,a5,1298 # ffffffc050269728 <syscall>
ffffffc05020321e:	00003717          	auipc	a4,0x3
ffffffc050203222:	37470713          	addi	a4,a4,884 # ffffffc050206592 <snp_page_get>
ffffffc050203226:	28e7b423          	sd	a4,648(a5)
ffffffc05020322a:	00066797          	auipc	a5,0x66
ffffffc05020322e:	4fe78793          	addi	a5,a5,1278 # ffffffc050269728 <syscall>
ffffffc050203232:	00007717          	auipc	a4,0x7
ffffffc050203236:	37470713          	addi	a4,a4,884 # ffffffc05020a5a6 <do_net_send>
ffffffc05020323a:	1ee7bc23          	sd	a4,504(a5)
ffffffc05020323e:	00066797          	auipc	a5,0x66
ffffffc050203242:	4ea78793          	addi	a5,a5,1258 # ffffffc050269728 <syscall>
ffffffc050203246:	00007717          	auipc	a4,0x7
ffffffc05020324a:	39470713          	addi	a4,a4,916 # ffffffc05020a5da <do_net_recv>
ffffffc05020324e:	20e7b023          	sd	a4,512(a5)
ffffffc050203252:	0001                	nop
ffffffc050203254:	6422                	ld	s0,8(sp)
ffffffc050203256:	0141                	addi	sp,sp,16
ffffffc050203258:	8082                	ret

ffffffc05020325a <main>:
ffffffc05020325a:	7179                	addi	sp,sp,-48
ffffffc05020325c:	f406                	sd	ra,40(sp)
ffffffc05020325e:	f022                	sd	s0,32(sp)
ffffffc050203260:	1800                	addi	s0,sp,48
ffffffc050203262:	fd840713          	addi	a4,s0,-40
ffffffc050203266:	fda40793          	addi	a5,s0,-38
ffffffc05020326a:	85ba                	mv	a1,a4
ffffffc05020326c:	853e                	mv	a0,a5
ffffffc05020326e:	ee0ff0ef          	jal	ra,ffffffc05020294e <get_loc_and_num>
ffffffc050203272:	f73fe0ef          	jal	ra,ffffffc0502021e4 <get_current_cpu_id>
ffffffc050203276:	87aa                	mv	a5,a0
ffffffc050203278:	fef42623          	sw	a5,-20(s0)
ffffffc05020327c:	fec42783          	lw	a5,-20(s0)
ffffffc050203280:	2781                	sext.w	a5,a5
ffffffc050203282:	10079c63          	bnez	a5,ffffffc05020339a <main+0x140>
ffffffc050203286:	5de020ef          	jal	ra,ffffffc050205864 <init_mm>
ffffffc05020328a:	db6ff0ef          	jal	ra,ffffffc050202840 <init_jmptab>
ffffffc05020328e:	fda41783          	lh	a5,-38(s0)
ffffffc050203292:	fd841703          	lh	a4,-40(s0)
ffffffc050203296:	85ba                	mv	a1,a4
ffffffc050203298:	853e                	mv	a0,a5
ffffffc05020329a:	f16ff0ef          	jal	ra,ffffffc0502029b0 <init_task_info>
ffffffc05020329e:	00059797          	auipc	a5,0x59
ffffffc0502032a2:	e7a78793          	addi	a5,a5,-390 # ffffffc05025c118 <current_running>
ffffffc0502032a6:	00009717          	auipc	a4,0x9
ffffffc0502032aa:	96a70713          	addi	a4,a4,-1686 # ffffffc05020bc10 <pid0_pcb>
ffffffc0502032ae:	e398                	sd	a4,0(a5)
ffffffc0502032b0:	00059797          	auipc	a5,0x59
ffffffc0502032b4:	e7078793          	addi	a5,a5,-400 # ffffffc05025c120 <current_running_m>
ffffffc0502032b8:	00009717          	auipc	a4,0x9
ffffffc0502032bc:	95870713          	addi	a4,a4,-1704 # ffffffc05020bc10 <pid0_pcb>
ffffffc0502032c0:	e398                	sd	a4,0(a5)
ffffffc0502032c2:	4501                	li	a0,0
ffffffc0502032c4:	d02ff0ef          	jal	ra,ffffffc0502027c6 <bios_read_fdt>
ffffffc0502032c8:	872a                	mv	a4,a0
ffffffc0502032ca:	00009797          	auipc	a5,0x9
ffffffc0502032ce:	7a678793          	addi	a5,a5,1958 # ffffffc05020ca70 <time_base>
ffffffc0502032d2:	e398                	sd	a4,0(a5)
ffffffc0502032d4:	4509                	li	a0,2
ffffffc0502032d6:	cf0ff0ef          	jal	ra,ffffffc0502027c6 <bios_read_fdt>
ffffffc0502032da:	87aa                	mv	a5,a0
ffffffc0502032dc:	873e                	mv	a4,a5
ffffffc0502032de:	0004c797          	auipc	a5,0x4c
ffffffc0502032e2:	12a78793          	addi	a5,a5,298 # ffffffc05024f408 <e1000>
ffffffc0502032e6:	e398                	sd	a4,0(a5)
ffffffc0502032e8:	450d                	li	a0,3
ffffffc0502032ea:	cdcff0ef          	jal	ra,ffffffc0502027c6 <bios_read_fdt>
ffffffc0502032ee:	fea43023          	sd	a0,-32(s0)
ffffffc0502032f2:	4511                	li	a0,4
ffffffc0502032f4:	cd2ff0ef          	jal	ra,ffffffc0502027c6 <bios_read_fdt>
ffffffc0502032f8:	87aa                	mv	a5,a0
ffffffc0502032fa:	fcf42e23          	sw	a5,-36(s0)
ffffffc0502032fe:	0004c797          	auipc	a5,0x4c
ffffffc050203302:	10a78793          	addi	a5,a5,266 # ffffffc05024f408 <e1000>
ffffffc050203306:	639c                	ld	a5,0(a5)
ffffffc050203308:	65a1                	lui	a1,0x8
ffffffc05020330a:	853e                	mv	a0,a5
ffffffc05020330c:	104040ef          	jal	ra,ffffffc050207410 <ioremap>
ffffffc050203310:	872a                	mv	a4,a0
ffffffc050203312:	0004c797          	auipc	a5,0x4c
ffffffc050203316:	0f678793          	addi	a5,a5,246 # ffffffc05024f408 <e1000>
ffffffc05020331a:	e398                	sd	a4,0(a5)
ffffffc05020331c:	040005b7          	lui	a1,0x4000
ffffffc050203320:	fe043503          	ld	a0,-32(s0)
ffffffc050203324:	0ec040ef          	jal	ra,ffffffc050207410 <ioremap>
ffffffc050203328:	87aa                	mv	a5,a0
ffffffc05020332a:	fef43023          	sd	a5,-32(s0)
ffffffc05020332e:	306040ef          	jal	ra,ffffffc050207634 <init_locks>
ffffffc050203332:	267010ef          	jal	ra,ffffffc050204d98 <init_exception>
ffffffc050203336:	c1dff0ef          	jal	ra,ffffffc050202f52 <init_syscall>
ffffffc05020333a:	51a000ef          	jal	ra,ffffffc050203854 <init_screen>
ffffffc05020333e:	fdc42783          	lw	a5,-36(s0)
ffffffc050203342:	85be                	mv	a1,a5
ffffffc050203344:	fe043503          	ld	a0,-32(s0)
ffffffc050203348:	670010ef          	jal	ra,ffffffc0502049b8 <plic_init>
ffffffc05020334c:	10a010ef          	jal	ra,ffffffc050204456 <e1000_init>
ffffffc050203350:	00008517          	auipc	a0,0x8
ffffffc050203354:	15850513          	addi	a0,a0,344 # ffffffc05020b4a8 <strcat+0x154>
ffffffc050203358:	491070ef          	jal	ra,ffffffc05020afe8 <printl>
ffffffc05020335c:	fda41783          	lh	a5,-38(s0)
ffffffc050203360:	2781                	sext.w	a5,a5
ffffffc050203362:	fd841703          	lh	a4,-40(s0)
ffffffc050203366:	2701                	sext.w	a4,a4
ffffffc050203368:	863a                	mv	a2,a4
ffffffc05020336a:	85be                	mv	a1,a5
ffffffc05020336c:	00008517          	auipc	a0,0x8
ffffffc050203370:	17450513          	addi	a0,a0,372 # ffffffc05020b4e0 <strcat+0x18c>
ffffffc050203374:	475070ef          	jal	ra,ffffffc05020afe8 <printl>
ffffffc050203378:	fd841783          	lh	a5,-40(s0)
ffffffc05020337c:	4601                	li	a2,0
ffffffc05020337e:	00008597          	auipc	a1,0x8
ffffffc050203382:	18a58593          	addi	a1,a1,394 # ffffffc05020b508 <strcat+0x1b4>
ffffffc050203386:	853e                	mv	a0,a5
ffffffc050203388:	f8aff0ef          	jal	ra,ffffffc050202b12 <init_pcb>
ffffffc05020338c:	c64ff0ef          	jal	ra,ffffffc0502027f0 <init_pid_valid>
ffffffc050203390:	03c050ef          	jal	ra,ffffffc0502083cc <lock_kernel>
ffffffc050203394:	c95fe0ef          	jal	ra,ffffffc050202028 <enable_preempt>
ffffffc050203398:	a005                	j	ffffffc0502033b8 <main+0x15e>
ffffffc05020339a:	032050ef          	jal	ra,ffffffc0502083cc <lock_kernel>
ffffffc05020339e:	e2ffe0ef          	jal	ra,ffffffc0502021cc <setup_exception>
ffffffc0502033a2:	00059797          	auipc	a5,0x59
ffffffc0502033a6:	d6e78793          	addi	a5,a5,-658 # ffffffc05025c110 <current_running_n>
ffffffc0502033aa:	00009717          	auipc	a4,0x9
ffffffc0502033ae:	f1670713          	addi	a4,a4,-234 # ffffffc05020c2c0 <pidn_pcb>
ffffffc0502033b2:	e398                	sd	a4,0(a5)
ffffffc0502033b4:	c75fe0ef          	jal	ra,ffffffc050202028 <enable_preempt>
ffffffc0502033b8:	5c3050ef          	jal	ra,ffffffc05020917a <do_scheduler>
ffffffc0502033bc:	042050ef          	jal	ra,ffffffc0502083fe <unlock_kernel>
ffffffc0502033c0:	00c050ef          	jal	ra,ffffffc0502083cc <lock_kernel>
ffffffc0502033c4:	bfd5                	j	ffffffc0502033b8 <main+0x15e>

ffffffc0502033c6 <call_bios>:
ffffffc0502033c6:	715d                	addi	sp,sp,-80
ffffffc0502033c8:	e486                	sd	ra,72(sp)
ffffffc0502033ca:	e0a2                	sd	s0,64(sp)
ffffffc0502033cc:	0880                	addi	s0,sp,80
ffffffc0502033ce:	fca43c23          	sd	a0,-40(s0)
ffffffc0502033d2:	fcb43823          	sd	a1,-48(s0)
ffffffc0502033d6:	fcc43423          	sd	a2,-56(s0)
ffffffc0502033da:	fcd43023          	sd	a3,-64(s0)
ffffffc0502033de:	fae43c23          	sd	a4,-72(s0)
ffffffc0502033e2:	faf43823          	sd	a5,-80(s0)
ffffffc0502033e6:	ffc057b7          	lui	a5,0xffc05
ffffffc0502033ea:	07d5                	addi	a5,a5,21
ffffffc0502033ec:	07c2                	slli	a5,a5,0x10
ffffffc0502033ee:	fef43423          	sd	a5,-24(s0)
ffffffc0502033f2:	fe843803          	ld	a6,-24(s0)
ffffffc0502033f6:	fb043783          	ld	a5,-80(s0)
ffffffc0502033fa:	fb843703          	ld	a4,-72(s0)
ffffffc0502033fe:	fc043683          	ld	a3,-64(s0)
ffffffc050203402:	fc843603          	ld	a2,-56(s0)
ffffffc050203406:	fd043583          	ld	a1,-48(s0)
ffffffc05020340a:	fd843503          	ld	a0,-40(s0)
ffffffc05020340e:	9802                	jalr	a6
ffffffc050203410:	87aa                	mv	a5,a0
ffffffc050203412:	853e                	mv	a0,a5
ffffffc050203414:	60a6                	ld	ra,72(sp)
ffffffc050203416:	6406                	ld	s0,64(sp)
ffffffc050203418:	6161                	addi	sp,sp,80
ffffffc05020341a:	8082                	ret

ffffffc05020341c <port_write_ch>:
ffffffc05020341c:	1101                	addi	sp,sp,-32
ffffffc05020341e:	ec06                	sd	ra,24(sp)
ffffffc050203420:	e822                	sd	s0,16(sp)
ffffffc050203422:	1000                	addi	s0,sp,32
ffffffc050203424:	87aa                	mv	a5,a0
ffffffc050203426:	fef407a3          	sb	a5,-17(s0)
ffffffc05020342a:	fef44583          	lbu	a1,-17(s0)
ffffffc05020342e:	4781                	li	a5,0
ffffffc050203430:	4701                	li	a4,0
ffffffc050203432:	4681                	li	a3,0
ffffffc050203434:	4601                	li	a2,0
ffffffc050203436:	4505                	li	a0,1
ffffffc050203438:	f8fff0ef          	jal	ra,ffffffc0502033c6 <call_bios>
ffffffc05020343c:	0001                	nop
ffffffc05020343e:	60e2                	ld	ra,24(sp)
ffffffc050203440:	6442                	ld	s0,16(sp)
ffffffc050203442:	6105                	addi	sp,sp,32
ffffffc050203444:	8082                	ret

ffffffc050203446 <port_write>:
ffffffc050203446:	1101                	addi	sp,sp,-32
ffffffc050203448:	ec06                	sd	ra,24(sp)
ffffffc05020344a:	e822                	sd	s0,16(sp)
ffffffc05020344c:	1000                	addi	s0,sp,32
ffffffc05020344e:	fea43423          	sd	a0,-24(s0)
ffffffc050203452:	fe843583          	ld	a1,-24(s0)
ffffffc050203456:	4781                	li	a5,0
ffffffc050203458:	4701                	li	a4,0
ffffffc05020345a:	4681                	li	a3,0
ffffffc05020345c:	4601                	li	a2,0
ffffffc05020345e:	4525                	li	a0,9
ffffffc050203460:	f67ff0ef          	jal	ra,ffffffc0502033c6 <call_bios>
ffffffc050203464:	0001                	nop
ffffffc050203466:	60e2                	ld	ra,24(sp)
ffffffc050203468:	6442                	ld	s0,16(sp)
ffffffc05020346a:	6105                	addi	sp,sp,32
ffffffc05020346c:	8082                	ret

ffffffc05020346e <port_read_ch>:
ffffffc05020346e:	1141                	addi	sp,sp,-16
ffffffc050203470:	e406                	sd	ra,8(sp)
ffffffc050203472:	e022                	sd	s0,0(sp)
ffffffc050203474:	0800                	addi	s0,sp,16
ffffffc050203476:	4781                	li	a5,0
ffffffc050203478:	4701                	li	a4,0
ffffffc05020347a:	4681                	li	a3,0
ffffffc05020347c:	4601                	li	a2,0
ffffffc05020347e:	4581                	li	a1,0
ffffffc050203480:	4509                	li	a0,2
ffffffc050203482:	f45ff0ef          	jal	ra,ffffffc0502033c6 <call_bios>
ffffffc050203486:	87aa                	mv	a5,a0
ffffffc050203488:	2781                	sext.w	a5,a5
ffffffc05020348a:	853e                	mv	a0,a5
ffffffc05020348c:	60a2                	ld	ra,8(sp)
ffffffc05020348e:	6402                	ld	s0,0(sp)
ffffffc050203490:	0141                	addi	sp,sp,16
ffffffc050203492:	8082                	ret

ffffffc050203494 <sd_write>:
ffffffc050203494:	1101                	addi	sp,sp,-32
ffffffc050203496:	ec06                	sd	ra,24(sp)
ffffffc050203498:	e822                	sd	s0,16(sp)
ffffffc05020349a:	1000                	addi	s0,sp,32
ffffffc05020349c:	87aa                	mv	a5,a0
ffffffc05020349e:	86ae                	mv	a3,a1
ffffffc0502034a0:	8732                	mv	a4,a2
ffffffc0502034a2:	fef42623          	sw	a5,-20(s0)
ffffffc0502034a6:	87b6                	mv	a5,a3
ffffffc0502034a8:	fef42423          	sw	a5,-24(s0)
ffffffc0502034ac:	87ba                	mv	a5,a4
ffffffc0502034ae:	fef42223          	sw	a5,-28(s0)
ffffffc0502034b2:	fec46583          	lwu	a1,-20(s0)
ffffffc0502034b6:	fe846603          	lwu	a2,-24(s0)
ffffffc0502034ba:	fe446683          	lwu	a3,-28(s0)
ffffffc0502034be:	4781                	li	a5,0
ffffffc0502034c0:	4701                	li	a4,0
ffffffc0502034c2:	4529                	li	a0,10
ffffffc0502034c4:	f03ff0ef          	jal	ra,ffffffc0502033c6 <call_bios>
ffffffc0502034c8:	87aa                	mv	a5,a0
ffffffc0502034ca:	2781                	sext.w	a5,a5
ffffffc0502034cc:	853e                	mv	a0,a5
ffffffc0502034ce:	60e2                	ld	ra,24(sp)
ffffffc0502034d0:	6442                	ld	s0,16(sp)
ffffffc0502034d2:	6105                	addi	sp,sp,32
ffffffc0502034d4:	8082                	ret

ffffffc0502034d6 <sd_read>:
ffffffc0502034d6:	1101                	addi	sp,sp,-32
ffffffc0502034d8:	ec06                	sd	ra,24(sp)
ffffffc0502034da:	e822                	sd	s0,16(sp)
ffffffc0502034dc:	1000                	addi	s0,sp,32
ffffffc0502034de:	87aa                	mv	a5,a0
ffffffc0502034e0:	86ae                	mv	a3,a1
ffffffc0502034e2:	8732                	mv	a4,a2
ffffffc0502034e4:	fef42623          	sw	a5,-20(s0)
ffffffc0502034e8:	87b6                	mv	a5,a3
ffffffc0502034ea:	fef42423          	sw	a5,-24(s0)
ffffffc0502034ee:	87ba                	mv	a5,a4
ffffffc0502034f0:	fef42223          	sw	a5,-28(s0)
ffffffc0502034f4:	fec46583          	lwu	a1,-20(s0)
ffffffc0502034f8:	fe846603          	lwu	a2,-24(s0)
ffffffc0502034fc:	fe446683          	lwu	a3,-28(s0)
ffffffc050203500:	4781                	li	a5,0
ffffffc050203502:	4701                	li	a4,0
ffffffc050203504:	452d                	li	a0,11
ffffffc050203506:	ec1ff0ef          	jal	ra,ffffffc0502033c6 <call_bios>
ffffffc05020350a:	87aa                	mv	a5,a0
ffffffc05020350c:	2781                	sext.w	a5,a5
ffffffc05020350e:	853e                	mv	a0,a5
ffffffc050203510:	60e2                	ld	ra,24(sp)
ffffffc050203512:	6442                	ld	s0,16(sp)
ffffffc050203514:	6105                	addi	sp,sp,32
ffffffc050203516:	8082                	ret

ffffffc050203518 <set_timer>:
ffffffc050203518:	1101                	addi	sp,sp,-32
ffffffc05020351a:	ec06                	sd	ra,24(sp)
ffffffc05020351c:	e822                	sd	s0,16(sp)
ffffffc05020351e:	1000                	addi	s0,sp,32
ffffffc050203520:	fea43423          	sd	a0,-24(s0)
ffffffc050203524:	fe843583          	ld	a1,-24(s0)
ffffffc050203528:	4781                	li	a5,0
ffffffc05020352a:	4701                	li	a4,0
ffffffc05020352c:	4681                	li	a3,0
ffffffc05020352e:	4601                	li	a2,0
ffffffc050203530:	4501                	li	a0,0
ffffffc050203532:	e95ff0ef          	jal	ra,ffffffc0502033c6 <call_bios>
ffffffc050203536:	0001                	nop
ffffffc050203538:	60e2                	ld	ra,24(sp)
ffffffc05020353a:	6442                	ld	s0,16(sp)
ffffffc05020353c:	6105                	addi	sp,sp,32
ffffffc05020353e:	8082                	ret

ffffffc050203540 <read_fdt>:
ffffffc050203540:	1101                	addi	sp,sp,-32
ffffffc050203542:	ec06                	sd	ra,24(sp)
ffffffc050203544:	e822                	sd	s0,16(sp)
ffffffc050203546:	1000                	addi	s0,sp,32
ffffffc050203548:	87aa                	mv	a5,a0
ffffffc05020354a:	fef42623          	sw	a5,-20(s0)
ffffffc05020354e:	fec46583          	lwu	a1,-20(s0)
ffffffc050203552:	4781                	li	a5,0
ffffffc050203554:	4701                	li	a4,0
ffffffc050203556:	4681                	li	a3,0
ffffffc050203558:	4601                	li	a2,0
ffffffc05020355a:	4531                	li	a0,12
ffffffc05020355c:	e6bff0ef          	jal	ra,ffffffc0502033c6 <call_bios>
ffffffc050203560:	87aa                	mv	a5,a0
ffffffc050203562:	853e                	mv	a0,a5
ffffffc050203564:	60e2                	ld	ra,24(sp)
ffffffc050203566:	6442                	ld	s0,16(sp)
ffffffc050203568:	6105                	addi	sp,sp,32
ffffffc05020356a:	8082                	ret

ffffffc05020356c <qemu_logging>:
ffffffc05020356c:	1101                	addi	sp,sp,-32
ffffffc05020356e:	ec06                	sd	ra,24(sp)
ffffffc050203570:	e822                	sd	s0,16(sp)
ffffffc050203572:	1000                	addi	s0,sp,32
ffffffc050203574:	fea43423          	sd	a0,-24(s0)
ffffffc050203578:	fe843583          	ld	a1,-24(s0)
ffffffc05020357c:	4781                	li	a5,0
ffffffc05020357e:	4701                	li	a4,0
ffffffc050203580:	4681                	li	a3,0
ffffffc050203582:	4601                	li	a2,0
ffffffc050203584:	4539                	li	a0,14
ffffffc050203586:	e41ff0ef          	jal	ra,ffffffc0502033c6 <call_bios>
ffffffc05020358a:	0001                	nop
ffffffc05020358c:	60e2                	ld	ra,24(sp)
ffffffc05020358e:	6442                	ld	s0,16(sp)
ffffffc050203590:	6105                	addi	sp,sp,32
ffffffc050203592:	8082                	ret

ffffffc050203594 <send_ipi>:
ffffffc050203594:	1101                	addi	sp,sp,-32
ffffffc050203596:	ec06                	sd	ra,24(sp)
ffffffc050203598:	e822                	sd	s0,16(sp)
ffffffc05020359a:	1000                	addi	s0,sp,32
ffffffc05020359c:	fea43423          	sd	a0,-24(s0)
ffffffc0502035a0:	fe843583          	ld	a1,-24(s0)
ffffffc0502035a4:	4781                	li	a5,0
ffffffc0502035a6:	4701                	li	a4,0
ffffffc0502035a8:	4681                	li	a3,0
ffffffc0502035aa:	4601                	li	a2,0
ffffffc0502035ac:	4511                	li	a0,4
ffffffc0502035ae:	e19ff0ef          	jal	ra,ffffffc0502033c6 <call_bios>
ffffffc0502035b2:	0001                	nop
ffffffc0502035b4:	60e2                	ld	ra,24(sp)
ffffffc0502035b6:	6442                	ld	s0,16(sp)
ffffffc0502035b8:	6105                	addi	sp,sp,32
ffffffc0502035ba:	8082                	ret

ffffffc0502035bc <call_jmptab>:
ffffffc0502035bc:	7139                	addi	sp,sp,-64
ffffffc0502035be:	fc06                	sd	ra,56(sp)
ffffffc0502035c0:	f822                	sd	s0,48(sp)
ffffffc0502035c2:	0080                	addi	s0,sp,64
ffffffc0502035c4:	fca43c23          	sd	a0,-40(s0)
ffffffc0502035c8:	fcb43823          	sd	a1,-48(s0)
ffffffc0502035cc:	fcc43423          	sd	a2,-56(s0)
ffffffc0502035d0:	fcd43023          	sd	a3,-64(s0)
ffffffc0502035d4:	fd843783          	ld	a5,-40(s0)
ffffffc0502035d8:	00379713          	slli	a4,a5,0x3
ffffffc0502035dc:	fe0297b7          	lui	a5,0xfe029
ffffffc0502035e0:	07b6                	slli	a5,a5,0xd
ffffffc0502035e2:	f0078793          	addi	a5,a5,-256 # fffffffffe028f00 <__BSS_END__+0x3faddbf5d8>
ffffffc0502035e6:	97ba                	add	a5,a5,a4
ffffffc0502035e8:	639c                	ld	a5,0(a5)
ffffffc0502035ea:	fef43423          	sd	a5,-24(s0)
ffffffc0502035ee:	fe843783          	ld	a5,-24(s0)
ffffffc0502035f2:	fef43023          	sd	a5,-32(s0)
ffffffc0502035f6:	fe043783          	ld	a5,-32(s0)
ffffffc0502035fa:	fc043603          	ld	a2,-64(s0)
ffffffc0502035fe:	fc843583          	ld	a1,-56(s0)
ffffffc050203602:	fd043503          	ld	a0,-48(s0)
ffffffc050203606:	9782                	jalr	a5
ffffffc050203608:	87aa                	mv	a5,a0
ffffffc05020360a:	853e                	mv	a0,a5
ffffffc05020360c:	70e2                	ld	ra,56(sp)
ffffffc05020360e:	7442                	ld	s0,48(sp)
ffffffc050203610:	6121                	addi	sp,sp,64
ffffffc050203612:	8082                	ret

ffffffc050203614 <bios_putchar>:
ffffffc050203614:	1101                	addi	sp,sp,-32
ffffffc050203616:	ec06                	sd	ra,24(sp)
ffffffc050203618:	e822                	sd	s0,16(sp)
ffffffc05020361a:	1000                	addi	s0,sp,32
ffffffc05020361c:	87aa                	mv	a5,a0
ffffffc05020361e:	fef42623          	sw	a5,-20(s0)
ffffffc050203622:	fec42783          	lw	a5,-20(s0)
ffffffc050203626:	4681                	li	a3,0
ffffffc050203628:	4601                	li	a2,0
ffffffc05020362a:	85be                	mv	a1,a5
ffffffc05020362c:	4505                	li	a0,1
ffffffc05020362e:	f8fff0ef          	jal	ra,ffffffc0502035bc <call_jmptab>
ffffffc050203632:	0001                	nop
ffffffc050203634:	60e2                	ld	ra,24(sp)
ffffffc050203636:	6442                	ld	s0,16(sp)
ffffffc050203638:	6105                	addi	sp,sp,32
ffffffc05020363a:	8082                	ret

ffffffc05020363c <vt100_move_cursor>:
ffffffc05020363c:	1101                	addi	sp,sp,-32
ffffffc05020363e:	ec06                	sd	ra,24(sp)
ffffffc050203640:	e822                	sd	s0,16(sp)
ffffffc050203642:	1000                	addi	s0,sp,32
ffffffc050203644:	87aa                	mv	a5,a0
ffffffc050203646:	872e                	mv	a4,a1
ffffffc050203648:	fef42623          	sw	a5,-20(s0)
ffffffc05020364c:	87ba                	mv	a5,a4
ffffffc05020364e:	fef42423          	sw	a5,-24(s0)
ffffffc050203652:	fec42703          	lw	a4,-20(s0)
ffffffc050203656:	fe842783          	lw	a5,-24(s0)
ffffffc05020365a:	86ba                	mv	a3,a4
ffffffc05020365c:	863e                	mv	a2,a5
ffffffc05020365e:	45ed                	li	a1,27
ffffffc050203660:	00008517          	auipc	a0,0x8
ffffffc050203664:	eb050513          	addi	a0,a0,-336 # ffffffc05020b510 <strcat+0x1bc>
ffffffc050203668:	0f9070ef          	jal	ra,ffffffc05020af60 <printv>
ffffffc05020366c:	0001                	nop
ffffffc05020366e:	60e2                	ld	ra,24(sp)
ffffffc050203670:	6442                	ld	s0,16(sp)
ffffffc050203672:	6105                	addi	sp,sp,32
ffffffc050203674:	8082                	ret

ffffffc050203676 <vt100_clear>:
ffffffc050203676:	1141                	addi	sp,sp,-16
ffffffc050203678:	e406                	sd	ra,8(sp)
ffffffc05020367a:	e022                	sd	s0,0(sp)
ffffffc05020367c:	0800                	addi	s0,sp,16
ffffffc05020367e:	45ed                	li	a1,27
ffffffc050203680:	00008517          	auipc	a0,0x8
ffffffc050203684:	ea050513          	addi	a0,a0,-352 # ffffffc05020b520 <strcat+0x1cc>
ffffffc050203688:	0d9070ef          	jal	ra,ffffffc05020af60 <printv>
ffffffc05020368c:	0001                	nop
ffffffc05020368e:	60a2                	ld	ra,8(sp)
ffffffc050203690:	6402                	ld	s0,0(sp)
ffffffc050203692:	0141                	addi	sp,sp,16
ffffffc050203694:	8082                	ret

ffffffc050203696 <vt100_hidden_cursor>:
ffffffc050203696:	1141                	addi	sp,sp,-16
ffffffc050203698:	e406                	sd	ra,8(sp)
ffffffc05020369a:	e022                	sd	s0,0(sp)
ffffffc05020369c:	0800                	addi	s0,sp,16
ffffffc05020369e:	45ed                	li	a1,27
ffffffc0502036a0:	00008517          	auipc	a0,0x8
ffffffc0502036a4:	e8850513          	addi	a0,a0,-376 # ffffffc05020b528 <strcat+0x1d4>
ffffffc0502036a8:	0b9070ef          	jal	ra,ffffffc05020af60 <printv>
ffffffc0502036ac:	0001                	nop
ffffffc0502036ae:	60a2                	ld	ra,8(sp)
ffffffc0502036b0:	6402                	ld	s0,0(sp)
ffffffc0502036b2:	0141                	addi	sp,sp,16
ffffffc0502036b4:	8082                	ret

ffffffc0502036b6 <screen_write_ch>:
ffffffc0502036b6:	1101                	addi	sp,sp,-32
ffffffc0502036b8:	ec22                	sd	s0,24(sp)
ffffffc0502036ba:	1000                	addi	s0,sp,32
ffffffc0502036bc:	87aa                	mv	a5,a0
ffffffc0502036be:	fef407a3          	sb	a5,-17(s0)
ffffffc0502036c2:	fef44783          	lbu	a5,-17(s0)
ffffffc0502036c6:	0ff7f713          	andi	a4,a5,255
ffffffc0502036ca:	47a9                	li	a5,10
ffffffc0502036cc:	02f71363          	bne	a4,a5,ffffffc0502036f2 <screen_write_ch+0x3c>
ffffffc0502036d0:	00059797          	auipc	a5,0x59
ffffffc0502036d4:	a4878793          	addi	a5,a5,-1464 # ffffffc05025c118 <current_running>
ffffffc0502036d8:	639c                	ld	a5,0(a5)
ffffffc0502036da:	0207ae23          	sw	zero,60(a5)
ffffffc0502036de:	00059797          	auipc	a5,0x59
ffffffc0502036e2:	a3a78793          	addi	a5,a5,-1478 # ffffffc05025c118 <current_running>
ffffffc0502036e6:	639c                	ld	a5,0(a5)
ffffffc0502036e8:	43b8                	lw	a4,64(a5)
ffffffc0502036ea:	2705                	addiw	a4,a4,1
ffffffc0502036ec:	2701                	sext.w	a4,a4
ffffffc0502036ee:	c3b8                	sw	a4,64(a5)
ffffffc0502036f0:	a891                	j	ffffffc050203744 <screen_write_ch+0x8e>
ffffffc0502036f2:	00059797          	auipc	a5,0x59
ffffffc0502036f6:	a2678793          	addi	a5,a5,-1498 # ffffffc05025c118 <current_running>
ffffffc0502036fa:	639c                	ld	a5,0(a5)
ffffffc0502036fc:	43bc                	lw	a5,64(a5)
ffffffc0502036fe:	873e                	mv	a4,a5
ffffffc050203700:	87ba                	mv	a5,a4
ffffffc050203702:	0027979b          	slliw	a5,a5,0x2
ffffffc050203706:	9fb9                	addw	a5,a5,a4
ffffffc050203708:	0047979b          	slliw	a5,a5,0x4
ffffffc05020370c:	0007871b          	sext.w	a4,a5
ffffffc050203710:	00059797          	auipc	a5,0x59
ffffffc050203714:	a0878793          	addi	a5,a5,-1528 # ffffffc05025c118 <current_running>
ffffffc050203718:	639c                	ld	a5,0(a5)
ffffffc05020371a:	5fdc                	lw	a5,60(a5)
ffffffc05020371c:	9fb9                	addw	a5,a5,a4
ffffffc05020371e:	2781                	sext.w	a5,a5
ffffffc050203720:	00009717          	auipc	a4,0x9
ffffffc050203724:	36070713          	addi	a4,a4,864 # ffffffc05020ca80 <new_screen>
ffffffc050203728:	97ba                	add	a5,a5,a4
ffffffc05020372a:	fef44703          	lbu	a4,-17(s0)
ffffffc05020372e:	00e78023          	sb	a4,0(a5)
ffffffc050203732:	00059797          	auipc	a5,0x59
ffffffc050203736:	9e678793          	addi	a5,a5,-1562 # ffffffc05025c118 <current_running>
ffffffc05020373a:	639c                	ld	a5,0(a5)
ffffffc05020373c:	5fd8                	lw	a4,60(a5)
ffffffc05020373e:	2705                	addiw	a4,a4,1
ffffffc050203740:	2701                	sext.w	a4,a4
ffffffc050203742:	dfd8                	sw	a4,60(a5)
ffffffc050203744:	0001                	nop
ffffffc050203746:	6462                	ld	s0,24(sp)
ffffffc050203748:	6105                	addi	sp,sp,32
ffffffc05020374a:	8082                	ret

ffffffc05020374c <screen_write_ch_b>:
ffffffc05020374c:	1101                	addi	sp,sp,-32
ffffffc05020374e:	ec22                	sd	s0,24(sp)
ffffffc050203750:	1000                	addi	s0,sp,32
ffffffc050203752:	87aa                	mv	a5,a0
ffffffc050203754:	fef407a3          	sb	a5,-17(s0)
ffffffc050203758:	fef44783          	lbu	a5,-17(s0)
ffffffc05020375c:	0ff7f713          	andi	a4,a5,255
ffffffc050203760:	47a9                	li	a5,10
ffffffc050203762:	02f71363          	bne	a4,a5,ffffffc050203788 <screen_write_ch_b+0x3c>
ffffffc050203766:	00059797          	auipc	a5,0x59
ffffffc05020376a:	9b278793          	addi	a5,a5,-1614 # ffffffc05025c118 <current_running>
ffffffc05020376e:	639c                	ld	a5,0(a5)
ffffffc050203770:	0207ae23          	sw	zero,60(a5)
ffffffc050203774:	00059797          	auipc	a5,0x59
ffffffc050203778:	9a478793          	addi	a5,a5,-1628 # ffffffc05025c118 <current_running>
ffffffc05020377c:	639c                	ld	a5,0(a5)
ffffffc05020377e:	43b8                	lw	a4,64(a5)
ffffffc050203780:	2705                	addiw	a4,a4,1
ffffffc050203782:	2701                	sext.w	a4,a4
ffffffc050203784:	c3b8                	sw	a4,64(a5)
ffffffc050203786:	a0d9                	j	ffffffc05020384c <screen_write_ch_b+0x100>
ffffffc050203788:	fef44783          	lbu	a5,-17(s0)
ffffffc05020378c:	0ff7f713          	andi	a4,a5,255
ffffffc050203790:	47a1                	li	a5,8
ffffffc050203792:	00f70a63          	beq	a4,a5,ffffffc0502037a6 <screen_write_ch_b+0x5a>
ffffffc050203796:	fef44783          	lbu	a5,-17(s0)
ffffffc05020379a:	0ff7f713          	andi	a4,a5,255
ffffffc05020379e:	07f00793          	li	a5,127
ffffffc0502037a2:	04f71c63          	bne	a4,a5,ffffffc0502037fa <screen_write_ch_b+0xae>
ffffffc0502037a6:	00059797          	auipc	a5,0x59
ffffffc0502037aa:	97278793          	addi	a5,a5,-1678 # ffffffc05025c118 <current_running>
ffffffc0502037ae:	639c                	ld	a5,0(a5)
ffffffc0502037b0:	5fd8                	lw	a4,60(a5)
ffffffc0502037b2:	377d                	addiw	a4,a4,-1
ffffffc0502037b4:	2701                	sext.w	a4,a4
ffffffc0502037b6:	dfd8                	sw	a4,60(a5)
ffffffc0502037b8:	00059797          	auipc	a5,0x59
ffffffc0502037bc:	96078793          	addi	a5,a5,-1696 # ffffffc05025c118 <current_running>
ffffffc0502037c0:	639c                	ld	a5,0(a5)
ffffffc0502037c2:	43bc                	lw	a5,64(a5)
ffffffc0502037c4:	873e                	mv	a4,a5
ffffffc0502037c6:	87ba                	mv	a5,a4
ffffffc0502037c8:	0027979b          	slliw	a5,a5,0x2
ffffffc0502037cc:	9fb9                	addw	a5,a5,a4
ffffffc0502037ce:	0047979b          	slliw	a5,a5,0x4
ffffffc0502037d2:	0007871b          	sext.w	a4,a5
ffffffc0502037d6:	00059797          	auipc	a5,0x59
ffffffc0502037da:	94278793          	addi	a5,a5,-1726 # ffffffc05025c118 <current_running>
ffffffc0502037de:	639c                	ld	a5,0(a5)
ffffffc0502037e0:	5fdc                	lw	a5,60(a5)
ffffffc0502037e2:	9fb9                	addw	a5,a5,a4
ffffffc0502037e4:	2781                	sext.w	a5,a5
ffffffc0502037e6:	00009717          	auipc	a4,0x9
ffffffc0502037ea:	29a70713          	addi	a4,a4,666 # ffffffc05020ca80 <new_screen>
ffffffc0502037ee:	97ba                	add	a5,a5,a4
ffffffc0502037f0:	02000713          	li	a4,32
ffffffc0502037f4:	00e78023          	sb	a4,0(a5)
ffffffc0502037f8:	a891                	j	ffffffc05020384c <screen_write_ch_b+0x100>
ffffffc0502037fa:	00059797          	auipc	a5,0x59
ffffffc0502037fe:	91e78793          	addi	a5,a5,-1762 # ffffffc05025c118 <current_running>
ffffffc050203802:	639c                	ld	a5,0(a5)
ffffffc050203804:	43bc                	lw	a5,64(a5)
ffffffc050203806:	873e                	mv	a4,a5
ffffffc050203808:	87ba                	mv	a5,a4
ffffffc05020380a:	0027979b          	slliw	a5,a5,0x2
ffffffc05020380e:	9fb9                	addw	a5,a5,a4
ffffffc050203810:	0047979b          	slliw	a5,a5,0x4
ffffffc050203814:	0007871b          	sext.w	a4,a5
ffffffc050203818:	00059797          	auipc	a5,0x59
ffffffc05020381c:	90078793          	addi	a5,a5,-1792 # ffffffc05025c118 <current_running>
ffffffc050203820:	639c                	ld	a5,0(a5)
ffffffc050203822:	5fdc                	lw	a5,60(a5)
ffffffc050203824:	9fb9                	addw	a5,a5,a4
ffffffc050203826:	2781                	sext.w	a5,a5
ffffffc050203828:	00009717          	auipc	a4,0x9
ffffffc05020382c:	25870713          	addi	a4,a4,600 # ffffffc05020ca80 <new_screen>
ffffffc050203830:	97ba                	add	a5,a5,a4
ffffffc050203832:	fef44703          	lbu	a4,-17(s0)
ffffffc050203836:	00e78023          	sb	a4,0(a5)
ffffffc05020383a:	00059797          	auipc	a5,0x59
ffffffc05020383e:	8de78793          	addi	a5,a5,-1826 # ffffffc05025c118 <current_running>
ffffffc050203842:	639c                	ld	a5,0(a5)
ffffffc050203844:	5fd8                	lw	a4,60(a5)
ffffffc050203846:	2705                	addiw	a4,a4,1
ffffffc050203848:	2701                	sext.w	a4,a4
ffffffc05020384a:	dfd8                	sw	a4,60(a5)
ffffffc05020384c:	0001                	nop
ffffffc05020384e:	6462                	ld	s0,24(sp)
ffffffc050203850:	6105                	addi	sp,sp,32
ffffffc050203852:	8082                	ret

ffffffc050203854 <init_screen>:
ffffffc050203854:	1141                	addi	sp,sp,-16
ffffffc050203856:	e406                	sd	ra,8(sp)
ffffffc050203858:	e022                	sd	s0,0(sp)
ffffffc05020385a:	0800                	addi	s0,sp,16
ffffffc05020385c:	e3bff0ef          	jal	ra,ffffffc050203696 <vt100_hidden_cursor>
ffffffc050203860:	e17ff0ef          	jal	ra,ffffffc050203676 <vt100_clear>
ffffffc050203864:	00e000ef          	jal	ra,ffffffc050203872 <screen_clear>
ffffffc050203868:	0001                	nop
ffffffc05020386a:	60a2                	ld	ra,8(sp)
ffffffc05020386c:	6402                	ld	s0,0(sp)
ffffffc05020386e:	0141                	addi	sp,sp,16
ffffffc050203870:	8082                	ret

ffffffc050203872 <screen_clear>:
ffffffc050203872:	1101                	addi	sp,sp,-32
ffffffc050203874:	ec06                	sd	ra,24(sp)
ffffffc050203876:	e822                	sd	s0,16(sp)
ffffffc050203878:	1000                	addi	s0,sp,32
ffffffc05020387a:	fe042623          	sw	zero,-20(s0)
ffffffc05020387e:	a8a1                	j	ffffffc0502038d6 <screen_clear+0x64>
ffffffc050203880:	fe042423          	sw	zero,-24(s0)
ffffffc050203884:	a825                	j	ffffffc0502038bc <screen_clear+0x4a>
ffffffc050203886:	fec42703          	lw	a4,-20(s0)
ffffffc05020388a:	87ba                	mv	a5,a4
ffffffc05020388c:	0027979b          	slliw	a5,a5,0x2
ffffffc050203890:	9fb9                	addw	a5,a5,a4
ffffffc050203892:	0047979b          	slliw	a5,a5,0x4
ffffffc050203896:	2781                	sext.w	a5,a5
ffffffc050203898:	fe842703          	lw	a4,-24(s0)
ffffffc05020389c:	9fb9                	addw	a5,a5,a4
ffffffc05020389e:	2781                	sext.w	a5,a5
ffffffc0502038a0:	00009717          	auipc	a4,0x9
ffffffc0502038a4:	1e070713          	addi	a4,a4,480 # ffffffc05020ca80 <new_screen>
ffffffc0502038a8:	97ba                	add	a5,a5,a4
ffffffc0502038aa:	02000713          	li	a4,32
ffffffc0502038ae:	00e78023          	sb	a4,0(a5)
ffffffc0502038b2:	fe842783          	lw	a5,-24(s0)
ffffffc0502038b6:	2785                	addiw	a5,a5,1
ffffffc0502038b8:	fef42423          	sw	a5,-24(s0)
ffffffc0502038bc:	fe842783          	lw	a5,-24(s0)
ffffffc0502038c0:	0007871b          	sext.w	a4,a5
ffffffc0502038c4:	04f00793          	li	a5,79
ffffffc0502038c8:	fae7dfe3          	bge	a5,a4,ffffffc050203886 <screen_clear+0x14>
ffffffc0502038cc:	fec42783          	lw	a5,-20(s0)
ffffffc0502038d0:	2785                	addiw	a5,a5,1
ffffffc0502038d2:	fef42623          	sw	a5,-20(s0)
ffffffc0502038d6:	fec42783          	lw	a5,-20(s0)
ffffffc0502038da:	0007871b          	sext.w	a4,a5
ffffffc0502038de:	03100793          	li	a5,49
ffffffc0502038e2:	f8e7dfe3          	bge	a5,a4,ffffffc050203880 <screen_clear+0xe>
ffffffc0502038e6:	00059797          	auipc	a5,0x59
ffffffc0502038ea:	83278793          	addi	a5,a5,-1998 # ffffffc05025c118 <current_running>
ffffffc0502038ee:	639c                	ld	a5,0(a5)
ffffffc0502038f0:	0207ae23          	sw	zero,60(a5)
ffffffc0502038f4:	00059797          	auipc	a5,0x59
ffffffc0502038f8:	82478793          	addi	a5,a5,-2012 # ffffffc05025c118 <current_running>
ffffffc0502038fc:	639c                	ld	a5,0(a5)
ffffffc0502038fe:	0407a023          	sw	zero,64(a5)
ffffffc050203902:	0bc000ef          	jal	ra,ffffffc0502039be <screen_reflush>
ffffffc050203906:	0001                	nop
ffffffc050203908:	60e2                	ld	ra,24(sp)
ffffffc05020390a:	6442                	ld	s0,16(sp)
ffffffc05020390c:	6105                	addi	sp,sp,32
ffffffc05020390e:	8082                	ret

ffffffc050203910 <screen_move_cursor>:
ffffffc050203910:	1101                	addi	sp,sp,-32
ffffffc050203912:	ec06                	sd	ra,24(sp)
ffffffc050203914:	e822                	sd	s0,16(sp)
ffffffc050203916:	1000                	addi	s0,sp,32
ffffffc050203918:	87aa                	mv	a5,a0
ffffffc05020391a:	872e                	mv	a4,a1
ffffffc05020391c:	fef42623          	sw	a5,-20(s0)
ffffffc050203920:	87ba                	mv	a5,a4
ffffffc050203922:	fef42423          	sw	a5,-24(s0)
ffffffc050203926:	00058797          	auipc	a5,0x58
ffffffc05020392a:	7f278793          	addi	a5,a5,2034 # ffffffc05025c118 <current_running>
ffffffc05020392e:	639c                	ld	a5,0(a5)
ffffffc050203930:	fec42703          	lw	a4,-20(s0)
ffffffc050203934:	dfd8                	sw	a4,60(a5)
ffffffc050203936:	00058797          	auipc	a5,0x58
ffffffc05020393a:	7e278793          	addi	a5,a5,2018 # ffffffc05025c118 <current_running>
ffffffc05020393e:	639c                	ld	a5,0(a5)
ffffffc050203940:	fe842703          	lw	a4,-24(s0)
ffffffc050203944:	c3b8                	sw	a4,64(a5)
ffffffc050203946:	fe842703          	lw	a4,-24(s0)
ffffffc05020394a:	fec42783          	lw	a5,-20(s0)
ffffffc05020394e:	85ba                	mv	a1,a4
ffffffc050203950:	853e                	mv	a0,a5
ffffffc050203952:	cebff0ef          	jal	ra,ffffffc05020363c <vt100_move_cursor>
ffffffc050203956:	0001                	nop
ffffffc050203958:	60e2                	ld	ra,24(sp)
ffffffc05020395a:	6442                	ld	s0,16(sp)
ffffffc05020395c:	6105                	addi	sp,sp,32
ffffffc05020395e:	8082                	ret

ffffffc050203960 <screen_write>:
ffffffc050203960:	7179                	addi	sp,sp,-48
ffffffc050203962:	f406                	sd	ra,40(sp)
ffffffc050203964:	f022                	sd	s0,32(sp)
ffffffc050203966:	1800                	addi	s0,sp,48
ffffffc050203968:	fca43c23          	sd	a0,-40(s0)
ffffffc05020396c:	fe042623          	sw	zero,-20(s0)
ffffffc050203970:	fd843503          	ld	a0,-40(s0)
ffffffc050203974:	79c070ef          	jal	ra,ffffffc05020b110 <strlen>
ffffffc050203978:	87aa                	mv	a5,a0
ffffffc05020397a:	fef42423          	sw	a5,-24(s0)
ffffffc05020397e:	fe042623          	sw	zero,-20(s0)
ffffffc050203982:	a005                	j	ffffffc0502039a2 <screen_write+0x42>
ffffffc050203984:	fec42783          	lw	a5,-20(s0)
ffffffc050203988:	fd843703          	ld	a4,-40(s0)
ffffffc05020398c:	97ba                	add	a5,a5,a4
ffffffc05020398e:	0007c783          	lbu	a5,0(a5)
ffffffc050203992:	853e                	mv	a0,a5
ffffffc050203994:	db9ff0ef          	jal	ra,ffffffc05020374c <screen_write_ch_b>
ffffffc050203998:	fec42783          	lw	a5,-20(s0)
ffffffc05020399c:	2785                	addiw	a5,a5,1
ffffffc05020399e:	fef42623          	sw	a5,-20(s0)
ffffffc0502039a2:	fec42703          	lw	a4,-20(s0)
ffffffc0502039a6:	fe842783          	lw	a5,-24(s0)
ffffffc0502039aa:	2701                	sext.w	a4,a4
ffffffc0502039ac:	2781                	sext.w	a5,a5
ffffffc0502039ae:	fcf74be3          	blt	a4,a5,ffffffc050203984 <screen_write+0x24>
ffffffc0502039b2:	0001                	nop
ffffffc0502039b4:	0001                	nop
ffffffc0502039b6:	70a2                	ld	ra,40(sp)
ffffffc0502039b8:	7402                	ld	s0,32(sp)
ffffffc0502039ba:	6145                	addi	sp,sp,48
ffffffc0502039bc:	8082                	ret

ffffffc0502039be <screen_reflush>:
ffffffc0502039be:	1101                	addi	sp,sp,-32
ffffffc0502039c0:	ec06                	sd	ra,24(sp)
ffffffc0502039c2:	e822                	sd	s0,16(sp)
ffffffc0502039c4:	1000                	addi	s0,sp,32
ffffffc0502039c6:	fe042623          	sw	zero,-20(s0)
ffffffc0502039ca:	aa39                	j	ffffffc050203ae8 <screen_reflush+0x12a>
ffffffc0502039cc:	fe042423          	sw	zero,-24(s0)
ffffffc0502039d0:	a8fd                	j	ffffffc050203ace <screen_reflush+0x110>
ffffffc0502039d2:	fec42703          	lw	a4,-20(s0)
ffffffc0502039d6:	87ba                	mv	a5,a4
ffffffc0502039d8:	0027979b          	slliw	a5,a5,0x2
ffffffc0502039dc:	9fb9                	addw	a5,a5,a4
ffffffc0502039de:	0047979b          	slliw	a5,a5,0x4
ffffffc0502039e2:	2781                	sext.w	a5,a5
ffffffc0502039e4:	fe842703          	lw	a4,-24(s0)
ffffffc0502039e8:	9fb9                	addw	a5,a5,a4
ffffffc0502039ea:	2781                	sext.w	a5,a5
ffffffc0502039ec:	00009717          	auipc	a4,0x9
ffffffc0502039f0:	09470713          	addi	a4,a4,148 # ffffffc05020ca80 <new_screen>
ffffffc0502039f4:	97ba                	add	a5,a5,a4
ffffffc0502039f6:	0007c683          	lbu	a3,0(a5)
ffffffc0502039fa:	fec42703          	lw	a4,-20(s0)
ffffffc0502039fe:	87ba                	mv	a5,a4
ffffffc050203a00:	0027979b          	slliw	a5,a5,0x2
ffffffc050203a04:	9fb9                	addw	a5,a5,a4
ffffffc050203a06:	0047979b          	slliw	a5,a5,0x4
ffffffc050203a0a:	2781                	sext.w	a5,a5
ffffffc050203a0c:	fe842703          	lw	a4,-24(s0)
ffffffc050203a10:	9fb9                	addw	a5,a5,a4
ffffffc050203a12:	2781                	sext.w	a5,a5
ffffffc050203a14:	0000a717          	auipc	a4,0xa
ffffffc050203a18:	00c70713          	addi	a4,a4,12 # ffffffc05020da20 <old_screen>
ffffffc050203a1c:	97ba                	add	a5,a5,a4
ffffffc050203a1e:	0007c783          	lbu	a5,0(a5)
ffffffc050203a22:	8736                	mv	a4,a3
ffffffc050203a24:	0af70063          	beq	a4,a5,ffffffc050203ac4 <screen_reflush+0x106>
ffffffc050203a28:	fe842783          	lw	a5,-24(s0)
ffffffc050203a2c:	2785                	addiw	a5,a5,1
ffffffc050203a2e:	0007871b          	sext.w	a4,a5
ffffffc050203a32:	fec42783          	lw	a5,-20(s0)
ffffffc050203a36:	2785                	addiw	a5,a5,1
ffffffc050203a38:	2781                	sext.w	a5,a5
ffffffc050203a3a:	85be                	mv	a1,a5
ffffffc050203a3c:	853a                	mv	a0,a4
ffffffc050203a3e:	bffff0ef          	jal	ra,ffffffc05020363c <vt100_move_cursor>
ffffffc050203a42:	fec42703          	lw	a4,-20(s0)
ffffffc050203a46:	87ba                	mv	a5,a4
ffffffc050203a48:	0027979b          	slliw	a5,a5,0x2
ffffffc050203a4c:	9fb9                	addw	a5,a5,a4
ffffffc050203a4e:	0047979b          	slliw	a5,a5,0x4
ffffffc050203a52:	2781                	sext.w	a5,a5
ffffffc050203a54:	fe842703          	lw	a4,-24(s0)
ffffffc050203a58:	9fb9                	addw	a5,a5,a4
ffffffc050203a5a:	2781                	sext.w	a5,a5
ffffffc050203a5c:	00009717          	auipc	a4,0x9
ffffffc050203a60:	02470713          	addi	a4,a4,36 # ffffffc05020ca80 <new_screen>
ffffffc050203a64:	97ba                	add	a5,a5,a4
ffffffc050203a66:	0007c783          	lbu	a5,0(a5)
ffffffc050203a6a:	2781                	sext.w	a5,a5
ffffffc050203a6c:	853e                	mv	a0,a5
ffffffc050203a6e:	ba7ff0ef          	jal	ra,ffffffc050203614 <bios_putchar>
ffffffc050203a72:	fec42703          	lw	a4,-20(s0)
ffffffc050203a76:	87ba                	mv	a5,a4
ffffffc050203a78:	0027979b          	slliw	a5,a5,0x2
ffffffc050203a7c:	9fb9                	addw	a5,a5,a4
ffffffc050203a7e:	0047979b          	slliw	a5,a5,0x4
ffffffc050203a82:	2781                	sext.w	a5,a5
ffffffc050203a84:	fe842703          	lw	a4,-24(s0)
ffffffc050203a88:	9fb9                	addw	a5,a5,a4
ffffffc050203a8a:	0007869b          	sext.w	a3,a5
ffffffc050203a8e:	fec42703          	lw	a4,-20(s0)
ffffffc050203a92:	87ba                	mv	a5,a4
ffffffc050203a94:	0027979b          	slliw	a5,a5,0x2
ffffffc050203a98:	9fb9                	addw	a5,a5,a4
ffffffc050203a9a:	0047979b          	slliw	a5,a5,0x4
ffffffc050203a9e:	2781                	sext.w	a5,a5
ffffffc050203aa0:	fe842703          	lw	a4,-24(s0)
ffffffc050203aa4:	9fb9                	addw	a5,a5,a4
ffffffc050203aa6:	2781                	sext.w	a5,a5
ffffffc050203aa8:	00009717          	auipc	a4,0x9
ffffffc050203aac:	fd870713          	addi	a4,a4,-40 # ffffffc05020ca80 <new_screen>
ffffffc050203ab0:	9736                	add	a4,a4,a3
ffffffc050203ab2:	00074703          	lbu	a4,0(a4)
ffffffc050203ab6:	0000a697          	auipc	a3,0xa
ffffffc050203aba:	f6a68693          	addi	a3,a3,-150 # ffffffc05020da20 <old_screen>
ffffffc050203abe:	97b6                	add	a5,a5,a3
ffffffc050203ac0:	00e78023          	sb	a4,0(a5)
ffffffc050203ac4:	fe842783          	lw	a5,-24(s0)
ffffffc050203ac8:	2785                	addiw	a5,a5,1
ffffffc050203aca:	fef42423          	sw	a5,-24(s0)
ffffffc050203ace:	fe842783          	lw	a5,-24(s0)
ffffffc050203ad2:	0007871b          	sext.w	a4,a5
ffffffc050203ad6:	04f00793          	li	a5,79
ffffffc050203ada:	eee7dce3          	bge	a5,a4,ffffffc0502039d2 <screen_reflush+0x14>
ffffffc050203ade:	fec42783          	lw	a5,-20(s0)
ffffffc050203ae2:	2785                	addiw	a5,a5,1
ffffffc050203ae4:	fef42623          	sw	a5,-20(s0)
ffffffc050203ae8:	fec42783          	lw	a5,-20(s0)
ffffffc050203aec:	0007871b          	sext.w	a4,a5
ffffffc050203af0:	03100793          	li	a5,49
ffffffc050203af4:	ece7dce3          	bge	a5,a4,ffffffc0502039cc <screen_reflush+0xe>
ffffffc050203af8:	00058797          	auipc	a5,0x58
ffffffc050203afc:	62078793          	addi	a5,a5,1568 # ffffffc05025c118 <current_running>
ffffffc050203b00:	639c                	ld	a5,0(a5)
ffffffc050203b02:	5fd8                	lw	a4,60(a5)
ffffffc050203b04:	00058797          	auipc	a5,0x58
ffffffc050203b08:	61478793          	addi	a5,a5,1556 # ffffffc05025c118 <current_running>
ffffffc050203b0c:	639c                	ld	a5,0(a5)
ffffffc050203b0e:	43bc                	lw	a5,64(a5)
ffffffc050203b10:	85be                	mv	a1,a5
ffffffc050203b12:	853a                	mv	a0,a4
ffffffc050203b14:	b29ff0ef          	jal	ra,ffffffc05020363c <vt100_move_cursor>
ffffffc050203b18:	0001                	nop
ffffffc050203b1a:	60e2                	ld	ra,24(sp)
ffffffc050203b1c:	6442                	ld	s0,16(sp)
ffffffc050203b1e:	6105                	addi	sp,sp,32
ffffffc050203b20:	8082                	ret

ffffffc050203b22 <writel>:
ffffffc050203b22:	1101                	addi	sp,sp,-32
ffffffc050203b24:	ec22                	sd	s0,24(sp)
ffffffc050203b26:	1000                	addi	s0,sp,32
ffffffc050203b28:	87aa                	mv	a5,a0
ffffffc050203b2a:	feb43023          	sd	a1,-32(s0)
ffffffc050203b2e:	fef42623          	sw	a5,-20(s0)
ffffffc050203b32:	0550000f          	fence	ow,ow
ffffffc050203b36:	fe043783          	ld	a5,-32(s0)
ffffffc050203b3a:	fec42703          	lw	a4,-20(s0)
ffffffc050203b3e:	c398                	sw	a4,0(a5)
ffffffc050203b40:	0001                	nop
ffffffc050203b42:	6462                	ld	s0,24(sp)
ffffffc050203b44:	6105                	addi	sp,sp,32
ffffffc050203b46:	8082                	ret

ffffffc050203b48 <readl>:
ffffffc050203b48:	7179                	addi	sp,sp,-48
ffffffc050203b4a:	f422                	sd	s0,40(sp)
ffffffc050203b4c:	1800                	addi	s0,sp,48
ffffffc050203b4e:	fca43c23          	sd	a0,-40(s0)
ffffffc050203b52:	fd843783          	ld	a5,-40(s0)
ffffffc050203b56:	439c                	lw	a5,0(a5)
ffffffc050203b58:	fef42623          	sw	a5,-20(s0)
ffffffc050203b5c:	0aa0000f          	fence	ir,ir
ffffffc050203b60:	fec42783          	lw	a5,-20(s0)
ffffffc050203b64:	853e                	mv	a0,a5
ffffffc050203b66:	7422                	ld	s0,40(sp)
ffffffc050203b68:	6145                	addi	sp,sp,48
ffffffc050203b6a:	8082                	ret

ffffffc050203b6c <local_flush_dcache>:
ffffffc050203b6c:	1141                	addi	sp,sp,-16
ffffffc050203b6e:	e422                	sd	s0,8(sp)
ffffffc050203b70:	0800                	addi	s0,sp,16
ffffffc050203b72:	0ff0000f          	fence
ffffffc050203b76:	0001                	nop
ffffffc050203b78:	6422                	ld	s0,8(sp)
ffffffc050203b7a:	0141                	addi	sp,sp,16
ffffffc050203b7c:	8082                	ret

ffffffc050203b7e <e1000_write_reg>:
ffffffc050203b7e:	1101                	addi	sp,sp,-32
ffffffc050203b80:	ec06                	sd	ra,24(sp)
ffffffc050203b82:	e822                	sd	s0,16(sp)
ffffffc050203b84:	1000                	addi	s0,sp,32
ffffffc050203b86:	fea43423          	sd	a0,-24(s0)
ffffffc050203b8a:	87ae                	mv	a5,a1
ffffffc050203b8c:	8732                	mv	a4,a2
ffffffc050203b8e:	fef42223          	sw	a5,-28(s0)
ffffffc050203b92:	87ba                	mv	a5,a4
ffffffc050203b94:	fef42023          	sw	a5,-32(s0)
ffffffc050203b98:	fe446783          	lwu	a5,-28(s0)
ffffffc050203b9c:	fe843703          	ld	a4,-24(s0)
ffffffc050203ba0:	973e                	add	a4,a4,a5
ffffffc050203ba2:	fe042783          	lw	a5,-32(s0)
ffffffc050203ba6:	85ba                	mv	a1,a4
ffffffc050203ba8:	853e                	mv	a0,a5
ffffffc050203baa:	f79ff0ef          	jal	ra,ffffffc050203b22 <writel>
ffffffc050203bae:	0001                	nop
ffffffc050203bb0:	60e2                	ld	ra,24(sp)
ffffffc050203bb2:	6442                	ld	s0,16(sp)
ffffffc050203bb4:	6105                	addi	sp,sp,32
ffffffc050203bb6:	8082                	ret

ffffffc050203bb8 <e1000_read_reg>:
ffffffc050203bb8:	1101                	addi	sp,sp,-32
ffffffc050203bba:	ec06                	sd	ra,24(sp)
ffffffc050203bbc:	e822                	sd	s0,16(sp)
ffffffc050203bbe:	1000                	addi	s0,sp,32
ffffffc050203bc0:	fea43423          	sd	a0,-24(s0)
ffffffc050203bc4:	87ae                	mv	a5,a1
ffffffc050203bc6:	fef42223          	sw	a5,-28(s0)
ffffffc050203bca:	fe446783          	lwu	a5,-28(s0)
ffffffc050203bce:	fe843703          	ld	a4,-24(s0)
ffffffc050203bd2:	97ba                	add	a5,a5,a4
ffffffc050203bd4:	853e                	mv	a0,a5
ffffffc050203bd6:	f73ff0ef          	jal	ra,ffffffc050203b48 <readl>
ffffffc050203bda:	87aa                	mv	a5,a0
ffffffc050203bdc:	2781                	sext.w	a5,a5
ffffffc050203bde:	853e                	mv	a0,a5
ffffffc050203be0:	60e2                	ld	ra,24(sp)
ffffffc050203be2:	6442                	ld	s0,16(sp)
ffffffc050203be4:	6105                	addi	sp,sp,32
ffffffc050203be6:	8082                	ret

ffffffc050203be8 <e1000_write_reg_array>:
ffffffc050203be8:	7179                	addi	sp,sp,-48
ffffffc050203bea:	f406                	sd	ra,40(sp)
ffffffc050203bec:	f022                	sd	s0,32(sp)
ffffffc050203bee:	1800                	addi	s0,sp,48
ffffffc050203bf0:	fea43423          	sd	a0,-24(s0)
ffffffc050203bf4:	87ae                	mv	a5,a1
ffffffc050203bf6:	8736                	mv	a4,a3
ffffffc050203bf8:	fef42223          	sw	a5,-28(s0)
ffffffc050203bfc:	87b2                	mv	a5,a2
ffffffc050203bfe:	fef42023          	sw	a5,-32(s0)
ffffffc050203c02:	87ba                	mv	a5,a4
ffffffc050203c04:	fcf42e23          	sw	a5,-36(s0)
ffffffc050203c08:	fe446703          	lwu	a4,-28(s0)
ffffffc050203c0c:	fe042783          	lw	a5,-32(s0)
ffffffc050203c10:	0027979b          	slliw	a5,a5,0x2
ffffffc050203c14:	2781                	sext.w	a5,a5
ffffffc050203c16:	1782                	slli	a5,a5,0x20
ffffffc050203c18:	9381                	srli	a5,a5,0x20
ffffffc050203c1a:	97ba                	add	a5,a5,a4
ffffffc050203c1c:	fe843703          	ld	a4,-24(s0)
ffffffc050203c20:	973e                	add	a4,a4,a5
ffffffc050203c22:	fdc42783          	lw	a5,-36(s0)
ffffffc050203c26:	85ba                	mv	a1,a4
ffffffc050203c28:	853e                	mv	a0,a5
ffffffc050203c2a:	ef9ff0ef          	jal	ra,ffffffc050203b22 <writel>
ffffffc050203c2e:	0001                	nop
ffffffc050203c30:	70a2                	ld	ra,40(sp)
ffffffc050203c32:	7402                	ld	s0,32(sp)
ffffffc050203c34:	6145                	addi	sp,sp,48
ffffffc050203c36:	8082                	ret

ffffffc050203c38 <kva2pa>:
ffffffc050203c38:	7179                	addi	sp,sp,-48
ffffffc050203c3a:	f422                	sd	s0,40(sp)
ffffffc050203c3c:	1800                	addi	s0,sp,48
ffffffc050203c3e:	fca43c23          	sd	a0,-40(s0)
ffffffc050203c42:	57fd                	li	a5,-1
ffffffc050203c44:	9381                	srli	a5,a5,0x20
ffffffc050203c46:	fef43423          	sd	a5,-24(s0)
ffffffc050203c4a:	fd843703          	ld	a4,-40(s0)
ffffffc050203c4e:	fe843783          	ld	a5,-24(s0)
ffffffc050203c52:	8ff9                	and	a5,a5,a4
ffffffc050203c54:	fef43023          	sd	a5,-32(s0)
ffffffc050203c58:	fe043783          	ld	a5,-32(s0)
ffffffc050203c5c:	853e                	mv	a0,a5
ffffffc050203c5e:	7422                	ld	s0,40(sp)
ffffffc050203c60:	6145                	addi	sp,sp,48
ffffffc050203c62:	8082                	ret

ffffffc050203c64 <Enqueue>:
ffffffc050203c64:	7179                	addi	sp,sp,-48
ffffffc050203c66:	f422                	sd	s0,40(sp)
ffffffc050203c68:	1800                	addi	s0,sp,48
ffffffc050203c6a:	fca43c23          	sd	a0,-40(s0)
ffffffc050203c6e:	fcb43823          	sd	a1,-48(s0)
ffffffc050203c72:	fd843783          	ld	a5,-40(s0)
ffffffc050203c76:	679c                	ld	a5,8(a5)
ffffffc050203c78:	fef43423          	sd	a5,-24(s0)
ffffffc050203c7c:	fd843783          	ld	a5,-40(s0)
ffffffc050203c80:	639c                	ld	a5,0(a5)
ffffffc050203c82:	fef43023          	sd	a5,-32(s0)
ffffffc050203c86:	fe843703          	ld	a4,-24(s0)
ffffffc050203c8a:	fd843783          	ld	a5,-40(s0)
ffffffc050203c8e:	02f71f63          	bne	a4,a5,ffffffc050203ccc <Enqueue+0x68>
ffffffc050203c92:	fe043703          	ld	a4,-32(s0)
ffffffc050203c96:	fd843783          	ld	a5,-40(s0)
ffffffc050203c9a:	02f71963          	bne	a4,a5,ffffffc050203ccc <Enqueue+0x68>
ffffffc050203c9e:	fd843783          	ld	a5,-40(s0)
ffffffc050203ca2:	fd043703          	ld	a4,-48(s0)
ffffffc050203ca6:	e398                	sd	a4,0(a5)
ffffffc050203ca8:	fd843783          	ld	a5,-40(s0)
ffffffc050203cac:	6398                	ld	a4,0(a5)
ffffffc050203cae:	fd843783          	ld	a5,-40(s0)
ffffffc050203cb2:	e798                	sd	a4,8(a5)
ffffffc050203cb4:	fd043783          	ld	a5,-48(s0)
ffffffc050203cb8:	fd843703          	ld	a4,-40(s0)
ffffffc050203cbc:	e398                	sd	a4,0(a5)
ffffffc050203cbe:	fd043783          	ld	a5,-48(s0)
ffffffc050203cc2:	6398                	ld	a4,0(a5)
ffffffc050203cc4:	fd043783          	ld	a5,-48(s0)
ffffffc050203cc8:	e798                	sd	a4,8(a5)
ffffffc050203cca:	a035                	j	ffffffc050203cf6 <Enqueue+0x92>
ffffffc050203ccc:	fd843783          	ld	a5,-40(s0)
ffffffc050203cd0:	fd043703          	ld	a4,-48(s0)
ffffffc050203cd4:	e798                	sd	a4,8(a5)
ffffffc050203cd6:	fd043783          	ld	a5,-48(s0)
ffffffc050203cda:	fe843703          	ld	a4,-24(s0)
ffffffc050203cde:	e398                	sd	a4,0(a5)
ffffffc050203ce0:	fd043783          	ld	a5,-48(s0)
ffffffc050203ce4:	fd843703          	ld	a4,-40(s0)
ffffffc050203ce8:	e798                	sd	a4,8(a5)
ffffffc050203cea:	fe843783          	ld	a5,-24(s0)
ffffffc050203cee:	fd043703          	ld	a4,-48(s0)
ffffffc050203cf2:	e798                	sd	a4,8(a5)
ffffffc050203cf4:	0001                	nop
ffffffc050203cf6:	0001                	nop
ffffffc050203cf8:	7422                	ld	s0,40(sp)
ffffffc050203cfa:	6145                	addi	sp,sp,48
ffffffc050203cfc:	8082                	ret

ffffffc050203cfe <e1000_reset>:
ffffffc050203cfe:	1141                	addi	sp,sp,-16
ffffffc050203d00:	e406                	sd	ra,8(sp)
ffffffc050203d02:	e022                	sd	s0,0(sp)
ffffffc050203d04:	0800                	addi	s0,sp,16
ffffffc050203d06:	0004b797          	auipc	a5,0x4b
ffffffc050203d0a:	70278793          	addi	a5,a5,1794 # ffffffc05024f408 <e1000>
ffffffc050203d0e:	639c                	ld	a5,0(a5)
ffffffc050203d10:	4601                	li	a2,0
ffffffc050203d12:	10000593          	li	a1,256
ffffffc050203d16:	853e                	mv	a0,a5
ffffffc050203d18:	e67ff0ef          	jal	ra,ffffffc050203b7e <e1000_write_reg>
ffffffc050203d1c:	0004b797          	auipc	a5,0x4b
ffffffc050203d20:	6ec78793          	addi	a5,a5,1772 # ffffffc05024f408 <e1000>
ffffffc050203d24:	639c                	ld	a5,0(a5)
ffffffc050203d26:	4601                	li	a2,0
ffffffc050203d28:	40000593          	li	a1,1024
ffffffc050203d2c:	853e                	mv	a0,a5
ffffffc050203d2e:	e51ff0ef          	jal	ra,ffffffc050203b7e <e1000_write_reg>
ffffffc050203d32:	0004b797          	auipc	a5,0x4b
ffffffc050203d36:	6d678793          	addi	a5,a5,1750 # ffffffc05024f408 <e1000>
ffffffc050203d3a:	6398                	ld	a4,0(a5)
ffffffc050203d3c:	4601                	li	a2,0
ffffffc050203d3e:	6791                	lui	a5,0x4
ffffffc050203d40:	81078593          	addi	a1,a5,-2032 # 3810 <boot_stack_top_base-0x501fe7f0>
ffffffc050203d44:	853a                	mv	a0,a4
ffffffc050203d46:	e39ff0ef          	jal	ra,ffffffc050203b7e <e1000_write_reg>
ffffffc050203d4a:	0004b797          	auipc	a5,0x4b
ffffffc050203d4e:	6be78793          	addi	a5,a5,1726 # ffffffc05024f408 <e1000>
ffffffc050203d52:	6398                	ld	a4,0(a5)
ffffffc050203d54:	4601                	li	a2,0
ffffffc050203d56:	6791                	lui	a5,0x4
ffffffc050203d58:	81878593          	addi	a1,a5,-2024 # 3818 <boot_stack_top_base-0x501fe7e8>
ffffffc050203d5c:	853a                	mv	a0,a4
ffffffc050203d5e:	e21ff0ef          	jal	ra,ffffffc050203b7e <e1000_write_reg>
ffffffc050203d62:	0004b797          	auipc	a5,0x4b
ffffffc050203d66:	6a678793          	addi	a5,a5,1702 # ffffffc05024f408 <e1000>
ffffffc050203d6a:	6398                	ld	a4,0(a5)
ffffffc050203d6c:	4601                	li	a2,0
ffffffc050203d6e:	678d                	lui	a5,0x3
ffffffc050203d70:	81078593          	addi	a1,a5,-2032 # 2810 <boot_stack_top_base-0x501ff7f0>
ffffffc050203d74:	853a                	mv	a0,a4
ffffffc050203d76:	e09ff0ef          	jal	ra,ffffffc050203b7e <e1000_write_reg>
ffffffc050203d7a:	0004b797          	auipc	a5,0x4b
ffffffc050203d7e:	68e78793          	addi	a5,a5,1678 # ffffffc05024f408 <e1000>
ffffffc050203d82:	6398                	ld	a4,0(a5)
ffffffc050203d84:	4601                	li	a2,0
ffffffc050203d86:	678d                	lui	a5,0x3
ffffffc050203d88:	81878593          	addi	a1,a5,-2024 # 2818 <boot_stack_top_base-0x501ff7e8>
ffffffc050203d8c:	853a                	mv	a0,a4
ffffffc050203d8e:	df1ff0ef          	jal	ra,ffffffc050203b7e <e1000_write_reg>
ffffffc050203d92:	4505                	li	a0,1
ffffffc050203d94:	043040ef          	jal	ra,ffffffc0502085d6 <latency>
ffffffc050203d98:	0004b797          	auipc	a5,0x4b
ffffffc050203d9c:	67078793          	addi	a5,a5,1648 # ffffffc05024f408 <e1000>
ffffffc050203da0:	639c                	ld	a5,0(a5)
ffffffc050203da2:	567d                	li	a2,-1
ffffffc050203da4:	0d800593          	li	a1,216
ffffffc050203da8:	853e                	mv	a0,a5
ffffffc050203daa:	dd5ff0ef          	jal	ra,ffffffc050203b7e <e1000_write_reg>
ffffffc050203dae:	0001                	nop
ffffffc050203db0:	0004b797          	auipc	a5,0x4b
ffffffc050203db4:	65878793          	addi	a5,a5,1624 # ffffffc05024f408 <e1000>
ffffffc050203db8:	639c                	ld	a5,0(a5)
ffffffc050203dba:	0c000593          	li	a1,192
ffffffc050203dbe:	853e                	mv	a0,a5
ffffffc050203dc0:	df9ff0ef          	jal	ra,ffffffc050203bb8 <e1000_read_reg>
ffffffc050203dc4:	87aa                	mv	a5,a0
ffffffc050203dc6:	2781                	sext.w	a5,a5
ffffffc050203dc8:	f7e5                	bnez	a5,ffffffc050203db0 <e1000_reset+0xb2>
ffffffc050203dca:	0001                	nop
ffffffc050203dcc:	0001                	nop
ffffffc050203dce:	60a2                	ld	ra,8(sp)
ffffffc050203dd0:	6402                	ld	s0,0(sp)
ffffffc050203dd2:	0141                	addi	sp,sp,16
ffffffc050203dd4:	8082                	ret

ffffffc050203dd6 <init_all_tx_desc>:
ffffffc050203dd6:	1101                	addi	sp,sp,-32
ffffffc050203dd8:	ec22                	sd	s0,24(sp)
ffffffc050203dda:	1000                	addi	s0,sp,32
ffffffc050203ddc:	fe042623          	sw	zero,-20(s0)
ffffffc050203de0:	a059                	j	ffffffc050203e66 <init_all_tx_desc+0x90>
ffffffc050203de2:	0000b717          	auipc	a4,0xb
ffffffc050203de6:	bde70713          	addi	a4,a4,-1058 # ffffffc05020e9c0 <tx_desc_array>
ffffffc050203dea:	fec42783          	lw	a5,-20(s0)
ffffffc050203dee:	0792                	slli	a5,a5,0x4
ffffffc050203df0:	97ba                	add	a5,a5,a4
ffffffc050203df2:	0007b023          	sd	zero,0(a5)
ffffffc050203df6:	0000b717          	auipc	a4,0xb
ffffffc050203dfa:	bca70713          	addi	a4,a4,-1078 # ffffffc05020e9c0 <tx_desc_array>
ffffffc050203dfe:	fec42783          	lw	a5,-20(s0)
ffffffc050203e02:	0792                	slli	a5,a5,0x4
ffffffc050203e04:	97ba                	add	a5,a5,a4
ffffffc050203e06:	00079423          	sh	zero,8(a5)
ffffffc050203e0a:	0000b717          	auipc	a4,0xb
ffffffc050203e0e:	bb670713          	addi	a4,a4,-1098 # ffffffc05020e9c0 <tx_desc_array>
ffffffc050203e12:	fec42783          	lw	a5,-20(s0)
ffffffc050203e16:	0792                	slli	a5,a5,0x4
ffffffc050203e18:	97ba                	add	a5,a5,a4
ffffffc050203e1a:	00078523          	sb	zero,10(a5)
ffffffc050203e1e:	0000b717          	auipc	a4,0xb
ffffffc050203e22:	ba270713          	addi	a4,a4,-1118 # ffffffc05020e9c0 <tx_desc_array>
ffffffc050203e26:	fec42783          	lw	a5,-20(s0)
ffffffc050203e2a:	0792                	slli	a5,a5,0x4
ffffffc050203e2c:	97ba                	add	a5,a5,a4
ffffffc050203e2e:	000785a3          	sb	zero,11(a5)
ffffffc050203e32:	0000b717          	auipc	a4,0xb
ffffffc050203e36:	b8e70713          	addi	a4,a4,-1138 # ffffffc05020e9c0 <tx_desc_array>
ffffffc050203e3a:	fec42783          	lw	a5,-20(s0)
ffffffc050203e3e:	0792                	slli	a5,a5,0x4
ffffffc050203e40:	97ba                	add	a5,a5,a4
ffffffc050203e42:	4705                	li	a4,1
ffffffc050203e44:	00e78623          	sb	a4,12(a5)
ffffffc050203e48:	0000b717          	auipc	a4,0xb
ffffffc050203e4c:	b7870713          	addi	a4,a4,-1160 # ffffffc05020e9c0 <tx_desc_array>
ffffffc050203e50:	fec42783          	lw	a5,-20(s0)
ffffffc050203e54:	0792                	slli	a5,a5,0x4
ffffffc050203e56:	97ba                	add	a5,a5,a4
ffffffc050203e58:	000786a3          	sb	zero,13(a5)
ffffffc050203e5c:	fec42783          	lw	a5,-20(s0)
ffffffc050203e60:	2785                	addiw	a5,a5,1
ffffffc050203e62:	fef42623          	sw	a5,-20(s0)
ffffffc050203e66:	fec42783          	lw	a5,-20(s0)
ffffffc050203e6a:	0007871b          	sext.w	a4,a5
ffffffc050203e6e:	03f00793          	li	a5,63
ffffffc050203e72:	f6e7d8e3          	bge	a5,a4,ffffffc050203de2 <init_all_tx_desc+0xc>
ffffffc050203e76:	0001                	nop
ffffffc050203e78:	0001                	nop
ffffffc050203e7a:	6462                	ld	s0,24(sp)
ffffffc050203e7c:	6105                	addi	sp,sp,32
ffffffc050203e7e:	8082                	ret

ffffffc050203e80 <init_all_rx_desc>:
ffffffc050203e80:	1101                	addi	sp,sp,-32
ffffffc050203e82:	ec06                	sd	ra,24(sp)
ffffffc050203e84:	e822                	sd	s0,16(sp)
ffffffc050203e86:	1000                	addi	s0,sp,32
ffffffc050203e88:	fe042623          	sw	zero,-20(s0)
ffffffc050203e8c:	a871                	j	ffffffc050203f28 <init_all_rx_desc+0xa8>
ffffffc050203e8e:	fec42783          	lw	a5,-20(s0)
ffffffc050203e92:	00b79713          	slli	a4,a5,0xb
ffffffc050203e96:	0002b797          	auipc	a5,0x2b
ffffffc050203e9a:	32a78793          	addi	a5,a5,810 # ffffffc05022f1c0 <rx_pkt_buffer>
ffffffc050203e9e:	97ba                	add	a5,a5,a4
ffffffc050203ea0:	853e                	mv	a0,a5
ffffffc050203ea2:	d97ff0ef          	jal	ra,ffffffc050203c38 <kva2pa>
ffffffc050203ea6:	86aa                	mv	a3,a0
ffffffc050203ea8:	0000b717          	auipc	a4,0xb
ffffffc050203eac:	f1870713          	addi	a4,a4,-232 # ffffffc05020edc0 <rx_desc_array>
ffffffc050203eb0:	fec42783          	lw	a5,-20(s0)
ffffffc050203eb4:	0792                	slli	a5,a5,0x4
ffffffc050203eb6:	97ba                	add	a5,a5,a4
ffffffc050203eb8:	e394                	sd	a3,0(a5)
ffffffc050203eba:	0000b717          	auipc	a4,0xb
ffffffc050203ebe:	f0670713          	addi	a4,a4,-250 # ffffffc05020edc0 <rx_desc_array>
ffffffc050203ec2:	fec42783          	lw	a5,-20(s0)
ffffffc050203ec6:	0792                	slli	a5,a5,0x4
ffffffc050203ec8:	97ba                	add	a5,a5,a4
ffffffc050203eca:	00079423          	sh	zero,8(a5)
ffffffc050203ece:	0000b717          	auipc	a4,0xb
ffffffc050203ed2:	ef270713          	addi	a4,a4,-270 # ffffffc05020edc0 <rx_desc_array>
ffffffc050203ed6:	fec42783          	lw	a5,-20(s0)
ffffffc050203eda:	0792                	slli	a5,a5,0x4
ffffffc050203edc:	97ba                	add	a5,a5,a4
ffffffc050203ede:	00079523          	sh	zero,10(a5)
ffffffc050203ee2:	0000b717          	auipc	a4,0xb
ffffffc050203ee6:	ede70713          	addi	a4,a4,-290 # ffffffc05020edc0 <rx_desc_array>
ffffffc050203eea:	fec42783          	lw	a5,-20(s0)
ffffffc050203eee:	0792                	slli	a5,a5,0x4
ffffffc050203ef0:	97ba                	add	a5,a5,a4
ffffffc050203ef2:	00078623          	sb	zero,12(a5)
ffffffc050203ef6:	0000b717          	auipc	a4,0xb
ffffffc050203efa:	eca70713          	addi	a4,a4,-310 # ffffffc05020edc0 <rx_desc_array>
ffffffc050203efe:	fec42783          	lw	a5,-20(s0)
ffffffc050203f02:	0792                	slli	a5,a5,0x4
ffffffc050203f04:	97ba                	add	a5,a5,a4
ffffffc050203f06:	000786a3          	sb	zero,13(a5)
ffffffc050203f0a:	0000b717          	auipc	a4,0xb
ffffffc050203f0e:	eb670713          	addi	a4,a4,-330 # ffffffc05020edc0 <rx_desc_array>
ffffffc050203f12:	fec42783          	lw	a5,-20(s0)
ffffffc050203f16:	0792                	slli	a5,a5,0x4
ffffffc050203f18:	97ba                	add	a5,a5,a4
ffffffc050203f1a:	00079723          	sh	zero,14(a5)
ffffffc050203f1e:	fec42783          	lw	a5,-20(s0)
ffffffc050203f22:	2785                	addiw	a5,a5,1
ffffffc050203f24:	fef42623          	sw	a5,-20(s0)
ffffffc050203f28:	fec42783          	lw	a5,-20(s0)
ffffffc050203f2c:	0007871b          	sext.w	a4,a5
ffffffc050203f30:	03f00793          	li	a5,63
ffffffc050203f34:	f4e7dde3          	bge	a5,a4,ffffffc050203e8e <init_all_rx_desc+0xe>
ffffffc050203f38:	0001                	nop
ffffffc050203f3a:	0001                	nop
ffffffc050203f3c:	60e2                	ld	ra,24(sp)
ffffffc050203f3e:	6442                	ld	s0,16(sp)
ffffffc050203f40:	6105                	addi	sp,sp,32
ffffffc050203f42:	8082                	ret

ffffffc050203f44 <init_single_tx_desc>:
ffffffc050203f44:	1101                	addi	sp,sp,-32
ffffffc050203f46:	ec22                	sd	s0,24(sp)
ffffffc050203f48:	1000                	addi	s0,sp,32
ffffffc050203f4a:	87aa                	mv	a5,a0
ffffffc050203f4c:	fef42623          	sw	a5,-20(s0)
ffffffc050203f50:	0000b717          	auipc	a4,0xb
ffffffc050203f54:	a7070713          	addi	a4,a4,-1424 # ffffffc05020e9c0 <tx_desc_array>
ffffffc050203f58:	fec42783          	lw	a5,-20(s0)
ffffffc050203f5c:	0792                	slli	a5,a5,0x4
ffffffc050203f5e:	97ba                	add	a5,a5,a4
ffffffc050203f60:	0007b023          	sd	zero,0(a5)
ffffffc050203f64:	0000b717          	auipc	a4,0xb
ffffffc050203f68:	a5c70713          	addi	a4,a4,-1444 # ffffffc05020e9c0 <tx_desc_array>
ffffffc050203f6c:	fec42783          	lw	a5,-20(s0)
ffffffc050203f70:	0792                	slli	a5,a5,0x4
ffffffc050203f72:	97ba                	add	a5,a5,a4
ffffffc050203f74:	00079423          	sh	zero,8(a5)
ffffffc050203f78:	0000b717          	auipc	a4,0xb
ffffffc050203f7c:	a4870713          	addi	a4,a4,-1464 # ffffffc05020e9c0 <tx_desc_array>
ffffffc050203f80:	fec42783          	lw	a5,-20(s0)
ffffffc050203f84:	0792                	slli	a5,a5,0x4
ffffffc050203f86:	97ba                	add	a5,a5,a4
ffffffc050203f88:	00078523          	sb	zero,10(a5)
ffffffc050203f8c:	0000b717          	auipc	a4,0xb
ffffffc050203f90:	a3470713          	addi	a4,a4,-1484 # ffffffc05020e9c0 <tx_desc_array>
ffffffc050203f94:	fec42783          	lw	a5,-20(s0)
ffffffc050203f98:	0792                	slli	a5,a5,0x4
ffffffc050203f9a:	97ba                	add	a5,a5,a4
ffffffc050203f9c:	000785a3          	sb	zero,11(a5)
ffffffc050203fa0:	0000b717          	auipc	a4,0xb
ffffffc050203fa4:	a2070713          	addi	a4,a4,-1504 # ffffffc05020e9c0 <tx_desc_array>
ffffffc050203fa8:	fec42783          	lw	a5,-20(s0)
ffffffc050203fac:	0792                	slli	a5,a5,0x4
ffffffc050203fae:	97ba                	add	a5,a5,a4
ffffffc050203fb0:	00078623          	sb	zero,12(a5)
ffffffc050203fb4:	0000b717          	auipc	a4,0xb
ffffffc050203fb8:	a0c70713          	addi	a4,a4,-1524 # ffffffc05020e9c0 <tx_desc_array>
ffffffc050203fbc:	fec42783          	lw	a5,-20(s0)
ffffffc050203fc0:	0792                	slli	a5,a5,0x4
ffffffc050203fc2:	97ba                	add	a5,a5,a4
ffffffc050203fc4:	000786a3          	sb	zero,13(a5)
ffffffc050203fc8:	0001                	nop
ffffffc050203fca:	6462                	ld	s0,24(sp)
ffffffc050203fcc:	6105                	addi	sp,sp,32
ffffffc050203fce:	8082                	ret

ffffffc050203fd0 <init_single_rx_desc>:
ffffffc050203fd0:	1101                	addi	sp,sp,-32
ffffffc050203fd2:	ec22                	sd	s0,24(sp)
ffffffc050203fd4:	1000                	addi	s0,sp,32
ffffffc050203fd6:	87aa                	mv	a5,a0
ffffffc050203fd8:	fef42623          	sw	a5,-20(s0)
ffffffc050203fdc:	0000b717          	auipc	a4,0xb
ffffffc050203fe0:	de470713          	addi	a4,a4,-540 # ffffffc05020edc0 <rx_desc_array>
ffffffc050203fe4:	fec42783          	lw	a5,-20(s0)
ffffffc050203fe8:	0792                	slli	a5,a5,0x4
ffffffc050203fea:	97ba                	add	a5,a5,a4
ffffffc050203fec:	00079423          	sh	zero,8(a5)
ffffffc050203ff0:	0000b717          	auipc	a4,0xb
ffffffc050203ff4:	dd070713          	addi	a4,a4,-560 # ffffffc05020edc0 <rx_desc_array>
ffffffc050203ff8:	fec42783          	lw	a5,-20(s0)
ffffffc050203ffc:	0792                	slli	a5,a5,0x4
ffffffc050203ffe:	97ba                	add	a5,a5,a4
ffffffc050204000:	00079523          	sh	zero,10(a5)
ffffffc050204004:	0000b717          	auipc	a4,0xb
ffffffc050204008:	dbc70713          	addi	a4,a4,-580 # ffffffc05020edc0 <rx_desc_array>
ffffffc05020400c:	fec42783          	lw	a5,-20(s0)
ffffffc050204010:	0792                	slli	a5,a5,0x4
ffffffc050204012:	97ba                	add	a5,a5,a4
ffffffc050204014:	00078623          	sb	zero,12(a5)
ffffffc050204018:	0000b717          	auipc	a4,0xb
ffffffc05020401c:	da870713          	addi	a4,a4,-600 # ffffffc05020edc0 <rx_desc_array>
ffffffc050204020:	fec42783          	lw	a5,-20(s0)
ffffffc050204024:	0792                	slli	a5,a5,0x4
ffffffc050204026:	97ba                	add	a5,a5,a4
ffffffc050204028:	000786a3          	sb	zero,13(a5)
ffffffc05020402c:	0000b717          	auipc	a4,0xb
ffffffc050204030:	d9470713          	addi	a4,a4,-620 # ffffffc05020edc0 <rx_desc_array>
ffffffc050204034:	fec42783          	lw	a5,-20(s0)
ffffffc050204038:	0792                	slli	a5,a5,0x4
ffffffc05020403a:	97ba                	add	a5,a5,a4
ffffffc05020403c:	00079723          	sh	zero,14(a5)
ffffffc050204040:	0001                	nop
ffffffc050204042:	6462                	ld	s0,24(sp)
ffffffc050204044:	6105                	addi	sp,sp,32
ffffffc050204046:	8082                	ret

ffffffc050204048 <update_head>:
ffffffc050204048:	1101                	addi	sp,sp,-32
ffffffc05020404a:	ec22                	sd	s0,24(sp)
ffffffc05020404c:	1000                	addi	s0,sp,32
ffffffc05020404e:	87aa                	mv	a5,a0
ffffffc050204050:	fef42623          	sw	a5,-20(s0)
ffffffc050204054:	fec42783          	lw	a5,-20(s0)
ffffffc050204058:	2781                	sext.w	a5,a5
ffffffc05020405a:	e395                	bnez	a5,ffffffc05020407e <update_head+0x36>
ffffffc05020405c:	00009797          	auipc	a5,0x9
ffffffc050204060:	9fc78793          	addi	a5,a5,-1540 # ffffffc05020ca58 <tx_head>
ffffffc050204064:	439c                	lw	a5,0(a5)
ffffffc050204066:	2785                	addiw	a5,a5,1
ffffffc050204068:	2781                	sext.w	a5,a5
ffffffc05020406a:	03f7f793          	andi	a5,a5,63
ffffffc05020406e:	0007871b          	sext.w	a4,a5
ffffffc050204072:	00009797          	auipc	a5,0x9
ffffffc050204076:	9e678793          	addi	a5,a5,-1562 # ffffffc05020ca58 <tx_head>
ffffffc05020407a:	c398                	sw	a4,0(a5)
ffffffc05020407c:	a00d                	j	ffffffc05020409e <update_head+0x56>
ffffffc05020407e:	00009797          	auipc	a5,0x9
ffffffc050204082:	9e278793          	addi	a5,a5,-1566 # ffffffc05020ca60 <rx_head>
ffffffc050204086:	439c                	lw	a5,0(a5)
ffffffc050204088:	2785                	addiw	a5,a5,1
ffffffc05020408a:	2781                	sext.w	a5,a5
ffffffc05020408c:	03f7f793          	andi	a5,a5,63
ffffffc050204090:	0007871b          	sext.w	a4,a5
ffffffc050204094:	00009797          	auipc	a5,0x9
ffffffc050204098:	9cc78793          	addi	a5,a5,-1588 # ffffffc05020ca60 <rx_head>
ffffffc05020409c:	c398                	sw	a4,0(a5)
ffffffc05020409e:	0001                	nop
ffffffc0502040a0:	6462                	ld	s0,24(sp)
ffffffc0502040a2:	6105                	addi	sp,sp,32
ffffffc0502040a4:	8082                	ret

ffffffc0502040a6 <update_tail>:
ffffffc0502040a6:	1101                	addi	sp,sp,-32
ffffffc0502040a8:	ec22                	sd	s0,24(sp)
ffffffc0502040aa:	1000                	addi	s0,sp,32
ffffffc0502040ac:	87aa                	mv	a5,a0
ffffffc0502040ae:	fef42623          	sw	a5,-20(s0)
ffffffc0502040b2:	fec42783          	lw	a5,-20(s0)
ffffffc0502040b6:	2781                	sext.w	a5,a5
ffffffc0502040b8:	e395                	bnez	a5,ffffffc0502040dc <update_tail+0x36>
ffffffc0502040ba:	00009797          	auipc	a5,0x9
ffffffc0502040be:	9a278793          	addi	a5,a5,-1630 # ffffffc05020ca5c <tx_tail>
ffffffc0502040c2:	439c                	lw	a5,0(a5)
ffffffc0502040c4:	2785                	addiw	a5,a5,1
ffffffc0502040c6:	2781                	sext.w	a5,a5
ffffffc0502040c8:	03f7f793          	andi	a5,a5,63
ffffffc0502040cc:	0007871b          	sext.w	a4,a5
ffffffc0502040d0:	00009797          	auipc	a5,0x9
ffffffc0502040d4:	98c78793          	addi	a5,a5,-1652 # ffffffc05020ca5c <tx_tail>
ffffffc0502040d8:	c398                	sw	a4,0(a5)
ffffffc0502040da:	a00d                	j	ffffffc0502040fc <update_tail+0x56>
ffffffc0502040dc:	00009797          	auipc	a5,0x9
ffffffc0502040e0:	91c78793          	addi	a5,a5,-1764 # ffffffc05020c9f8 <rx_tail>
ffffffc0502040e4:	439c                	lw	a5,0(a5)
ffffffc0502040e6:	2785                	addiw	a5,a5,1
ffffffc0502040e8:	2781                	sext.w	a5,a5
ffffffc0502040ea:	03f7f793          	andi	a5,a5,63
ffffffc0502040ee:	0007871b          	sext.w	a4,a5
ffffffc0502040f2:	00009797          	auipc	a5,0x9
ffffffc0502040f6:	90678793          	addi	a5,a5,-1786 # ffffffc05020c9f8 <rx_tail>
ffffffc0502040fa:	c398                	sw	a4,0(a5)
ffffffc0502040fc:	0001                	nop
ffffffc0502040fe:	6462                	ld	s0,24(sp)
ffffffc050204100:	6105                	addi	sp,sp,32
ffffffc050204102:	8082                	ret

ffffffc050204104 <set_single_tx_desc>:
ffffffc050204104:	1101                	addi	sp,sp,-32
ffffffc050204106:	ec22                	sd	s0,24(sp)
ffffffc050204108:	1000                	addi	s0,sp,32
ffffffc05020410a:	87aa                	mv	a5,a0
ffffffc05020410c:	feb43023          	sd	a1,-32(s0)
ffffffc050204110:	8732                	mv	a4,a2
ffffffc050204112:	fef42623          	sw	a5,-20(s0)
ffffffc050204116:	87ba                	mv	a5,a4
ffffffc050204118:	fef41523          	sh	a5,-22(s0)
ffffffc05020411c:	0000b717          	auipc	a4,0xb
ffffffc050204120:	8a470713          	addi	a4,a4,-1884 # ffffffc05020e9c0 <tx_desc_array>
ffffffc050204124:	fec42783          	lw	a5,-20(s0)
ffffffc050204128:	0792                	slli	a5,a5,0x4
ffffffc05020412a:	97ba                	add	a5,a5,a4
ffffffc05020412c:	fe043703          	ld	a4,-32(s0)
ffffffc050204130:	e398                	sd	a4,0(a5)
ffffffc050204132:	0000b717          	auipc	a4,0xb
ffffffc050204136:	88e70713          	addi	a4,a4,-1906 # ffffffc05020e9c0 <tx_desc_array>
ffffffc05020413a:	fec42783          	lw	a5,-20(s0)
ffffffc05020413e:	0792                	slli	a5,a5,0x4
ffffffc050204140:	97ba                	add	a5,a5,a4
ffffffc050204142:	fea45703          	lhu	a4,-22(s0)
ffffffc050204146:	00e79423          	sh	a4,8(a5)
ffffffc05020414a:	0000b717          	auipc	a4,0xb
ffffffc05020414e:	87670713          	addi	a4,a4,-1930 # ffffffc05020e9c0 <tx_desc_array>
ffffffc050204152:	fec42783          	lw	a5,-20(s0)
ffffffc050204156:	0792                	slli	a5,a5,0x4
ffffffc050204158:	97ba                	add	a5,a5,a4
ffffffc05020415a:	4725                	li	a4,9
ffffffc05020415c:	00e785a3          	sb	a4,11(a5)
ffffffc050204160:	0000b717          	auipc	a4,0xb
ffffffc050204164:	86070713          	addi	a4,a4,-1952 # ffffffc05020e9c0 <tx_desc_array>
ffffffc050204168:	fec42783          	lw	a5,-20(s0)
ffffffc05020416c:	0792                	slli	a5,a5,0x4
ffffffc05020416e:	97ba                	add	a5,a5,a4
ffffffc050204170:	00078623          	sb	zero,12(a5)
ffffffc050204174:	0001                	nop
ffffffc050204176:	6462                	ld	s0,24(sp)
ffffffc050204178:	6105                	addi	sp,sp,32
ffffffc05020417a:	8082                	ret

ffffffc05020417c <deal_single_rx_desc>:
ffffffc05020417c:	7179                	addi	sp,sp,-48
ffffffc05020417e:	f406                	sd	ra,40(sp)
ffffffc050204180:	f022                	sd	s0,32(sp)
ffffffc050204182:	1800                	addi	s0,sp,48
ffffffc050204184:	fca43c23          	sd	a0,-40(s0)
ffffffc050204188:	00009797          	auipc	a5,0x9
ffffffc05020418c:	87078793          	addi	a5,a5,-1936 # ffffffc05020c9f8 <rx_tail>
ffffffc050204190:	439c                	lw	a5,0(a5)
ffffffc050204192:	0000b717          	auipc	a4,0xb
ffffffc050204196:	c2e70713          	addi	a4,a4,-978 # ffffffc05020edc0 <rx_desc_array>
ffffffc05020419a:	1782                	slli	a5,a5,0x20
ffffffc05020419c:	9381                	srli	a5,a5,0x20
ffffffc05020419e:	0792                	slli	a5,a5,0x4
ffffffc0502041a0:	97ba                	add	a5,a5,a4
ffffffc0502041a2:	0087d783          	lhu	a5,8(a5)
ffffffc0502041a6:	fef42623          	sw	a5,-20(s0)
ffffffc0502041aa:	00009797          	auipc	a5,0x9
ffffffc0502041ae:	84e78793          	addi	a5,a5,-1970 # ffffffc05020c9f8 <rx_tail>
ffffffc0502041b2:	439c                	lw	a5,0(a5)
ffffffc0502041b4:	1782                	slli	a5,a5,0x20
ffffffc0502041b6:	9381                	srli	a5,a5,0x20
ffffffc0502041b8:	00b79713          	slli	a4,a5,0xb
ffffffc0502041bc:	0002b797          	auipc	a5,0x2b
ffffffc0502041c0:	00478793          	addi	a5,a5,4 # ffffffc05022f1c0 <rx_pkt_buffer>
ffffffc0502041c4:	97ba                	add	a5,a5,a4
ffffffc0502041c6:	fec42703          	lw	a4,-20(s0)
ffffffc0502041ca:	863a                	mv	a2,a4
ffffffc0502041cc:	85be                	mv	a1,a5
ffffffc0502041ce:	fd843503          	ld	a0,-40(s0)
ffffffc0502041d2:	66f060ef          	jal	ra,ffffffc05020b040 <memcpy>
ffffffc0502041d6:	fec42783          	lw	a5,-20(s0)
ffffffc0502041da:	853e                	mv	a0,a5
ffffffc0502041dc:	70a2                	ld	ra,40(sp)
ffffffc0502041de:	7402                	ld	s0,32(sp)
ffffffc0502041e0:	6145                	addi	sp,sp,48
ffffffc0502041e2:	8082                	ret

ffffffc0502041e4 <e1000_configure_tx>:
ffffffc0502041e4:	1101                	addi	sp,sp,-32
ffffffc0502041e6:	ec06                	sd	ra,24(sp)
ffffffc0502041e8:	e822                	sd	s0,16(sp)
ffffffc0502041ea:	1000                	addi	s0,sp,32
ffffffc0502041ec:	bebff0ef          	jal	ra,ffffffc050203dd6 <init_all_tx_desc>
ffffffc0502041f0:	0000a797          	auipc	a5,0xa
ffffffc0502041f4:	7d078793          	addi	a5,a5,2000 # ffffffc05020e9c0 <tx_desc_array>
ffffffc0502041f8:	853e                	mv	a0,a5
ffffffc0502041fa:	a3fff0ef          	jal	ra,ffffffc050203c38 <kva2pa>
ffffffc0502041fe:	87aa                	mv	a5,a0
ffffffc050204200:	fef42623          	sw	a5,-20(s0)
ffffffc050204204:	0004b797          	auipc	a5,0x4b
ffffffc050204208:	20478793          	addi	a5,a5,516 # ffffffc05024f408 <e1000>
ffffffc05020420c:	6398                	ld	a4,0(a5)
ffffffc05020420e:	fec42783          	lw	a5,-20(s0)
ffffffc050204212:	863e                	mv	a2,a5
ffffffc050204214:	6791                	lui	a5,0x4
ffffffc050204216:	80078593          	addi	a1,a5,-2048 # 3800 <boot_stack_top_base-0x501fe800>
ffffffc05020421a:	853a                	mv	a0,a4
ffffffc05020421c:	963ff0ef          	jal	ra,ffffffc050203b7e <e1000_write_reg>
ffffffc050204220:	0000a797          	auipc	a5,0xa
ffffffc050204224:	7a078793          	addi	a5,a5,1952 # ffffffc05020e9c0 <tx_desc_array>
ffffffc050204228:	853e                	mv	a0,a5
ffffffc05020422a:	a0fff0ef          	jal	ra,ffffffc050203c38 <kva2pa>
ffffffc05020422e:	87aa                	mv	a5,a0
ffffffc050204230:	9381                	srli	a5,a5,0x20
ffffffc050204232:	fef42423          	sw	a5,-24(s0)
ffffffc050204236:	0004b797          	auipc	a5,0x4b
ffffffc05020423a:	1d278793          	addi	a5,a5,466 # ffffffc05024f408 <e1000>
ffffffc05020423e:	6398                	ld	a4,0(a5)
ffffffc050204240:	fe842783          	lw	a5,-24(s0)
ffffffc050204244:	863e                	mv	a2,a5
ffffffc050204246:	6791                	lui	a5,0x4
ffffffc050204248:	80478593          	addi	a1,a5,-2044 # 3804 <boot_stack_top_base-0x501fe7fc>
ffffffc05020424c:	853a                	mv	a0,a4
ffffffc05020424e:	931ff0ef          	jal	ra,ffffffc050203b7e <e1000_write_reg>
ffffffc050204252:	40000793          	li	a5,1024
ffffffc050204256:	fef42223          	sw	a5,-28(s0)
ffffffc05020425a:	0004b797          	auipc	a5,0x4b
ffffffc05020425e:	1ae78793          	addi	a5,a5,430 # ffffffc05024f408 <e1000>
ffffffc050204262:	6398                	ld	a4,0(a5)
ffffffc050204264:	fe442783          	lw	a5,-28(s0)
ffffffc050204268:	863e                	mv	a2,a5
ffffffc05020426a:	6791                	lui	a5,0x4
ffffffc05020426c:	80878593          	addi	a1,a5,-2040 # 3808 <boot_stack_top_base-0x501fe7f8>
ffffffc050204270:	853a                	mv	a0,a4
ffffffc050204272:	90dff0ef          	jal	ra,ffffffc050203b7e <e1000_write_reg>
ffffffc050204276:	0004b797          	auipc	a5,0x4b
ffffffc05020427a:	19278793          	addi	a5,a5,402 # ffffffc05024f408 <e1000>
ffffffc05020427e:	6398                	ld	a4,0(a5)
ffffffc050204280:	00008797          	auipc	a5,0x8
ffffffc050204284:	7d878793          	addi	a5,a5,2008 # ffffffc05020ca58 <tx_head>
ffffffc050204288:	439c                	lw	a5,0(a5)
ffffffc05020428a:	863e                	mv	a2,a5
ffffffc05020428c:	6791                	lui	a5,0x4
ffffffc05020428e:	81078593          	addi	a1,a5,-2032 # 3810 <boot_stack_top_base-0x501fe7f0>
ffffffc050204292:	853a                	mv	a0,a4
ffffffc050204294:	8ebff0ef          	jal	ra,ffffffc050203b7e <e1000_write_reg>
ffffffc050204298:	0004b797          	auipc	a5,0x4b
ffffffc05020429c:	17078793          	addi	a5,a5,368 # ffffffc05024f408 <e1000>
ffffffc0502042a0:	6398                	ld	a4,0(a5)
ffffffc0502042a2:	00008797          	auipc	a5,0x8
ffffffc0502042a6:	7ba78793          	addi	a5,a5,1978 # ffffffc05020ca5c <tx_tail>
ffffffc0502042aa:	439c                	lw	a5,0(a5)
ffffffc0502042ac:	863e                	mv	a2,a5
ffffffc0502042ae:	6791                	lui	a5,0x4
ffffffc0502042b0:	81878593          	addi	a1,a5,-2024 # 3818 <boot_stack_top_base-0x501fe7e8>
ffffffc0502042b4:	853a                	mv	a0,a4
ffffffc0502042b6:	8c9ff0ef          	jal	ra,ffffffc050203b7e <e1000_write_reg>
ffffffc0502042ba:	000407b7          	lui	a5,0x40
ffffffc0502042be:	10a78793          	addi	a5,a5,266 # 4010a <boot_stack_top_base-0x501c1ef6>
ffffffc0502042c2:	fef42023          	sw	a5,-32(s0)
ffffffc0502042c6:	0004b797          	auipc	a5,0x4b
ffffffc0502042ca:	14278793          	addi	a5,a5,322 # ffffffc05024f408 <e1000>
ffffffc0502042ce:	639c                	ld	a5,0(a5)
ffffffc0502042d0:	fe042703          	lw	a4,-32(s0)
ffffffc0502042d4:	863a                	mv	a2,a4
ffffffc0502042d6:	40000593          	li	a1,1024
ffffffc0502042da:	853e                	mv	a0,a5
ffffffc0502042dc:	8a3ff0ef          	jal	ra,ffffffc050203b7e <e1000_write_reg>
ffffffc0502042e0:	0001                	nop
ffffffc0502042e2:	60e2                	ld	ra,24(sp)
ffffffc0502042e4:	6442                	ld	s0,16(sp)
ffffffc0502042e6:	6105                	addi	sp,sp,32
ffffffc0502042e8:	8082                	ret

ffffffc0502042ea <e1000_configure_rx>:
ffffffc0502042ea:	7179                	addi	sp,sp,-48
ffffffc0502042ec:	f406                	sd	ra,40(sp)
ffffffc0502042ee:	f022                	sd	s0,32(sp)
ffffffc0502042f0:	1800                	addi	s0,sp,48
ffffffc0502042f2:	003517b7          	lui	a5,0x351
ffffffc0502042f6:	a0078793          	addi	a5,a5,-1536 # 350a00 <boot_stack_top_base-0x4feb1600>
ffffffc0502042fa:	fef42623          	sw	a5,-20(s0)
ffffffc0502042fe:	0004b797          	auipc	a5,0x4b
ffffffc050204302:	10a78793          	addi	a5,a5,266 # ffffffc05024f408 <e1000>
ffffffc050204306:	6398                	ld	a4,0(a5)
ffffffc050204308:	fec42783          	lw	a5,-20(s0)
ffffffc05020430c:	86be                	mv	a3,a5
ffffffc05020430e:	4601                	li	a2,0
ffffffc050204310:	6795                	lui	a5,0x5
ffffffc050204312:	40078593          	addi	a1,a5,1024 # 5400 <boot_stack_top_base-0x501fcc00>
ffffffc050204316:	853a                	mv	a0,a4
ffffffc050204318:	8d1ff0ef          	jal	ra,ffffffc050203be8 <e1000_write_reg_array>
ffffffc05020431c:	800057b7          	lui	a5,0x80005
ffffffc050204320:	31e78793          	addi	a5,a5,798 # ffffffff8000531e <__BSS_END__+0x3f2fd9b9f6>
ffffffc050204324:	fef42423          	sw	a5,-24(s0)
ffffffc050204328:	0004b797          	auipc	a5,0x4b
ffffffc05020432c:	0e078793          	addi	a5,a5,224 # ffffffc05024f408 <e1000>
ffffffc050204330:	6398                	ld	a4,0(a5)
ffffffc050204332:	fe842783          	lw	a5,-24(s0)
ffffffc050204336:	86be                	mv	a3,a5
ffffffc050204338:	4605                	li	a2,1
ffffffc05020433a:	6795                	lui	a5,0x5
ffffffc05020433c:	40078593          	addi	a1,a5,1024 # 5400 <boot_stack_top_base-0x501fcc00>
ffffffc050204340:	853a                	mv	a0,a4
ffffffc050204342:	8a7ff0ef          	jal	ra,ffffffc050203be8 <e1000_write_reg_array>
ffffffc050204346:	b3bff0ef          	jal	ra,ffffffc050203e80 <init_all_rx_desc>
ffffffc05020434a:	0000b797          	auipc	a5,0xb
ffffffc05020434e:	a7678793          	addi	a5,a5,-1418 # ffffffc05020edc0 <rx_desc_array>
ffffffc050204352:	853e                	mv	a0,a5
ffffffc050204354:	8e5ff0ef          	jal	ra,ffffffc050203c38 <kva2pa>
ffffffc050204358:	87aa                	mv	a5,a0
ffffffc05020435a:	fef42223          	sw	a5,-28(s0)
ffffffc05020435e:	0004b797          	auipc	a5,0x4b
ffffffc050204362:	0aa78793          	addi	a5,a5,170 # ffffffc05024f408 <e1000>
ffffffc050204366:	6398                	ld	a4,0(a5)
ffffffc050204368:	fe442783          	lw	a5,-28(s0)
ffffffc05020436c:	863e                	mv	a2,a5
ffffffc05020436e:	678d                	lui	a5,0x3
ffffffc050204370:	80078593          	addi	a1,a5,-2048 # 2800 <boot_stack_top_base-0x501ff800>
ffffffc050204374:	853a                	mv	a0,a4
ffffffc050204376:	809ff0ef          	jal	ra,ffffffc050203b7e <e1000_write_reg>
ffffffc05020437a:	0000b797          	auipc	a5,0xb
ffffffc05020437e:	a4678793          	addi	a5,a5,-1466 # ffffffc05020edc0 <rx_desc_array>
ffffffc050204382:	853e                	mv	a0,a5
ffffffc050204384:	8b5ff0ef          	jal	ra,ffffffc050203c38 <kva2pa>
ffffffc050204388:	87aa                	mv	a5,a0
ffffffc05020438a:	9381                	srli	a5,a5,0x20
ffffffc05020438c:	fef42023          	sw	a5,-32(s0)
ffffffc050204390:	0004b797          	auipc	a5,0x4b
ffffffc050204394:	07878793          	addi	a5,a5,120 # ffffffc05024f408 <e1000>
ffffffc050204398:	6398                	ld	a4,0(a5)
ffffffc05020439a:	fe042783          	lw	a5,-32(s0)
ffffffc05020439e:	863e                	mv	a2,a5
ffffffc0502043a0:	678d                	lui	a5,0x3
ffffffc0502043a2:	80478593          	addi	a1,a5,-2044 # 2804 <boot_stack_top_base-0x501ff7fc>
ffffffc0502043a6:	853a                	mv	a0,a4
ffffffc0502043a8:	fd6ff0ef          	jal	ra,ffffffc050203b7e <e1000_write_reg>
ffffffc0502043ac:	40000793          	li	a5,1024
ffffffc0502043b0:	fcf42e23          	sw	a5,-36(s0)
ffffffc0502043b4:	0004b797          	auipc	a5,0x4b
ffffffc0502043b8:	05478793          	addi	a5,a5,84 # ffffffc05024f408 <e1000>
ffffffc0502043bc:	6398                	ld	a4,0(a5)
ffffffc0502043be:	fdc42783          	lw	a5,-36(s0)
ffffffc0502043c2:	863e                	mv	a2,a5
ffffffc0502043c4:	678d                	lui	a5,0x3
ffffffc0502043c6:	80878593          	addi	a1,a5,-2040 # 2808 <boot_stack_top_base-0x501ff7f8>
ffffffc0502043ca:	853a                	mv	a0,a4
ffffffc0502043cc:	fb2ff0ef          	jal	ra,ffffffc050203b7e <e1000_write_reg>
ffffffc0502043d0:	0004b797          	auipc	a5,0x4b
ffffffc0502043d4:	03878793          	addi	a5,a5,56 # ffffffc05024f408 <e1000>
ffffffc0502043d8:	6398                	ld	a4,0(a5)
ffffffc0502043da:	00008797          	auipc	a5,0x8
ffffffc0502043de:	68678793          	addi	a5,a5,1670 # ffffffc05020ca60 <rx_head>
ffffffc0502043e2:	439c                	lw	a5,0(a5)
ffffffc0502043e4:	863e                	mv	a2,a5
ffffffc0502043e6:	678d                	lui	a5,0x3
ffffffc0502043e8:	81078593          	addi	a1,a5,-2032 # 2810 <boot_stack_top_base-0x501ff7f0>
ffffffc0502043ec:	853a                	mv	a0,a4
ffffffc0502043ee:	f90ff0ef          	jal	ra,ffffffc050203b7e <e1000_write_reg>
ffffffc0502043f2:	0004b797          	auipc	a5,0x4b
ffffffc0502043f6:	01678793          	addi	a5,a5,22 # ffffffc05024f408 <e1000>
ffffffc0502043fa:	6398                	ld	a4,0(a5)
ffffffc0502043fc:	00008797          	auipc	a5,0x8
ffffffc050204400:	5fc78793          	addi	a5,a5,1532 # ffffffc05020c9f8 <rx_tail>
ffffffc050204404:	439c                	lw	a5,0(a5)
ffffffc050204406:	863e                	mv	a2,a5
ffffffc050204408:	678d                	lui	a5,0x3
ffffffc05020440a:	81878593          	addi	a1,a5,-2024 # 2818 <boot_stack_top_base-0x501ff7e8>
ffffffc05020440e:	853a                	mv	a0,a4
ffffffc050204410:	f6eff0ef          	jal	ra,ffffffc050203b7e <e1000_write_reg>
ffffffc050204414:	67a1                	lui	a5,0x8
ffffffc050204416:	0789                	addi	a5,a5,2
ffffffc050204418:	fcf42c23          	sw	a5,-40(s0)
ffffffc05020441c:	0004b797          	auipc	a5,0x4b
ffffffc050204420:	fec78793          	addi	a5,a5,-20 # ffffffc05024f408 <e1000>
ffffffc050204424:	639c                	ld	a5,0(a5)
ffffffc050204426:	fd842703          	lw	a4,-40(s0)
ffffffc05020442a:	863a                	mv	a2,a4
ffffffc05020442c:	10000593          	li	a1,256
ffffffc050204430:	853e                	mv	a0,a5
ffffffc050204432:	f4cff0ef          	jal	ra,ffffffc050203b7e <e1000_write_reg>
ffffffc050204436:	0004b797          	auipc	a5,0x4b
ffffffc05020443a:	fd278793          	addi	a5,a5,-46 # ffffffc05024f408 <e1000>
ffffffc05020443e:	639c                	ld	a5,0(a5)
ffffffc050204440:	4641                	li	a2,16
ffffffc050204442:	0d000593          	li	a1,208
ffffffc050204446:	853e                	mv	a0,a5
ffffffc050204448:	f36ff0ef          	jal	ra,ffffffc050203b7e <e1000_write_reg>
ffffffc05020444c:	0001                	nop
ffffffc05020444e:	70a2                	ld	ra,40(sp)
ffffffc050204450:	7402                	ld	s0,32(sp)
ffffffc050204452:	6145                	addi	sp,sp,48
ffffffc050204454:	8082                	ret

ffffffc050204456 <e1000_init>:
ffffffc050204456:	1141                	addi	sp,sp,-16
ffffffc050204458:	e406                	sd	ra,8(sp)
ffffffc05020445a:	e022                	sd	s0,0(sp)
ffffffc05020445c:	0800                	addi	s0,sp,16
ffffffc05020445e:	8a1ff0ef          	jal	ra,ffffffc050203cfe <e1000_reset>
ffffffc050204462:	d83ff0ef          	jal	ra,ffffffc0502041e4 <e1000_configure_tx>
ffffffc050204466:	e85ff0ef          	jal	ra,ffffffc0502042ea <e1000_configure_rx>
ffffffc05020446a:	0001                	nop
ffffffc05020446c:	60a2                	ld	ra,8(sp)
ffffffc05020446e:	6402                	ld	s0,0(sp)
ffffffc050204470:	0141                	addi	sp,sp,16
ffffffc050204472:	8082                	ret

ffffffc050204474 <e1000_transmit>:
ffffffc050204474:	7179                	addi	sp,sp,-48
ffffffc050204476:	f406                	sd	ra,40(sp)
ffffffc050204478:	f022                	sd	s0,32(sp)
ffffffc05020447a:	1800                	addi	s0,sp,48
ffffffc05020447c:	fca43c23          	sd	a0,-40(s0)
ffffffc050204480:	87ae                	mv	a5,a1
ffffffc050204482:	fcf42a23          	sw	a5,-44(s0)
ffffffc050204486:	ee6ff0ef          	jal	ra,ffffffc050203b6c <local_flush_dcache>
ffffffc05020448a:	0004b797          	auipc	a5,0x4b
ffffffc05020448e:	f7e78793          	addi	a5,a5,-130 # ffffffc05024f408 <e1000>
ffffffc050204492:	6398                	ld	a4,0(a5)
ffffffc050204494:	6791                	lui	a5,0x4
ffffffc050204496:	81078593          	addi	a1,a5,-2032 # 3810 <boot_stack_top_base-0x501fe7f0>
ffffffc05020449a:	853a                	mv	a0,a4
ffffffc05020449c:	f1cff0ef          	jal	ra,ffffffc050203bb8 <e1000_read_reg>
ffffffc0502044a0:	87aa                	mv	a5,a0
ffffffc0502044a2:	0007871b          	sext.w	a4,a5
ffffffc0502044a6:	00008797          	auipc	a5,0x8
ffffffc0502044aa:	5b278793          	addi	a5,a5,1458 # ffffffc05020ca58 <tx_head>
ffffffc0502044ae:	c398                	sw	a4,0(a5)
ffffffc0502044b0:	0004b797          	auipc	a5,0x4b
ffffffc0502044b4:	f5878793          	addi	a5,a5,-168 # ffffffc05024f408 <e1000>
ffffffc0502044b8:	6398                	ld	a4,0(a5)
ffffffc0502044ba:	6791                	lui	a5,0x4
ffffffc0502044bc:	81878593          	addi	a1,a5,-2024 # 3818 <boot_stack_top_base-0x501fe7e8>
ffffffc0502044c0:	853a                	mv	a0,a4
ffffffc0502044c2:	ef6ff0ef          	jal	ra,ffffffc050203bb8 <e1000_read_reg>
ffffffc0502044c6:	87aa                	mv	a5,a0
ffffffc0502044c8:	0007871b          	sext.w	a4,a5
ffffffc0502044cc:	00008797          	auipc	a5,0x8
ffffffc0502044d0:	59078793          	addi	a5,a5,1424 # ffffffc05020ca5c <tx_tail>
ffffffc0502044d4:	c398                	sw	a4,0(a5)
ffffffc0502044d6:	00008797          	auipc	a5,0x8
ffffffc0502044da:	58678793          	addi	a5,a5,1414 # ffffffc05020ca5c <tx_tail>
ffffffc0502044de:	439c                	lw	a5,0(a5)
ffffffc0502044e0:	0000a717          	auipc	a4,0xa
ffffffc0502044e4:	4e070713          	addi	a4,a4,1248 # ffffffc05020e9c0 <tx_desc_array>
ffffffc0502044e8:	1782                	slli	a5,a5,0x20
ffffffc0502044ea:	9381                	srli	a5,a5,0x20
ffffffc0502044ec:	0792                	slli	a5,a5,0x4
ffffffc0502044ee:	97ba                	add	a5,a5,a4
ffffffc0502044f0:	00c7c783          	lbu	a5,12(a5)
ffffffc0502044f4:	efa9                	bnez	a5,ffffffc05020454e <e1000_transmit+0xda>
ffffffc0502044f6:	0004b797          	auipc	a5,0x4b
ffffffc0502044fa:	f1278793          	addi	a5,a5,-238 # ffffffc05024f408 <e1000>
ffffffc0502044fe:	639c                	ld	a5,0(a5)
ffffffc050204500:	4609                	li	a2,2
ffffffc050204502:	0d000593          	li	a1,208
ffffffc050204506:	853e                	mv	a0,a5
ffffffc050204508:	e76ff0ef          	jal	ra,ffffffc050203b7e <e1000_write_reg>
ffffffc05020450c:	00058797          	auipc	a5,0x58
ffffffc050204510:	c0c78793          	addi	a5,a5,-1012 # ffffffc05025c118 <current_running>
ffffffc050204514:	639c                	ld	a5,0(a5)
ffffffc050204516:	0207ac23          	sw	zero,56(a5)
ffffffc05020451a:	00058797          	auipc	a5,0x58
ffffffc05020451e:	bfe78793          	addi	a5,a5,-1026 # ffffffc05025c118 <current_running>
ffffffc050204522:	639c                	ld	a5,0(a5)
ffffffc050204524:	07c1                	addi	a5,a5,16
ffffffc050204526:	85be                	mv	a1,a5
ffffffc050204528:	00008517          	auipc	a0,0x8
ffffffc05020452c:	46850513          	addi	a0,a0,1128 # ffffffc05020c990 <send_queue>
ffffffc050204530:	f34ff0ef          	jal	ra,ffffffc050203c64 <Enqueue>
ffffffc050204534:	447040ef          	jal	ra,ffffffc05020917a <do_scheduler>
ffffffc050204538:	0004b797          	auipc	a5,0x4b
ffffffc05020453c:	ed078793          	addi	a5,a5,-304 # ffffffc05024f408 <e1000>
ffffffc050204540:	639c                	ld	a5,0(a5)
ffffffc050204542:	4609                	li	a2,2
ffffffc050204544:	0d800593          	li	a1,216
ffffffc050204548:	853e                	mv	a0,a5
ffffffc05020454a:	e34ff0ef          	jal	ra,ffffffc050203b7e <e1000_write_reg>
ffffffc05020454e:	fd843703          	ld	a4,-40(s0)
ffffffc050204552:	6785                	lui	a5,0x1
ffffffc050204554:	17fd                	addi	a5,a5,-1
ffffffc050204556:	8ff9                	and	a5,a5,a4
ffffffc050204558:	fef43423          	sd	a5,-24(s0)
ffffffc05020455c:	fd843783          	ld	a5,-40(s0)
ffffffc050204560:	853e                	mv	a0,a5
ffffffc050204562:	17d020ef          	jal	ra,ffffffc050206ede <get_page_addr>
ffffffc050204566:	872a                	mv	a4,a0
ffffffc050204568:	fe843783          	ld	a5,-24(s0)
ffffffc05020456c:	8fd9                	or	a5,a5,a4
ffffffc05020456e:	fef43023          	sd	a5,-32(s0)
ffffffc050204572:	00008797          	auipc	a5,0x8
ffffffc050204576:	4ea78793          	addi	a5,a5,1258 # ffffffc05020ca5c <tx_tail>
ffffffc05020457a:	439c                	lw	a5,0(a5)
ffffffc05020457c:	2781                	sext.w	a5,a5
ffffffc05020457e:	fd442703          	lw	a4,-44(s0)
ffffffc050204582:	1742                	slli	a4,a4,0x30
ffffffc050204584:	9341                	srli	a4,a4,0x30
ffffffc050204586:	863a                	mv	a2,a4
ffffffc050204588:	fe043583          	ld	a1,-32(s0)
ffffffc05020458c:	853e                	mv	a0,a5
ffffffc05020458e:	b77ff0ef          	jal	ra,ffffffc050204104 <set_single_tx_desc>
ffffffc050204592:	4501                	li	a0,0
ffffffc050204594:	b13ff0ef          	jal	ra,ffffffc0502040a6 <update_tail>
ffffffc050204598:	0004b797          	auipc	a5,0x4b
ffffffc05020459c:	e7078793          	addi	a5,a5,-400 # ffffffc05024f408 <e1000>
ffffffc0502045a0:	6398                	ld	a4,0(a5)
ffffffc0502045a2:	00008797          	auipc	a5,0x8
ffffffc0502045a6:	4ba78793          	addi	a5,a5,1210 # ffffffc05020ca5c <tx_tail>
ffffffc0502045aa:	439c                	lw	a5,0(a5)
ffffffc0502045ac:	863e                	mv	a2,a5
ffffffc0502045ae:	6791                	lui	a5,0x4
ffffffc0502045b0:	81878593          	addi	a1,a5,-2024 # 3818 <boot_stack_top_base-0x501fe7e8>
ffffffc0502045b4:	853a                	mv	a0,a4
ffffffc0502045b6:	dc8ff0ef          	jal	ra,ffffffc050203b7e <e1000_write_reg>
ffffffc0502045ba:	db2ff0ef          	jal	ra,ffffffc050203b6c <local_flush_dcache>
ffffffc0502045be:	fd442783          	lw	a5,-44(s0)
ffffffc0502045c2:	853e                	mv	a0,a5
ffffffc0502045c4:	70a2                	ld	ra,40(sp)
ffffffc0502045c6:	7402                	ld	s0,32(sp)
ffffffc0502045c8:	6145                	addi	sp,sp,48
ffffffc0502045ca:	8082                	ret

ffffffc0502045cc <e1000_poll>:
ffffffc0502045cc:	7179                	addi	sp,sp,-48
ffffffc0502045ce:	f406                	sd	ra,40(sp)
ffffffc0502045d0:	f022                	sd	s0,32(sp)
ffffffc0502045d2:	1800                	addi	s0,sp,48
ffffffc0502045d4:	fca43c23          	sd	a0,-40(s0)
ffffffc0502045d8:	d94ff0ef          	jal	ra,ffffffc050203b6c <local_flush_dcache>
ffffffc0502045dc:	0004b797          	auipc	a5,0x4b
ffffffc0502045e0:	e2c78793          	addi	a5,a5,-468 # ffffffc05024f408 <e1000>
ffffffc0502045e4:	6398                	ld	a4,0(a5)
ffffffc0502045e6:	678d                	lui	a5,0x3
ffffffc0502045e8:	81078593          	addi	a1,a5,-2032 # 2810 <boot_stack_top_base-0x501ff7f0>
ffffffc0502045ec:	853a                	mv	a0,a4
ffffffc0502045ee:	dcaff0ef          	jal	ra,ffffffc050203bb8 <e1000_read_reg>
ffffffc0502045f2:	87aa                	mv	a5,a0
ffffffc0502045f4:	0007871b          	sext.w	a4,a5
ffffffc0502045f8:	00008797          	auipc	a5,0x8
ffffffc0502045fc:	46878793          	addi	a5,a5,1128 # ffffffc05020ca60 <rx_head>
ffffffc050204600:	c398                	sw	a4,0(a5)
ffffffc050204602:	0004b797          	auipc	a5,0x4b
ffffffc050204606:	e0678793          	addi	a5,a5,-506 # ffffffc05024f408 <e1000>
ffffffc05020460a:	6398                	ld	a4,0(a5)
ffffffc05020460c:	678d                	lui	a5,0x3
ffffffc05020460e:	81878593          	addi	a1,a5,-2024 # 2818 <boot_stack_top_base-0x501ff7e8>
ffffffc050204612:	853a                	mv	a0,a4
ffffffc050204614:	da4ff0ef          	jal	ra,ffffffc050203bb8 <e1000_read_reg>
ffffffc050204618:	87aa                	mv	a5,a0
ffffffc05020461a:	0007871b          	sext.w	a4,a5
ffffffc05020461e:	00008797          	auipc	a5,0x8
ffffffc050204622:	3da78793          	addi	a5,a5,986 # ffffffc05020c9f8 <rx_tail>
ffffffc050204626:	c398                	sw	a4,0(a5)
ffffffc050204628:	00008797          	auipc	a5,0x8
ffffffc05020462c:	3d078793          	addi	a5,a5,976 # ffffffc05020c9f8 <rx_tail>
ffffffc050204630:	439c                	lw	a5,0(a5)
ffffffc050204632:	2785                	addiw	a5,a5,1
ffffffc050204634:	2781                	sext.w	a5,a5
ffffffc050204636:	03f7f793          	andi	a5,a5,63
ffffffc05020463a:	0007871b          	sext.w	a4,a5
ffffffc05020463e:	00008797          	auipc	a5,0x8
ffffffc050204642:	42278793          	addi	a5,a5,1058 # ffffffc05020ca60 <rx_head>
ffffffc050204646:	439c                	lw	a5,0(a5)
ffffffc050204648:	04f71d63          	bne	a4,a5,ffffffc0502046a2 <e1000_poll+0xd6>
ffffffc05020464c:	9d1fd0ef          	jal	ra,ffffffc05020201c <enable_ext>
ffffffc050204650:	00008797          	auipc	a5,0x8
ffffffc050204654:	40878793          	addi	a5,a5,1032 # ffffffc05020ca58 <tx_head>
ffffffc050204658:	4398                	lw	a4,0(a5)
ffffffc05020465a:	00008797          	auipc	a5,0x8
ffffffc05020465e:	40278793          	addi	a5,a5,1026 # ffffffc05020ca5c <tx_tail>
ffffffc050204662:	439c                	lw	a5,0(a5)
ffffffc050204664:	863e                	mv	a2,a5
ffffffc050204666:	85ba                	mv	a1,a4
ffffffc050204668:	00007517          	auipc	a0,0x7
ffffffc05020466c:	ec850513          	addi	a0,a0,-312 # ffffffc05020b530 <strcat+0x1dc>
ffffffc050204670:	179060ef          	jal	ra,ffffffc05020afe8 <printl>
ffffffc050204674:	00058797          	auipc	a5,0x58
ffffffc050204678:	aa478793          	addi	a5,a5,-1372 # ffffffc05025c118 <current_running>
ffffffc05020467c:	639c                	ld	a5,0(a5)
ffffffc05020467e:	0207ac23          	sw	zero,56(a5)
ffffffc050204682:	00058797          	auipc	a5,0x58
ffffffc050204686:	a9678793          	addi	a5,a5,-1386 # ffffffc05025c118 <current_running>
ffffffc05020468a:	639c                	ld	a5,0(a5)
ffffffc05020468c:	07c1                	addi	a5,a5,16
ffffffc05020468e:	85be                	mv	a1,a5
ffffffc050204690:	00008517          	auipc	a0,0x8
ffffffc050204694:	31050513          	addi	a0,a0,784 # ffffffc05020c9a0 <recv_queue>
ffffffc050204698:	dccff0ef          	jal	ra,ffffffc050203c64 <Enqueue>
ffffffc05020469c:	2df040ef          	jal	ra,ffffffc05020917a <do_scheduler>
ffffffc0502046a0:	a021                	j	ffffffc0502046a8 <e1000_poll+0xdc>
ffffffc0502046a2:	4505                	li	a0,1
ffffffc0502046a4:	a03ff0ef          	jal	ra,ffffffc0502040a6 <update_tail>
ffffffc0502046a8:	fd843503          	ld	a0,-40(s0)
ffffffc0502046ac:	ad1ff0ef          	jal	ra,ffffffc05020417c <deal_single_rx_desc>
ffffffc0502046b0:	87aa                	mv	a5,a0
ffffffc0502046b2:	fef42623          	sw	a5,-20(s0)
ffffffc0502046b6:	00008797          	auipc	a5,0x8
ffffffc0502046ba:	34278793          	addi	a5,a5,834 # ffffffc05020c9f8 <rx_tail>
ffffffc0502046be:	439c                	lw	a5,0(a5)
ffffffc0502046c0:	2781                	sext.w	a5,a5
ffffffc0502046c2:	853e                	mv	a0,a5
ffffffc0502046c4:	90dff0ef          	jal	ra,ffffffc050203fd0 <init_single_rx_desc>
ffffffc0502046c8:	0004b797          	auipc	a5,0x4b
ffffffc0502046cc:	d4078793          	addi	a5,a5,-704 # ffffffc05024f408 <e1000>
ffffffc0502046d0:	6398                	ld	a4,0(a5)
ffffffc0502046d2:	00008797          	auipc	a5,0x8
ffffffc0502046d6:	32678793          	addi	a5,a5,806 # ffffffc05020c9f8 <rx_tail>
ffffffc0502046da:	439c                	lw	a5,0(a5)
ffffffc0502046dc:	863e                	mv	a2,a5
ffffffc0502046de:	678d                	lui	a5,0x3
ffffffc0502046e0:	81878593          	addi	a1,a5,-2024 # 2818 <boot_stack_top_base-0x501ff7e8>
ffffffc0502046e4:	853a                	mv	a0,a4
ffffffc0502046e6:	c98ff0ef          	jal	ra,ffffffc050203b7e <e1000_write_reg>
ffffffc0502046ea:	c82ff0ef          	jal	ra,ffffffc050203b6c <local_flush_dcache>
ffffffc0502046ee:	fec42783          	lw	a5,-20(s0)
ffffffc0502046f2:	853e                	mv	a0,a5
ffffffc0502046f4:	70a2                	ld	ra,40(sp)
ffffffc0502046f6:	7402                	ld	s0,32(sp)
ffffffc0502046f8:	6145                	addi	sp,sp,48
ffffffc0502046fa:	8082                	ret

ffffffc0502046fc <check_send_valid>:
ffffffc0502046fc:	1141                	addi	sp,sp,-16
ffffffc0502046fe:	e422                	sd	s0,8(sp)
ffffffc050204700:	0800                	addi	s0,sp,16
ffffffc050204702:	00008797          	auipc	a5,0x8
ffffffc050204706:	35a78793          	addi	a5,a5,858 # ffffffc05020ca5c <tx_tail>
ffffffc05020470a:	439c                	lw	a5,0(a5)
ffffffc05020470c:	0000a717          	auipc	a4,0xa
ffffffc050204710:	2b470713          	addi	a4,a4,692 # ffffffc05020e9c0 <tx_desc_array>
ffffffc050204714:	1782                	slli	a5,a5,0x20
ffffffc050204716:	9381                	srli	a5,a5,0x20
ffffffc050204718:	0792                	slli	a5,a5,0x4
ffffffc05020471a:	97ba                	add	a5,a5,a4
ffffffc05020471c:	00c7c783          	lbu	a5,12(a5)
ffffffc050204720:	873e                	mv	a4,a5
ffffffc050204722:	4785                	li	a5,1
ffffffc050204724:	00f71463          	bne	a4,a5,ffffffc05020472c <check_send_valid+0x30>
ffffffc050204728:	4785                	li	a5,1
ffffffc05020472a:	a011                	j	ffffffc05020472e <check_send_valid+0x32>
ffffffc05020472c:	4781                	li	a5,0
ffffffc05020472e:	853e                	mv	a0,a5
ffffffc050204730:	6422                	ld	s0,8(sp)
ffffffc050204732:	0141                	addi	sp,sp,16
ffffffc050204734:	8082                	ret

ffffffc050204736 <check_recv_valid>:
ffffffc050204736:	1141                	addi	sp,sp,-16
ffffffc050204738:	e406                	sd	ra,8(sp)
ffffffc05020473a:	e022                	sd	s0,0(sp)
ffffffc05020473c:	0800                	addi	s0,sp,16
ffffffc05020473e:	0004b797          	auipc	a5,0x4b
ffffffc050204742:	cca78793          	addi	a5,a5,-822 # ffffffc05024f408 <e1000>
ffffffc050204746:	6398                	ld	a4,0(a5)
ffffffc050204748:	678d                	lui	a5,0x3
ffffffc05020474a:	81078593          	addi	a1,a5,-2032 # 2810 <boot_stack_top_base-0x501ff7f0>
ffffffc05020474e:	853a                	mv	a0,a4
ffffffc050204750:	c68ff0ef          	jal	ra,ffffffc050203bb8 <e1000_read_reg>
ffffffc050204754:	87aa                	mv	a5,a0
ffffffc050204756:	0007871b          	sext.w	a4,a5
ffffffc05020475a:	00008797          	auipc	a5,0x8
ffffffc05020475e:	30678793          	addi	a5,a5,774 # ffffffc05020ca60 <rx_head>
ffffffc050204762:	c398                	sw	a4,0(a5)
ffffffc050204764:	00008797          	auipc	a5,0x8
ffffffc050204768:	29478793          	addi	a5,a5,660 # ffffffc05020c9f8 <rx_tail>
ffffffc05020476c:	439c                	lw	a5,0(a5)
ffffffc05020476e:	2785                	addiw	a5,a5,1
ffffffc050204770:	2781                	sext.w	a5,a5
ffffffc050204772:	03f7f793          	andi	a5,a5,63
ffffffc050204776:	0007871b          	sext.w	a4,a5
ffffffc05020477a:	00008797          	auipc	a5,0x8
ffffffc05020477e:	2e678793          	addi	a5,a5,742 # ffffffc05020ca60 <rx_head>
ffffffc050204782:	439c                	lw	a5,0(a5)
ffffffc050204784:	00f70a63          	beq	a4,a5,ffffffc050204798 <check_recv_valid+0x62>
ffffffc050204788:	00007517          	auipc	a0,0x7
ffffffc05020478c:	dd850513          	addi	a0,a0,-552 # ffffffc05020b560 <strcat+0x20c>
ffffffc050204790:	059060ef          	jal	ra,ffffffc05020afe8 <printl>
ffffffc050204794:	4785                	li	a5,1
ffffffc050204796:	a011                	j	ffffffc05020479a <check_recv_valid+0x64>
ffffffc050204798:	4781                	li	a5,0
ffffffc05020479a:	853e                	mv	a0,a5
ffffffc05020479c:	60a2                	ld	ra,8(sp)
ffffffc05020479e:	6402                	ld	s0,0(sp)
ffffffc0502047a0:	0141                	addi	sp,sp,16
ffffffc0502047a2:	8082                	ret

ffffffc0502047a4 <e1000_handle_txqe>:
ffffffc0502047a4:	1141                	addi	sp,sp,-16
ffffffc0502047a6:	e406                	sd	ra,8(sp)
ffffffc0502047a8:	e022                	sd	s0,0(sp)
ffffffc0502047aa:	0800                	addi	s0,sp,16
ffffffc0502047ac:	00008517          	auipc	a0,0x8
ffffffc0502047b0:	1e450513          	addi	a0,a0,484 # ffffffc05020c990 <send_queue>
ffffffc0502047b4:	4f9040ef          	jal	ra,ffffffc0502094ac <do_unblock>
ffffffc0502047b8:	0001                	nop
ffffffc0502047ba:	60a2                	ld	ra,8(sp)
ffffffc0502047bc:	6402                	ld	s0,0(sp)
ffffffc0502047be:	0141                	addi	sp,sp,16
ffffffc0502047c0:	8082                	ret

ffffffc0502047c2 <e1000_handle_rxdmt0>:
ffffffc0502047c2:	1141                	addi	sp,sp,-16
ffffffc0502047c4:	e406                	sd	ra,8(sp)
ffffffc0502047c6:	e022                	sd	s0,0(sp)
ffffffc0502047c8:	0800                	addi	s0,sp,16
ffffffc0502047ca:	00008517          	auipc	a0,0x8
ffffffc0502047ce:	1d650513          	addi	a0,a0,470 # ffffffc05020c9a0 <recv_queue>
ffffffc0502047d2:	4db040ef          	jal	ra,ffffffc0502094ac <do_unblock>
ffffffc0502047d6:	0001                	nop
ffffffc0502047d8:	60a2                	ld	ra,8(sp)
ffffffc0502047da:	6402                	ld	s0,0(sp)
ffffffc0502047dc:	0141                	addi	sp,sp,16
ffffffc0502047de:	8082                	ret

ffffffc0502047e0 <writel>:
ffffffc0502047e0:	1101                	addi	sp,sp,-32
ffffffc0502047e2:	ec22                	sd	s0,24(sp)
ffffffc0502047e4:	1000                	addi	s0,sp,32
ffffffc0502047e6:	87aa                	mv	a5,a0
ffffffc0502047e8:	feb43023          	sd	a1,-32(s0)
ffffffc0502047ec:	fef42623          	sw	a5,-20(s0)
ffffffc0502047f0:	0550000f          	fence	ow,ow
ffffffc0502047f4:	fe043783          	ld	a5,-32(s0)
ffffffc0502047f8:	fec42703          	lw	a4,-20(s0)
ffffffc0502047fc:	c398                	sw	a4,0(a5)
ffffffc0502047fe:	0001                	nop
ffffffc050204800:	6462                	ld	s0,24(sp)
ffffffc050204802:	6105                	addi	sp,sp,32
ffffffc050204804:	8082                	ret

ffffffc050204806 <readl>:
ffffffc050204806:	7179                	addi	sp,sp,-48
ffffffc050204808:	f422                	sd	s0,40(sp)
ffffffc05020480a:	1800                	addi	s0,sp,48
ffffffc05020480c:	fca43c23          	sd	a0,-40(s0)
ffffffc050204810:	fd843783          	ld	a5,-40(s0)
ffffffc050204814:	439c                	lw	a5,0(a5)
ffffffc050204816:	fef42623          	sw	a5,-20(s0)
ffffffc05020481a:	0aa0000f          	fence	ir,ir
ffffffc05020481e:	fec42783          	lw	a5,-20(s0)
ffffffc050204822:	853e                	mv	a0,a5
ffffffc050204824:	7422                	ld	s0,40(sp)
ffffffc050204826:	6145                	addi	sp,sp,48
ffffffc050204828:	8082                	ret

ffffffc05020482a <plic_toggle>:
ffffffc05020482a:	7179                	addi	sp,sp,-48
ffffffc05020482c:	f406                	sd	ra,40(sp)
ffffffc05020482e:	f022                	sd	s0,32(sp)
ffffffc050204830:	1800                	addi	s0,sp,48
ffffffc050204832:	fca43c23          	sd	a0,-40(s0)
ffffffc050204836:	87ae                	mv	a5,a1
ffffffc050204838:	8732                	mv	a4,a2
ffffffc05020483a:	fcf42a23          	sw	a5,-44(s0)
ffffffc05020483e:	87ba                	mv	a5,a4
ffffffc050204840:	fcf42823          	sw	a5,-48(s0)
ffffffc050204844:	fd843783          	ld	a5,-40(s0)
ffffffc050204848:	6b98                	ld	a4,16(a5)
ffffffc05020484a:	fd442783          	lw	a5,-44(s0)
ffffffc05020484e:	41f7d69b          	sraiw	a3,a5,0x1f
ffffffc050204852:	01b6d69b          	srliw	a3,a3,0x1b
ffffffc050204856:	9fb5                	addw	a5,a5,a3
ffffffc050204858:	4057d79b          	sraiw	a5,a5,0x5
ffffffc05020485c:	2781                	sext.w	a5,a5
ffffffc05020485e:	078a                	slli	a5,a5,0x2
ffffffc050204860:	97ba                	add	a5,a5,a4
ffffffc050204862:	fef43423          	sd	a5,-24(s0)
ffffffc050204866:	fd442703          	lw	a4,-44(s0)
ffffffc05020486a:	41f7579b          	sraiw	a5,a4,0x1f
ffffffc05020486e:	01b7d79b          	srliw	a5,a5,0x1b
ffffffc050204872:	9f3d                	addw	a4,a4,a5
ffffffc050204874:	8b7d                	andi	a4,a4,31
ffffffc050204876:	40f707bb          	subw	a5,a4,a5
ffffffc05020487a:	2781                	sext.w	a5,a5
ffffffc05020487c:	4705                	li	a4,1
ffffffc05020487e:	00f717bb          	sllw	a5,a4,a5
ffffffc050204882:	2781                	sext.w	a5,a5
ffffffc050204884:	fef42223          	sw	a5,-28(s0)
ffffffc050204888:	fd042783          	lw	a5,-48(s0)
ffffffc05020488c:	2781                	sext.w	a5,a5
ffffffc05020488e:	c395                	beqz	a5,ffffffc0502048b2 <plic_toggle+0x88>
ffffffc050204890:	fe843503          	ld	a0,-24(s0)
ffffffc050204894:	f73ff0ef          	jal	ra,ffffffc050204806 <readl>
ffffffc050204898:	87aa                	mv	a5,a0
ffffffc05020489a:	0007871b          	sext.w	a4,a5
ffffffc05020489e:	fe442783          	lw	a5,-28(s0)
ffffffc0502048a2:	8fd9                	or	a5,a5,a4
ffffffc0502048a4:	2781                	sext.w	a5,a5
ffffffc0502048a6:	fe843583          	ld	a1,-24(s0)
ffffffc0502048aa:	853e                	mv	a0,a5
ffffffc0502048ac:	f35ff0ef          	jal	ra,ffffffc0502047e0 <writel>
ffffffc0502048b0:	a025                	j	ffffffc0502048d8 <plic_toggle+0xae>
ffffffc0502048b2:	fe843503          	ld	a0,-24(s0)
ffffffc0502048b6:	f51ff0ef          	jal	ra,ffffffc050204806 <readl>
ffffffc0502048ba:	87aa                	mv	a5,a0
ffffffc0502048bc:	0007871b          	sext.w	a4,a5
ffffffc0502048c0:	fe442783          	lw	a5,-28(s0)
ffffffc0502048c4:	fff7c793          	not	a5,a5
ffffffc0502048c8:	2781                	sext.w	a5,a5
ffffffc0502048ca:	8ff9                	and	a5,a5,a4
ffffffc0502048cc:	2781                	sext.w	a5,a5
ffffffc0502048ce:	fe843583          	ld	a1,-24(s0)
ffffffc0502048d2:	853e                	mv	a0,a5
ffffffc0502048d4:	f0dff0ef          	jal	ra,ffffffc0502047e0 <writel>
ffffffc0502048d8:	0001                	nop
ffffffc0502048da:	70a2                	ld	ra,40(sp)
ffffffc0502048dc:	7402                	ld	s0,32(sp)
ffffffc0502048de:	6145                	addi	sp,sp,48
ffffffc0502048e0:	8082                	ret

ffffffc0502048e2 <plic_irq_unmask>:
ffffffc0502048e2:	7179                	addi	sp,sp,-48
ffffffc0502048e4:	f406                	sd	ra,40(sp)
ffffffc0502048e6:	f022                	sd	s0,32(sp)
ffffffc0502048e8:	1800                	addi	s0,sp,48
ffffffc0502048ea:	87aa                	mv	a5,a0
ffffffc0502048ec:	fcf42e23          	sw	a5,-36(s0)
ffffffc0502048f0:	4785                	li	a5,1
ffffffc0502048f2:	fef42623          	sw	a5,-20(s0)
ffffffc0502048f6:	fec42683          	lw	a3,-20(s0)
ffffffc0502048fa:	0004b797          	auipc	a5,0x4b
ffffffc0502048fe:	8c678793          	addi	a5,a5,-1850 # ffffffc05024f1c0 <plic_regs>
ffffffc050204902:	639c                	ld	a5,0(a5)
ffffffc050204904:	fdc42703          	lw	a4,-36(s0)
ffffffc050204908:	0027171b          	slliw	a4,a4,0x2
ffffffc05020490c:	2701                	sext.w	a4,a4
ffffffc05020490e:	97ba                	add	a5,a5,a4
ffffffc050204910:	85be                	mv	a1,a5
ffffffc050204912:	8536                	mv	a0,a3
ffffffc050204914:	ecdff0ef          	jal	ra,ffffffc0502047e0 <writel>
ffffffc050204918:	0004b797          	auipc	a5,0x4b
ffffffc05020491c:	af878793          	addi	a5,a5,-1288 # ffffffc05024f410 <plic_handlers>
ffffffc050204920:	fef43023          	sd	a5,-32(s0)
ffffffc050204924:	fe043783          	ld	a5,-32(s0)
ffffffc050204928:	439c                	lw	a5,0(a5)
ffffffc05020492a:	cb99                	beqz	a5,ffffffc050204940 <plic_irq_unmask+0x5e>
ffffffc05020492c:	fec42703          	lw	a4,-20(s0)
ffffffc050204930:	fdc42783          	lw	a5,-36(s0)
ffffffc050204934:	863a                	mv	a2,a4
ffffffc050204936:	85be                	mv	a1,a5
ffffffc050204938:	fe043503          	ld	a0,-32(s0)
ffffffc05020493c:	eefff0ef          	jal	ra,ffffffc05020482a <plic_toggle>
ffffffc050204940:	0001                	nop
ffffffc050204942:	70a2                	ld	ra,40(sp)
ffffffc050204944:	7402                	ld	s0,32(sp)
ffffffc050204946:	6145                	addi	sp,sp,48
ffffffc050204948:	8082                	ret

ffffffc05020494a <plic_claim>:
ffffffc05020494a:	1101                	addi	sp,sp,-32
ffffffc05020494c:	ec06                	sd	ra,24(sp)
ffffffc05020494e:	e822                	sd	s0,16(sp)
ffffffc050204950:	1000                	addi	s0,sp,32
ffffffc050204952:	0004b797          	auipc	a5,0x4b
ffffffc050204956:	abe78793          	addi	a5,a5,-1346 # ffffffc05024f410 <plic_handlers>
ffffffc05020495a:	fef43423          	sd	a5,-24(s0)
ffffffc05020495e:	fe843783          	ld	a5,-24(s0)
ffffffc050204962:	679c                	ld	a5,8(a5)
ffffffc050204964:	0791                	addi	a5,a5,4
ffffffc050204966:	fef43023          	sd	a5,-32(s0)
ffffffc05020496a:	fe043503          	ld	a0,-32(s0)
ffffffc05020496e:	e99ff0ef          	jal	ra,ffffffc050204806 <readl>
ffffffc050204972:	87aa                	mv	a5,a0
ffffffc050204974:	2781                	sext.w	a5,a5
ffffffc050204976:	853e                	mv	a0,a5
ffffffc050204978:	60e2                	ld	ra,24(sp)
ffffffc05020497a:	6442                	ld	s0,16(sp)
ffffffc05020497c:	6105                	addi	sp,sp,32
ffffffc05020497e:	8082                	ret

ffffffc050204980 <plic_complete>:
ffffffc050204980:	7179                	addi	sp,sp,-48
ffffffc050204982:	f406                	sd	ra,40(sp)
ffffffc050204984:	f022                	sd	s0,32(sp)
ffffffc050204986:	1800                	addi	s0,sp,48
ffffffc050204988:	87aa                	mv	a5,a0
ffffffc05020498a:	fcf42e23          	sw	a5,-36(s0)
ffffffc05020498e:	0004b797          	auipc	a5,0x4b
ffffffc050204992:	a8278793          	addi	a5,a5,-1406 # ffffffc05024f410 <plic_handlers>
ffffffc050204996:	fef43423          	sd	a5,-24(s0)
ffffffc05020499a:	fdc42703          	lw	a4,-36(s0)
ffffffc05020499e:	fe843783          	ld	a5,-24(s0)
ffffffc0502049a2:	679c                	ld	a5,8(a5)
ffffffc0502049a4:	0791                	addi	a5,a5,4
ffffffc0502049a6:	85be                	mv	a1,a5
ffffffc0502049a8:	853a                	mv	a0,a4
ffffffc0502049aa:	e37ff0ef          	jal	ra,ffffffc0502047e0 <writel>
ffffffc0502049ae:	0001                	nop
ffffffc0502049b0:	70a2                	ld	ra,40(sp)
ffffffc0502049b2:	7402                	ld	s0,32(sp)
ffffffc0502049b4:	6145                	addi	sp,sp,48
ffffffc0502049b6:	8082                	ret

ffffffc0502049b8 <plic_init>:
ffffffc0502049b8:	7179                	addi	sp,sp,-48
ffffffc0502049ba:	f406                	sd	ra,40(sp)
ffffffc0502049bc:	f022                	sd	s0,32(sp)
ffffffc0502049be:	1800                	addi	s0,sp,48
ffffffc0502049c0:	fca43c23          	sd	a0,-40(s0)
ffffffc0502049c4:	87ae                	mv	a5,a1
ffffffc0502049c6:	fcf42a23          	sw	a5,-44(s0)
ffffffc0502049ca:	fd843703          	ld	a4,-40(s0)
ffffffc0502049ce:	0004a797          	auipc	a5,0x4a
ffffffc0502049d2:	7f278793          	addi	a5,a5,2034 # ffffffc05024f1c0 <plic_regs>
ffffffc0502049d6:	e398                	sd	a4,0(a5)
ffffffc0502049d8:	fe042423          	sw	zero,-24(s0)
ffffffc0502049dc:	0004b797          	auipc	a5,0x4b
ffffffc0502049e0:	a3478793          	addi	a5,a5,-1484 # ffffffc05024f410 <plic_handlers>
ffffffc0502049e4:	fef43023          	sd	a5,-32(s0)
ffffffc0502049e8:	fe043783          	ld	a5,-32(s0)
ffffffc0502049ec:	439c                	lw	a5,0(a5)
ffffffc0502049ee:	cb99                	beqz	a5,ffffffc050204a04 <plic_init+0x4c>
ffffffc0502049f0:	00007517          	auipc	a0,0x7
ffffffc0502049f4:	b8050513          	addi	a0,a0,-1152 # ffffffc05020b570 <strcat+0x21c>
ffffffc0502049f8:	4e0060ef          	jal	ra,ffffffc05020aed8 <printk>
ffffffc0502049fc:	57fd                	li	a5,-1
ffffffc0502049fe:	fef42423          	sw	a5,-24(s0)
ffffffc050204a02:	a815                	j	ffffffc050204a36 <plic_init+0x7e>
ffffffc050204a04:	fe043783          	ld	a5,-32(s0)
ffffffc050204a08:	4705                	li	a4,1
ffffffc050204a0a:	c398                	sw	a4,0(a5)
ffffffc050204a0c:	0004a797          	auipc	a5,0x4a
ffffffc050204a10:	7b478793          	addi	a5,a5,1972 # ffffffc05024f1c0 <plic_regs>
ffffffc050204a14:	6398                	ld	a4,0(a5)
ffffffc050204a16:	002007b7          	lui	a5,0x200
ffffffc050204a1a:	973e                	add	a4,a4,a5
ffffffc050204a1c:	fe043783          	ld	a5,-32(s0)
ffffffc050204a20:	e798                	sd	a4,8(a5)
ffffffc050204a22:	0004a797          	auipc	a5,0x4a
ffffffc050204a26:	79e78793          	addi	a5,a5,1950 # ffffffc05024f1c0 <plic_regs>
ffffffc050204a2a:	6398                	ld	a4,0(a5)
ffffffc050204a2c:	6789                	lui	a5,0x2
ffffffc050204a2e:	973e                	add	a4,a4,a5
ffffffc050204a30:	fe043783          	ld	a5,-32(s0)
ffffffc050204a34:	eb98                	sd	a4,16(a5)
ffffffc050204a36:	fe043783          	ld	a5,-32(s0)
ffffffc050204a3a:	6798                	ld	a4,8(a5)
ffffffc050204a3c:	fe842783          	lw	a5,-24(s0)
ffffffc050204a40:	85ba                	mv	a1,a4
ffffffc050204a42:	853e                	mv	a0,a5
ffffffc050204a44:	d9dff0ef          	jal	ra,ffffffc0502047e0 <writel>
ffffffc050204a48:	4785                	li	a5,1
ffffffc050204a4a:	fef42623          	sw	a5,-20(s0)
ffffffc050204a4e:	a831                	j	ffffffc050204a6a <plic_init+0xb2>
ffffffc050204a50:	fec42783          	lw	a5,-20(s0)
ffffffc050204a54:	4605                	li	a2,1
ffffffc050204a56:	85be                	mv	a1,a5
ffffffc050204a58:	fe043503          	ld	a0,-32(s0)
ffffffc050204a5c:	dcfff0ef          	jal	ra,ffffffc05020482a <plic_toggle>
ffffffc050204a60:	fec42783          	lw	a5,-20(s0)
ffffffc050204a64:	2785                	addiw	a5,a5,1
ffffffc050204a66:	fef42623          	sw	a5,-20(s0)
ffffffc050204a6a:	fec42703          	lw	a4,-20(s0)
ffffffc050204a6e:	fd442783          	lw	a5,-44(s0)
ffffffc050204a72:	2781                	sext.w	a5,a5
ffffffc050204a74:	fce7fee3          	bgeu	a5,a4,ffffffc050204a50 <plic_init+0x98>
ffffffc050204a78:	fec42783          	lw	a5,-20(s0)
ffffffc050204a7c:	0007871b          	sext.w	a4,a5
ffffffc050204a80:	02100793          	li	a5,33
ffffffc050204a84:	00e7d763          	bge	a5,a4,ffffffc050204a92 <plic_init+0xda>
ffffffc050204a88:	02100513          	li	a0,33
ffffffc050204a8c:	e57ff0ef          	jal	ra,ffffffc0502048e2 <plic_irq_unmask>
ffffffc050204a90:	a021                	j	ffffffc050204a98 <plic_init+0xe0>
ffffffc050204a92:	450d                	li	a0,3
ffffffc050204a94:	e4fff0ef          	jal	ra,ffffffc0502048e2 <plic_irq_unmask>
ffffffc050204a98:	4781                	li	a5,0
ffffffc050204a9a:	853e                	mv	a0,a5
ffffffc050204a9c:	70a2                	ld	ra,40(sp)
ffffffc050204a9e:	7402                	ld	s0,32(sp)
ffffffc050204aa0:	6145                	addi	sp,sp,48
ffffffc050204aa2:	8082                	ret

ffffffc050204aa4 <call_jmptab>:
ffffffc050204aa4:	7139                	addi	sp,sp,-64
ffffffc050204aa6:	fc06                	sd	ra,56(sp)
ffffffc050204aa8:	f822                	sd	s0,48(sp)
ffffffc050204aaa:	0080                	addi	s0,sp,64
ffffffc050204aac:	fca43c23          	sd	a0,-40(s0)
ffffffc050204ab0:	fcb43823          	sd	a1,-48(s0)
ffffffc050204ab4:	fcc43423          	sd	a2,-56(s0)
ffffffc050204ab8:	fcd43023          	sd	a3,-64(s0)
ffffffc050204abc:	fd843783          	ld	a5,-40(s0)
ffffffc050204ac0:	00379713          	slli	a4,a5,0x3
ffffffc050204ac4:	fe0297b7          	lui	a5,0xfe029
ffffffc050204ac8:	07b6                	slli	a5,a5,0xd
ffffffc050204aca:	f0078793          	addi	a5,a5,-256 # fffffffffe028f00 <__BSS_END__+0x3faddbf5d8>
ffffffc050204ace:	97ba                	add	a5,a5,a4
ffffffc050204ad0:	639c                	ld	a5,0(a5)
ffffffc050204ad2:	fef43423          	sd	a5,-24(s0)
ffffffc050204ad6:	fe843783          	ld	a5,-24(s0)
ffffffc050204ada:	fef43023          	sd	a5,-32(s0)
ffffffc050204ade:	fe043783          	ld	a5,-32(s0)
ffffffc050204ae2:	fc043603          	ld	a2,-64(s0)
ffffffc050204ae6:	fc843583          	ld	a1,-56(s0)
ffffffc050204aea:	fd043503          	ld	a0,-48(s0)
ffffffc050204aee:	9782                	jalr	a5
ffffffc050204af0:	87aa                	mv	a5,a0
ffffffc050204af2:	853e                	mv	a0,a5
ffffffc050204af4:	70e2                	ld	ra,56(sp)
ffffffc050204af6:	7442                	ld	s0,48(sp)
ffffffc050204af8:	6121                	addi	sp,sp,64
ffffffc050204afa:	8082                	ret

ffffffc050204afc <bios_set_timer>:
ffffffc050204afc:	1101                	addi	sp,sp,-32
ffffffc050204afe:	ec06                	sd	ra,24(sp)
ffffffc050204b00:	e822                	sd	s0,16(sp)
ffffffc050204b02:	1000                	addi	s0,sp,32
ffffffc050204b04:	fea43423          	sd	a0,-24(s0)
ffffffc050204b08:	fe843783          	ld	a5,-24(s0)
ffffffc050204b0c:	4681                	li	a3,0
ffffffc050204b0e:	4601                	li	a2,0
ffffffc050204b10:	85be                	mv	a1,a5
ffffffc050204b12:	4519                	li	a0,6
ffffffc050204b14:	f91ff0ef          	jal	ra,ffffffc050204aa4 <call_jmptab>
ffffffc050204b18:	0001                	nop
ffffffc050204b1a:	60e2                	ld	ra,24(sp)
ffffffc050204b1c:	6442                	ld	s0,16(sp)
ffffffc050204b1e:	6105                	addi	sp,sp,32
ffffffc050204b20:	8082                	ret

ffffffc050204b22 <_panic>:
ffffffc050204b22:	7179                	addi	sp,sp,-48
ffffffc050204b24:	f406                	sd	ra,40(sp)
ffffffc050204b26:	f022                	sd	s0,32(sp)
ffffffc050204b28:	1800                	addi	s0,sp,48
ffffffc050204b2a:	fea43423          	sd	a0,-24(s0)
ffffffc050204b2e:	87ae                	mv	a5,a1
ffffffc050204b30:	fcc43c23          	sd	a2,-40(s0)
ffffffc050204b34:	fef42223          	sw	a5,-28(s0)
ffffffc050204b38:	fe442783          	lw	a5,-28(s0)
ffffffc050204b3c:	86be                	mv	a3,a5
ffffffc050204b3e:	fe843603          	ld	a2,-24(s0)
ffffffc050204b42:	fd843583          	ld	a1,-40(s0)
ffffffc050204b46:	00007517          	auipc	a0,0x7
ffffffc050204b4a:	b4a50513          	addi	a0,a0,-1206 # ffffffc05020b690 <strcat+0x33c>
ffffffc050204b4e:	38a060ef          	jal	ra,ffffffc05020aed8 <printk>
ffffffc050204b52:	a001                	j	ffffffc050204b52 <_panic+0x30>

ffffffc050204b54 <readl>:
ffffffc050204b54:	7179                	addi	sp,sp,-48
ffffffc050204b56:	f422                	sd	s0,40(sp)
ffffffc050204b58:	1800                	addi	s0,sp,48
ffffffc050204b5a:	fca43c23          	sd	a0,-40(s0)
ffffffc050204b5e:	fd843783          	ld	a5,-40(s0)
ffffffc050204b62:	439c                	lw	a5,0(a5)
ffffffc050204b64:	fef42623          	sw	a5,-20(s0)
ffffffc050204b68:	0aa0000f          	fence	ir,ir
ffffffc050204b6c:	fec42783          	lw	a5,-20(s0)
ffffffc050204b70:	853e                	mv	a0,a5
ffffffc050204b72:	7422                	ld	s0,40(sp)
ffffffc050204b74:	6145                	addi	sp,sp,48
ffffffc050204b76:	8082                	ret

ffffffc050204b78 <e1000_read_reg>:
ffffffc050204b78:	1101                	addi	sp,sp,-32
ffffffc050204b7a:	ec06                	sd	ra,24(sp)
ffffffc050204b7c:	e822                	sd	s0,16(sp)
ffffffc050204b7e:	1000                	addi	s0,sp,32
ffffffc050204b80:	fea43423          	sd	a0,-24(s0)
ffffffc050204b84:	87ae                	mv	a5,a1
ffffffc050204b86:	fef42223          	sw	a5,-28(s0)
ffffffc050204b8a:	fe446783          	lwu	a5,-28(s0)
ffffffc050204b8e:	fe843703          	ld	a4,-24(s0)
ffffffc050204b92:	97ba                	add	a5,a5,a4
ffffffc050204b94:	853e                	mv	a0,a5
ffffffc050204b96:	fbfff0ef          	jal	ra,ffffffc050204b54 <readl>
ffffffc050204b9a:	87aa                	mv	a5,a0
ffffffc050204b9c:	2781                	sext.w	a5,a5
ffffffc050204b9e:	853e                	mv	a0,a5
ffffffc050204ba0:	60e2                	ld	ra,24(sp)
ffffffc050204ba2:	6442                	ld	s0,16(sp)
ffffffc050204ba4:	6105                	addi	sp,sp,32
ffffffc050204ba6:	8082                	ret

ffffffc050204ba8 <interrupt_helper>:
ffffffc050204ba8:	711d                	addi	sp,sp,-96
ffffffc050204baa:	ec86                	sd	ra,88(sp)
ffffffc050204bac:	e8a2                	sd	s0,80(sp)
ffffffc050204bae:	1080                	addi	s0,sp,96
ffffffc050204bb0:	faa43c23          	sd	a0,-72(s0)
ffffffc050204bb4:	fab43823          	sd	a1,-80(s0)
ffffffc050204bb8:	fac43423          	sd	a2,-88(s0)
ffffffc050204bbc:	011030ef          	jal	ra,ffffffc0502083cc <lock_kernel>
ffffffc050204bc0:	e24fd0ef          	jal	ra,ffffffc0502021e4 <get_current_cpu_id>
ffffffc050204bc4:	87aa                	mv	a5,a0
ffffffc050204bc6:	fef42623          	sw	a5,-20(s0)
ffffffc050204bca:	fec42783          	lw	a5,-20(s0)
ffffffc050204bce:	2781                	sext.w	a5,a5
ffffffc050204bd0:	ef81                	bnez	a5,ffffffc050204be8 <interrupt_helper+0x40>
ffffffc050204bd2:	00057797          	auipc	a5,0x57
ffffffc050204bd6:	54e78793          	addi	a5,a5,1358 # ffffffc05025c120 <current_running_m>
ffffffc050204bda:	6398                	ld	a4,0(a5)
ffffffc050204bdc:	00057797          	auipc	a5,0x57
ffffffc050204be0:	53c78793          	addi	a5,a5,1340 # ffffffc05025c118 <current_running>
ffffffc050204be4:	e398                	sd	a4,0(a5)
ffffffc050204be6:	a819                	j	ffffffc050204bfc <interrupt_helper+0x54>
ffffffc050204be8:	00057797          	auipc	a5,0x57
ffffffc050204bec:	52878793          	addi	a5,a5,1320 # ffffffc05025c110 <current_running_n>
ffffffc050204bf0:	6398                	ld	a4,0(a5)
ffffffc050204bf2:	00057797          	auipc	a5,0x57
ffffffc050204bf6:	52678793          	addi	a5,a5,1318 # ffffffc05025c118 <current_running>
ffffffc050204bfa:	e398                	sd	a4,0(a5)
ffffffc050204bfc:	fa843703          	ld	a4,-88(s0)
ffffffc050204c00:	57fd                	li	a5,-1
ffffffc050204c02:	17fe                	slli	a5,a5,0x3f
ffffffc050204c04:	8ff9                	and	a5,a5,a4
ffffffc050204c06:	fef43023          	sd	a5,-32(s0)
ffffffc050204c0a:	fa843703          	ld	a4,-88(s0)
ffffffc050204c0e:	57fd                	li	a5,-1
ffffffc050204c10:	8385                	srli	a5,a5,0x1
ffffffc050204c12:	8ff9                	and	a5,a5,a4
ffffffc050204c14:	fcf43c23          	sd	a5,-40(s0)
ffffffc050204c18:	fe043783          	ld	a5,-32(s0)
ffffffc050204c1c:	c795                	beqz	a5,ffffffc050204c48 <interrupt_helper+0xa0>
ffffffc050204c1e:	0004b717          	auipc	a4,0x4b
ffffffc050204c22:	88a70713          	addi	a4,a4,-1910 # ffffffc05024f4a8 <irq_table>
ffffffc050204c26:	fd843783          	ld	a5,-40(s0)
ffffffc050204c2a:	078e                	slli	a5,a5,0x3
ffffffc050204c2c:	97ba                	add	a5,a5,a4
ffffffc050204c2e:	639c                	ld	a5,0(a5)
ffffffc050204c30:	fcf43423          	sd	a5,-56(s0)
ffffffc050204c34:	fc843783          	ld	a5,-56(s0)
ffffffc050204c38:	fa843603          	ld	a2,-88(s0)
ffffffc050204c3c:	fb043583          	ld	a1,-80(s0)
ffffffc050204c40:	fb843503          	ld	a0,-72(s0)
ffffffc050204c44:	9782                	jalr	a5
ffffffc050204c46:	a02d                	j	ffffffc050204c70 <interrupt_helper+0xc8>
ffffffc050204c48:	0004a717          	auipc	a4,0x4a
ffffffc050204c4c:	7e070713          	addi	a4,a4,2016 # ffffffc05024f428 <exc_table>
ffffffc050204c50:	fd843783          	ld	a5,-40(s0)
ffffffc050204c54:	078e                	slli	a5,a5,0x3
ffffffc050204c56:	97ba                	add	a5,a5,a4
ffffffc050204c58:	639c                	ld	a5,0(a5)
ffffffc050204c5a:	fcf43823          	sd	a5,-48(s0)
ffffffc050204c5e:	fd043783          	ld	a5,-48(s0)
ffffffc050204c62:	fa843603          	ld	a2,-88(s0)
ffffffc050204c66:	fb043583          	ld	a1,-80(s0)
ffffffc050204c6a:	fb843503          	ld	a0,-72(s0)
ffffffc050204c6e:	9782                	jalr	a5
ffffffc050204c70:	0001                	nop
ffffffc050204c72:	60e6                	ld	ra,88(sp)
ffffffc050204c74:	6446                	ld	s0,80(sp)
ffffffc050204c76:	6125                	addi	sp,sp,96
ffffffc050204c78:	8082                	ret

ffffffc050204c7a <handle_irq_timer>:
ffffffc050204c7a:	7179                	addi	sp,sp,-48
ffffffc050204c7c:	f406                	sd	ra,40(sp)
ffffffc050204c7e:	f022                	sd	s0,32(sp)
ffffffc050204c80:	1800                	addi	s0,sp,48
ffffffc050204c82:	fea43423          	sd	a0,-24(s0)
ffffffc050204c86:	feb43023          	sd	a1,-32(s0)
ffffffc050204c8a:	fcc43c23          	sd	a2,-40(s0)
ffffffc050204c8e:	0e5030ef          	jal	ra,ffffffc050208572 <get_ticks>
ffffffc050204c92:	872a                	mv	a4,a0
ffffffc050204c94:	67b1                	lui	a5,0xc
ffffffc050204c96:	35078793          	addi	a5,a5,848 # c350 <boot_stack_top_base-0x501f5cb0>
ffffffc050204c9a:	97ba                	add	a5,a5,a4
ffffffc050204c9c:	853e                	mv	a0,a5
ffffffc050204c9e:	e5fff0ef          	jal	ra,ffffffc050204afc <bios_set_timer>
ffffffc050204ca2:	4d8040ef          	jal	ra,ffffffc05020917a <do_scheduler>
ffffffc050204ca6:	0001                	nop
ffffffc050204ca8:	70a2                	ld	ra,40(sp)
ffffffc050204caa:	7402                	ld	s0,32(sp)
ffffffc050204cac:	6145                	addi	sp,sp,48
ffffffc050204cae:	8082                	ret

ffffffc050204cb0 <handle_irq_ext>:
ffffffc050204cb0:	715d                	addi	sp,sp,-80
ffffffc050204cb2:	e486                	sd	ra,72(sp)
ffffffc050204cb4:	e0a2                	sd	s0,64(sp)
ffffffc050204cb6:	0880                	addi	s0,sp,80
ffffffc050204cb8:	fca43423          	sd	a0,-56(s0)
ffffffc050204cbc:	fcb43023          	sd	a1,-64(s0)
ffffffc050204cc0:	fac43c23          	sd	a2,-72(s0)
ffffffc050204cc4:	c87ff0ef          	jal	ra,ffffffc05020494a <plic_claim>
ffffffc050204cc8:	87aa                	mv	a5,a0
ffffffc050204cca:	2781                	sext.w	a5,a5
ffffffc050204ccc:	fef42623          	sw	a5,-20(s0)
ffffffc050204cd0:	fec42783          	lw	a5,-20(s0)
ffffffc050204cd4:	0007871b          	sext.w	a4,a5
ffffffc050204cd8:	478d                	li	a5,3
ffffffc050204cda:	00f70863          	beq	a4,a5,ffffffc050204cea <handle_irq_ext+0x3a>
ffffffc050204cde:	fec42783          	lw	a5,-20(s0)
ffffffc050204ce2:	853e                	mv	a0,a5
ffffffc050204ce4:	c9dff0ef          	jal	ra,ffffffc050204980 <plic_complete>
ffffffc050204ce8:	a049                	j	ffffffc050204d6a <handle_irq_ext+0xba>
ffffffc050204cea:	0004a797          	auipc	a5,0x4a
ffffffc050204cee:	71e78793          	addi	a5,a5,1822 # ffffffc05024f408 <e1000>
ffffffc050204cf2:	639c                	ld	a5,0(a5)
ffffffc050204cf4:	0c000593          	li	a1,192
ffffffc050204cf8:	853e                	mv	a0,a5
ffffffc050204cfa:	e7fff0ef          	jal	ra,ffffffc050204b78 <e1000_read_reg>
ffffffc050204cfe:	87aa                	mv	a5,a0
ffffffc050204d00:	fef42423          	sw	a5,-24(s0)
ffffffc050204d04:	0004a797          	auipc	a5,0x4a
ffffffc050204d08:	70478793          	addi	a5,a5,1796 # ffffffc05024f408 <e1000>
ffffffc050204d0c:	639c                	ld	a5,0(a5)
ffffffc050204d0e:	0d000593          	li	a1,208
ffffffc050204d12:	853e                	mv	a0,a5
ffffffc050204d14:	e65ff0ef          	jal	ra,ffffffc050204b78 <e1000_read_reg>
ffffffc050204d18:	87aa                	mv	a5,a0
ffffffc050204d1a:	fef42223          	sw	a5,-28(s0)
ffffffc050204d1e:	fe842703          	lw	a4,-24(s0)
ffffffc050204d22:	fe442783          	lw	a5,-28(s0)
ffffffc050204d26:	8ff9                	and	a5,a5,a4
ffffffc050204d28:	fef42423          	sw	a5,-24(s0)
ffffffc050204d2c:	fe842783          	lw	a5,-24(s0)
ffffffc050204d30:	0027c793          	xori	a5,a5,2
ffffffc050204d34:	2781                	sext.w	a5,a5
ffffffc050204d36:	fef42023          	sw	a5,-32(s0)
ffffffc050204d3a:	fe842783          	lw	a5,-24(s0)
ffffffc050204d3e:	0107c793          	xori	a5,a5,16
ffffffc050204d42:	2781                	sext.w	a5,a5
ffffffc050204d44:	fcf42e23          	sw	a5,-36(s0)
ffffffc050204d48:	fe042783          	lw	a5,-32(s0)
ffffffc050204d4c:	2781                	sext.w	a5,a5
ffffffc050204d4e:	e399                	bnez	a5,ffffffc050204d54 <handle_irq_ext+0xa4>
ffffffc050204d50:	a55ff0ef          	jal	ra,ffffffc0502047a4 <e1000_handle_txqe>
ffffffc050204d54:	fdc42783          	lw	a5,-36(s0)
ffffffc050204d58:	2781                	sext.w	a5,a5
ffffffc050204d5a:	e399                	bnez	a5,ffffffc050204d60 <handle_irq_ext+0xb0>
ffffffc050204d5c:	a67ff0ef          	jal	ra,ffffffc0502047c2 <e1000_handle_rxdmt0>
ffffffc050204d60:	fec42783          	lw	a5,-20(s0)
ffffffc050204d64:	853e                	mv	a0,a5
ffffffc050204d66:	c1bff0ef          	jal	ra,ffffffc050204980 <plic_complete>
ffffffc050204d6a:	60a6                	ld	ra,72(sp)
ffffffc050204d6c:	6406                	ld	s0,64(sp)
ffffffc050204d6e:	6161                	addi	sp,sp,80
ffffffc050204d70:	8082                	ret

ffffffc050204d72 <handle_page_fault>:
ffffffc050204d72:	7179                	addi	sp,sp,-48
ffffffc050204d74:	f406                	sd	ra,40(sp)
ffffffc050204d76:	f022                	sd	s0,32(sp)
ffffffc050204d78:	1800                	addi	s0,sp,48
ffffffc050204d7a:	fea43423          	sd	a0,-24(s0)
ffffffc050204d7e:	feb43023          	sd	a1,-32(s0)
ffffffc050204d82:	fcc43c23          	sd	a2,-40(s0)
ffffffc050204d86:	fe043503          	ld	a0,-32(s0)
ffffffc050204d8a:	364050ef          	jal	ra,ffffffc05020a0ee <do_pagefault>
ffffffc050204d8e:	0001                	nop
ffffffc050204d90:	70a2                	ld	ra,40(sp)
ffffffc050204d92:	7402                	ld	s0,32(sp)
ffffffc050204d94:	6145                	addi	sp,sp,48
ffffffc050204d96:	8082                	ret

ffffffc050204d98 <init_exception>:
ffffffc050204d98:	1101                	addi	sp,sp,-32
ffffffc050204d9a:	ec06                	sd	ra,24(sp)
ffffffc050204d9c:	e822                	sd	s0,16(sp)
ffffffc050204d9e:	1000                	addi	s0,sp,32
ffffffc050204da0:	fe042623          	sw	zero,-20(s0)
ffffffc050204da4:	a01d                	j	ffffffc050204dca <init_exception+0x32>
ffffffc050204da6:	0004a717          	auipc	a4,0x4a
ffffffc050204daa:	68270713          	addi	a4,a4,1666 # ffffffc05024f428 <exc_table>
ffffffc050204dae:	fec42783          	lw	a5,-20(s0)
ffffffc050204db2:	078e                	slli	a5,a5,0x3
ffffffc050204db4:	97ba                	add	a5,a5,a4
ffffffc050204db6:	00000717          	auipc	a4,0x0
ffffffc050204dba:	1ac70713          	addi	a4,a4,428 # ffffffc050204f62 <handle_other>
ffffffc050204dbe:	e398                	sd	a4,0(a5)
ffffffc050204dc0:	fec42783          	lw	a5,-20(s0)
ffffffc050204dc4:	2785                	addiw	a5,a5,1
ffffffc050204dc6:	fef42623          	sw	a5,-20(s0)
ffffffc050204dca:	fec42783          	lw	a5,-20(s0)
ffffffc050204dce:	0007871b          	sext.w	a4,a5
ffffffc050204dd2:	47bd                	li	a5,15
ffffffc050204dd4:	fce7d9e3          	bge	a5,a4,ffffffc050204da6 <init_exception+0xe>
ffffffc050204dd8:	0004a797          	auipc	a5,0x4a
ffffffc050204ddc:	65078793          	addi	a5,a5,1616 # ffffffc05024f428 <exc_table>
ffffffc050204de0:	00005717          	auipc	a4,0x5
ffffffc050204de4:	72070713          	addi	a4,a4,1824 # ffffffc05020a500 <handle_syscall>
ffffffc050204de8:	e3b8                	sd	a4,64(a5)
ffffffc050204dea:	0004a797          	auipc	a5,0x4a
ffffffc050204dee:	63e78793          	addi	a5,a5,1598 # ffffffc05024f428 <exc_table>
ffffffc050204df2:	00000717          	auipc	a4,0x0
ffffffc050204df6:	17070713          	addi	a4,a4,368 # ffffffc050204f62 <handle_other>
ffffffc050204dfa:	e398                	sd	a4,0(a5)
ffffffc050204dfc:	0004a797          	auipc	a5,0x4a
ffffffc050204e00:	62c78793          	addi	a5,a5,1580 # ffffffc05024f428 <exc_table>
ffffffc050204e04:	00000717          	auipc	a4,0x0
ffffffc050204e08:	15e70713          	addi	a4,a4,350 # ffffffc050204f62 <handle_other>
ffffffc050204e0c:	e798                	sd	a4,8(a5)
ffffffc050204e0e:	0004a797          	auipc	a5,0x4a
ffffffc050204e12:	61a78793          	addi	a5,a5,1562 # ffffffc05024f428 <exc_table>
ffffffc050204e16:	00000717          	auipc	a4,0x0
ffffffc050204e1a:	14c70713          	addi	a4,a4,332 # ffffffc050204f62 <handle_other>
ffffffc050204e1e:	ef98                	sd	a4,24(a5)
ffffffc050204e20:	0004a797          	auipc	a5,0x4a
ffffffc050204e24:	60878793          	addi	a5,a5,1544 # ffffffc05024f428 <exc_table>
ffffffc050204e28:	00000717          	auipc	a4,0x0
ffffffc050204e2c:	13a70713          	addi	a4,a4,314 # ffffffc050204f62 <handle_other>
ffffffc050204e30:	f798                	sd	a4,40(a5)
ffffffc050204e32:	0004a797          	auipc	a5,0x4a
ffffffc050204e36:	5f678793          	addi	a5,a5,1526 # ffffffc05024f428 <exc_table>
ffffffc050204e3a:	00000717          	auipc	a4,0x0
ffffffc050204e3e:	f3870713          	addi	a4,a4,-200 # ffffffc050204d72 <handle_page_fault>
ffffffc050204e42:	ff98                	sd	a4,56(a5)
ffffffc050204e44:	0004a797          	auipc	a5,0x4a
ffffffc050204e48:	5e478793          	addi	a5,a5,1508 # ffffffc05024f428 <exc_table>
ffffffc050204e4c:	00000717          	auipc	a4,0x0
ffffffc050204e50:	f2670713          	addi	a4,a4,-218 # ffffffc050204d72 <handle_page_fault>
ffffffc050204e54:	f3b8                	sd	a4,96(a5)
ffffffc050204e56:	0004a797          	auipc	a5,0x4a
ffffffc050204e5a:	5d278793          	addi	a5,a5,1490 # ffffffc05024f428 <exc_table>
ffffffc050204e5e:	00000717          	auipc	a4,0x0
ffffffc050204e62:	f1470713          	addi	a4,a4,-236 # ffffffc050204d72 <handle_page_fault>
ffffffc050204e66:	f7b8                	sd	a4,104(a5)
ffffffc050204e68:	0004a797          	auipc	a5,0x4a
ffffffc050204e6c:	5c078793          	addi	a5,a5,1472 # ffffffc05024f428 <exc_table>
ffffffc050204e70:	00000717          	auipc	a4,0x0
ffffffc050204e74:	f0270713          	addi	a4,a4,-254 # ffffffc050204d72 <handle_page_fault>
ffffffc050204e78:	ffb8                	sd	a4,120(a5)
ffffffc050204e7a:	fe042423          	sw	zero,-24(s0)
ffffffc050204e7e:	a01d                	j	ffffffc050204ea4 <init_exception+0x10c>
ffffffc050204e80:	0004a717          	auipc	a4,0x4a
ffffffc050204e84:	62870713          	addi	a4,a4,1576 # ffffffc05024f4a8 <irq_table>
ffffffc050204e88:	fe842783          	lw	a5,-24(s0)
ffffffc050204e8c:	078e                	slli	a5,a5,0x3
ffffffc050204e8e:	97ba                	add	a5,a5,a4
ffffffc050204e90:	00000717          	auipc	a4,0x0
ffffffc050204e94:	0d270713          	addi	a4,a4,210 # ffffffc050204f62 <handle_other>
ffffffc050204e98:	e398                	sd	a4,0(a5)
ffffffc050204e9a:	fe842783          	lw	a5,-24(s0)
ffffffc050204e9e:	2785                	addiw	a5,a5,1
ffffffc050204ea0:	fef42423          	sw	a5,-24(s0)
ffffffc050204ea4:	fe842783          	lw	a5,-24(s0)
ffffffc050204ea8:	0007871b          	sext.w	a4,a5
ffffffc050204eac:	47ad                	li	a5,11
ffffffc050204eae:	fce7d9e3          	bge	a5,a4,ffffffc050204e80 <init_exception+0xe8>
ffffffc050204eb2:	0004a797          	auipc	a5,0x4a
ffffffc050204eb6:	5f678793          	addi	a5,a5,1526 # ffffffc05024f4a8 <irq_table>
ffffffc050204eba:	00000717          	auipc	a4,0x0
ffffffc050204ebe:	dc070713          	addi	a4,a4,-576 # ffffffc050204c7a <handle_irq_timer>
ffffffc050204ec2:	f798                	sd	a4,40(a5)
ffffffc050204ec4:	0004a797          	auipc	a5,0x4a
ffffffc050204ec8:	5e478793          	addi	a5,a5,1508 # ffffffc05024f4a8 <irq_table>
ffffffc050204ecc:	00000717          	auipc	a4,0x0
ffffffc050204ed0:	09670713          	addi	a4,a4,150 # ffffffc050204f62 <handle_other>
ffffffc050204ed4:	e398                	sd	a4,0(a5)
ffffffc050204ed6:	0004a797          	auipc	a5,0x4a
ffffffc050204eda:	5d278793          	addi	a5,a5,1490 # ffffffc05024f4a8 <irq_table>
ffffffc050204ede:	00000717          	auipc	a4,0x0
ffffffc050204ee2:	08470713          	addi	a4,a4,132 # ffffffc050204f62 <handle_other>
ffffffc050204ee6:	e798                	sd	a4,8(a5)
ffffffc050204ee8:	0004a797          	auipc	a5,0x4a
ffffffc050204eec:	5c078793          	addi	a5,a5,1472 # ffffffc05024f4a8 <irq_table>
ffffffc050204ef0:	00000717          	auipc	a4,0x0
ffffffc050204ef4:	07270713          	addi	a4,a4,114 # ffffffc050204f62 <handle_other>
ffffffc050204ef8:	ef98                	sd	a4,24(a5)
ffffffc050204efa:	0004a797          	auipc	a5,0x4a
ffffffc050204efe:	5ae78793          	addi	a5,a5,1454 # ffffffc05024f4a8 <irq_table>
ffffffc050204f02:	00000717          	auipc	a4,0x0
ffffffc050204f06:	06070713          	addi	a4,a4,96 # ffffffc050204f62 <handle_other>
ffffffc050204f0a:	f398                	sd	a4,32(a5)
ffffffc050204f0c:	0004a797          	auipc	a5,0x4a
ffffffc050204f10:	59c78793          	addi	a5,a5,1436 # ffffffc05024f4a8 <irq_table>
ffffffc050204f14:	00000717          	auipc	a4,0x0
ffffffc050204f18:	04e70713          	addi	a4,a4,78 # ffffffc050204f62 <handle_other>
ffffffc050204f1c:	ff98                	sd	a4,56(a5)
ffffffc050204f1e:	0004a797          	auipc	a5,0x4a
ffffffc050204f22:	58a78793          	addi	a5,a5,1418 # ffffffc05024f4a8 <irq_table>
ffffffc050204f26:	00000717          	auipc	a4,0x0
ffffffc050204f2a:	03c70713          	addi	a4,a4,60 # ffffffc050204f62 <handle_other>
ffffffc050204f2e:	e3b8                	sd	a4,64(a5)
ffffffc050204f30:	0004a797          	auipc	a5,0x4a
ffffffc050204f34:	57878793          	addi	a5,a5,1400 # ffffffc05024f4a8 <irq_table>
ffffffc050204f38:	00000717          	auipc	a4,0x0
ffffffc050204f3c:	d7870713          	addi	a4,a4,-648 # ffffffc050204cb0 <handle_irq_ext>
ffffffc050204f40:	e7b8                	sd	a4,72(a5)
ffffffc050204f42:	0004a797          	auipc	a5,0x4a
ffffffc050204f46:	56678793          	addi	a5,a5,1382 # ffffffc05024f4a8 <irq_table>
ffffffc050204f4a:	00000717          	auipc	a4,0x0
ffffffc050204f4e:	01870713          	addi	a4,a4,24 # ffffffc050204f62 <handle_other>
ffffffc050204f52:	efb8                	sd	a4,88(a5)
ffffffc050204f54:	a78fd0ef          	jal	ra,ffffffc0502021cc <setup_exception>
ffffffc050204f58:	0001                	nop
ffffffc050204f5a:	60e2                	ld	ra,24(sp)
ffffffc050204f5c:	6442                	ld	s0,16(sp)
ffffffc050204f5e:	6105                	addi	sp,sp,32
ffffffc050204f60:	8082                	ret

ffffffc050204f62 <handle_other>:
ffffffc050204f62:	7129                	addi	sp,sp,-320
ffffffc050204f64:	fe06                	sd	ra,312(sp)
ffffffc050204f66:	fa22                	sd	s0,304(sp)
ffffffc050204f68:	0280                	addi	s0,sp,320
ffffffc050204f6a:	eca43c23          	sd	a0,-296(s0)
ffffffc050204f6e:	ecb43823          	sd	a1,-304(s0)
ffffffc050204f72:	ecc43423          	sd	a2,-312(s0)
ffffffc050204f76:	00006717          	auipc	a4,0x6
ffffffc050204f7a:	7d270713          	addi	a4,a4,2002 # ffffffc05020b748 <strcat+0x3f4>
ffffffc050204f7e:	ee840793          	addi	a5,s0,-280
ffffffc050204f82:	86ba                	mv	a3,a4
ffffffc050204f84:	10000713          	li	a4,256
ffffffc050204f88:	863a                	mv	a2,a4
ffffffc050204f8a:	85b6                	mv	a1,a3
ffffffc050204f8c:	853e                	mv	a0,a5
ffffffc050204f8e:	0b2060ef          	jal	ra,ffffffc05020b040 <memcpy>
ffffffc050204f92:	fe042623          	sw	zero,-20(s0)
ffffffc050204f96:	a061                	j	ffffffc05020501e <handle_other+0xbc>
ffffffc050204f98:	fe042423          	sw	zero,-24(s0)
ffffffc050204f9c:	a0a9                	j	ffffffc050204fe6 <handle_other+0x84>
ffffffc050204f9e:	fec42703          	lw	a4,-20(s0)
ffffffc050204fa2:	fe842783          	lw	a5,-24(s0)
ffffffc050204fa6:	9fb9                	addw	a5,a5,a4
ffffffc050204fa8:	2781                	sext.w	a5,a5
ffffffc050204faa:	078e                	slli	a5,a5,0x3
ffffffc050204fac:	ff040713          	addi	a4,s0,-16
ffffffc050204fb0:	97ba                	add	a5,a5,a4
ffffffc050204fb2:	ef87b683          	ld	a3,-264(a5)
ffffffc050204fb6:	fec42703          	lw	a4,-20(s0)
ffffffc050204fba:	fe842783          	lw	a5,-24(s0)
ffffffc050204fbe:	9fb9                	addw	a5,a5,a4
ffffffc050204fc0:	2781                	sext.w	a5,a5
ffffffc050204fc2:	ed843703          	ld	a4,-296(s0)
ffffffc050204fc6:	078e                	slli	a5,a5,0x3
ffffffc050204fc8:	97ba                	add	a5,a5,a4
ffffffc050204fca:	639c                	ld	a5,0(a5)
ffffffc050204fcc:	863e                	mv	a2,a5
ffffffc050204fce:	85b6                	mv	a1,a3
ffffffc050204fd0:	00006517          	auipc	a0,0x6
ffffffc050204fd4:	6e850513          	addi	a0,a0,1768 # ffffffc05020b6b8 <strcat+0x364>
ffffffc050204fd8:	701050ef          	jal	ra,ffffffc05020aed8 <printk>
ffffffc050204fdc:	fe842783          	lw	a5,-24(s0)
ffffffc050204fe0:	2785                	addiw	a5,a5,1
ffffffc050204fe2:	fef42423          	sw	a5,-24(s0)
ffffffc050204fe6:	fe842783          	lw	a5,-24(s0)
ffffffc050204fea:	0007871b          	sext.w	a4,a5
ffffffc050204fee:	4789                	li	a5,2
ffffffc050204ff0:	00e7cc63          	blt	a5,a4,ffffffc050205008 <handle_other+0xa6>
ffffffc050204ff4:	fec42703          	lw	a4,-20(s0)
ffffffc050204ff8:	fe842783          	lw	a5,-24(s0)
ffffffc050204ffc:	9fb9                	addw	a5,a5,a4
ffffffc050204ffe:	2781                	sext.w	a5,a5
ffffffc050205000:	873e                	mv	a4,a5
ffffffc050205002:	47fd                	li	a5,31
ffffffc050205004:	f8e7dde3          	bge	a5,a4,ffffffc050204f9e <handle_other+0x3c>
ffffffc050205008:	00006517          	auipc	a0,0x6
ffffffc05020500c:	6c050513          	addi	a0,a0,1728 # ffffffc05020b6c8 <strcat+0x374>
ffffffc050205010:	6c9050ef          	jal	ra,ffffffc05020aed8 <printk>
ffffffc050205014:	fec42783          	lw	a5,-20(s0)
ffffffc050205018:	278d                	addiw	a5,a5,3
ffffffc05020501a:	fef42623          	sw	a5,-20(s0)
ffffffc05020501e:	fec42783          	lw	a5,-20(s0)
ffffffc050205022:	0007871b          	sext.w	a4,a5
ffffffc050205026:	47fd                	li	a5,31
ffffffc050205028:	f6e7d8e3          	bge	a5,a4,ffffffc050204f98 <handle_other+0x36>
ffffffc05020502c:	ed843783          	ld	a5,-296(s0)
ffffffc050205030:	1007b703          	ld	a4,256(a5)
ffffffc050205034:	ed843783          	ld	a5,-296(s0)
ffffffc050205038:	1107b603          	ld	a2,272(a5)
ffffffc05020503c:	ed843783          	ld	a5,-296(s0)
ffffffc050205040:	1187b783          	ld	a5,280(a5)
ffffffc050205044:	86be                	mv	a3,a5
ffffffc050205046:	85ba                	mv	a1,a4
ffffffc050205048:	00006517          	auipc	a0,0x6
ffffffc05020504c:	68850513          	addi	a0,a0,1672 # ffffffc05020b6d0 <strcat+0x37c>
ffffffc050205050:	689050ef          	jal	ra,ffffffc05020aed8 <printk>
ffffffc050205054:	ed843783          	ld	a5,-296(s0)
ffffffc050205058:	1087b783          	ld	a5,264(a5)
ffffffc05020505c:	85be                	mv	a1,a5
ffffffc05020505e:	00006517          	auipc	a0,0x6
ffffffc050205062:	6a250513          	addi	a0,a0,1698 # ffffffc05020b700 <strcat+0x3ac>
ffffffc050205066:	673050ef          	jal	ra,ffffffc05020aed8 <printk>
ffffffc05020506a:	ec843603          	ld	a2,-312(s0)
ffffffc05020506e:	ed043583          	ld	a1,-304(s0)
ffffffc050205072:	00006517          	auipc	a0,0x6
ffffffc050205076:	69e50513          	addi	a0,a0,1694 # ffffffc05020b710 <strcat+0x3bc>
ffffffc05020507a:	65f050ef          	jal	ra,ffffffc05020aed8 <printk>
ffffffc05020507e:	00006617          	auipc	a2,0x6
ffffffc050205082:	7ca60613          	addi	a2,a2,1994 # ffffffc05020b848 <__FUNCTION__.1616>
ffffffc050205086:	0c200593          	li	a1,194
ffffffc05020508a:	00006517          	auipc	a0,0x6
ffffffc05020508e:	6a650513          	addi	a0,a0,1702 # ffffffc05020b730 <strcat+0x3dc>
ffffffc050205092:	a91ff0ef          	jal	ra,ffffffc050204b22 <_panic>
ffffffc050205096:	0001                	nop
ffffffc050205098:	70f2                	ld	ra,312(sp)
ffffffc05020509a:	7452                	ld	s0,304(sp)
ffffffc05020509c:	6131                	addi	sp,sp,320
ffffffc05020509e:	8082                	ret

ffffffc0502050a0 <kva2pa>:
ffffffc0502050a0:	7179                	addi	sp,sp,-48
ffffffc0502050a2:	f422                	sd	s0,40(sp)
ffffffc0502050a4:	1800                	addi	s0,sp,48
ffffffc0502050a6:	fca43c23          	sd	a0,-40(s0)
ffffffc0502050aa:	57fd                	li	a5,-1
ffffffc0502050ac:	9381                	srli	a5,a5,0x20
ffffffc0502050ae:	fef43423          	sd	a5,-24(s0)
ffffffc0502050b2:	fd843703          	ld	a4,-40(s0)
ffffffc0502050b6:	fe843783          	ld	a5,-24(s0)
ffffffc0502050ba:	8ff9                	and	a5,a5,a4
ffffffc0502050bc:	fef43023          	sd	a5,-32(s0)
ffffffc0502050c0:	fe043783          	ld	a5,-32(s0)
ffffffc0502050c4:	853e                	mv	a0,a5
ffffffc0502050c6:	7422                	ld	s0,40(sp)
ffffffc0502050c8:	6145                	addi	sp,sp,48
ffffffc0502050ca:	8082                	ret

ffffffc0502050cc <call_jmptab>:
ffffffc0502050cc:	7139                	addi	sp,sp,-64
ffffffc0502050ce:	fc06                	sd	ra,56(sp)
ffffffc0502050d0:	f822                	sd	s0,48(sp)
ffffffc0502050d2:	0080                	addi	s0,sp,64
ffffffc0502050d4:	fca43c23          	sd	a0,-40(s0)
ffffffc0502050d8:	fcb43823          	sd	a1,-48(s0)
ffffffc0502050dc:	fcc43423          	sd	a2,-56(s0)
ffffffc0502050e0:	fcd43023          	sd	a3,-64(s0)
ffffffc0502050e4:	fd843783          	ld	a5,-40(s0)
ffffffc0502050e8:	00379713          	slli	a4,a5,0x3
ffffffc0502050ec:	fe0297b7          	lui	a5,0xfe029
ffffffc0502050f0:	07b6                	slli	a5,a5,0xd
ffffffc0502050f2:	f0078793          	addi	a5,a5,-256 # fffffffffe028f00 <__BSS_END__+0x3faddbf5d8>
ffffffc0502050f6:	97ba                	add	a5,a5,a4
ffffffc0502050f8:	639c                	ld	a5,0(a5)
ffffffc0502050fa:	fef43423          	sd	a5,-24(s0)
ffffffc0502050fe:	fe843783          	ld	a5,-24(s0)
ffffffc050205102:	fef43023          	sd	a5,-32(s0)
ffffffc050205106:	fe043783          	ld	a5,-32(s0)
ffffffc05020510a:	fc043603          	ld	a2,-64(s0)
ffffffc05020510e:	fc843583          	ld	a1,-56(s0)
ffffffc050205112:	fd043503          	ld	a0,-48(s0)
ffffffc050205116:	9782                	jalr	a5
ffffffc050205118:	87aa                	mv	a5,a0
ffffffc05020511a:	853e                	mv	a0,a5
ffffffc05020511c:	70e2                	ld	ra,56(sp)
ffffffc05020511e:	7442                	ld	s0,48(sp)
ffffffc050205120:	6121                	addi	sp,sp,64
ffffffc050205122:	8082                	ret

ffffffc050205124 <bios_sdread>:
ffffffc050205124:	1101                	addi	sp,sp,-32
ffffffc050205126:	ec06                	sd	ra,24(sp)
ffffffc050205128:	e822                	sd	s0,16(sp)
ffffffc05020512a:	1000                	addi	s0,sp,32
ffffffc05020512c:	87aa                	mv	a5,a0
ffffffc05020512e:	86ae                	mv	a3,a1
ffffffc050205130:	8732                	mv	a4,a2
ffffffc050205132:	fef42623          	sw	a5,-20(s0)
ffffffc050205136:	87b6                	mv	a5,a3
ffffffc050205138:	fef42423          	sw	a5,-24(s0)
ffffffc05020513c:	87ba                	mv	a5,a4
ffffffc05020513e:	fef42223          	sw	a5,-28(s0)
ffffffc050205142:	fec46783          	lwu	a5,-20(s0)
ffffffc050205146:	fe846703          	lwu	a4,-24(s0)
ffffffc05020514a:	fe446683          	lwu	a3,-28(s0)
ffffffc05020514e:	863a                	mv	a2,a4
ffffffc050205150:	85be                	mv	a1,a5
ffffffc050205152:	450d                	li	a0,3
ffffffc050205154:	f79ff0ef          	jal	ra,ffffffc0502050cc <call_jmptab>
ffffffc050205158:	87aa                	mv	a5,a0
ffffffc05020515a:	2781                	sext.w	a5,a5
ffffffc05020515c:	853e                	mv	a0,a5
ffffffc05020515e:	60e2                	ld	ra,24(sp)
ffffffc050205160:	6442                	ld	s0,16(sp)
ffffffc050205162:	6105                	addi	sp,sp,32
ffffffc050205164:	8082                	ret

ffffffc050205166 <load_task_img>:
ffffffc050205166:	7111                	addi	sp,sp,-256
ffffffc050205168:	fd86                	sd	ra,248(sp)
ffffffc05020516a:	f9a2                	sd	s0,240(sp)
ffffffc05020516c:	0200                	addi	s0,sp,256
ffffffc05020516e:	87aa                	mv	a5,a0
ffffffc050205170:	f0b43823          	sd	a1,-240(s0)
ffffffc050205174:	f0c43423          	sd	a2,-248(s0)
ffffffc050205178:	f0f42e23          	sw	a5,-228(s0)
ffffffc05020517c:	0004a697          	auipc	a3,0x4a
ffffffc050205180:	04c68693          	addi	a3,a3,76 # ffffffc05024f1c8 <tasks>
ffffffc050205184:	f1c42703          	lw	a4,-228(s0)
ffffffc050205188:	87ba                	mv	a5,a4
ffffffc05020518a:	078e                	slli	a5,a5,0x3
ffffffc05020518c:	97ba                	add	a5,a5,a4
ffffffc05020518e:	078a                	slli	a5,a5,0x2
ffffffc050205190:	97b6                	add	a5,a5,a3
ffffffc050205192:	479c                	lw	a5,8(a5)
ffffffc050205194:	41f7d71b          	sraiw	a4,a5,0x1f
ffffffc050205198:	0147571b          	srliw	a4,a4,0x14
ffffffc05020519c:	9fb9                	addw	a5,a5,a4
ffffffc05020519e:	40c7d79b          	sraiw	a5,a5,0xc
ffffffc0502051a2:	0007869b          	sext.w	a3,a5
ffffffc0502051a6:	0004a617          	auipc	a2,0x4a
ffffffc0502051aa:	02260613          	addi	a2,a2,34 # ffffffc05024f1c8 <tasks>
ffffffc0502051ae:	f1c42703          	lw	a4,-228(s0)
ffffffc0502051b2:	87ba                	mv	a5,a4
ffffffc0502051b4:	078e                	slli	a5,a5,0x3
ffffffc0502051b6:	97ba                	add	a5,a5,a4
ffffffc0502051b8:	078a                	slli	a5,a5,0x2
ffffffc0502051ba:	97b2                	add	a5,a5,a2
ffffffc0502051bc:	479c                	lw	a5,8(a5)
ffffffc0502051be:	2781                	sext.w	a5,a5
ffffffc0502051c0:	873e                	mv	a4,a5
ffffffc0502051c2:	6785                	lui	a5,0x1
ffffffc0502051c4:	17fd                	addi	a5,a5,-1
ffffffc0502051c6:	8ff9                	and	a5,a5,a4
ffffffc0502051c8:	2781                	sext.w	a5,a5
ffffffc0502051ca:	00f037b3          	snez	a5,a5
ffffffc0502051ce:	0ff7f793          	andi	a5,a5,255
ffffffc0502051d2:	2781                	sext.w	a5,a5
ffffffc0502051d4:	9fb5                	addw	a5,a5,a3
ffffffc0502051d6:	fcf42423          	sw	a5,-56(s0)
ffffffc0502051da:	0004a697          	auipc	a3,0x4a
ffffffc0502051de:	fee68693          	addi	a3,a3,-18 # ffffffc05024f1c8 <tasks>
ffffffc0502051e2:	f1c42703          	lw	a4,-228(s0)
ffffffc0502051e6:	87ba                	mv	a5,a4
ffffffc0502051e8:	078e                	slli	a5,a5,0x3
ffffffc0502051ea:	97ba                	add	a5,a5,a4
ffffffc0502051ec:	078a                	slli	a5,a5,0x2
ffffffc0502051ee:	97b6                	add	a5,a5,a3
ffffffc0502051f0:	43d4                	lw	a3,4(a5)
ffffffc0502051f2:	0004a617          	auipc	a2,0x4a
ffffffc0502051f6:	fd660613          	addi	a2,a2,-42 # ffffffc05024f1c8 <tasks>
ffffffc0502051fa:	f1c42703          	lw	a4,-228(s0)
ffffffc0502051fe:	87ba                	mv	a5,a4
ffffffc050205200:	078e                	slli	a5,a5,0x3
ffffffc050205202:	97ba                	add	a5,a5,a4
ffffffc050205204:	078a                	slli	a5,a5,0x2
ffffffc050205206:	97b2                	add	a5,a5,a2
ffffffc050205208:	439c                	lw	a5,0(a5)
ffffffc05020520a:	9fb5                	addw	a5,a5,a3
ffffffc05020520c:	fcf42223          	sw	a5,-60(s0)
ffffffc050205210:	0004a697          	auipc	a3,0x4a
ffffffc050205214:	fb868693          	addi	a3,a3,-72 # ffffffc05024f1c8 <tasks>
ffffffc050205218:	f1c42703          	lw	a4,-228(s0)
ffffffc05020521c:	87ba                	mv	a5,a4
ffffffc05020521e:	078e                	slli	a5,a5,0x3
ffffffc050205220:	97ba                	add	a5,a5,a4
ffffffc050205222:	078a                	slli	a5,a5,0x2
ffffffc050205224:	97b6                	add	a5,a5,a3
ffffffc050205226:	439c                	lw	a5,0(a5)
ffffffc050205228:	41f7d71b          	sraiw	a4,a5,0x1f
ffffffc05020522c:	0177571b          	srliw	a4,a4,0x17
ffffffc050205230:	9fb9                	addw	a5,a5,a4
ffffffc050205232:	4097d79b          	sraiw	a5,a5,0x9
ffffffc050205236:	fef42623          	sw	a5,-20(s0)
ffffffc05020523a:	fc442783          	lw	a5,-60(s0)
ffffffc05020523e:	41f7d71b          	sraiw	a4,a5,0x1f
ffffffc050205242:	0177571b          	srliw	a4,a4,0x17
ffffffc050205246:	9fb9                	addw	a5,a5,a4
ffffffc050205248:	4097d79b          	sraiw	a5,a5,0x9
ffffffc05020524c:	fcf42023          	sw	a5,-64(s0)
ffffffc050205250:	fc042703          	lw	a4,-64(s0)
ffffffc050205254:	fec42783          	lw	a5,-20(s0)
ffffffc050205258:	40f707bb          	subw	a5,a4,a5
ffffffc05020525c:	2781                	sext.w	a5,a5
ffffffc05020525e:	2785                	addiw	a5,a5,1
ffffffc050205260:	faf42e23          	sw	a5,-68(s0)
ffffffc050205264:	0004a697          	auipc	a3,0x4a
ffffffc050205268:	f6468693          	addi	a3,a3,-156 # ffffffc05024f1c8 <tasks>
ffffffc05020526c:	f1c42703          	lw	a4,-228(s0)
ffffffc050205270:	87ba                	mv	a5,a4
ffffffc050205272:	078e                	slli	a5,a5,0x3
ffffffc050205274:	97ba                	add	a5,a5,a4
ffffffc050205276:	078a                	slli	a5,a5,0x2
ffffffc050205278:	97b6                	add	a5,a5,a3
ffffffc05020527a:	4398                	lw	a4,0(a5)
ffffffc05020527c:	fec42783          	lw	a5,-20(s0)
ffffffc050205280:	0097979b          	slliw	a5,a5,0x9
ffffffc050205284:	2781                	sext.w	a5,a5
ffffffc050205286:	40f707bb          	subw	a5,a4,a5
ffffffc05020528a:	faf42c23          	sw	a5,-72(s0)
ffffffc05020528e:	fbc42783          	lw	a5,-68(s0)
ffffffc050205292:	41f7d71b          	sraiw	a4,a5,0x1f
ffffffc050205296:	01d7571b          	srliw	a4,a4,0x1d
ffffffc05020529a:	9fb9                	addw	a5,a5,a4
ffffffc05020529c:	4037d79b          	sraiw	a5,a5,0x3
ffffffc0502052a0:	0007871b          	sext.w	a4,a5
ffffffc0502052a4:	fbc42783          	lw	a5,-68(s0)
ffffffc0502052a8:	8b9d                	andi	a5,a5,7
ffffffc0502052aa:	2781                	sext.w	a5,a5
ffffffc0502052ac:	00f037b3          	snez	a5,a5
ffffffc0502052b0:	0ff7f793          	andi	a5,a5,255
ffffffc0502052b4:	2781                	sext.w	a5,a5
ffffffc0502052b6:	9fb9                	addw	a5,a5,a4
ffffffc0502052b8:	faf42a23          	sw	a5,-76(s0)
ffffffc0502052bc:	0004a697          	auipc	a3,0x4a
ffffffc0502052c0:	f0c68693          	addi	a3,a3,-244 # ffffffc05024f1c8 <tasks>
ffffffc0502052c4:	f1c42703          	lw	a4,-228(s0)
ffffffc0502052c8:	87ba                	mv	a5,a4
ffffffc0502052ca:	078e                	slli	a5,a5,0x3
ffffffc0502052cc:	97ba                	add	a5,a5,a4
ffffffc0502052ce:	078a                	slli	a5,a5,0x2
ffffffc0502052d0:	97b6                	add	a5,a5,a3
ffffffc0502052d2:	47dc                	lw	a5,12(a5)
ffffffc0502052d4:	fef43023          	sd	a5,-32(s0)
ffffffc0502052d8:	fc042e23          	sw	zero,-36(s0)
ffffffc0502052dc:	fc042c23          	sw	zero,-40(s0)
ffffffc0502052e0:	a831                	j	ffffffc0502052fc <load_task_img+0x196>
ffffffc0502052e2:	fd842783          	lw	a5,-40(s0)
ffffffc0502052e6:	078e                	slli	a5,a5,0x3
ffffffc0502052e8:	ff040713          	addi	a4,s0,-16
ffffffc0502052ec:	97ba                	add	a5,a5,a4
ffffffc0502052ee:	f207bc23          	sd	zero,-200(a5) # f38 <boot_stack_top_base-0x502010c8>
ffffffc0502052f2:	fd842783          	lw	a5,-40(s0)
ffffffc0502052f6:	2785                	addiw	a5,a5,1
ffffffc0502052f8:	fcf42c23          	sw	a5,-40(s0)
ffffffc0502052fc:	fd842783          	lw	a5,-40(s0)
ffffffc050205300:	0007871b          	sext.w	a4,a5
ffffffc050205304:	47bd                	li	a5,15
ffffffc050205306:	fce7dee3          	bge	a5,a4,ffffffc0502052e2 <load_task_img+0x17c>
ffffffc05020530a:	fb442783          	lw	a5,-76(s0)
ffffffc05020530e:	fcf42a23          	sw	a5,-44(s0)
ffffffc050205312:	a8a5                	j	ffffffc05020538a <load_task_img+0x224>
ffffffc050205314:	4685                	li	a3,1
ffffffc050205316:	f0843603          	ld	a2,-248(s0)
ffffffc05020531a:	f1043583          	ld	a1,-240(s0)
ffffffc05020531e:	fe043503          	ld	a0,-32(s0)
ffffffc050205322:	645000ef          	jal	ra,ffffffc050206166 <alloc_page_helper>
ffffffc050205326:	872a                	mv	a4,a0
ffffffc050205328:	fdc42783          	lw	a5,-36(s0)
ffffffc05020532c:	078e                	slli	a5,a5,0x3
ffffffc05020532e:	ff040693          	addi	a3,s0,-16
ffffffc050205332:	97b6                	add	a5,a5,a3
ffffffc050205334:	f2e7bc23          	sd	a4,-200(a5)
ffffffc050205338:	fdc42783          	lw	a5,-36(s0)
ffffffc05020533c:	078e                	slli	a5,a5,0x3
ffffffc05020533e:	ff040713          	addi	a4,s0,-16
ffffffc050205342:	97ba                	add	a5,a5,a4
ffffffc050205344:	f387b783          	ld	a5,-200(a5)
ffffffc050205348:	853e                	mv	a0,a5
ffffffc05020534a:	d57ff0ef          	jal	ra,ffffffc0502050a0 <kva2pa>
ffffffc05020534e:	87aa                	mv	a5,a0
ffffffc050205350:	2781                	sext.w	a5,a5
ffffffc050205352:	fec42703          	lw	a4,-20(s0)
ffffffc050205356:	863a                	mv	a2,a4
ffffffc050205358:	45a1                	li	a1,8
ffffffc05020535a:	853e                	mv	a0,a5
ffffffc05020535c:	dc9ff0ef          	jal	ra,ffffffc050205124 <bios_sdread>
ffffffc050205360:	fdc42783          	lw	a5,-36(s0)
ffffffc050205364:	2785                	addiw	a5,a5,1
ffffffc050205366:	fcf42e23          	sw	a5,-36(s0)
ffffffc05020536a:	fec42783          	lw	a5,-20(s0)
ffffffc05020536e:	27a1                	addiw	a5,a5,8
ffffffc050205370:	fef42623          	sw	a5,-20(s0)
ffffffc050205374:	fe043703          	ld	a4,-32(s0)
ffffffc050205378:	6785                	lui	a5,0x1
ffffffc05020537a:	97ba                	add	a5,a5,a4
ffffffc05020537c:	fef43023          	sd	a5,-32(s0)
ffffffc050205380:	fd442783          	lw	a5,-44(s0)
ffffffc050205384:	37fd                	addiw	a5,a5,-1
ffffffc050205386:	fcf42a23          	sw	a5,-44(s0)
ffffffc05020538a:	fd442783          	lw	a5,-44(s0)
ffffffc05020538e:	0007871b          	sext.w	a4,a5
ffffffc050205392:	4785                	li	a5,1
ffffffc050205394:	f8e7c0e3          	blt	a5,a4,ffffffc050205314 <load_task_img+0x1ae>
ffffffc050205398:	fbc42703          	lw	a4,-68(s0)
ffffffc05020539c:	41f7579b          	sraiw	a5,a4,0x1f
ffffffc0502053a0:	01d7d79b          	srliw	a5,a5,0x1d
ffffffc0502053a4:	9f3d                	addw	a4,a4,a5
ffffffc0502053a6:	8b1d                	andi	a4,a4,7
ffffffc0502053a8:	40f707bb          	subw	a5,a4,a5
ffffffc0502053ac:	faf42823          	sw	a5,-80(s0)
ffffffc0502053b0:	4685                	li	a3,1
ffffffc0502053b2:	f0843603          	ld	a2,-248(s0)
ffffffc0502053b6:	f1043583          	ld	a1,-240(s0)
ffffffc0502053ba:	fe043503          	ld	a0,-32(s0)
ffffffc0502053be:	5a9000ef          	jal	ra,ffffffc050206166 <alloc_page_helper>
ffffffc0502053c2:	872a                	mv	a4,a0
ffffffc0502053c4:	fdc42783          	lw	a5,-36(s0)
ffffffc0502053c8:	078e                	slli	a5,a5,0x3
ffffffc0502053ca:	ff040693          	addi	a3,s0,-16
ffffffc0502053ce:	97b6                	add	a5,a5,a3
ffffffc0502053d0:	f2e7bc23          	sd	a4,-200(a5) # f38 <boot_stack_top_base-0x502010c8>
ffffffc0502053d4:	fdc42783          	lw	a5,-36(s0)
ffffffc0502053d8:	078e                	slli	a5,a5,0x3
ffffffc0502053da:	ff040713          	addi	a4,s0,-16
ffffffc0502053de:	97ba                	add	a5,a5,a4
ffffffc0502053e0:	f387b783          	ld	a5,-200(a5)
ffffffc0502053e4:	853e                	mv	a0,a5
ffffffc0502053e6:	cbbff0ef          	jal	ra,ffffffc0502050a0 <kva2pa>
ffffffc0502053ea:	87aa                	mv	a5,a0
ffffffc0502053ec:	2781                	sext.w	a5,a5
ffffffc0502053ee:	fb042703          	lw	a4,-80(s0)
ffffffc0502053f2:	fec42683          	lw	a3,-20(s0)
ffffffc0502053f6:	8636                	mv	a2,a3
ffffffc0502053f8:	85ba                	mv	a1,a4
ffffffc0502053fa:	853e                	mv	a0,a5
ffffffc0502053fc:	d29ff0ef          	jal	ra,ffffffc050205124 <bios_sdread>
ffffffc050205400:	fdc42783          	lw	a5,-36(s0)
ffffffc050205404:	2785                	addiw	a5,a5,1
ffffffc050205406:	fcf42e23          	sw	a5,-36(s0)
ffffffc05020540a:	fec42783          	lw	a5,-20(s0)
ffffffc05020540e:	27a1                	addiw	a5,a5,8
ffffffc050205410:	fef42623          	sw	a5,-20(s0)
ffffffc050205414:	fe043703          	ld	a4,-32(s0)
ffffffc050205418:	6785                	lui	a5,0x1
ffffffc05020541a:	97ba                	add	a5,a5,a4
ffffffc05020541c:	fef43023          	sd	a5,-32(s0)
ffffffc050205420:	fc042823          	sw	zero,-48(s0)
ffffffc050205424:	a841                	j	ffffffc0502054b4 <load_task_img+0x34e>
ffffffc050205426:	fd042783          	lw	a5,-48(s0)
ffffffc05020542a:	078e                	slli	a5,a5,0x3
ffffffc05020542c:	ff040713          	addi	a4,s0,-16
ffffffc050205430:	97ba                	add	a5,a5,a4
ffffffc050205432:	f387b783          	ld	a5,-200(a5) # f38 <boot_stack_top_base-0x502010c8>
ffffffc050205436:	86be                	mv	a3,a5
ffffffc050205438:	fd042783          	lw	a5,-48(s0)
ffffffc05020543c:	078e                	slli	a5,a5,0x3
ffffffc05020543e:	ff040713          	addi	a4,s0,-16
ffffffc050205442:	97ba                	add	a5,a5,a4
ffffffc050205444:	f387b703          	ld	a4,-200(a5)
ffffffc050205448:	fb842783          	lw	a5,-72(s0)
ffffffc05020544c:	97ba                	add	a5,a5,a4
ffffffc05020544e:	85be                	mv	a1,a5
ffffffc050205450:	6705                	lui	a4,0x1
ffffffc050205452:	fb842783          	lw	a5,-72(s0)
ffffffc050205456:	40f707bb          	subw	a5,a4,a5
ffffffc05020545a:	2781                	sext.w	a5,a5
ffffffc05020545c:	2781                	sext.w	a5,a5
ffffffc05020545e:	863e                	mv	a2,a5
ffffffc050205460:	8536                	mv	a0,a3
ffffffc050205462:	3df050ef          	jal	ra,ffffffc05020b040 <memcpy>
ffffffc050205466:	fd042783          	lw	a5,-48(s0)
ffffffc05020546a:	078e                	slli	a5,a5,0x3
ffffffc05020546c:	ff040713          	addi	a4,s0,-16
ffffffc050205470:	97ba                	add	a5,a5,a4
ffffffc050205472:	f387b783          	ld	a5,-200(a5)
ffffffc050205476:	6685                	lui	a3,0x1
ffffffc050205478:	fb842703          	lw	a4,-72(s0)
ffffffc05020547c:	40e6873b          	subw	a4,a3,a4
ffffffc050205480:	2701                	sext.w	a4,a4
ffffffc050205482:	97ba                	add	a5,a5,a4
ffffffc050205484:	873e                	mv	a4,a5
ffffffc050205486:	fd042783          	lw	a5,-48(s0)
ffffffc05020548a:	2785                	addiw	a5,a5,1
ffffffc05020548c:	2781                	sext.w	a5,a5
ffffffc05020548e:	078e                	slli	a5,a5,0x3
ffffffc050205490:	ff040693          	addi	a3,s0,-16
ffffffc050205494:	97b6                	add	a5,a5,a3
ffffffc050205496:	f387b783          	ld	a5,-200(a5)
ffffffc05020549a:	86be                	mv	a3,a5
ffffffc05020549c:	fb842783          	lw	a5,-72(s0)
ffffffc0502054a0:	863e                	mv	a2,a5
ffffffc0502054a2:	85b6                	mv	a1,a3
ffffffc0502054a4:	853a                	mv	a0,a4
ffffffc0502054a6:	39b050ef          	jal	ra,ffffffc05020b040 <memcpy>
ffffffc0502054aa:	fd042783          	lw	a5,-48(s0)
ffffffc0502054ae:	2785                	addiw	a5,a5,1
ffffffc0502054b0:	fcf42823          	sw	a5,-48(s0)
ffffffc0502054b4:	fdc42783          	lw	a5,-36(s0)
ffffffc0502054b8:	37fd                	addiw	a5,a5,-1
ffffffc0502054ba:	0007871b          	sext.w	a4,a5
ffffffc0502054be:	fd042783          	lw	a5,-48(s0)
ffffffc0502054c2:	2781                	sext.w	a5,a5
ffffffc0502054c4:	f6e7c1e3          	blt	a5,a4,ffffffc050205426 <load_task_img+0x2c0>
ffffffc0502054c8:	fdc42783          	lw	a5,-36(s0)
ffffffc0502054cc:	37fd                	addiw	a5,a5,-1
ffffffc0502054ce:	2781                	sext.w	a5,a5
ffffffc0502054d0:	078e                	slli	a5,a5,0x3
ffffffc0502054d2:	ff040713          	addi	a4,s0,-16
ffffffc0502054d6:	97ba                	add	a5,a5,a4
ffffffc0502054d8:	f387b783          	ld	a5,-200(a5)
ffffffc0502054dc:	86be                	mv	a3,a5
ffffffc0502054de:	fdc42783          	lw	a5,-36(s0)
ffffffc0502054e2:	37fd                	addiw	a5,a5,-1
ffffffc0502054e4:	2781                	sext.w	a5,a5
ffffffc0502054e6:	078e                	slli	a5,a5,0x3
ffffffc0502054e8:	ff040713          	addi	a4,s0,-16
ffffffc0502054ec:	97ba                	add	a5,a5,a4
ffffffc0502054ee:	f387b703          	ld	a4,-200(a5)
ffffffc0502054f2:	fb842783          	lw	a5,-72(s0)
ffffffc0502054f6:	97ba                	add	a5,a5,a4
ffffffc0502054f8:	85be                	mv	a1,a5
ffffffc0502054fa:	6705                	lui	a4,0x1
ffffffc0502054fc:	fb842783          	lw	a5,-72(s0)
ffffffc050205500:	40f707bb          	subw	a5,a4,a5
ffffffc050205504:	2781                	sext.w	a5,a5
ffffffc050205506:	2781                	sext.w	a5,a5
ffffffc050205508:	863e                	mv	a2,a5
ffffffc05020550a:	8536                	mv	a0,a3
ffffffc05020550c:	335050ef          	jal	ra,ffffffc05020b040 <memcpy>
ffffffc050205510:	0004a697          	auipc	a3,0x4a
ffffffc050205514:	cb868693          	addi	a3,a3,-840 # ffffffc05024f1c8 <tasks>
ffffffc050205518:	f1c42703          	lw	a4,-228(s0)
ffffffc05020551c:	87ba                	mv	a5,a4
ffffffc05020551e:	078e                	slli	a5,a5,0x3
ffffffc050205520:	97ba                	add	a5,a5,a4
ffffffc050205522:	078a                	slli	a5,a5,0x2
ffffffc050205524:	97b6                	add	a5,a5,a3
ffffffc050205526:	43d8                	lw	a4,4(a5)
ffffffc050205528:	fdc42783          	lw	a5,-36(s0)
ffffffc05020552c:	37fd                	addiw	a5,a5,-1
ffffffc05020552e:	2781                	sext.w	a5,a5
ffffffc050205530:	00c7979b          	slliw	a5,a5,0xc
ffffffc050205534:	2781                	sext.w	a5,a5
ffffffc050205536:	40f707bb          	subw	a5,a4,a5
ffffffc05020553a:	faf42623          	sw	a5,-84(s0)
ffffffc05020553e:	fac42783          	lw	a5,-84(s0)
ffffffc050205542:	2781                	sext.w	a5,a5
ffffffc050205544:	0207cc63          	bltz	a5,ffffffc05020557c <load_task_img+0x416>
ffffffc050205548:	fdc42783          	lw	a5,-36(s0)
ffffffc05020554c:	37fd                	addiw	a5,a5,-1
ffffffc05020554e:	2781                	sext.w	a5,a5
ffffffc050205550:	078e                	slli	a5,a5,0x3
ffffffc050205552:	ff040713          	addi	a4,s0,-16
ffffffc050205556:	97ba                	add	a5,a5,a4
ffffffc050205558:	f387b703          	ld	a4,-200(a5)
ffffffc05020555c:	fac42783          	lw	a5,-84(s0)
ffffffc050205560:	97ba                	add	a5,a5,a4
ffffffc050205562:	86be                	mv	a3,a5
ffffffc050205564:	6705                	lui	a4,0x1
ffffffc050205566:	fac42783          	lw	a5,-84(s0)
ffffffc05020556a:	40f707bb          	subw	a5,a4,a5
ffffffc05020556e:	2781                	sext.w	a5,a5
ffffffc050205570:	2781                	sext.w	a5,a5
ffffffc050205572:	85be                	mv	a1,a5
ffffffc050205574:	8536                	mv	a0,a3
ffffffc050205576:	36f050ef          	jal	ra,ffffffc05020b0e4 <bzero>
ffffffc05020557a:	a82d                	j	ffffffc0502055b4 <load_task_img+0x44e>
ffffffc05020557c:	fac42783          	lw	a5,-84(s0)
ffffffc050205580:	40f007bb          	negw	a5,a5
ffffffc050205584:	faf42423          	sw	a5,-88(s0)
ffffffc050205588:	fdc42783          	lw	a5,-36(s0)
ffffffc05020558c:	37f9                	addiw	a5,a5,-2
ffffffc05020558e:	2781                	sext.w	a5,a5
ffffffc050205590:	078e                	slli	a5,a5,0x3
ffffffc050205592:	ff040713          	addi	a4,s0,-16
ffffffc050205596:	97ba                	add	a5,a5,a4
ffffffc050205598:	f387b703          	ld	a4,-200(a5)
ffffffc05020559c:	fa842783          	lw	a5,-88(s0)
ffffffc0502055a0:	8f1d                	sub	a4,a4,a5
ffffffc0502055a2:	6785                	lui	a5,0x1
ffffffc0502055a4:	97ba                	add	a5,a5,a4
ffffffc0502055a6:	873e                	mv	a4,a5
ffffffc0502055a8:	fa842783          	lw	a5,-88(s0)
ffffffc0502055ac:	85be                	mv	a1,a5
ffffffc0502055ae:	853a                	mv	a0,a4
ffffffc0502055b0:	335050ef          	jal	ra,ffffffc05020b0e4 <bzero>
ffffffc0502055b4:	fc842703          	lw	a4,-56(s0)
ffffffc0502055b8:	fdc42783          	lw	a5,-36(s0)
ffffffc0502055bc:	40f707bb          	subw	a5,a4,a5
ffffffc0502055c0:	fcf42623          	sw	a5,-52(s0)
ffffffc0502055c4:	a8b9                	j	ffffffc050205622 <load_task_img+0x4bc>
ffffffc0502055c6:	4685                	li	a3,1
ffffffc0502055c8:	f0843603          	ld	a2,-248(s0)
ffffffc0502055cc:	f1043583          	ld	a1,-240(s0)
ffffffc0502055d0:	fe043503          	ld	a0,-32(s0)
ffffffc0502055d4:	393000ef          	jal	ra,ffffffc050206166 <alloc_page_helper>
ffffffc0502055d8:	872a                	mv	a4,a0
ffffffc0502055da:	fdc42783          	lw	a5,-36(s0)
ffffffc0502055de:	078e                	slli	a5,a5,0x3
ffffffc0502055e0:	ff040693          	addi	a3,s0,-16
ffffffc0502055e4:	97b6                	add	a5,a5,a3
ffffffc0502055e6:	f2e7bc23          	sd	a4,-200(a5) # f38 <boot_stack_top_base-0x502010c8>
ffffffc0502055ea:	fdc42783          	lw	a5,-36(s0)
ffffffc0502055ee:	078e                	slli	a5,a5,0x3
ffffffc0502055f0:	ff040713          	addi	a4,s0,-16
ffffffc0502055f4:	97ba                	add	a5,a5,a4
ffffffc0502055f6:	f387b783          	ld	a5,-200(a5)
ffffffc0502055fa:	6585                	lui	a1,0x1
ffffffc0502055fc:	853e                	mv	a0,a5
ffffffc0502055fe:	2e7050ef          	jal	ra,ffffffc05020b0e4 <bzero>
ffffffc050205602:	fdc42783          	lw	a5,-36(s0)
ffffffc050205606:	2785                	addiw	a5,a5,1
ffffffc050205608:	fcf42e23          	sw	a5,-36(s0)
ffffffc05020560c:	fcc42783          	lw	a5,-52(s0)
ffffffc050205610:	37fd                	addiw	a5,a5,-1
ffffffc050205612:	fcf42623          	sw	a5,-52(s0)
ffffffc050205616:	fe043703          	ld	a4,-32(s0)
ffffffc05020561a:	6785                	lui	a5,0x1
ffffffc05020561c:	97ba                	add	a5,a5,a4
ffffffc05020561e:	fef43023          	sd	a5,-32(s0)
ffffffc050205622:	fcc42783          	lw	a5,-52(s0)
ffffffc050205626:	2781                	sext.w	a5,a5
ffffffc050205628:	f8f04fe3          	bgtz	a5,ffffffc0502055c6 <load_task_img+0x460>
ffffffc05020562c:	0004a697          	auipc	a3,0x4a
ffffffc050205630:	b9c68693          	addi	a3,a3,-1124 # ffffffc05024f1c8 <tasks>
ffffffc050205634:	f1c42703          	lw	a4,-228(s0)
ffffffc050205638:	87ba                	mv	a5,a4
ffffffc05020563a:	078e                	slli	a5,a5,0x3
ffffffc05020563c:	97ba                	add	a5,a5,a4
ffffffc05020563e:	078a                	slli	a5,a5,0x2
ffffffc050205640:	97b6                	add	a5,a5,a3
ffffffc050205642:	47dc                	lw	a5,12(a5)
ffffffc050205644:	853e                	mv	a0,a5
ffffffc050205646:	70ee                	ld	ra,248(sp)
ffffffc050205648:	744e                	ld	s0,240(sp)
ffffffc05020564a:	6111                	addi	sp,sp,256
ffffffc05020564c:	8082                	ret

ffffffc05020564e <load_task_img_j>:
ffffffc05020564e:	1101                	addi	sp,sp,-32
ffffffc050205650:	ec22                	sd	s0,24(sp)
ffffffc050205652:	1000                	addi	s0,sp,32
ffffffc050205654:	87aa                	mv	a5,a0
ffffffc050205656:	fef42623          	sw	a5,-20(s0)
ffffffc05020565a:	fec42703          	lw	a4,-20(s0)
ffffffc05020565e:	6795                	lui	a5,0x5
ffffffc050205660:	2007879b          	addiw	a5,a5,512
ffffffc050205664:	9fb9                	addw	a5,a5,a4
ffffffc050205666:	2781                	sext.w	a5,a5
ffffffc050205668:	0107979b          	slliw	a5,a5,0x10
ffffffc05020566c:	2781                	sext.w	a5,a5
ffffffc05020566e:	853e                	mv	a0,a5
ffffffc050205670:	6462                	ld	s0,24(sp)
ffffffc050205672:	6105                	addi	sp,sp,32
ffffffc050205674:	8082                	ret

ffffffc050205676 <kva2pa>:
ffffffc050205676:	7179                	addi	sp,sp,-48
ffffffc050205678:	f422                	sd	s0,40(sp)
ffffffc05020567a:	1800                	addi	s0,sp,48
ffffffc05020567c:	fca43c23          	sd	a0,-40(s0)
ffffffc050205680:	57fd                	li	a5,-1
ffffffc050205682:	9381                	srli	a5,a5,0x20
ffffffc050205684:	fef43423          	sd	a5,-24(s0)
ffffffc050205688:	fd843703          	ld	a4,-40(s0)
ffffffc05020568c:	fe843783          	ld	a5,-24(s0)
ffffffc050205690:	8ff9                	and	a5,a5,a4
ffffffc050205692:	fef43023          	sd	a5,-32(s0)
ffffffc050205696:	fe043783          	ld	a5,-32(s0)
ffffffc05020569a:	853e                	mv	a0,a5
ffffffc05020569c:	7422                	ld	s0,40(sp)
ffffffc05020569e:	6145                	addi	sp,sp,48
ffffffc0502056a0:	8082                	ret

ffffffc0502056a2 <pa2kva>:
ffffffc0502056a2:	7179                	addi	sp,sp,-48
ffffffc0502056a4:	f422                	sd	s0,40(sp)
ffffffc0502056a6:	1800                	addi	s0,sp,48
ffffffc0502056a8:	fca43c23          	sd	a0,-40(s0)
ffffffc0502056ac:	57fd                	li	a5,-1
ffffffc0502056ae:	179a                	slli	a5,a5,0x26
ffffffc0502056b0:	fef43423          	sd	a5,-24(s0)
ffffffc0502056b4:	fd843703          	ld	a4,-40(s0)
ffffffc0502056b8:	fe843783          	ld	a5,-24(s0)
ffffffc0502056bc:	8fd9                	or	a5,a5,a4
ffffffc0502056be:	fef43023          	sd	a5,-32(s0)
ffffffc0502056c2:	fe043783          	ld	a5,-32(s0)
ffffffc0502056c6:	853e                	mv	a0,a5
ffffffc0502056c8:	7422                	ld	s0,40(sp)
ffffffc0502056ca:	6145                	addi	sp,sp,48
ffffffc0502056cc:	8082                	ret

ffffffc0502056ce <get_pa>:
ffffffc0502056ce:	7179                	addi	sp,sp,-48
ffffffc0502056d0:	f422                	sd	s0,40(sp)
ffffffc0502056d2:	1800                	addi	s0,sp,48
ffffffc0502056d4:	fca43c23          	sd	a0,-40(s0)
ffffffc0502056d8:	fd843783          	ld	a5,-40(s0)
ffffffc0502056dc:	83a9                	srli	a5,a5,0xa
ffffffc0502056de:	07b2                	slli	a5,a5,0xc
ffffffc0502056e0:	fef43423          	sd	a5,-24(s0)
ffffffc0502056e4:	fe843783          	ld	a5,-24(s0)
ffffffc0502056e8:	853e                	mv	a0,a5
ffffffc0502056ea:	7422                	ld	s0,40(sp)
ffffffc0502056ec:	6145                	addi	sp,sp,48
ffffffc0502056ee:	8082                	ret

ffffffc0502056f0 <get_pfn>:
ffffffc0502056f0:	7179                	addi	sp,sp,-48
ffffffc0502056f2:	f422                	sd	s0,40(sp)
ffffffc0502056f4:	1800                	addi	s0,sp,48
ffffffc0502056f6:	fca43c23          	sd	a0,-40(s0)
ffffffc0502056fa:	fd843783          	ld	a5,-40(s0)
ffffffc0502056fe:	83a9                	srli	a5,a5,0xa
ffffffc050205700:	fef43423          	sd	a5,-24(s0)
ffffffc050205704:	fe843783          	ld	a5,-24(s0)
ffffffc050205708:	853e                	mv	a0,a5
ffffffc05020570a:	7422                	ld	s0,40(sp)
ffffffc05020570c:	6145                	addi	sp,sp,48
ffffffc05020570e:	8082                	ret

ffffffc050205710 <set_pfn>:
ffffffc050205710:	1101                	addi	sp,sp,-32
ffffffc050205712:	ec22                	sd	s0,24(sp)
ffffffc050205714:	1000                	addi	s0,sp,32
ffffffc050205716:	fea43423          	sd	a0,-24(s0)
ffffffc05020571a:	feb43023          	sd	a1,-32(s0)
ffffffc05020571e:	fe843783          	ld	a5,-24(s0)
ffffffc050205722:	639c                	ld	a5,0(a5)
ffffffc050205724:	1ff7f713          	andi	a4,a5,511
ffffffc050205728:	fe843783          	ld	a5,-24(s0)
ffffffc05020572c:	e398                	sd	a4,0(a5)
ffffffc05020572e:	fe843783          	ld	a5,-24(s0)
ffffffc050205732:	6398                	ld	a4,0(a5)
ffffffc050205734:	fe043783          	ld	a5,-32(s0)
ffffffc050205738:	07aa                	slli	a5,a5,0xa
ffffffc05020573a:	8f5d                	or	a4,a4,a5
ffffffc05020573c:	fe843783          	ld	a5,-24(s0)
ffffffc050205740:	e398                	sd	a4,0(a5)
ffffffc050205742:	0001                	nop
ffffffc050205744:	6462                	ld	s0,24(sp)
ffffffc050205746:	6105                	addi	sp,sp,32
ffffffc050205748:	8082                	ret

ffffffc05020574a <set_attribute>:
ffffffc05020574a:	7179                	addi	sp,sp,-48
ffffffc05020574c:	f422                	sd	s0,40(sp)
ffffffc05020574e:	1800                	addi	s0,sp,48
ffffffc050205750:	fca43c23          	sd	a0,-40(s0)
ffffffc050205754:	fcb43823          	sd	a1,-48(s0)
ffffffc050205758:	fd843783          	ld	a5,-40(s0)
ffffffc05020575c:	639c                	ld	a5,0(a5)
ffffffc05020575e:	c007f793          	andi	a5,a5,-1024
ffffffc050205762:	fef43423          	sd	a5,-24(s0)
ffffffc050205766:	fe843703          	ld	a4,-24(s0)
ffffffc05020576a:	fd043783          	ld	a5,-48(s0)
ffffffc05020576e:	8f5d                	or	a4,a4,a5
ffffffc050205770:	fd843783          	ld	a5,-40(s0)
ffffffc050205774:	e398                	sd	a4,0(a5)
ffffffc050205776:	0001                	nop
ffffffc050205778:	7422                	ld	s0,40(sp)
ffffffc05020577a:	6145                	addi	sp,sp,48
ffffffc05020577c:	8082                	ret

ffffffc05020577e <clear_pgdir>:
ffffffc05020577e:	7179                	addi	sp,sp,-48
ffffffc050205780:	f422                	sd	s0,40(sp)
ffffffc050205782:	1800                	addi	s0,sp,48
ffffffc050205784:	fca43c23          	sd	a0,-40(s0)
ffffffc050205788:	fd843783          	ld	a5,-40(s0)
ffffffc05020578c:	fef43023          	sd	a5,-32(s0)
ffffffc050205790:	fe042623          	sw	zero,-20(s0)
ffffffc050205794:	a831                	j	ffffffc0502057b0 <clear_pgdir+0x32>
ffffffc050205796:	fec42783          	lw	a5,-20(s0)
ffffffc05020579a:	078e                	slli	a5,a5,0x3
ffffffc05020579c:	fe043703          	ld	a4,-32(s0)
ffffffc0502057a0:	97ba                	add	a5,a5,a4
ffffffc0502057a2:	0007b023          	sd	zero,0(a5) # 5000 <boot_stack_top_base-0x501fd000>
ffffffc0502057a6:	fec42783          	lw	a5,-20(s0)
ffffffc0502057aa:	2785                	addiw	a5,a5,1
ffffffc0502057ac:	fef42623          	sw	a5,-20(s0)
ffffffc0502057b0:	fec42783          	lw	a5,-20(s0)
ffffffc0502057b4:	0007871b          	sext.w	a4,a5
ffffffc0502057b8:	1ff00793          	li	a5,511
ffffffc0502057bc:	fce7dde3          	bge	a5,a4,ffffffc050205796 <clear_pgdir+0x18>
ffffffc0502057c0:	0001                	nop
ffffffc0502057c2:	0001                	nop
ffffffc0502057c4:	7422                	ld	s0,40(sp)
ffffffc0502057c6:	6145                	addi	sp,sp,48
ffffffc0502057c8:	8082                	ret

ffffffc0502057ca <call_jmptab>:
ffffffc0502057ca:	7139                	addi	sp,sp,-64
ffffffc0502057cc:	fc06                	sd	ra,56(sp)
ffffffc0502057ce:	f822                	sd	s0,48(sp)
ffffffc0502057d0:	0080                	addi	s0,sp,64
ffffffc0502057d2:	fca43c23          	sd	a0,-40(s0)
ffffffc0502057d6:	fcb43823          	sd	a1,-48(s0)
ffffffc0502057da:	fcc43423          	sd	a2,-56(s0)
ffffffc0502057de:	fcd43023          	sd	a3,-64(s0)
ffffffc0502057e2:	fd843783          	ld	a5,-40(s0)
ffffffc0502057e6:	00379713          	slli	a4,a5,0x3
ffffffc0502057ea:	fe0297b7          	lui	a5,0xfe029
ffffffc0502057ee:	07b6                	slli	a5,a5,0xd
ffffffc0502057f0:	f0078793          	addi	a5,a5,-256 # fffffffffe028f00 <__BSS_END__+0x3faddbf5d8>
ffffffc0502057f4:	97ba                	add	a5,a5,a4
ffffffc0502057f6:	639c                	ld	a5,0(a5)
ffffffc0502057f8:	fef43423          	sd	a5,-24(s0)
ffffffc0502057fc:	fe843783          	ld	a5,-24(s0)
ffffffc050205800:	fef43023          	sd	a5,-32(s0)
ffffffc050205804:	fe043783          	ld	a5,-32(s0)
ffffffc050205808:	fc043603          	ld	a2,-64(s0)
ffffffc05020580c:	fc843583          	ld	a1,-56(s0)
ffffffc050205810:	fd043503          	ld	a0,-48(s0)
ffffffc050205814:	9782                	jalr	a5
ffffffc050205816:	87aa                	mv	a5,a0
ffffffc050205818:	853e                	mv	a0,a5
ffffffc05020581a:	70e2                	ld	ra,56(sp)
ffffffc05020581c:	7442                	ld	s0,48(sp)
ffffffc05020581e:	6121                	addi	sp,sp,64
ffffffc050205820:	8082                	ret

ffffffc050205822 <bios_sdwrite>:
ffffffc050205822:	1101                	addi	sp,sp,-32
ffffffc050205824:	ec06                	sd	ra,24(sp)
ffffffc050205826:	e822                	sd	s0,16(sp)
ffffffc050205828:	1000                	addi	s0,sp,32
ffffffc05020582a:	87aa                	mv	a5,a0
ffffffc05020582c:	86ae                	mv	a3,a1
ffffffc05020582e:	8732                	mv	a4,a2
ffffffc050205830:	fef42623          	sw	a5,-20(s0)
ffffffc050205834:	87b6                	mv	a5,a3
ffffffc050205836:	fef42423          	sw	a5,-24(s0)
ffffffc05020583a:	87ba                	mv	a5,a4
ffffffc05020583c:	fef42223          	sw	a5,-28(s0)
ffffffc050205840:	fec46783          	lwu	a5,-20(s0)
ffffffc050205844:	fe846703          	lwu	a4,-24(s0)
ffffffc050205848:	fe446683          	lwu	a3,-28(s0)
ffffffc05020584c:	863a                	mv	a2,a4
ffffffc05020584e:	85be                	mv	a1,a5
ffffffc050205850:	4511                	li	a0,4
ffffffc050205852:	f79ff0ef          	jal	ra,ffffffc0502057ca <call_jmptab>
ffffffc050205856:	87aa                	mv	a5,a0
ffffffc050205858:	2781                	sext.w	a5,a5
ffffffc05020585a:	853e                	mv	a0,a5
ffffffc05020585c:	60e2                	ld	ra,24(sp)
ffffffc05020585e:	6442                	ld	s0,16(sp)
ffffffc050205860:	6105                	addi	sp,sp,32
ffffffc050205862:	8082                	ret

ffffffc050205864 <init_mm>:
ffffffc050205864:	7179                	addi	sp,sp,-48
ffffffc050205866:	f422                	sd	s0,40(sp)
ffffffc050205868:	1800                	addi	s0,sp,48
ffffffc05020586a:	fe042623          	sw	zero,-20(s0)
ffffffc05020586e:	a891                	j	ffffffc0502058c2 <init_mm+0x5e>
ffffffc050205870:	00007797          	auipc	a5,0x7
ffffffc050205874:	19078793          	addi	a5,a5,400 # ffffffc05020ca00 <pgdirMemCurr>
ffffffc050205878:	6398                	ld	a4,0(a5)
ffffffc05020587a:	0004a697          	auipc	a3,0x4a
ffffffc05020587e:	c8e68693          	addi	a3,a3,-882 # ffffffc05024f508 <pgdir_mm>
ffffffc050205882:	fec42783          	lw	a5,-20(s0)
ffffffc050205886:	0792                	slli	a5,a5,0x4
ffffffc050205888:	97b6                	add	a5,a5,a3
ffffffc05020588a:	e398                	sd	a4,0(a5)
ffffffc05020588c:	0004a717          	auipc	a4,0x4a
ffffffc050205890:	c7c70713          	addi	a4,a4,-900 # ffffffc05024f508 <pgdir_mm>
ffffffc050205894:	fec42783          	lw	a5,-20(s0)
ffffffc050205898:	0792                	slli	a5,a5,0x4
ffffffc05020589a:	97ba                	add	a5,a5,a4
ffffffc05020589c:	0007a423          	sw	zero,8(a5)
ffffffc0502058a0:	00007797          	auipc	a5,0x7
ffffffc0502058a4:	16078793          	addi	a5,a5,352 # ffffffc05020ca00 <pgdirMemCurr>
ffffffc0502058a8:	6398                	ld	a4,0(a5)
ffffffc0502058aa:	6785                	lui	a5,0x1
ffffffc0502058ac:	973e                	add	a4,a4,a5
ffffffc0502058ae:	00007797          	auipc	a5,0x7
ffffffc0502058b2:	15278793          	addi	a5,a5,338 # ffffffc05020ca00 <pgdirMemCurr>
ffffffc0502058b6:	e398                	sd	a4,0(a5)
ffffffc0502058b8:	fec42783          	lw	a5,-20(s0)
ffffffc0502058bc:	2785                	addiw	a5,a5,1
ffffffc0502058be:	fef42623          	sw	a5,-20(s0)
ffffffc0502058c2:	fec42783          	lw	a5,-20(s0)
ffffffc0502058c6:	0007871b          	sext.w	a4,a5
ffffffc0502058ca:	07f00793          	li	a5,127
ffffffc0502058ce:	fae7d1e3          	bge	a5,a4,ffffffc050205870 <init_mm+0xc>
ffffffc0502058d2:	fe042423          	sw	zero,-24(s0)
ffffffc0502058d6:	a891                	j	ffffffc05020592a <init_mm+0xc6>
ffffffc0502058d8:	00007797          	auipc	a5,0x7
ffffffc0502058dc:	13078793          	addi	a5,a5,304 # ffffffc05020ca08 <kernMemCurr>
ffffffc0502058e0:	6398                	ld	a4,0(a5)
ffffffc0502058e2:	00050697          	auipc	a3,0x50
ffffffc0502058e6:	82668693          	addi	a3,a3,-2010 # ffffffc050255108 <kpages_mm>
ffffffc0502058ea:	fe842783          	lw	a5,-24(s0)
ffffffc0502058ee:	0792                	slli	a5,a5,0x4
ffffffc0502058f0:	97b6                	add	a5,a5,a3
ffffffc0502058f2:	e398                	sd	a4,0(a5)
ffffffc0502058f4:	00050717          	auipc	a4,0x50
ffffffc0502058f8:	81470713          	addi	a4,a4,-2028 # ffffffc050255108 <kpages_mm>
ffffffc0502058fc:	fe842783          	lw	a5,-24(s0)
ffffffc050205900:	0792                	slli	a5,a5,0x4
ffffffc050205902:	97ba                	add	a5,a5,a4
ffffffc050205904:	0007a423          	sw	zero,8(a5)
ffffffc050205908:	00007797          	auipc	a5,0x7
ffffffc05020590c:	10078793          	addi	a5,a5,256 # ffffffc05020ca08 <kernMemCurr>
ffffffc050205910:	6398                	ld	a4,0(a5)
ffffffc050205912:	6785                	lui	a5,0x1
ffffffc050205914:	973e                	add	a4,a4,a5
ffffffc050205916:	00007797          	auipc	a5,0x7
ffffffc05020591a:	0f278793          	addi	a5,a5,242 # ffffffc05020ca08 <kernMemCurr>
ffffffc05020591e:	e398                	sd	a4,0(a5)
ffffffc050205920:	fe842783          	lw	a5,-24(s0)
ffffffc050205924:	2785                	addiw	a5,a5,1
ffffffc050205926:	fef42423          	sw	a5,-24(s0)
ffffffc05020592a:	fe842783          	lw	a5,-24(s0)
ffffffc05020592e:	0007871b          	sext.w	a4,a5
ffffffc050205932:	07f00793          	li	a5,127
ffffffc050205936:	fae7d1e3          	bge	a5,a4,ffffffc0502058d8 <init_mm+0x74>
ffffffc05020593a:	fe042223          	sw	zero,-28(s0)
ffffffc05020593e:	a851                	j	ffffffc0502059d2 <init_mm+0x16e>
ffffffc050205940:	00007797          	auipc	a5,0x7
ffffffc050205944:	0d878793          	addi	a5,a5,216 # ffffffc05020ca18 <stuMemCurr>
ffffffc050205948:	6394                	ld	a3,0(a5)
ffffffc05020594a:	0004a617          	auipc	a2,0x4a
ffffffc05020594e:	3be60613          	addi	a2,a2,958 # ffffffc05024fd08 <pages_mm>
ffffffc050205952:	fe442703          	lw	a4,-28(s0)
ffffffc050205956:	87ba                	mv	a5,a4
ffffffc050205958:	078a                	slli	a5,a5,0x2
ffffffc05020595a:	97ba                	add	a5,a5,a4
ffffffc05020595c:	078e                	slli	a5,a5,0x3
ffffffc05020595e:	97b2                	add	a5,a5,a2
ffffffc050205960:	e394                	sd	a3,0(a5)
ffffffc050205962:	0004a697          	auipc	a3,0x4a
ffffffc050205966:	3a668693          	addi	a3,a3,934 # ffffffc05024fd08 <pages_mm>
ffffffc05020596a:	fe442703          	lw	a4,-28(s0)
ffffffc05020596e:	87ba                	mv	a5,a4
ffffffc050205970:	078a                	slli	a5,a5,0x2
ffffffc050205972:	97ba                	add	a5,a5,a4
ffffffc050205974:	078e                	slli	a5,a5,0x3
ffffffc050205976:	97b6                	add	a5,a5,a3
ffffffc050205978:	0007a823          	sw	zero,16(a5)
ffffffc05020597c:	0004a697          	auipc	a3,0x4a
ffffffc050205980:	38c68693          	addi	a3,a3,908 # ffffffc05024fd08 <pages_mm>
ffffffc050205984:	fe442703          	lw	a4,-28(s0)
ffffffc050205988:	87ba                	mv	a5,a4
ffffffc05020598a:	078a                	slli	a5,a5,0x2
ffffffc05020598c:	97ba                	add	a5,a5,a4
ffffffc05020598e:	078e                	slli	a5,a5,0x3
ffffffc050205990:	97b6                	add	a5,a5,a3
ffffffc050205992:	0007bc23          	sd	zero,24(a5)
ffffffc050205996:	0004a697          	auipc	a3,0x4a
ffffffc05020599a:	37268693          	addi	a3,a3,882 # ffffffc05024fd08 <pages_mm>
ffffffc05020599e:	fe442703          	lw	a4,-28(s0)
ffffffc0502059a2:	87ba                	mv	a5,a4
ffffffc0502059a4:	078a                	slli	a5,a5,0x2
ffffffc0502059a6:	97ba                	add	a5,a5,a4
ffffffc0502059a8:	078e                	slli	a5,a5,0x3
ffffffc0502059aa:	97b6                	add	a5,a5,a3
ffffffc0502059ac:	0007b423          	sd	zero,8(a5)
ffffffc0502059b0:	00007797          	auipc	a5,0x7
ffffffc0502059b4:	06878793          	addi	a5,a5,104 # ffffffc05020ca18 <stuMemCurr>
ffffffc0502059b8:	6398                	ld	a4,0(a5)
ffffffc0502059ba:	6785                	lui	a5,0x1
ffffffc0502059bc:	973e                	add	a4,a4,a5
ffffffc0502059be:	00007797          	auipc	a5,0x7
ffffffc0502059c2:	05a78793          	addi	a5,a5,90 # ffffffc05020ca18 <stuMemCurr>
ffffffc0502059c6:	e398                	sd	a4,0(a5)
ffffffc0502059c8:	fe442783          	lw	a5,-28(s0)
ffffffc0502059cc:	2785                	addiw	a5,a5,1
ffffffc0502059ce:	fef42223          	sw	a5,-28(s0)
ffffffc0502059d2:	fe442783          	lw	a5,-28(s0)
ffffffc0502059d6:	0007871b          	sext.w	a4,a5
ffffffc0502059da:	07f00793          	li	a5,127
ffffffc0502059de:	f6e7d1e3          	bge	a5,a4,ffffffc050205940 <init_mm+0xdc>
ffffffc0502059e2:	fe042023          	sw	zero,-32(s0)
ffffffc0502059e6:	a0a1                	j	ffffffc050205a2e <init_mm+0x1ca>
ffffffc0502059e8:	0004b717          	auipc	a4,0x4b
ffffffc0502059ec:	72070713          	addi	a4,a4,1824 # ffffffc050251108 <sdpages_mm>
ffffffc0502059f0:	fe042783          	lw	a5,-32(s0)
ffffffc0502059f4:	0796                	slli	a5,a5,0x5
ffffffc0502059f6:	97ba                	add	a5,a5,a4
ffffffc0502059f8:	0007aa23          	sw	zero,20(a5)
ffffffc0502059fc:	0004b717          	auipc	a4,0x4b
ffffffc050205a00:	70c70713          	addi	a4,a4,1804 # ffffffc050251108 <sdpages_mm>
ffffffc050205a04:	fe042783          	lw	a5,-32(s0)
ffffffc050205a08:	0796                	slli	a5,a5,0x5
ffffffc050205a0a:	97ba                	add	a5,a5,a4
ffffffc050205a0c:	0007a823          	sw	zero,16(a5)
ffffffc050205a10:	0004b717          	auipc	a4,0x4b
ffffffc050205a14:	6f870713          	addi	a4,a4,1784 # ffffffc050251108 <sdpages_mm>
ffffffc050205a18:	fe042783          	lw	a5,-32(s0)
ffffffc050205a1c:	0796                	slli	a5,a5,0x5
ffffffc050205a1e:	97ba                	add	a5,a5,a4
ffffffc050205a20:	0007b023          	sd	zero,0(a5)
ffffffc050205a24:	fe042783          	lw	a5,-32(s0)
ffffffc050205a28:	2785                	addiw	a5,a5,1
ffffffc050205a2a:	fef42023          	sw	a5,-32(s0)
ffffffc050205a2e:	fe042783          	lw	a5,-32(s0)
ffffffc050205a32:	0007871b          	sext.w	a4,a5
ffffffc050205a36:	07f00793          	li	a5,127
ffffffc050205a3a:	fae7d7e3          	bge	a5,a4,ffffffc0502059e8 <init_mm+0x184>
ffffffc050205a3e:	fc042e23          	sw	zero,-36(s0)
ffffffc050205a42:	a085                	j	ffffffc050205aa2 <init_mm+0x23e>
ffffffc050205a44:	00007797          	auipc	a5,0x7
ffffffc050205a48:	fdc78793          	addi	a5,a5,-36 # ffffffc05020ca20 <shaMemCurr>
ffffffc050205a4c:	6394                	ld	a3,0(a5)
ffffffc050205a4e:	0004c617          	auipc	a2,0x4c
ffffffc050205a52:	6ba60613          	addi	a2,a2,1722 # ffffffc050252108 <shpages_mm>
ffffffc050205a56:	fdc42703          	lw	a4,-36(s0)
ffffffc050205a5a:	87ba                	mv	a5,a4
ffffffc050205a5c:	0786                	slli	a5,a5,0x1
ffffffc050205a5e:	97ba                	add	a5,a5,a4
ffffffc050205a60:	0796                	slli	a5,a5,0x5
ffffffc050205a62:	97b2                	add	a5,a5,a2
ffffffc050205a64:	e394                	sd	a3,0(a5)
ffffffc050205a66:	0004c697          	auipc	a3,0x4c
ffffffc050205a6a:	6a268693          	addi	a3,a3,1698 # ffffffc050252108 <shpages_mm>
ffffffc050205a6e:	fdc42703          	lw	a4,-36(s0)
ffffffc050205a72:	87ba                	mv	a5,a4
ffffffc050205a74:	0786                	slli	a5,a5,0x1
ffffffc050205a76:	97ba                	add	a5,a5,a4
ffffffc050205a78:	0796                	slli	a5,a5,0x5
ffffffc050205a7a:	97b6                	add	a5,a5,a3
ffffffc050205a7c:	0007a423          	sw	zero,8(a5)
ffffffc050205a80:	00007797          	auipc	a5,0x7
ffffffc050205a84:	fa078793          	addi	a5,a5,-96 # ffffffc05020ca20 <shaMemCurr>
ffffffc050205a88:	6398                	ld	a4,0(a5)
ffffffc050205a8a:	6785                	lui	a5,0x1
ffffffc050205a8c:	973e                	add	a4,a4,a5
ffffffc050205a8e:	00007797          	auipc	a5,0x7
ffffffc050205a92:	f9278793          	addi	a5,a5,-110 # ffffffc05020ca20 <shaMemCurr>
ffffffc050205a96:	e398                	sd	a4,0(a5)
ffffffc050205a98:	fdc42783          	lw	a5,-36(s0)
ffffffc050205a9c:	2785                	addiw	a5,a5,1
ffffffc050205a9e:	fcf42e23          	sw	a5,-36(s0)
ffffffc050205aa2:	fdc42783          	lw	a5,-36(s0)
ffffffc050205aa6:	0007871b          	sext.w	a4,a5
ffffffc050205aaa:	07f00793          	li	a5,127
ffffffc050205aae:	f8e7dbe3          	bge	a5,a4,ffffffc050205a44 <init_mm+0x1e0>
ffffffc050205ab2:	0001                	nop
ffffffc050205ab4:	0001                	nop
ffffffc050205ab6:	7422                	ld	s0,40(sp)
ffffffc050205ab8:	6145                	addi	sp,sp,48
ffffffc050205aba:	8082                	ret

ffffffc050205abc <allocPgdir>:
ffffffc050205abc:	7179                	addi	sp,sp,-48
ffffffc050205abe:	f406                	sd	ra,40(sp)
ffffffc050205ac0:	f022                	sd	s0,32(sp)
ffffffc050205ac2:	1800                	addi	s0,sp,48
ffffffc050205ac4:	87aa                	mv	a5,a0
ffffffc050205ac6:	fcb43823          	sd	a1,-48(s0)
ffffffc050205aca:	fcf42e23          	sw	a5,-36(s0)
ffffffc050205ace:	fe042623          	sw	zero,-20(s0)
ffffffc050205ad2:	a05d                	j	ffffffc050205b78 <allocPgdir+0xbc>
ffffffc050205ad4:	0004a717          	auipc	a4,0x4a
ffffffc050205ad8:	a3470713          	addi	a4,a4,-1484 # ffffffc05024f508 <pgdir_mm>
ffffffc050205adc:	fec42783          	lw	a5,-20(s0)
ffffffc050205ae0:	0792                	slli	a5,a5,0x4
ffffffc050205ae2:	97ba                	add	a5,a5,a4
ffffffc050205ae4:	479c                	lw	a5,8(a5)
ffffffc050205ae6:	e7c1                	bnez	a5,ffffffc050205b6e <allocPgdir+0xb2>
ffffffc050205ae8:	0004a717          	auipc	a4,0x4a
ffffffc050205aec:	a2070713          	addi	a4,a4,-1504 # ffffffc05024f508 <pgdir_mm>
ffffffc050205af0:	fec42783          	lw	a5,-20(s0)
ffffffc050205af4:	0792                	slli	a5,a5,0x4
ffffffc050205af6:	97ba                	add	a5,a5,a4
ffffffc050205af8:	4705                	li	a4,1
ffffffc050205afa:	c798                	sw	a4,8(a5)
ffffffc050205afc:	fd043783          	ld	a5,-48(s0)
ffffffc050205b00:	0987a783          	lw	a5,152(a5)
ffffffc050205b04:	fec42703          	lw	a4,-20(s0)
ffffffc050205b08:	fd043683          	ld	a3,-48(s0)
ffffffc050205b0c:	07d1                	addi	a5,a5,20
ffffffc050205b0e:	078e                	slli	a5,a5,0x3
ffffffc050205b10:	97b6                	add	a5,a5,a3
ffffffc050205b12:	e398                	sd	a4,0(a5)
ffffffc050205b14:	fd043783          	ld	a5,-48(s0)
ffffffc050205b18:	0987a783          	lw	a5,152(a5)
ffffffc050205b1c:	fd043703          	ld	a4,-48(s0)
ffffffc050205b20:	12878793          	addi	a5,a5,296
ffffffc050205b24:	078a                	slli	a5,a5,0x2
ffffffc050205b26:	97ba                	add	a5,a5,a4
ffffffc050205b28:	0007a023          	sw	zero,0(a5)
ffffffc050205b2c:	fd043783          	ld	a5,-48(s0)
ffffffc050205b30:	0987a783          	lw	a5,152(a5)
ffffffc050205b34:	2785                	addiw	a5,a5,1
ffffffc050205b36:	0007871b          	sext.w	a4,a5
ffffffc050205b3a:	fd043783          	ld	a5,-48(s0)
ffffffc050205b3e:	08e7ac23          	sw	a4,152(a5)
ffffffc050205b42:	0004a717          	auipc	a4,0x4a
ffffffc050205b46:	9c670713          	addi	a4,a4,-1594 # ffffffc05024f508 <pgdir_mm>
ffffffc050205b4a:	fec42783          	lw	a5,-20(s0)
ffffffc050205b4e:	0792                	slli	a5,a5,0x4
ffffffc050205b50:	97ba                	add	a5,a5,a4
ffffffc050205b52:	639c                	ld	a5,0(a5)
ffffffc050205b54:	853e                	mv	a0,a5
ffffffc050205b56:	c29ff0ef          	jal	ra,ffffffc05020577e <clear_pgdir>
ffffffc050205b5a:	0004a717          	auipc	a4,0x4a
ffffffc050205b5e:	9ae70713          	addi	a4,a4,-1618 # ffffffc05024f508 <pgdir_mm>
ffffffc050205b62:	fec42783          	lw	a5,-20(s0)
ffffffc050205b66:	0792                	slli	a5,a5,0x4
ffffffc050205b68:	97ba                	add	a5,a5,a4
ffffffc050205b6a:	639c                	ld	a5,0(a5)
ffffffc050205b6c:	a839                	j	ffffffc050205b8a <allocPgdir+0xce>
ffffffc050205b6e:	fec42783          	lw	a5,-20(s0)
ffffffc050205b72:	2785                	addiw	a5,a5,1
ffffffc050205b74:	fef42623          	sw	a5,-20(s0)
ffffffc050205b78:	fec42783          	lw	a5,-20(s0)
ffffffc050205b7c:	0007871b          	sext.w	a4,a5
ffffffc050205b80:	07f00793          	li	a5,127
ffffffc050205b84:	f4e7d8e3          	bge	a5,a4,ffffffc050205ad4 <allocPgdir+0x18>
ffffffc050205b88:	4781                	li	a5,0
ffffffc050205b8a:	853e                	mv	a0,a5
ffffffc050205b8c:	70a2                	ld	ra,40(sp)
ffffffc050205b8e:	7402                	ld	s0,32(sp)
ffffffc050205b90:	6145                	addi	sp,sp,48
ffffffc050205b92:	8082                	ret

ffffffc050205b94 <allocKernPage>:
ffffffc050205b94:	7179                	addi	sp,sp,-48
ffffffc050205b96:	f422                	sd	s0,40(sp)
ffffffc050205b98:	1800                	addi	s0,sp,48
ffffffc050205b9a:	87aa                	mv	a5,a0
ffffffc050205b9c:	fcb43823          	sd	a1,-48(s0)
ffffffc050205ba0:	fcf42e23          	sw	a5,-36(s0)
ffffffc050205ba4:	fe042623          	sw	zero,-20(s0)
ffffffc050205ba8:	a079                	j	ffffffc050205c36 <allocKernPage+0xa2>
ffffffc050205baa:	0004f717          	auipc	a4,0x4f
ffffffc050205bae:	55e70713          	addi	a4,a4,1374 # ffffffc050255108 <kpages_mm>
ffffffc050205bb2:	fec42783          	lw	a5,-20(s0)
ffffffc050205bb6:	0792                	slli	a5,a5,0x4
ffffffc050205bb8:	97ba                	add	a5,a5,a4
ffffffc050205bba:	479c                	lw	a5,8(a5)
ffffffc050205bbc:	eba5                	bnez	a5,ffffffc050205c2c <allocKernPage+0x98>
ffffffc050205bbe:	0004f717          	auipc	a4,0x4f
ffffffc050205bc2:	54a70713          	addi	a4,a4,1354 # ffffffc050255108 <kpages_mm>
ffffffc050205bc6:	fec42783          	lw	a5,-20(s0)
ffffffc050205bca:	0792                	slli	a5,a5,0x4
ffffffc050205bcc:	97ba                	add	a5,a5,a4
ffffffc050205bce:	4705                	li	a4,1
ffffffc050205bd0:	c798                	sw	a4,8(a5)
ffffffc050205bd2:	fd043783          	ld	a5,-48(s0)
ffffffc050205bd6:	0987a783          	lw	a5,152(a5)
ffffffc050205bda:	fec42703          	lw	a4,-20(s0)
ffffffc050205bde:	fd043683          	ld	a3,-48(s0)
ffffffc050205be2:	07d1                	addi	a5,a5,20
ffffffc050205be4:	078e                	slli	a5,a5,0x3
ffffffc050205be6:	97b6                	add	a5,a5,a3
ffffffc050205be8:	e398                	sd	a4,0(a5)
ffffffc050205bea:	fd043783          	ld	a5,-48(s0)
ffffffc050205bee:	0987a783          	lw	a5,152(a5)
ffffffc050205bf2:	fd043703          	ld	a4,-48(s0)
ffffffc050205bf6:	12878793          	addi	a5,a5,296
ffffffc050205bfa:	078a                	slli	a5,a5,0x2
ffffffc050205bfc:	97ba                	add	a5,a5,a4
ffffffc050205bfe:	4705                	li	a4,1
ffffffc050205c00:	c398                	sw	a4,0(a5)
ffffffc050205c02:	fd043783          	ld	a5,-48(s0)
ffffffc050205c06:	0987a783          	lw	a5,152(a5)
ffffffc050205c0a:	2785                	addiw	a5,a5,1
ffffffc050205c0c:	0007871b          	sext.w	a4,a5
ffffffc050205c10:	fd043783          	ld	a5,-48(s0)
ffffffc050205c14:	08e7ac23          	sw	a4,152(a5)
ffffffc050205c18:	0004f717          	auipc	a4,0x4f
ffffffc050205c1c:	4f070713          	addi	a4,a4,1264 # ffffffc050255108 <kpages_mm>
ffffffc050205c20:	fec42783          	lw	a5,-20(s0)
ffffffc050205c24:	0792                	slli	a5,a5,0x4
ffffffc050205c26:	97ba                	add	a5,a5,a4
ffffffc050205c28:	639c                	ld	a5,0(a5)
ffffffc050205c2a:	a839                	j	ffffffc050205c48 <allocKernPage+0xb4>
ffffffc050205c2c:	fec42783          	lw	a5,-20(s0)
ffffffc050205c30:	2785                	addiw	a5,a5,1
ffffffc050205c32:	fef42623          	sw	a5,-20(s0)
ffffffc050205c36:	fec42783          	lw	a5,-20(s0)
ffffffc050205c3a:	0007871b          	sext.w	a4,a5
ffffffc050205c3e:	07f00793          	li	a5,127
ffffffc050205c42:	f6e7d4e3          	bge	a5,a4,ffffffc050205baa <allocKernPage+0x16>
ffffffc050205c46:	4781                	li	a5,0
ffffffc050205c48:	853e                	mv	a0,a5
ffffffc050205c4a:	7422                	ld	s0,40(sp)
ffffffc050205c4c:	6145                	addi	sp,sp,48
ffffffc050205c4e:	8082                	ret

ffffffc050205c50 <allocPage>:
ffffffc050205c50:	7139                	addi	sp,sp,-64
ffffffc050205c52:	fc06                	sd	ra,56(sp)
ffffffc050205c54:	f822                	sd	s0,48(sp)
ffffffc050205c56:	0080                	addi	s0,sp,64
ffffffc050205c58:	87aa                	mv	a5,a0
ffffffc050205c5a:	fcb43823          	sd	a1,-48(s0)
ffffffc050205c5e:	fcc43423          	sd	a2,-56(s0)
ffffffc050205c62:	fcf42e23          	sw	a5,-36(s0)
ffffffc050205c66:	fe042623          	sw	zero,-20(s0)
ffffffc050205c6a:	a8fd                	j	ffffffc050205d68 <allocPage+0x118>
ffffffc050205c6c:	0004a697          	auipc	a3,0x4a
ffffffc050205c70:	09c68693          	addi	a3,a3,156 # ffffffc05024fd08 <pages_mm>
ffffffc050205c74:	fec42703          	lw	a4,-20(s0)
ffffffc050205c78:	87ba                	mv	a5,a4
ffffffc050205c7a:	078a                	slli	a5,a5,0x2
ffffffc050205c7c:	97ba                	add	a5,a5,a4
ffffffc050205c7e:	078e                	slli	a5,a5,0x3
ffffffc050205c80:	97b6                	add	a5,a5,a3
ffffffc050205c82:	4b9c                	lw	a5,16(a5)
ffffffc050205c84:	efe9                	bnez	a5,ffffffc050205d5e <allocPage+0x10e>
ffffffc050205c86:	0004a697          	auipc	a3,0x4a
ffffffc050205c8a:	08268693          	addi	a3,a3,130 # ffffffc05024fd08 <pages_mm>
ffffffc050205c8e:	fec42703          	lw	a4,-20(s0)
ffffffc050205c92:	87ba                	mv	a5,a4
ffffffc050205c94:	078a                	slli	a5,a5,0x2
ffffffc050205c96:	97ba                	add	a5,a5,a4
ffffffc050205c98:	078e                	slli	a5,a5,0x3
ffffffc050205c9a:	97b6                	add	a5,a5,a3
ffffffc050205c9c:	4705                	li	a4,1
ffffffc050205c9e:	cb98                	sw	a4,16(a5)
ffffffc050205ca0:	fc843503          	ld	a0,-56(s0)
ffffffc050205ca4:	4d3000ef          	jal	ra,ffffffc050206976 <get_base_addr>
ffffffc050205ca8:	862a                	mv	a2,a0
ffffffc050205caa:	0004a697          	auipc	a3,0x4a
ffffffc050205cae:	05e68693          	addi	a3,a3,94 # ffffffc05024fd08 <pages_mm>
ffffffc050205cb2:	fec42703          	lw	a4,-20(s0)
ffffffc050205cb6:	87ba                	mv	a5,a4
ffffffc050205cb8:	078a                	slli	a5,a5,0x2
ffffffc050205cba:	97ba                	add	a5,a5,a4
ffffffc050205cbc:	078e                	slli	a5,a5,0x3
ffffffc050205cbe:	97b6                	add	a5,a5,a3
ffffffc050205cc0:	ef90                	sd	a2,24(a5)
ffffffc050205cc2:	fd043783          	ld	a5,-48(s0)
ffffffc050205cc6:	6bd4                	ld	a3,144(a5)
ffffffc050205cc8:	0004a617          	auipc	a2,0x4a
ffffffc050205ccc:	04060613          	addi	a2,a2,64 # ffffffc05024fd08 <pages_mm>
ffffffc050205cd0:	fec42703          	lw	a4,-20(s0)
ffffffc050205cd4:	87ba                	mv	a5,a4
ffffffc050205cd6:	078a                	slli	a5,a5,0x2
ffffffc050205cd8:	97ba                	add	a5,a5,a4
ffffffc050205cda:	078e                	slli	a5,a5,0x3
ffffffc050205cdc:	97b2                	add	a5,a5,a2
ffffffc050205cde:	e794                	sd	a3,8(a5)
ffffffc050205ce0:	0004a697          	auipc	a3,0x4a
ffffffc050205ce4:	02868693          	addi	a3,a3,40 # ffffffc05024fd08 <pages_mm>
ffffffc050205ce8:	fec42703          	lw	a4,-20(s0)
ffffffc050205cec:	87ba                	mv	a5,a4
ffffffc050205cee:	078a                	slli	a5,a5,0x2
ffffffc050205cf0:	97ba                	add	a5,a5,a4
ffffffc050205cf2:	078e                	slli	a5,a5,0x3
ffffffc050205cf4:	97b6                	add	a5,a5,a3
ffffffc050205cf6:	4705                	li	a4,1
ffffffc050205cf8:	d398                	sw	a4,32(a5)
ffffffc050205cfa:	fd043783          	ld	a5,-48(s0)
ffffffc050205cfe:	0987a783          	lw	a5,152(a5)
ffffffc050205d02:	fec42703          	lw	a4,-20(s0)
ffffffc050205d06:	fd043683          	ld	a3,-48(s0)
ffffffc050205d0a:	07d1                	addi	a5,a5,20
ffffffc050205d0c:	078e                	slli	a5,a5,0x3
ffffffc050205d0e:	97b6                	add	a5,a5,a3
ffffffc050205d10:	e398                	sd	a4,0(a5)
ffffffc050205d12:	fd043783          	ld	a5,-48(s0)
ffffffc050205d16:	0987a783          	lw	a5,152(a5)
ffffffc050205d1a:	fd043703          	ld	a4,-48(s0)
ffffffc050205d1e:	12878793          	addi	a5,a5,296
ffffffc050205d22:	078a                	slli	a5,a5,0x2
ffffffc050205d24:	97ba                	add	a5,a5,a4
ffffffc050205d26:	4709                	li	a4,2
ffffffc050205d28:	c398                	sw	a4,0(a5)
ffffffc050205d2a:	fd043783          	ld	a5,-48(s0)
ffffffc050205d2e:	0987a783          	lw	a5,152(a5)
ffffffc050205d32:	2785                	addiw	a5,a5,1
ffffffc050205d34:	0007871b          	sext.w	a4,a5
ffffffc050205d38:	fd043783          	ld	a5,-48(s0)
ffffffc050205d3c:	08e7ac23          	sw	a4,152(a5)
ffffffc050205d40:	201000ef          	jal	ra,ffffffc050206740 <time_update>
ffffffc050205d44:	0004a697          	auipc	a3,0x4a
ffffffc050205d48:	fc468693          	addi	a3,a3,-60 # ffffffc05024fd08 <pages_mm>
ffffffc050205d4c:	fec42703          	lw	a4,-20(s0)
ffffffc050205d50:	87ba                	mv	a5,a4
ffffffc050205d52:	078a                	slli	a5,a5,0x2
ffffffc050205d54:	97ba                	add	a5,a5,a4
ffffffc050205d56:	078e                	slli	a5,a5,0x3
ffffffc050205d58:	97b6                	add	a5,a5,a3
ffffffc050205d5a:	639c                	ld	a5,0(a5)
ffffffc050205d5c:	aad5                	j	ffffffc050205f50 <allocPage+0x300>
ffffffc050205d5e:	fec42783          	lw	a5,-20(s0)
ffffffc050205d62:	2785                	addiw	a5,a5,1
ffffffc050205d64:	fef42623          	sw	a5,-20(s0)
ffffffc050205d68:	fec42783          	lw	a5,-20(s0)
ffffffc050205d6c:	0007871b          	sext.w	a4,a5
ffffffc050205d70:	07f00793          	li	a5,127
ffffffc050205d74:	eee7dce3          	bge	a5,a4,ffffffc050205c6c <allocPage+0x1c>
ffffffc050205d78:	24f000ef          	jal	ra,ffffffc0502067c6 <choose_ex_page>
ffffffc050205d7c:	87aa                	mv	a5,a0
ffffffc050205d7e:	fef42223          	sw	a5,-28(s0)
ffffffc050205d82:	0004a697          	auipc	a3,0x4a
ffffffc050205d86:	f8668693          	addi	a3,a3,-122 # ffffffc05024fd08 <pages_mm>
ffffffc050205d8a:	fe442703          	lw	a4,-28(s0)
ffffffc050205d8e:	87ba                	mv	a5,a4
ffffffc050205d90:	078a                	slli	a5,a5,0x2
ffffffc050205d92:	97ba                	add	a5,a5,a4
ffffffc050205d94:	078e                	slli	a5,a5,0x3
ffffffc050205d96:	97b6                	add	a5,a5,a3
ffffffc050205d98:	6798                	ld	a4,8(a5)
ffffffc050205d9a:	fe442783          	lw	a5,-28(s0)
ffffffc050205d9e:	85ba                	mv	a1,a4
ffffffc050205da0:	853e                	mv	a0,a5
ffffffc050205da2:	2a1000ef          	jal	ra,ffffffc050206842 <write_sd>
ffffffc050205da6:	0004a697          	auipc	a3,0x4a
ffffffc050205daa:	f6268693          	addi	a3,a3,-158 # ffffffc05024fd08 <pages_mm>
ffffffc050205dae:	fe442703          	lw	a4,-28(s0)
ffffffc050205db2:	87ba                	mv	a5,a4
ffffffc050205db4:	078a                	slli	a5,a5,0x2
ffffffc050205db6:	97ba                	add	a5,a5,a4
ffffffc050205db8:	078e                	slli	a5,a5,0x3
ffffffc050205dba:	97b6                	add	a5,a5,a3
ffffffc050205dbc:	6f90                	ld	a2,24(a5)
ffffffc050205dbe:	0004a697          	auipc	a3,0x4a
ffffffc050205dc2:	f4a68693          	addi	a3,a3,-182 # ffffffc05024fd08 <pages_mm>
ffffffc050205dc6:	fe442703          	lw	a4,-28(s0)
ffffffc050205dca:	87ba                	mv	a5,a4
ffffffc050205dcc:	078a                	slli	a5,a5,0x2
ffffffc050205dce:	97ba                	add	a5,a5,a4
ffffffc050205dd0:	078e                	slli	a5,a5,0x3
ffffffc050205dd2:	97b6                	add	a5,a5,a3
ffffffc050205dd4:	679c                	ld	a5,8(a5)
ffffffc050205dd6:	85be                	mv	a1,a5
ffffffc050205dd8:	8532                	mv	a0,a2
ffffffc050205dda:	5be000ef          	jal	ra,ffffffc050206398 <make_page_invalid>
ffffffc050205dde:	0004a697          	auipc	a3,0x4a
ffffffc050205de2:	f2a68693          	addi	a3,a3,-214 # ffffffc05024fd08 <pages_mm>
ffffffc050205de6:	fe442703          	lw	a4,-28(s0)
ffffffc050205dea:	87ba                	mv	a5,a4
ffffffc050205dec:	078a                	slli	a5,a5,0x2
ffffffc050205dee:	97ba                	add	a5,a5,a4
ffffffc050205df0:	078e                	slli	a5,a5,0x3
ffffffc050205df2:	97b6                	add	a5,a5,a3
ffffffc050205df4:	4705                	li	a4,1
ffffffc050205df6:	cb98                	sw	a4,16(a5)
ffffffc050205df8:	fc843503          	ld	a0,-56(s0)
ffffffc050205dfc:	37b000ef          	jal	ra,ffffffc050206976 <get_base_addr>
ffffffc050205e00:	862a                	mv	a2,a0
ffffffc050205e02:	0004a697          	auipc	a3,0x4a
ffffffc050205e06:	f0668693          	addi	a3,a3,-250 # ffffffc05024fd08 <pages_mm>
ffffffc050205e0a:	fe442703          	lw	a4,-28(s0)
ffffffc050205e0e:	87ba                	mv	a5,a4
ffffffc050205e10:	078a                	slli	a5,a5,0x2
ffffffc050205e12:	97ba                	add	a5,a5,a4
ffffffc050205e14:	078e                	slli	a5,a5,0x3
ffffffc050205e16:	97b6                	add	a5,a5,a3
ffffffc050205e18:	ef90                	sd	a2,24(a5)
ffffffc050205e1a:	fd043783          	ld	a5,-48(s0)
ffffffc050205e1e:	6bd4                	ld	a3,144(a5)
ffffffc050205e20:	0004a617          	auipc	a2,0x4a
ffffffc050205e24:	ee860613          	addi	a2,a2,-280 # ffffffc05024fd08 <pages_mm>
ffffffc050205e28:	fe442703          	lw	a4,-28(s0)
ffffffc050205e2c:	87ba                	mv	a5,a4
ffffffc050205e2e:	078a                	slli	a5,a5,0x2
ffffffc050205e30:	97ba                	add	a5,a5,a4
ffffffc050205e32:	078e                	slli	a5,a5,0x3
ffffffc050205e34:	97b2                	add	a5,a5,a2
ffffffc050205e36:	e794                	sd	a3,8(a5)
ffffffc050205e38:	0004a697          	auipc	a3,0x4a
ffffffc050205e3c:	ed068693          	addi	a3,a3,-304 # ffffffc05024fd08 <pages_mm>
ffffffc050205e40:	fe442703          	lw	a4,-28(s0)
ffffffc050205e44:	87ba                	mv	a5,a4
ffffffc050205e46:	078a                	slli	a5,a5,0x2
ffffffc050205e48:	97ba                	add	a5,a5,a4
ffffffc050205e4a:	078e                	slli	a5,a5,0x3
ffffffc050205e4c:	97b6                	add	a5,a5,a3
ffffffc050205e4e:	4705                	li	a4,1
ffffffc050205e50:	d398                	sw	a4,32(a5)
ffffffc050205e52:	0ef000ef          	jal	ra,ffffffc050206740 <time_update>
ffffffc050205e56:	fe042423          	sw	zero,-24(s0)
ffffffc050205e5a:	a059                	j	ffffffc050205ee0 <allocPage+0x290>
ffffffc050205e5c:	fe442703          	lw	a4,-28(s0)
ffffffc050205e60:	fd043683          	ld	a3,-48(s0)
ffffffc050205e64:	fe842783          	lw	a5,-24(s0)
ffffffc050205e68:	07d1                	addi	a5,a5,20
ffffffc050205e6a:	078e                	slli	a5,a5,0x3
ffffffc050205e6c:	97b6                	add	a5,a5,a3
ffffffc050205e6e:	639c                	ld	a5,0(a5)
ffffffc050205e70:	06f71363          	bne	a4,a5,ffffffc050205ed6 <allocPage+0x286>
ffffffc050205e74:	fd043703          	ld	a4,-48(s0)
ffffffc050205e78:	fe842783          	lw	a5,-24(s0)
ffffffc050205e7c:	12878793          	addi	a5,a5,296
ffffffc050205e80:	078a                	slli	a5,a5,0x2
ffffffc050205e82:	97ba                	add	a5,a5,a4
ffffffc050205e84:	439c                	lw	a5,0(a5)
ffffffc050205e86:	873e                	mv	a4,a5
ffffffc050205e88:	478d                	li	a5,3
ffffffc050205e8a:	00f70f63          	beq	a4,a5,ffffffc050205ea8 <allocPage+0x258>
ffffffc050205e8e:	fd043703          	ld	a4,-48(s0)
ffffffc050205e92:	fe842783          	lw	a5,-24(s0)
ffffffc050205e96:	12878793          	addi	a5,a5,296
ffffffc050205e9a:	078a                	slli	a5,a5,0x2
ffffffc050205e9c:	97ba                	add	a5,a5,a4
ffffffc050205e9e:	439c                	lw	a5,0(a5)
ffffffc050205ea0:	873e                	mv	a4,a5
ffffffc050205ea2:	4789                	li	a5,2
ffffffc050205ea4:	02f71963          	bne	a4,a5,ffffffc050205ed6 <allocPage+0x286>
ffffffc050205ea8:	fd043703          	ld	a4,-48(s0)
ffffffc050205eac:	fe842783          	lw	a5,-24(s0)
ffffffc050205eb0:	12878793          	addi	a5,a5,296
ffffffc050205eb4:	078a                	slli	a5,a5,0x2
ffffffc050205eb6:	97ba                	add	a5,a5,a4
ffffffc050205eb8:	4709                	li	a4,2
ffffffc050205eba:	c398                	sw	a4,0(a5)
ffffffc050205ebc:	0004a697          	auipc	a3,0x4a
ffffffc050205ec0:	e4c68693          	addi	a3,a3,-436 # ffffffc05024fd08 <pages_mm>
ffffffc050205ec4:	fe442703          	lw	a4,-28(s0)
ffffffc050205ec8:	87ba                	mv	a5,a4
ffffffc050205eca:	078a                	slli	a5,a5,0x2
ffffffc050205ecc:	97ba                	add	a5,a5,a4
ffffffc050205ece:	078e                	slli	a5,a5,0x3
ffffffc050205ed0:	97b6                	add	a5,a5,a3
ffffffc050205ed2:	639c                	ld	a5,0(a5)
ffffffc050205ed4:	a8b5                	j	ffffffc050205f50 <allocPage+0x300>
ffffffc050205ed6:	fe842783          	lw	a5,-24(s0)
ffffffc050205eda:	2785                	addiw	a5,a5,1
ffffffc050205edc:	fef42423          	sw	a5,-24(s0)
ffffffc050205ee0:	fd043783          	ld	a5,-48(s0)
ffffffc050205ee4:	0987a703          	lw	a4,152(a5)
ffffffc050205ee8:	fe842783          	lw	a5,-24(s0)
ffffffc050205eec:	2781                	sext.w	a5,a5
ffffffc050205eee:	f6e7c7e3          	blt	a5,a4,ffffffc050205e5c <allocPage+0x20c>
ffffffc050205ef2:	fd043783          	ld	a5,-48(s0)
ffffffc050205ef6:	0987a783          	lw	a5,152(a5)
ffffffc050205efa:	fe442703          	lw	a4,-28(s0)
ffffffc050205efe:	fd043683          	ld	a3,-48(s0)
ffffffc050205f02:	07d1                	addi	a5,a5,20
ffffffc050205f04:	078e                	slli	a5,a5,0x3
ffffffc050205f06:	97b6                	add	a5,a5,a3
ffffffc050205f08:	e398                	sd	a4,0(a5)
ffffffc050205f0a:	fd043783          	ld	a5,-48(s0)
ffffffc050205f0e:	0987a783          	lw	a5,152(a5)
ffffffc050205f12:	fd043703          	ld	a4,-48(s0)
ffffffc050205f16:	12878793          	addi	a5,a5,296
ffffffc050205f1a:	078a                	slli	a5,a5,0x2
ffffffc050205f1c:	97ba                	add	a5,a5,a4
ffffffc050205f1e:	4709                	li	a4,2
ffffffc050205f20:	c398                	sw	a4,0(a5)
ffffffc050205f22:	fd043783          	ld	a5,-48(s0)
ffffffc050205f26:	0987a783          	lw	a5,152(a5)
ffffffc050205f2a:	2785                	addiw	a5,a5,1
ffffffc050205f2c:	0007871b          	sext.w	a4,a5
ffffffc050205f30:	fd043783          	ld	a5,-48(s0)
ffffffc050205f34:	08e7ac23          	sw	a4,152(a5)
ffffffc050205f38:	0004a697          	auipc	a3,0x4a
ffffffc050205f3c:	dd068693          	addi	a3,a3,-560 # ffffffc05024fd08 <pages_mm>
ffffffc050205f40:	fe442703          	lw	a4,-28(s0)
ffffffc050205f44:	87ba                	mv	a5,a4
ffffffc050205f46:	078a                	slli	a5,a5,0x2
ffffffc050205f48:	97ba                	add	a5,a5,a4
ffffffc050205f4a:	078e                	slli	a5,a5,0x3
ffffffc050205f4c:	97b6                	add	a5,a5,a3
ffffffc050205f4e:	639c                	ld	a5,0(a5)
ffffffc050205f50:	853e                	mv	a0,a5
ffffffc050205f52:	70e2                	ld	ra,56(sp)
ffffffc050205f54:	7442                	ld	s0,48(sp)
ffffffc050205f56:	6121                	addi	sp,sp,64
ffffffc050205f58:	8082                	ret

ffffffc050205f5a <freePage>:
ffffffc050205f5a:	7179                	addi	sp,sp,-48
ffffffc050205f5c:	f406                	sd	ra,40(sp)
ffffffc050205f5e:	f022                	sd	s0,32(sp)
ffffffc050205f60:	1800                	addi	s0,sp,48
ffffffc050205f62:	fca43c23          	sd	a0,-40(s0)
ffffffc050205f66:	fd843783          	ld	a5,-40(s0)
ffffffc050205f6a:	0987a783          	lw	a5,152(a5)
ffffffc050205f6e:	85be                	mv	a1,a5
ffffffc050205f70:	00006517          	auipc	a0,0x6
ffffffc050205f74:	8e850513          	addi	a0,a0,-1816 # ffffffc05020b858 <__FUNCTION__.1616+0x10>
ffffffc050205f78:	070050ef          	jal	ra,ffffffc05020afe8 <printl>
ffffffc050205f7c:	fe042623          	sw	zero,-20(s0)
ffffffc050205f80:	a205                	j	ffffffc0502060a0 <freePage+0x146>
ffffffc050205f82:	fd843703          	ld	a4,-40(s0)
ffffffc050205f86:	fec42783          	lw	a5,-20(s0)
ffffffc050205f8a:	12878793          	addi	a5,a5,296
ffffffc050205f8e:	078a                	slli	a5,a5,0x2
ffffffc050205f90:	97ba                	add	a5,a5,a4
ffffffc050205f92:	439c                	lw	a5,0(a5)
ffffffc050205f94:	e7a9                	bnez	a5,ffffffc050205fde <freePage+0x84>
ffffffc050205f96:	00006517          	auipc	a0,0x6
ffffffc050205f9a:	8ea50513          	addi	a0,a0,-1814 # ffffffc05020b880 <__FUNCTION__.1616+0x38>
ffffffc050205f9e:	04a050ef          	jal	ra,ffffffc05020afe8 <printl>
ffffffc050205fa2:	fd843703          	ld	a4,-40(s0)
ffffffc050205fa6:	fec42783          	lw	a5,-20(s0)
ffffffc050205faa:	07d1                	addi	a5,a5,20
ffffffc050205fac:	078e                	slli	a5,a5,0x3
ffffffc050205fae:	97ba                	add	a5,a5,a4
ffffffc050205fb0:	639c                	ld	a5,0(a5)
ffffffc050205fb2:	fef42223          	sw	a5,-28(s0)
ffffffc050205fb6:	fe442783          	lw	a5,-28(s0)
ffffffc050205fba:	85be                	mv	a1,a5
ffffffc050205fbc:	00006517          	auipc	a0,0x6
ffffffc050205fc0:	8d450513          	addi	a0,a0,-1836 # ffffffc05020b890 <__FUNCTION__.1616+0x48>
ffffffc050205fc4:	024050ef          	jal	ra,ffffffc05020afe8 <printl>
ffffffc050205fc8:	00049717          	auipc	a4,0x49
ffffffc050205fcc:	54070713          	addi	a4,a4,1344 # ffffffc05024f508 <pgdir_mm>
ffffffc050205fd0:	fe442783          	lw	a5,-28(s0)
ffffffc050205fd4:	0792                	slli	a5,a5,0x4
ffffffc050205fd6:	97ba                	add	a5,a5,a4
ffffffc050205fd8:	0007a423          	sw	zero,8(a5)
ffffffc050205fdc:	a86d                	j	ffffffc050206096 <freePage+0x13c>
ffffffc050205fde:	fd843703          	ld	a4,-40(s0)
ffffffc050205fe2:	fec42783          	lw	a5,-20(s0)
ffffffc050205fe6:	12878793          	addi	a5,a5,296
ffffffc050205fea:	078a                	slli	a5,a5,0x2
ffffffc050205fec:	97ba                	add	a5,a5,a4
ffffffc050205fee:	439c                	lw	a5,0(a5)
ffffffc050205ff0:	873e                	mv	a4,a5
ffffffc050205ff2:	4785                	li	a5,1
ffffffc050205ff4:	02f71763          	bne	a4,a5,ffffffc050206022 <freePage+0xc8>
ffffffc050205ff8:	fd843703          	ld	a4,-40(s0)
ffffffc050205ffc:	fec42783          	lw	a5,-20(s0)
ffffffc050206000:	07d1                	addi	a5,a5,20
ffffffc050206002:	078e                	slli	a5,a5,0x3
ffffffc050206004:	97ba                	add	a5,a5,a4
ffffffc050206006:	639c                	ld	a5,0(a5)
ffffffc050206008:	fef42223          	sw	a5,-28(s0)
ffffffc05020600c:	0004f717          	auipc	a4,0x4f
ffffffc050206010:	0fc70713          	addi	a4,a4,252 # ffffffc050255108 <kpages_mm>
ffffffc050206014:	fe442783          	lw	a5,-28(s0)
ffffffc050206018:	0792                	slli	a5,a5,0x4
ffffffc05020601a:	97ba                	add	a5,a5,a4
ffffffc05020601c:	0007a423          	sw	zero,8(a5)
ffffffc050206020:	a89d                	j	ffffffc050206096 <freePage+0x13c>
ffffffc050206022:	fd843703          	ld	a4,-40(s0)
ffffffc050206026:	fec42783          	lw	a5,-20(s0)
ffffffc05020602a:	12878793          	addi	a5,a5,296
ffffffc05020602e:	078a                	slli	a5,a5,0x2
ffffffc050206030:	97ba                	add	a5,a5,a4
ffffffc050206032:	439c                	lw	a5,0(a5)
ffffffc050206034:	873e                	mv	a4,a5
ffffffc050206036:	4789                	li	a5,2
ffffffc050206038:	04f71963          	bne	a4,a5,ffffffc05020608a <freePage+0x130>
ffffffc05020603c:	00006517          	auipc	a0,0x6
ffffffc050206040:	86c50513          	addi	a0,a0,-1940 # ffffffc05020b8a8 <__FUNCTION__.1616+0x60>
ffffffc050206044:	7a5040ef          	jal	ra,ffffffc05020afe8 <printl>
ffffffc050206048:	fd843703          	ld	a4,-40(s0)
ffffffc05020604c:	fec42783          	lw	a5,-20(s0)
ffffffc050206050:	07d1                	addi	a5,a5,20
ffffffc050206052:	078e                	slli	a5,a5,0x3
ffffffc050206054:	97ba                	add	a5,a5,a4
ffffffc050206056:	639c                	ld	a5,0(a5)
ffffffc050206058:	fef42223          	sw	a5,-28(s0)
ffffffc05020605c:	fe442783          	lw	a5,-28(s0)
ffffffc050206060:	85be                	mv	a1,a5
ffffffc050206062:	00006517          	auipc	a0,0x6
ffffffc050206066:	85650513          	addi	a0,a0,-1962 # ffffffc05020b8b8 <__FUNCTION__.1616+0x70>
ffffffc05020606a:	77f040ef          	jal	ra,ffffffc05020afe8 <printl>
ffffffc05020606e:	0004a697          	auipc	a3,0x4a
ffffffc050206072:	c9a68693          	addi	a3,a3,-870 # ffffffc05024fd08 <pages_mm>
ffffffc050206076:	fe442703          	lw	a4,-28(s0)
ffffffc05020607a:	87ba                	mv	a5,a4
ffffffc05020607c:	078a                	slli	a5,a5,0x2
ffffffc05020607e:	97ba                	add	a5,a5,a4
ffffffc050206080:	078e                	slli	a5,a5,0x3
ffffffc050206082:	97b6                	add	a5,a5,a3
ffffffc050206084:	0007a823          	sw	zero,16(a5)
ffffffc050206088:	a039                	j	ffffffc050206096 <freePage+0x13c>
ffffffc05020608a:	00006517          	auipc	a0,0x6
ffffffc05020608e:	84650513          	addi	a0,a0,-1978 # ffffffc05020b8d0 <__FUNCTION__.1616+0x88>
ffffffc050206092:	757040ef          	jal	ra,ffffffc05020afe8 <printl>
ffffffc050206096:	fec42783          	lw	a5,-20(s0)
ffffffc05020609a:	2785                	addiw	a5,a5,1
ffffffc05020609c:	fef42623          	sw	a5,-20(s0)
ffffffc0502060a0:	fd843783          	ld	a5,-40(s0)
ffffffc0502060a4:	0987a703          	lw	a4,152(a5)
ffffffc0502060a8:	fec42783          	lw	a5,-20(s0)
ffffffc0502060ac:	2781                	sext.w	a5,a5
ffffffc0502060ae:	ece7cae3          	blt	a5,a4,ffffffc050205f82 <freePage+0x28>
ffffffc0502060b2:	fe042423          	sw	zero,-24(s0)
ffffffc0502060b6:	a891                	j	ffffffc05020610a <freePage+0x1b0>
ffffffc0502060b8:	0004b717          	auipc	a4,0x4b
ffffffc0502060bc:	05070713          	addi	a4,a4,80 # ffffffc050251108 <sdpages_mm>
ffffffc0502060c0:	fe842783          	lw	a5,-24(s0)
ffffffc0502060c4:	0796                	slli	a5,a5,0x5
ffffffc0502060c6:	97ba                	add	a5,a5,a4
ffffffc0502060c8:	6798                	ld	a4,8(a5)
ffffffc0502060ca:	00056797          	auipc	a5,0x56
ffffffc0502060ce:	04e78793          	addi	a5,a5,78 # ffffffc05025c118 <current_running>
ffffffc0502060d2:	639c                	ld	a5,0(a5)
ffffffc0502060d4:	6bdc                	ld	a5,144(a5)
ffffffc0502060d6:	02f71563          	bne	a4,a5,ffffffc050206100 <freePage+0x1a6>
ffffffc0502060da:	fe842783          	lw	a5,-24(s0)
ffffffc0502060de:	85be                	mv	a1,a5
ffffffc0502060e0:	00006517          	auipc	a0,0x6
ffffffc0502060e4:	81050513          	addi	a0,a0,-2032 # ffffffc05020b8f0 <__FUNCTION__.1616+0xa8>
ffffffc0502060e8:	701040ef          	jal	ra,ffffffc05020afe8 <printl>
ffffffc0502060ec:	0004b717          	auipc	a4,0x4b
ffffffc0502060f0:	01c70713          	addi	a4,a4,28 # ffffffc050251108 <sdpages_mm>
ffffffc0502060f4:	fe842783          	lw	a5,-24(s0)
ffffffc0502060f8:	0796                	slli	a5,a5,0x5
ffffffc0502060fa:	97ba                	add	a5,a5,a4
ffffffc0502060fc:	0007a823          	sw	zero,16(a5)
ffffffc050206100:	fe842783          	lw	a5,-24(s0)
ffffffc050206104:	2785                	addiw	a5,a5,1
ffffffc050206106:	fef42423          	sw	a5,-24(s0)
ffffffc05020610a:	fe842783          	lw	a5,-24(s0)
ffffffc05020610e:	0007871b          	sext.w	a4,a5
ffffffc050206112:	07f00793          	li	a5,127
ffffffc050206116:	fae7d1e3          	bge	a5,a4,ffffffc0502060b8 <freePage+0x15e>
ffffffc05020611a:	0001                	nop
ffffffc05020611c:	0001                	nop
ffffffc05020611e:	70a2                	ld	ra,40(sp)
ffffffc050206120:	7402                	ld	s0,32(sp)
ffffffc050206122:	6145                	addi	sp,sp,48
ffffffc050206124:	8082                	ret

ffffffc050206126 <kmalloc>:
ffffffc050206126:	1101                	addi	sp,sp,-32
ffffffc050206128:	ec22                	sd	s0,24(sp)
ffffffc05020612a:	1000                	addi	s0,sp,32
ffffffc05020612c:	fea43423          	sd	a0,-24(s0)
ffffffc050206130:	0001                	nop
ffffffc050206132:	853e                	mv	a0,a5
ffffffc050206134:	6462                	ld	s0,24(sp)
ffffffc050206136:	6105                	addi	sp,sp,32
ffffffc050206138:	8082                	ret

ffffffc05020613a <share_pgtable>:
ffffffc05020613a:	1101                	addi	sp,sp,-32
ffffffc05020613c:	ec06                	sd	ra,24(sp)
ffffffc05020613e:	e822                	sd	s0,16(sp)
ffffffc050206140:	1000                	addi	s0,sp,32
ffffffc050206142:	fea43423          	sd	a0,-24(s0)
ffffffc050206146:	feb43023          	sd	a1,-32(s0)
ffffffc05020614a:	fe843783          	ld	a5,-24(s0)
ffffffc05020614e:	fe043703          	ld	a4,-32(s0)
ffffffc050206152:	6605                	lui	a2,0x1
ffffffc050206154:	85ba                	mv	a1,a4
ffffffc050206156:	853e                	mv	a0,a5
ffffffc050206158:	6e9040ef          	jal	ra,ffffffc05020b040 <memcpy>
ffffffc05020615c:	0001                	nop
ffffffc05020615e:	60e2                	ld	ra,24(sp)
ffffffc050206160:	6442                	ld	s0,16(sp)
ffffffc050206162:	6105                	addi	sp,sp,32
ffffffc050206164:	8082                	ret

ffffffc050206166 <alloc_page_helper>:
ffffffc050206166:	7131                	addi	sp,sp,-192
ffffffc050206168:	fd06                	sd	ra,184(sp)
ffffffc05020616a:	f922                	sd	s0,176(sp)
ffffffc05020616c:	0180                	addi	s0,sp,192
ffffffc05020616e:	f4a43c23          	sd	a0,-168(s0)
ffffffc050206172:	f4b43823          	sd	a1,-176(s0)
ffffffc050206176:	f4c43423          	sd	a2,-184(s0)
ffffffc05020617a:	87b6                	mv	a5,a3
ffffffc05020617c:	f4f42223          	sw	a5,-188(s0)
ffffffc050206180:	f5843703          	ld	a4,-168(s0)
ffffffc050206184:	57fd                	li	a5,-1
ffffffc050206186:	83e5                	srli	a5,a5,0x19
ffffffc050206188:	8ff9                	and	a5,a5,a4
ffffffc05020618a:	f4f43c23          	sd	a5,-168(s0)
ffffffc05020618e:	f5843783          	ld	a5,-168(s0)
ffffffc050206192:	83f9                	srli	a5,a5,0x1e
ffffffc050206194:	fcf43823          	sd	a5,-48(s0)
ffffffc050206198:	fd043783          	ld	a5,-48(s0)
ffffffc05020619c:	00979713          	slli	a4,a5,0x9
ffffffc0502061a0:	f5843783          	ld	a5,-168(s0)
ffffffc0502061a4:	83d5                	srli	a5,a5,0x15
ffffffc0502061a6:	8fb9                	xor	a5,a5,a4
ffffffc0502061a8:	fcf43423          	sd	a5,-56(s0)
ffffffc0502061ac:	f5843783          	ld	a5,-168(s0)
ffffffc0502061b0:	00c7d713          	srli	a4,a5,0xc
ffffffc0502061b4:	fd043783          	ld	a5,-48(s0)
ffffffc0502061b8:	07ca                	slli	a5,a5,0x12
ffffffc0502061ba:	8f3d                	xor	a4,a4,a5
ffffffc0502061bc:	fc843783          	ld	a5,-56(s0)
ffffffc0502061c0:	07a6                	slli	a5,a5,0x9
ffffffc0502061c2:	8fb9                	xor	a5,a5,a4
ffffffc0502061c4:	fcf43023          	sd	a5,-64(s0)
ffffffc0502061c8:	47c5                	li	a5,17
ffffffc0502061ca:	faf43c23          	sd	a5,-72(s0)
ffffffc0502061ce:	0df00793          	li	a5,223
ffffffc0502061d2:	faf43823          	sd	a5,-80(s0)
ffffffc0502061d6:	fd043783          	ld	a5,-48(s0)
ffffffc0502061da:	00379713          	slli	a4,a5,0x3
ffffffc0502061de:	f5043783          	ld	a5,-176(s0)
ffffffc0502061e2:	97ba                	add	a5,a5,a4
ffffffc0502061e4:	639c                	ld	a5,0(a5)
ffffffc0502061e6:	faf43423          	sd	a5,-88(s0)
ffffffc0502061ea:	fa843783          	ld	a5,-88(s0)
ffffffc0502061ee:	8b85                	andi	a5,a5,1
ffffffc0502061f0:	faf43023          	sd	a5,-96(s0)
ffffffc0502061f4:	fa043783          	ld	a5,-96(s0)
ffffffc0502061f8:	cf81                	beqz	a5,ffffffc050206210 <alloc_page_helper+0xaa>
ffffffc0502061fa:	fa843503          	ld	a0,-88(s0)
ffffffc0502061fe:	cd0ff0ef          	jal	ra,ffffffc0502056ce <get_pa>
ffffffc050206202:	87aa                	mv	a5,a0
ffffffc050206204:	853e                	mv	a0,a5
ffffffc050206206:	c9cff0ef          	jal	ra,ffffffc0502056a2 <pa2kva>
ffffffc05020620a:	fea43423          	sd	a0,-24(s0)
ffffffc05020620e:	a881                	j	ffffffc05020625e <alloc_page_helper+0xf8>
ffffffc050206210:	f4843583          	ld	a1,-184(s0)
ffffffc050206214:	4505                	li	a0,1
ffffffc050206216:	8a7ff0ef          	jal	ra,ffffffc050205abc <allocPgdir>
ffffffc05020621a:	fea43423          	sd	a0,-24(s0)
ffffffc05020621e:	fe843503          	ld	a0,-24(s0)
ffffffc050206222:	c54ff0ef          	jal	ra,ffffffc050205676 <kva2pa>
ffffffc050206226:	87aa                	mv	a5,a0
ffffffc050206228:	83b1                	srli	a5,a5,0xc
ffffffc05020622a:	f8f43c23          	sd	a5,-104(s0)
ffffffc05020622e:	fd043783          	ld	a5,-48(s0)
ffffffc050206232:	00379713          	slli	a4,a5,0x3
ffffffc050206236:	f5043783          	ld	a5,-176(s0)
ffffffc05020623a:	97ba                	add	a5,a5,a4
ffffffc05020623c:	f9843583          	ld	a1,-104(s0)
ffffffc050206240:	853e                	mv	a0,a5
ffffffc050206242:	cceff0ef          	jal	ra,ffffffc050205710 <set_pfn>
ffffffc050206246:	fd043783          	ld	a5,-48(s0)
ffffffc05020624a:	00379713          	slli	a4,a5,0x3
ffffffc05020624e:	f5043783          	ld	a5,-176(s0)
ffffffc050206252:	97ba                	add	a5,a5,a4
ffffffc050206254:	fb843583          	ld	a1,-72(s0)
ffffffc050206258:	853e                	mv	a0,a5
ffffffc05020625a:	cf0ff0ef          	jal	ra,ffffffc05020574a <set_attribute>
ffffffc05020625e:	fc843783          	ld	a5,-56(s0)
ffffffc050206262:	00379713          	slli	a4,a5,0x3
ffffffc050206266:	fe843783          	ld	a5,-24(s0)
ffffffc05020626a:	97ba                	add	a5,a5,a4
ffffffc05020626c:	639c                	ld	a5,0(a5)
ffffffc05020626e:	f8f43823          	sd	a5,-112(s0)
ffffffc050206272:	f9043783          	ld	a5,-112(s0)
ffffffc050206276:	8b85                	andi	a5,a5,1
ffffffc050206278:	f8f43423          	sd	a5,-120(s0)
ffffffc05020627c:	f8843783          	ld	a5,-120(s0)
ffffffc050206280:	cf81                	beqz	a5,ffffffc050206298 <alloc_page_helper+0x132>
ffffffc050206282:	f9043503          	ld	a0,-112(s0)
ffffffc050206286:	c48ff0ef          	jal	ra,ffffffc0502056ce <get_pa>
ffffffc05020628a:	87aa                	mv	a5,a0
ffffffc05020628c:	853e                	mv	a0,a5
ffffffc05020628e:	c14ff0ef          	jal	ra,ffffffc0502056a2 <pa2kva>
ffffffc050206292:	fea43023          	sd	a0,-32(s0)
ffffffc050206296:	a881                	j	ffffffc0502062e6 <alloc_page_helper+0x180>
ffffffc050206298:	f4843583          	ld	a1,-184(s0)
ffffffc05020629c:	4505                	li	a0,1
ffffffc05020629e:	81fff0ef          	jal	ra,ffffffc050205abc <allocPgdir>
ffffffc0502062a2:	fea43023          	sd	a0,-32(s0)
ffffffc0502062a6:	fe043503          	ld	a0,-32(s0)
ffffffc0502062aa:	bccff0ef          	jal	ra,ffffffc050205676 <kva2pa>
ffffffc0502062ae:	87aa                	mv	a5,a0
ffffffc0502062b0:	83b1                	srli	a5,a5,0xc
ffffffc0502062b2:	f8f43023          	sd	a5,-128(s0)
ffffffc0502062b6:	fc843783          	ld	a5,-56(s0)
ffffffc0502062ba:	00379713          	slli	a4,a5,0x3
ffffffc0502062be:	fe843783          	ld	a5,-24(s0)
ffffffc0502062c2:	97ba                	add	a5,a5,a4
ffffffc0502062c4:	f8043583          	ld	a1,-128(s0)
ffffffc0502062c8:	853e                	mv	a0,a5
ffffffc0502062ca:	c46ff0ef          	jal	ra,ffffffc050205710 <set_pfn>
ffffffc0502062ce:	fc843783          	ld	a5,-56(s0)
ffffffc0502062d2:	00379713          	slli	a4,a5,0x3
ffffffc0502062d6:	fe843783          	ld	a5,-24(s0)
ffffffc0502062da:	97ba                	add	a5,a5,a4
ffffffc0502062dc:	fb843583          	ld	a1,-72(s0)
ffffffc0502062e0:	853e                	mv	a0,a5
ffffffc0502062e2:	c68ff0ef          	jal	ra,ffffffc05020574a <set_attribute>
ffffffc0502062e6:	fc043783          	ld	a5,-64(s0)
ffffffc0502062ea:	00379713          	slli	a4,a5,0x3
ffffffc0502062ee:	fe043783          	ld	a5,-32(s0)
ffffffc0502062f2:	97ba                	add	a5,a5,a4
ffffffc0502062f4:	639c                	ld	a5,0(a5)
ffffffc0502062f6:	f6f43c23          	sd	a5,-136(s0)
ffffffc0502062fa:	f7843783          	ld	a5,-136(s0)
ffffffc0502062fe:	8b85                	andi	a5,a5,1
ffffffc050206300:	f6f43823          	sd	a5,-144(s0)
ffffffc050206304:	f7043783          	ld	a5,-144(s0)
ffffffc050206308:	cf81                	beqz	a5,ffffffc050206320 <alloc_page_helper+0x1ba>
ffffffc05020630a:	f7843503          	ld	a0,-136(s0)
ffffffc05020630e:	bc0ff0ef          	jal	ra,ffffffc0502056ce <get_pa>
ffffffc050206312:	87aa                	mv	a5,a0
ffffffc050206314:	853e                	mv	a0,a5
ffffffc050206316:	b8cff0ef          	jal	ra,ffffffc0502056a2 <pa2kva>
ffffffc05020631a:	fca43c23          	sd	a0,-40(s0)
ffffffc05020631e:	a0b5                	j	ffffffc05020638a <alloc_page_helper+0x224>
ffffffc050206320:	f4442783          	lw	a5,-188(s0)
ffffffc050206324:	2781                	sext.w	a5,a5
ffffffc050206326:	cb89                	beqz	a5,ffffffc050206338 <alloc_page_helper+0x1d2>
ffffffc050206328:	f4843583          	ld	a1,-184(s0)
ffffffc05020632c:	4505                	li	a0,1
ffffffc05020632e:	f8eff0ef          	jal	ra,ffffffc050205abc <allocPgdir>
ffffffc050206332:	fca43c23          	sd	a0,-40(s0)
ffffffc050206336:	a811                	j	ffffffc05020634a <alloc_page_helper+0x1e4>
ffffffc050206338:	f5843603          	ld	a2,-168(s0)
ffffffc05020633c:	f4843583          	ld	a1,-184(s0)
ffffffc050206340:	4505                	li	a0,1
ffffffc050206342:	90fff0ef          	jal	ra,ffffffc050205c50 <allocPage>
ffffffc050206346:	fca43c23          	sd	a0,-40(s0)
ffffffc05020634a:	fd843503          	ld	a0,-40(s0)
ffffffc05020634e:	b28ff0ef          	jal	ra,ffffffc050205676 <kva2pa>
ffffffc050206352:	87aa                	mv	a5,a0
ffffffc050206354:	83b1                	srli	a5,a5,0xc
ffffffc050206356:	f6f43423          	sd	a5,-152(s0)
ffffffc05020635a:	fc043783          	ld	a5,-64(s0)
ffffffc05020635e:	00379713          	slli	a4,a5,0x3
ffffffc050206362:	fe043783          	ld	a5,-32(s0)
ffffffc050206366:	97ba                	add	a5,a5,a4
ffffffc050206368:	f6843583          	ld	a1,-152(s0)
ffffffc05020636c:	853e                	mv	a0,a5
ffffffc05020636e:	ba2ff0ef          	jal	ra,ffffffc050205710 <set_pfn>
ffffffc050206372:	fc043783          	ld	a5,-64(s0)
ffffffc050206376:	00379713          	slli	a4,a5,0x3
ffffffc05020637a:	fe043783          	ld	a5,-32(s0)
ffffffc05020637e:	97ba                	add	a5,a5,a4
ffffffc050206380:	fb043583          	ld	a1,-80(s0)
ffffffc050206384:	853e                	mv	a0,a5
ffffffc050206386:	bc4ff0ef          	jal	ra,ffffffc05020574a <set_attribute>
ffffffc05020638a:	fd843783          	ld	a5,-40(s0)
ffffffc05020638e:	853e                	mv	a0,a5
ffffffc050206390:	70ea                	ld	ra,184(sp)
ffffffc050206392:	744a                	ld	s0,176(sp)
ffffffc050206394:	6129                	addi	sp,sp,192
ffffffc050206396:	8082                	ret

ffffffc050206398 <make_page_invalid>:
ffffffc050206398:	7159                	addi	sp,sp,-112
ffffffc05020639a:	f486                	sd	ra,104(sp)
ffffffc05020639c:	f0a2                	sd	s0,96(sp)
ffffffc05020639e:	1880                	addi	s0,sp,112
ffffffc0502063a0:	f8a43c23          	sd	a0,-104(s0)
ffffffc0502063a4:	f8b43823          	sd	a1,-112(s0)
ffffffc0502063a8:	f9843703          	ld	a4,-104(s0)
ffffffc0502063ac:	57fd                	li	a5,-1
ffffffc0502063ae:	83e5                	srli	a5,a5,0x19
ffffffc0502063b0:	8ff9                	and	a5,a5,a4
ffffffc0502063b2:	f8f43c23          	sd	a5,-104(s0)
ffffffc0502063b6:	f9843783          	ld	a5,-104(s0)
ffffffc0502063ba:	83f9                	srli	a5,a5,0x1e
ffffffc0502063bc:	fef43423          	sd	a5,-24(s0)
ffffffc0502063c0:	fe843783          	ld	a5,-24(s0)
ffffffc0502063c4:	00979713          	slli	a4,a5,0x9
ffffffc0502063c8:	f9843783          	ld	a5,-104(s0)
ffffffc0502063cc:	83d5                	srli	a5,a5,0x15
ffffffc0502063ce:	8fb9                	xor	a5,a5,a4
ffffffc0502063d0:	fef43023          	sd	a5,-32(s0)
ffffffc0502063d4:	f9843783          	ld	a5,-104(s0)
ffffffc0502063d8:	00c7d713          	srli	a4,a5,0xc
ffffffc0502063dc:	fe843783          	ld	a5,-24(s0)
ffffffc0502063e0:	07ca                	slli	a5,a5,0x12
ffffffc0502063e2:	8f3d                	xor	a4,a4,a5
ffffffc0502063e4:	fe043783          	ld	a5,-32(s0)
ffffffc0502063e8:	07a6                	slli	a5,a5,0x9
ffffffc0502063ea:	8fb9                	xor	a5,a5,a4
ffffffc0502063ec:	fcf43c23          	sd	a5,-40(s0)
ffffffc0502063f0:	fe843783          	ld	a5,-24(s0)
ffffffc0502063f4:	00379713          	slli	a4,a5,0x3
ffffffc0502063f8:	f9043783          	ld	a5,-112(s0)
ffffffc0502063fc:	97ba                	add	a5,a5,a4
ffffffc0502063fe:	639c                	ld	a5,0(a5)
ffffffc050206400:	fcf43823          	sd	a5,-48(s0)
ffffffc050206404:	fd043503          	ld	a0,-48(s0)
ffffffc050206408:	ac6ff0ef          	jal	ra,ffffffc0502056ce <get_pa>
ffffffc05020640c:	87aa                	mv	a5,a0
ffffffc05020640e:	853e                	mv	a0,a5
ffffffc050206410:	a92ff0ef          	jal	ra,ffffffc0502056a2 <pa2kva>
ffffffc050206414:	fca43423          	sd	a0,-56(s0)
ffffffc050206418:	fe043783          	ld	a5,-32(s0)
ffffffc05020641c:	00379713          	slli	a4,a5,0x3
ffffffc050206420:	fc843783          	ld	a5,-56(s0)
ffffffc050206424:	97ba                	add	a5,a5,a4
ffffffc050206426:	639c                	ld	a5,0(a5)
ffffffc050206428:	fcf43023          	sd	a5,-64(s0)
ffffffc05020642c:	fc043503          	ld	a0,-64(s0)
ffffffc050206430:	a9eff0ef          	jal	ra,ffffffc0502056ce <get_pa>
ffffffc050206434:	87aa                	mv	a5,a0
ffffffc050206436:	853e                	mv	a0,a5
ffffffc050206438:	a6aff0ef          	jal	ra,ffffffc0502056a2 <pa2kva>
ffffffc05020643c:	faa43c23          	sd	a0,-72(s0)
ffffffc050206440:	fd843783          	ld	a5,-40(s0)
ffffffc050206444:	00379713          	slli	a4,a5,0x3
ffffffc050206448:	fb843783          	ld	a5,-72(s0)
ffffffc05020644c:	97ba                	add	a5,a5,a4
ffffffc05020644e:	639c                	ld	a5,0(a5)
ffffffc050206450:	faf43823          	sd	a5,-80(s0)
ffffffc050206454:	fa043423          	sd	zero,-88(s0)
ffffffc050206458:	fd843783          	ld	a5,-40(s0)
ffffffc05020645c:	00379713          	slli	a4,a5,0x3
ffffffc050206460:	fb843783          	ld	a5,-72(s0)
ffffffc050206464:	97ba                	add	a5,a5,a4
ffffffc050206466:	853e                	mv	a0,a5
ffffffc050206468:	a88ff0ef          	jal	ra,ffffffc0502056f0 <get_pfn>
ffffffc05020646c:	87aa                	mv	a5,a0
ffffffc05020646e:	faf43023          	sd	a5,-96(s0)
ffffffc050206472:	fd843783          	ld	a5,-40(s0)
ffffffc050206476:	00379713          	slli	a4,a5,0x3
ffffffc05020647a:	fb843783          	ld	a5,-72(s0)
ffffffc05020647e:	97ba                	add	a5,a5,a4
ffffffc050206480:	fa843583          	ld	a1,-88(s0)
ffffffc050206484:	853e                	mv	a0,a5
ffffffc050206486:	ac4ff0ef          	jal	ra,ffffffc05020574a <set_attribute>
ffffffc05020648a:	fa043783          	ld	a5,-96(s0)
ffffffc05020648e:	853e                	mv	a0,a5
ffffffc050206490:	70a6                	ld	ra,104(sp)
ffffffc050206492:	7406                	ld	s0,96(sp)
ffffffc050206494:	6165                	addi	sp,sp,112
ffffffc050206496:	8082                	ret

ffffffc050206498 <shm_page_get>:
ffffffc050206498:	7179                	addi	sp,sp,-48
ffffffc05020649a:	f406                	sd	ra,40(sp)
ffffffc05020649c:	f022                	sd	s0,32(sp)
ffffffc05020649e:	1800                	addi	s0,sp,48
ffffffc0502064a0:	87aa                	mv	a5,a0
ffffffc0502064a2:	fcf42e23          	sw	a5,-36(s0)
ffffffc0502064a6:	fdc42783          	lw	a5,-36(s0)
ffffffc0502064aa:	2781                	sext.w	a5,a5
ffffffc0502064ac:	0007d463          	bgez	a5,ffffffc0502064b4 <shm_page_get+0x1c>
ffffffc0502064b0:	4781                	li	a5,0
ffffffc0502064b2:	a8d9                	j	ffffffc050206588 <shm_page_get+0xf0>
ffffffc0502064b4:	fdc42783          	lw	a5,-36(s0)
ffffffc0502064b8:	0807f793          	andi	a5,a5,128
ffffffc0502064bc:	fef42623          	sw	a5,-20(s0)
ffffffc0502064c0:	00056797          	auipc	a5,0x56
ffffffc0502064c4:	c5878793          	addi	a5,a5,-936 # ffffffc05025c118 <current_running>
ffffffc0502064c8:	6394                	ld	a3,0(a5)
ffffffc0502064ca:	0004c617          	auipc	a2,0x4c
ffffffc0502064ce:	c3e60613          	addi	a2,a2,-962 # ffffffc050252108 <shpages_mm>
ffffffc0502064d2:	fec42703          	lw	a4,-20(s0)
ffffffc0502064d6:	87ba                	mv	a5,a4
ffffffc0502064d8:	0786                	slli	a5,a5,0x1
ffffffc0502064da:	97ba                	add	a5,a5,a4
ffffffc0502064dc:	0796                	slli	a5,a5,0x5
ffffffc0502064de:	97b2                	add	a5,a5,a2
ffffffc0502064e0:	478c                	lw	a1,8(a5)
ffffffc0502064e2:	5a94                	lw	a3,48(a3)
ffffffc0502064e4:	0004c617          	auipc	a2,0x4c
ffffffc0502064e8:	c2460613          	addi	a2,a2,-988 # ffffffc050252108 <shpages_mm>
ffffffc0502064ec:	fec42703          	lw	a4,-20(s0)
ffffffc0502064f0:	87ba                	mv	a5,a4
ffffffc0502064f2:	0786                	slli	a5,a5,0x1
ffffffc0502064f4:	97ba                	add	a5,a5,a4
ffffffc0502064f6:	078e                	slli	a5,a5,0x3
ffffffc0502064f8:	97ae                	add	a5,a5,a1
ffffffc0502064fa:	078a                	slli	a5,a5,0x2
ffffffc0502064fc:	97b2                	add	a5,a5,a2
ffffffc0502064fe:	c7d4                	sw	a3,12(a5)
ffffffc050206500:	0004c697          	auipc	a3,0x4c
ffffffc050206504:	c0868693          	addi	a3,a3,-1016 # ffffffc050252108 <shpages_mm>
ffffffc050206508:	fec42703          	lw	a4,-20(s0)
ffffffc05020650c:	87ba                	mv	a5,a4
ffffffc05020650e:	0786                	slli	a5,a5,0x1
ffffffc050206510:	97ba                	add	a5,a5,a4
ffffffc050206512:	0796                	slli	a5,a5,0x5
ffffffc050206514:	97b6                	add	a5,a5,a3
ffffffc050206516:	479c                	lw	a5,8(a5)
ffffffc050206518:	2785                	addiw	a5,a5,1
ffffffc05020651a:	0007869b          	sext.w	a3,a5
ffffffc05020651e:	0004c617          	auipc	a2,0x4c
ffffffc050206522:	bea60613          	addi	a2,a2,-1046 # ffffffc050252108 <shpages_mm>
ffffffc050206526:	fec42703          	lw	a4,-20(s0)
ffffffc05020652a:	87ba                	mv	a5,a4
ffffffc05020652c:	0786                	slli	a5,a5,0x1
ffffffc05020652e:	97ba                	add	a5,a5,a4
ffffffc050206530:	0796                	slli	a5,a5,0x5
ffffffc050206532:	97b2                	add	a5,a5,a2
ffffffc050206534:	c794                	sw	a3,8(a5)
ffffffc050206536:	00056797          	auipc	a5,0x56
ffffffc05020653a:	be278793          	addi	a5,a5,-1054 # ffffffc05025c118 <current_running>
ffffffc05020653e:	639c                	ld	a5,0(a5)
ffffffc050206540:	6bdc                	ld	a5,144(a5)
ffffffc050206542:	853e                	mv	a0,a5
ffffffc050206544:	061000ef          	jal	ra,ffffffc050206da4 <find_valid_addr>
ffffffc050206548:	fea43023          	sd	a0,-32(s0)
ffffffc05020654c:	00056797          	auipc	a5,0x56
ffffffc050206550:	bcc78793          	addi	a5,a5,-1076 # ffffffc05025c118 <current_running>
ffffffc050206554:	639c                	ld	a5,0(a5)
ffffffc050206556:	6bcc                	ld	a1,144(a5)
ffffffc050206558:	00056797          	auipc	a5,0x56
ffffffc05020655c:	bc078793          	addi	a5,a5,-1088 # ffffffc05025c118 <current_running>
ffffffc050206560:	6390                	ld	a2,0(a5)
ffffffc050206562:	0004c697          	auipc	a3,0x4c
ffffffc050206566:	ba668693          	addi	a3,a3,-1114 # ffffffc050252108 <shpages_mm>
ffffffc05020656a:	fec42703          	lw	a4,-20(s0)
ffffffc05020656e:	87ba                	mv	a5,a4
ffffffc050206570:	0786                	slli	a5,a5,0x1
ffffffc050206572:	97ba                	add	a5,a5,a4
ffffffc050206574:	0796                	slli	a5,a5,0x5
ffffffc050206576:	97b6                	add	a5,a5,a3
ffffffc050206578:	639c                	ld	a5,0(a5)
ffffffc05020657a:	86be                	mv	a3,a5
ffffffc05020657c:	fe043503          	ld	a0,-32(s0)
ffffffc050206580:	410000ef          	jal	ra,ffffffc050206990 <alloc_share_page>
ffffffc050206584:	fe043783          	ld	a5,-32(s0)
ffffffc050206588:	853e                	mv	a0,a5
ffffffc05020658a:	70a2                	ld	ra,40(sp)
ffffffc05020658c:	7402                	ld	s0,32(sp)
ffffffc05020658e:	6145                	addi	sp,sp,48
ffffffc050206590:	8082                	ret

ffffffc050206592 <snp_page_get>:
ffffffc050206592:	7179                	addi	sp,sp,-48
ffffffc050206594:	f406                	sd	ra,40(sp)
ffffffc050206596:	f022                	sd	s0,32(sp)
ffffffc050206598:	1800                	addi	s0,sp,48
ffffffc05020659a:	87aa                	mv	a5,a0
ffffffc05020659c:	fcf42e23          	sw	a5,-36(s0)
ffffffc0502065a0:	fdc42783          	lw	a5,-36(s0)
ffffffc0502065a4:	2781                	sext.w	a5,a5
ffffffc0502065a6:	0007d463          	bgez	a5,ffffffc0502065ae <snp_page_get+0x1c>
ffffffc0502065aa:	4781                	li	a5,0
ffffffc0502065ac:	a8d9                	j	ffffffc050206682 <snp_page_get+0xf0>
ffffffc0502065ae:	fdc42783          	lw	a5,-36(s0)
ffffffc0502065b2:	0807f793          	andi	a5,a5,128
ffffffc0502065b6:	fef42623          	sw	a5,-20(s0)
ffffffc0502065ba:	00056797          	auipc	a5,0x56
ffffffc0502065be:	b5e78793          	addi	a5,a5,-1186 # ffffffc05025c118 <current_running>
ffffffc0502065c2:	6394                	ld	a3,0(a5)
ffffffc0502065c4:	0004c617          	auipc	a2,0x4c
ffffffc0502065c8:	b4460613          	addi	a2,a2,-1212 # ffffffc050252108 <shpages_mm>
ffffffc0502065cc:	fec42703          	lw	a4,-20(s0)
ffffffc0502065d0:	87ba                	mv	a5,a4
ffffffc0502065d2:	0786                	slli	a5,a5,0x1
ffffffc0502065d4:	97ba                	add	a5,a5,a4
ffffffc0502065d6:	0796                	slli	a5,a5,0x5
ffffffc0502065d8:	97b2                	add	a5,a5,a2
ffffffc0502065da:	478c                	lw	a1,8(a5)
ffffffc0502065dc:	5a94                	lw	a3,48(a3)
ffffffc0502065de:	0004c617          	auipc	a2,0x4c
ffffffc0502065e2:	b2a60613          	addi	a2,a2,-1238 # ffffffc050252108 <shpages_mm>
ffffffc0502065e6:	fec42703          	lw	a4,-20(s0)
ffffffc0502065ea:	87ba                	mv	a5,a4
ffffffc0502065ec:	0786                	slli	a5,a5,0x1
ffffffc0502065ee:	97ba                	add	a5,a5,a4
ffffffc0502065f0:	078e                	slli	a5,a5,0x3
ffffffc0502065f2:	97ae                	add	a5,a5,a1
ffffffc0502065f4:	078a                	slli	a5,a5,0x2
ffffffc0502065f6:	97b2                	add	a5,a5,a2
ffffffc0502065f8:	c7d4                	sw	a3,12(a5)
ffffffc0502065fa:	0004c697          	auipc	a3,0x4c
ffffffc0502065fe:	b0e68693          	addi	a3,a3,-1266 # ffffffc050252108 <shpages_mm>
ffffffc050206602:	fec42703          	lw	a4,-20(s0)
ffffffc050206606:	87ba                	mv	a5,a4
ffffffc050206608:	0786                	slli	a5,a5,0x1
ffffffc05020660a:	97ba                	add	a5,a5,a4
ffffffc05020660c:	0796                	slli	a5,a5,0x5
ffffffc05020660e:	97b6                	add	a5,a5,a3
ffffffc050206610:	479c                	lw	a5,8(a5)
ffffffc050206612:	2785                	addiw	a5,a5,1
ffffffc050206614:	0007869b          	sext.w	a3,a5
ffffffc050206618:	0004c617          	auipc	a2,0x4c
ffffffc05020661c:	af060613          	addi	a2,a2,-1296 # ffffffc050252108 <shpages_mm>
ffffffc050206620:	fec42703          	lw	a4,-20(s0)
ffffffc050206624:	87ba                	mv	a5,a4
ffffffc050206626:	0786                	slli	a5,a5,0x1
ffffffc050206628:	97ba                	add	a5,a5,a4
ffffffc05020662a:	0796                	slli	a5,a5,0x5
ffffffc05020662c:	97b2                	add	a5,a5,a2
ffffffc05020662e:	c794                	sw	a3,8(a5)
ffffffc050206630:	00056797          	auipc	a5,0x56
ffffffc050206634:	ae878793          	addi	a5,a5,-1304 # ffffffc05025c118 <current_running>
ffffffc050206638:	639c                	ld	a5,0(a5)
ffffffc05020663a:	6bdc                	ld	a5,144(a5)
ffffffc05020663c:	853e                	mv	a0,a5
ffffffc05020663e:	766000ef          	jal	ra,ffffffc050206da4 <find_valid_addr>
ffffffc050206642:	fea43023          	sd	a0,-32(s0)
ffffffc050206646:	00056797          	auipc	a5,0x56
ffffffc05020664a:	ad278793          	addi	a5,a5,-1326 # ffffffc05025c118 <current_running>
ffffffc05020664e:	639c                	ld	a5,0(a5)
ffffffc050206650:	6bcc                	ld	a1,144(a5)
ffffffc050206652:	00056797          	auipc	a5,0x56
ffffffc050206656:	ac678793          	addi	a5,a5,-1338 # ffffffc05025c118 <current_running>
ffffffc05020665a:	6390                	ld	a2,0(a5)
ffffffc05020665c:	0004c697          	auipc	a3,0x4c
ffffffc050206660:	aac68693          	addi	a3,a3,-1364 # ffffffc050252108 <shpages_mm>
ffffffc050206664:	fec42703          	lw	a4,-20(s0)
ffffffc050206668:	87ba                	mv	a5,a4
ffffffc05020666a:	0786                	slli	a5,a5,0x1
ffffffc05020666c:	97ba                	add	a5,a5,a4
ffffffc05020666e:	0796                	slli	a5,a5,0x5
ffffffc050206670:	97b6                	add	a5,a5,a3
ffffffc050206672:	639c                	ld	a5,0(a5)
ffffffc050206674:	86be                	mv	a3,a5
ffffffc050206676:	fe043503          	ld	a0,-32(s0)
ffffffc05020667a:	520000ef          	jal	ra,ffffffc050206b9a <alloc_snp_page>
ffffffc05020667e:	fe043783          	ld	a5,-32(s0)
ffffffc050206682:	853e                	mv	a0,a5
ffffffc050206684:	70a2                	ld	ra,40(sp)
ffffffc050206686:	7402                	ld	s0,32(sp)
ffffffc050206688:	6145                	addi	sp,sp,48
ffffffc05020668a:	8082                	ret

ffffffc05020668c <shm_page_dt>:
ffffffc05020668c:	7139                	addi	sp,sp,-64
ffffffc05020668e:	fc06                	sd	ra,56(sp)
ffffffc050206690:	f822                	sd	s0,48(sp)
ffffffc050206692:	f426                	sd	s1,40(sp)
ffffffc050206694:	0080                	addi	s0,sp,64
ffffffc050206696:	fca43423          	sd	a0,-56(s0)
ffffffc05020669a:	00056797          	auipc	a5,0x56
ffffffc05020669e:	a7e78793          	addi	a5,a5,-1410 # ffffffc05025c118 <current_running>
ffffffc0502066a2:	639c                	ld	a5,0(a5)
ffffffc0502066a4:	6bdc                	ld	a5,144(a5)
ffffffc0502066a6:	85be                	mv	a1,a5
ffffffc0502066a8:	fc843503          	ld	a0,-56(s0)
ffffffc0502066ac:	cedff0ef          	jal	ra,ffffffc050206398 <make_page_invalid>
ffffffc0502066b0:	fca43823          	sd	a0,-48(s0)
ffffffc0502066b4:	fc042e23          	sw	zero,-36(s0)
ffffffc0502066b8:	a0ad                	j	ffffffc050206722 <shm_page_dt+0x96>
ffffffc0502066ba:	0004c697          	auipc	a3,0x4c
ffffffc0502066be:	a4e68693          	addi	a3,a3,-1458 # ffffffc050252108 <shpages_mm>
ffffffc0502066c2:	fdc42703          	lw	a4,-36(s0)
ffffffc0502066c6:	87ba                	mv	a5,a4
ffffffc0502066c8:	0786                	slli	a5,a5,0x1
ffffffc0502066ca:	97ba                	add	a5,a5,a4
ffffffc0502066cc:	0796                	slli	a5,a5,0x5
ffffffc0502066ce:	97b6                	add	a5,a5,a3
ffffffc0502066d0:	6384                	ld	s1,0(a5)
ffffffc0502066d2:	fd043503          	ld	a0,-48(s0)
ffffffc0502066d6:	fcdfe0ef          	jal	ra,ffffffc0502056a2 <pa2kva>
ffffffc0502066da:	87aa                	mv	a5,a0
ffffffc0502066dc:	02f49e63          	bne	s1,a5,ffffffc050206718 <shm_page_dt+0x8c>
ffffffc0502066e0:	0004c697          	auipc	a3,0x4c
ffffffc0502066e4:	a2868693          	addi	a3,a3,-1496 # ffffffc050252108 <shpages_mm>
ffffffc0502066e8:	fdc42703          	lw	a4,-36(s0)
ffffffc0502066ec:	87ba                	mv	a5,a4
ffffffc0502066ee:	0786                	slli	a5,a5,0x1
ffffffc0502066f0:	97ba                	add	a5,a5,a4
ffffffc0502066f2:	0796                	slli	a5,a5,0x5
ffffffc0502066f4:	97b6                	add	a5,a5,a3
ffffffc0502066f6:	479c                	lw	a5,8(a5)
ffffffc0502066f8:	37fd                	addiw	a5,a5,-1
ffffffc0502066fa:	0007869b          	sext.w	a3,a5
ffffffc0502066fe:	0004c617          	auipc	a2,0x4c
ffffffc050206702:	a0a60613          	addi	a2,a2,-1526 # ffffffc050252108 <shpages_mm>
ffffffc050206706:	fdc42703          	lw	a4,-36(s0)
ffffffc05020670a:	87ba                	mv	a5,a4
ffffffc05020670c:	0786                	slli	a5,a5,0x1
ffffffc05020670e:	97ba                	add	a5,a5,a4
ffffffc050206710:	0796                	slli	a5,a5,0x5
ffffffc050206712:	97b2                	add	a5,a5,a2
ffffffc050206714:	c794                	sw	a3,8(a5)
ffffffc050206716:	a839                	j	ffffffc050206734 <shm_page_dt+0xa8>
ffffffc050206718:	fdc42783          	lw	a5,-36(s0)
ffffffc05020671c:	2785                	addiw	a5,a5,1
ffffffc05020671e:	fcf42e23          	sw	a5,-36(s0)
ffffffc050206722:	fdc42783          	lw	a5,-36(s0)
ffffffc050206726:	0007871b          	sext.w	a4,a5
ffffffc05020672a:	07f00793          	li	a5,127
ffffffc05020672e:	f8e7d6e3          	bge	a5,a4,ffffffc0502066ba <shm_page_dt+0x2e>
ffffffc050206732:	0001                	nop
ffffffc050206734:	0001                	nop
ffffffc050206736:	70e2                	ld	ra,56(sp)
ffffffc050206738:	7442                	ld	s0,48(sp)
ffffffc05020673a:	74a2                	ld	s1,40(sp)
ffffffc05020673c:	6121                	addi	sp,sp,64
ffffffc05020673e:	8082                	ret

ffffffc050206740 <time_update>:
ffffffc050206740:	1101                	addi	sp,sp,-32
ffffffc050206742:	ec22                	sd	s0,24(sp)
ffffffc050206744:	1000                	addi	s0,sp,32
ffffffc050206746:	fe042623          	sw	zero,-20(s0)
ffffffc05020674a:	a08d                	j	ffffffc0502067ac <time_update+0x6c>
ffffffc05020674c:	00049697          	auipc	a3,0x49
ffffffc050206750:	5bc68693          	addi	a3,a3,1468 # ffffffc05024fd08 <pages_mm>
ffffffc050206754:	fec42703          	lw	a4,-20(s0)
ffffffc050206758:	87ba                	mv	a5,a4
ffffffc05020675a:	078a                	slli	a5,a5,0x2
ffffffc05020675c:	97ba                	add	a5,a5,a4
ffffffc05020675e:	078e                	slli	a5,a5,0x3
ffffffc050206760:	97b6                	add	a5,a5,a3
ffffffc050206762:	4b9c                	lw	a5,16(a5)
ffffffc050206764:	873e                	mv	a4,a5
ffffffc050206766:	4785                	li	a5,1
ffffffc050206768:	02f71d63          	bne	a4,a5,ffffffc0502067a2 <time_update+0x62>
ffffffc05020676c:	00049697          	auipc	a3,0x49
ffffffc050206770:	59c68693          	addi	a3,a3,1436 # ffffffc05024fd08 <pages_mm>
ffffffc050206774:	fec42703          	lw	a4,-20(s0)
ffffffc050206778:	87ba                	mv	a5,a4
ffffffc05020677a:	078a                	slli	a5,a5,0x2
ffffffc05020677c:	97ba                	add	a5,a5,a4
ffffffc05020677e:	078e                	slli	a5,a5,0x3
ffffffc050206780:	97b6                	add	a5,a5,a3
ffffffc050206782:	539c                	lw	a5,32(a5)
ffffffc050206784:	2785                	addiw	a5,a5,1
ffffffc050206786:	0007869b          	sext.w	a3,a5
ffffffc05020678a:	00049617          	auipc	a2,0x49
ffffffc05020678e:	57e60613          	addi	a2,a2,1406 # ffffffc05024fd08 <pages_mm>
ffffffc050206792:	fec42703          	lw	a4,-20(s0)
ffffffc050206796:	87ba                	mv	a5,a4
ffffffc050206798:	078a                	slli	a5,a5,0x2
ffffffc05020679a:	97ba                	add	a5,a5,a4
ffffffc05020679c:	078e                	slli	a5,a5,0x3
ffffffc05020679e:	97b2                	add	a5,a5,a2
ffffffc0502067a0:	d394                	sw	a3,32(a5)
ffffffc0502067a2:	fec42783          	lw	a5,-20(s0)
ffffffc0502067a6:	2785                	addiw	a5,a5,1
ffffffc0502067a8:	fef42623          	sw	a5,-20(s0)
ffffffc0502067ac:	fec42783          	lw	a5,-20(s0)
ffffffc0502067b0:	0007871b          	sext.w	a4,a5
ffffffc0502067b4:	07f00793          	li	a5,127
ffffffc0502067b8:	f8e7dae3          	bge	a5,a4,ffffffc05020674c <time_update+0xc>
ffffffc0502067bc:	0001                	nop
ffffffc0502067be:	0001                	nop
ffffffc0502067c0:	6462                	ld	s0,24(sp)
ffffffc0502067c2:	6105                	addi	sp,sp,32
ffffffc0502067c4:	8082                	ret

ffffffc0502067c6 <choose_ex_page>:
ffffffc0502067c6:	1101                	addi	sp,sp,-32
ffffffc0502067c8:	ec22                	sd	s0,24(sp)
ffffffc0502067ca:	1000                	addi	s0,sp,32
ffffffc0502067cc:	fe042423          	sw	zero,-24(s0)
ffffffc0502067d0:	fe042223          	sw	zero,-28(s0)
ffffffc0502067d4:	a889                	j	ffffffc050206826 <choose_ex_page+0x60>
ffffffc0502067d6:	00049697          	auipc	a3,0x49
ffffffc0502067da:	53268693          	addi	a3,a3,1330 # ffffffc05024fd08 <pages_mm>
ffffffc0502067de:	fe442703          	lw	a4,-28(s0)
ffffffc0502067e2:	87ba                	mv	a5,a4
ffffffc0502067e4:	078a                	slli	a5,a5,0x2
ffffffc0502067e6:	97ba                	add	a5,a5,a4
ffffffc0502067e8:	078e                	slli	a5,a5,0x3
ffffffc0502067ea:	97b6                	add	a5,a5,a3
ffffffc0502067ec:	5398                	lw	a4,32(a5)
ffffffc0502067ee:	fe842783          	lw	a5,-24(s0)
ffffffc0502067f2:	2781                	sext.w	a5,a5
ffffffc0502067f4:	02e7d463          	bge	a5,a4,ffffffc05020681c <choose_ex_page+0x56>
ffffffc0502067f8:	00049697          	auipc	a3,0x49
ffffffc0502067fc:	51068693          	addi	a3,a3,1296 # ffffffc05024fd08 <pages_mm>
ffffffc050206800:	fe442703          	lw	a4,-28(s0)
ffffffc050206804:	87ba                	mv	a5,a4
ffffffc050206806:	078a                	slli	a5,a5,0x2
ffffffc050206808:	97ba                	add	a5,a5,a4
ffffffc05020680a:	078e                	slli	a5,a5,0x3
ffffffc05020680c:	97b6                	add	a5,a5,a3
ffffffc05020680e:	539c                	lw	a5,32(a5)
ffffffc050206810:	fef42423          	sw	a5,-24(s0)
ffffffc050206814:	fe442783          	lw	a5,-28(s0)
ffffffc050206818:	fef42623          	sw	a5,-20(s0)
ffffffc05020681c:	fe442783          	lw	a5,-28(s0)
ffffffc050206820:	2785                	addiw	a5,a5,1
ffffffc050206822:	fef42223          	sw	a5,-28(s0)
ffffffc050206826:	fe442783          	lw	a5,-28(s0)
ffffffc05020682a:	0007871b          	sext.w	a4,a5
ffffffc05020682e:	07f00793          	li	a5,127
ffffffc050206832:	fae7d2e3          	bge	a5,a4,ffffffc0502067d6 <choose_ex_page+0x10>
ffffffc050206836:	fec42783          	lw	a5,-20(s0)
ffffffc05020683a:	853e                	mv	a0,a5
ffffffc05020683c:	6462                	ld	s0,24(sp)
ffffffc05020683e:	6105                	addi	sp,sp,32
ffffffc050206840:	8082                	ret

ffffffc050206842 <write_sd>:
ffffffc050206842:	7179                	addi	sp,sp,-48
ffffffc050206844:	f406                	sd	ra,40(sp)
ffffffc050206846:	f022                	sd	s0,32(sp)
ffffffc050206848:	1800                	addi	s0,sp,48
ffffffc05020684a:	87aa                	mv	a5,a0
ffffffc05020684c:	fcb43823          	sd	a1,-48(s0)
ffffffc050206850:	fcf42e23          	sw	a5,-36(s0)
ffffffc050206854:	fe042623          	sw	zero,-20(s0)
ffffffc050206858:	a8ed                	j	ffffffc050206952 <write_sd+0x110>
ffffffc05020685a:	0004b717          	auipc	a4,0x4b
ffffffc05020685e:	8ae70713          	addi	a4,a4,-1874 # ffffffc050251108 <sdpages_mm>
ffffffc050206862:	fec42783          	lw	a5,-20(s0)
ffffffc050206866:	0796                	slli	a5,a5,0x5
ffffffc050206868:	97ba                	add	a5,a5,a4
ffffffc05020686a:	4b9c                	lw	a5,16(a5)
ffffffc05020686c:	eff1                	bnez	a5,ffffffc050206948 <write_sd+0x106>
ffffffc05020686e:	0004b717          	auipc	a4,0x4b
ffffffc050206872:	89a70713          	addi	a4,a4,-1894 # ffffffc050251108 <sdpages_mm>
ffffffc050206876:	fec42783          	lw	a5,-20(s0)
ffffffc05020687a:	0796                	slli	a5,a5,0x5
ffffffc05020687c:	97ba                	add	a5,a5,a4
ffffffc05020687e:	4705                	li	a4,1
ffffffc050206880:	cb98                	sw	a4,16(a5)
ffffffc050206882:	0004b717          	auipc	a4,0x4b
ffffffc050206886:	88670713          	addi	a4,a4,-1914 # ffffffc050251108 <sdpages_mm>
ffffffc05020688a:	fec42783          	lw	a5,-20(s0)
ffffffc05020688e:	0796                	slli	a5,a5,0x5
ffffffc050206890:	97ba                	add	a5,a5,a4
ffffffc050206892:	fdc42703          	lw	a4,-36(s0)
ffffffc050206896:	cf98                	sw	a4,24(a5)
ffffffc050206898:	00049697          	auipc	a3,0x49
ffffffc05020689c:	47068693          	addi	a3,a3,1136 # ffffffc05024fd08 <pages_mm>
ffffffc0502068a0:	fdc42703          	lw	a4,-36(s0)
ffffffc0502068a4:	87ba                	mv	a5,a4
ffffffc0502068a6:	078a                	slli	a5,a5,0x2
ffffffc0502068a8:	97ba                	add	a5,a5,a4
ffffffc0502068aa:	078e                	slli	a5,a5,0x3
ffffffc0502068ac:	97b6                	add	a5,a5,a3
ffffffc0502068ae:	6f9c                	ld	a5,24(a5)
ffffffc0502068b0:	853e                	mv	a0,a5
ffffffc0502068b2:	0c4000ef          	jal	ra,ffffffc050206976 <get_base_addr>
ffffffc0502068b6:	fea43023          	sd	a0,-32(s0)
ffffffc0502068ba:	0004b717          	auipc	a4,0x4b
ffffffc0502068be:	84e70713          	addi	a4,a4,-1970 # ffffffc050251108 <sdpages_mm>
ffffffc0502068c2:	fec42783          	lw	a5,-20(s0)
ffffffc0502068c6:	0796                	slli	a5,a5,0x5
ffffffc0502068c8:	97ba                	add	a5,a5,a4
ffffffc0502068ca:	fe043703          	ld	a4,-32(s0)
ffffffc0502068ce:	e398                	sd	a4,0(a5)
ffffffc0502068d0:	0004b717          	auipc	a4,0x4b
ffffffc0502068d4:	83870713          	addi	a4,a4,-1992 # ffffffc050251108 <sdpages_mm>
ffffffc0502068d8:	fec42783          	lw	a5,-20(s0)
ffffffc0502068dc:	0796                	slli	a5,a5,0x5
ffffffc0502068de:	97ba                	add	a5,a5,a4
ffffffc0502068e0:	fd043703          	ld	a4,-48(s0)
ffffffc0502068e4:	e798                	sd	a4,8(a5)
ffffffc0502068e6:	00049697          	auipc	a3,0x49
ffffffc0502068ea:	42268693          	addi	a3,a3,1058 # ffffffc05024fd08 <pages_mm>
ffffffc0502068ee:	fdc42703          	lw	a4,-36(s0)
ffffffc0502068f2:	87ba                	mv	a5,a4
ffffffc0502068f4:	078a                	slli	a5,a5,0x2
ffffffc0502068f6:	97ba                	add	a5,a5,a4
ffffffc0502068f8:	078e                	slli	a5,a5,0x3
ffffffc0502068fa:	97b6                	add	a5,a5,a3
ffffffc0502068fc:	639c                	ld	a5,0(a5)
ffffffc0502068fe:	853e                	mv	a0,a5
ffffffc050206900:	d77fe0ef          	jal	ra,ffffffc050205676 <kva2pa>
ffffffc050206904:	87aa                	mv	a5,a0
ffffffc050206906:	0007871b          	sext.w	a4,a5
ffffffc05020690a:	fec42783          	lw	a5,-20(s0)
ffffffc05020690e:	27e5                	addiw	a5,a5,25
ffffffc050206910:	2781                	sext.w	a5,a5
ffffffc050206912:	0037979b          	slliw	a5,a5,0x3
ffffffc050206916:	2781                	sext.w	a5,a5
ffffffc050206918:	2781                	sext.w	a5,a5
ffffffc05020691a:	863e                	mv	a2,a5
ffffffc05020691c:	45a1                	li	a1,8
ffffffc05020691e:	853a                	mv	a0,a4
ffffffc050206920:	f03fe0ef          	jal	ra,ffffffc050205822 <bios_sdwrite>
ffffffc050206924:	fec42783          	lw	a5,-20(s0)
ffffffc050206928:	27e5                	addiw	a5,a5,25
ffffffc05020692a:	2781                	sext.w	a5,a5
ffffffc05020692c:	0037979b          	slliw	a5,a5,0x3
ffffffc050206930:	0007871b          	sext.w	a4,a5
ffffffc050206934:	0004a697          	auipc	a3,0x4a
ffffffc050206938:	7d468693          	addi	a3,a3,2004 # ffffffc050251108 <sdpages_mm>
ffffffc05020693c:	fec42783          	lw	a5,-20(s0)
ffffffc050206940:	0796                	slli	a5,a5,0x5
ffffffc050206942:	97b6                	add	a5,a5,a3
ffffffc050206944:	cbd8                	sw	a4,20(a5)
ffffffc050206946:	a025                	j	ffffffc05020696e <write_sd+0x12c>
ffffffc050206948:	fec42783          	lw	a5,-20(s0)
ffffffc05020694c:	2785                	addiw	a5,a5,1
ffffffc05020694e:	fef42623          	sw	a5,-20(s0)
ffffffc050206952:	fec42783          	lw	a5,-20(s0)
ffffffc050206956:	0007871b          	sext.w	a4,a5
ffffffc05020695a:	07f00793          	li	a5,127
ffffffc05020695e:	eee7dee3          	bge	a5,a4,ffffffc05020685a <write_sd+0x18>
ffffffc050206962:	00005517          	auipc	a0,0x5
ffffffc050206966:	fa650513          	addi	a0,a0,-90 # ffffffc05020b908 <__FUNCTION__.1616+0xc0>
ffffffc05020696a:	67e040ef          	jal	ra,ffffffc05020afe8 <printl>
ffffffc05020696e:	70a2                	ld	ra,40(sp)
ffffffc050206970:	7402                	ld	s0,32(sp)
ffffffc050206972:	6145                	addi	sp,sp,48
ffffffc050206974:	8082                	ret

ffffffc050206976 <get_base_addr>:
ffffffc050206976:	1101                	addi	sp,sp,-32
ffffffc050206978:	ec22                	sd	s0,24(sp)
ffffffc05020697a:	1000                	addi	s0,sp,32
ffffffc05020697c:	fea43423          	sd	a0,-24(s0)
ffffffc050206980:	fe843703          	ld	a4,-24(s0)
ffffffc050206984:	77fd                	lui	a5,0xfffff
ffffffc050206986:	8ff9                	and	a5,a5,a4
ffffffc050206988:	853e                	mv	a0,a5
ffffffc05020698a:	6462                	ld	s0,24(sp)
ffffffc05020698c:	6105                	addi	sp,sp,32
ffffffc05020698e:	8082                	ret

ffffffc050206990 <alloc_share_page>:
ffffffc050206990:	7131                	addi	sp,sp,-192
ffffffc050206992:	fd06                	sd	ra,184(sp)
ffffffc050206994:	f922                	sd	s0,176(sp)
ffffffc050206996:	0180                	addi	s0,sp,192
ffffffc050206998:	f4a43c23          	sd	a0,-168(s0)
ffffffc05020699c:	f4b43823          	sd	a1,-176(s0)
ffffffc0502069a0:	f4c43423          	sd	a2,-184(s0)
ffffffc0502069a4:	f4d43023          	sd	a3,-192(s0)
ffffffc0502069a8:	f5843703          	ld	a4,-168(s0)
ffffffc0502069ac:	57fd                	li	a5,-1
ffffffc0502069ae:	83e5                	srli	a5,a5,0x19
ffffffc0502069b0:	8ff9                	and	a5,a5,a4
ffffffc0502069b2:	f4f43c23          	sd	a5,-168(s0)
ffffffc0502069b6:	f5843783          	ld	a5,-168(s0)
ffffffc0502069ba:	83f9                	srli	a5,a5,0x1e
ffffffc0502069bc:	fcf43c23          	sd	a5,-40(s0)
ffffffc0502069c0:	fd843783          	ld	a5,-40(s0)
ffffffc0502069c4:	00979713          	slli	a4,a5,0x9
ffffffc0502069c8:	f5843783          	ld	a5,-168(s0)
ffffffc0502069cc:	83d5                	srli	a5,a5,0x15
ffffffc0502069ce:	8fb9                	xor	a5,a5,a4
ffffffc0502069d0:	fcf43823          	sd	a5,-48(s0)
ffffffc0502069d4:	f5843783          	ld	a5,-168(s0)
ffffffc0502069d8:	00c7d713          	srli	a4,a5,0xc
ffffffc0502069dc:	fd843783          	ld	a5,-40(s0)
ffffffc0502069e0:	07ca                	slli	a5,a5,0x12
ffffffc0502069e2:	8f3d                	xor	a4,a4,a5
ffffffc0502069e4:	fd043783          	ld	a5,-48(s0)
ffffffc0502069e8:	07a6                	slli	a5,a5,0x9
ffffffc0502069ea:	8fb9                	xor	a5,a5,a4
ffffffc0502069ec:	fcf43423          	sd	a5,-56(s0)
ffffffc0502069f0:	47c5                	li	a5,17
ffffffc0502069f2:	fcf43023          	sd	a5,-64(s0)
ffffffc0502069f6:	0df00793          	li	a5,223
ffffffc0502069fa:	faf43c23          	sd	a5,-72(s0)
ffffffc0502069fe:	fd843783          	ld	a5,-40(s0)
ffffffc050206a02:	00379713          	slli	a4,a5,0x3
ffffffc050206a06:	f5043783          	ld	a5,-176(s0)
ffffffc050206a0a:	97ba                	add	a5,a5,a4
ffffffc050206a0c:	639c                	ld	a5,0(a5)
ffffffc050206a0e:	faf43823          	sd	a5,-80(s0)
ffffffc050206a12:	fb043783          	ld	a5,-80(s0)
ffffffc050206a16:	8b85                	andi	a5,a5,1
ffffffc050206a18:	faf43423          	sd	a5,-88(s0)
ffffffc050206a1c:	fa843783          	ld	a5,-88(s0)
ffffffc050206a20:	cf81                	beqz	a5,ffffffc050206a38 <alloc_share_page+0xa8>
ffffffc050206a22:	fb043503          	ld	a0,-80(s0)
ffffffc050206a26:	ca9fe0ef          	jal	ra,ffffffc0502056ce <get_pa>
ffffffc050206a2a:	87aa                	mv	a5,a0
ffffffc050206a2c:	853e                	mv	a0,a5
ffffffc050206a2e:	c75fe0ef          	jal	ra,ffffffc0502056a2 <pa2kva>
ffffffc050206a32:	fea43423          	sd	a0,-24(s0)
ffffffc050206a36:	a881                	j	ffffffc050206a86 <alloc_share_page+0xf6>
ffffffc050206a38:	f4843583          	ld	a1,-184(s0)
ffffffc050206a3c:	4505                	li	a0,1
ffffffc050206a3e:	87eff0ef          	jal	ra,ffffffc050205abc <allocPgdir>
ffffffc050206a42:	fea43423          	sd	a0,-24(s0)
ffffffc050206a46:	fe843503          	ld	a0,-24(s0)
ffffffc050206a4a:	c2dfe0ef          	jal	ra,ffffffc050205676 <kva2pa>
ffffffc050206a4e:	87aa                	mv	a5,a0
ffffffc050206a50:	83b1                	srli	a5,a5,0xc
ffffffc050206a52:	faf43023          	sd	a5,-96(s0)
ffffffc050206a56:	fd843783          	ld	a5,-40(s0)
ffffffc050206a5a:	00379713          	slli	a4,a5,0x3
ffffffc050206a5e:	f5043783          	ld	a5,-176(s0)
ffffffc050206a62:	97ba                	add	a5,a5,a4
ffffffc050206a64:	fa043583          	ld	a1,-96(s0)
ffffffc050206a68:	853e                	mv	a0,a5
ffffffc050206a6a:	ca7fe0ef          	jal	ra,ffffffc050205710 <set_pfn>
ffffffc050206a6e:	fd843783          	ld	a5,-40(s0)
ffffffc050206a72:	00379713          	slli	a4,a5,0x3
ffffffc050206a76:	f5043783          	ld	a5,-176(s0)
ffffffc050206a7a:	97ba                	add	a5,a5,a4
ffffffc050206a7c:	fc043583          	ld	a1,-64(s0)
ffffffc050206a80:	853e                	mv	a0,a5
ffffffc050206a82:	cc9fe0ef          	jal	ra,ffffffc05020574a <set_attribute>
ffffffc050206a86:	fd043783          	ld	a5,-48(s0)
ffffffc050206a8a:	00379713          	slli	a4,a5,0x3
ffffffc050206a8e:	fe843783          	ld	a5,-24(s0)
ffffffc050206a92:	97ba                	add	a5,a5,a4
ffffffc050206a94:	639c                	ld	a5,0(a5)
ffffffc050206a96:	f8f43c23          	sd	a5,-104(s0)
ffffffc050206a9a:	f9843783          	ld	a5,-104(s0)
ffffffc050206a9e:	8b85                	andi	a5,a5,1
ffffffc050206aa0:	f8f43823          	sd	a5,-112(s0)
ffffffc050206aa4:	f9043783          	ld	a5,-112(s0)
ffffffc050206aa8:	cf81                	beqz	a5,ffffffc050206ac0 <alloc_share_page+0x130>
ffffffc050206aaa:	f9843503          	ld	a0,-104(s0)
ffffffc050206aae:	c21fe0ef          	jal	ra,ffffffc0502056ce <get_pa>
ffffffc050206ab2:	87aa                	mv	a5,a0
ffffffc050206ab4:	853e                	mv	a0,a5
ffffffc050206ab6:	bedfe0ef          	jal	ra,ffffffc0502056a2 <pa2kva>
ffffffc050206aba:	fea43023          	sd	a0,-32(s0)
ffffffc050206abe:	a881                	j	ffffffc050206b0e <alloc_share_page+0x17e>
ffffffc050206ac0:	f4843583          	ld	a1,-184(s0)
ffffffc050206ac4:	4505                	li	a0,1
ffffffc050206ac6:	ff7fe0ef          	jal	ra,ffffffc050205abc <allocPgdir>
ffffffc050206aca:	fea43023          	sd	a0,-32(s0)
ffffffc050206ace:	fe043503          	ld	a0,-32(s0)
ffffffc050206ad2:	ba5fe0ef          	jal	ra,ffffffc050205676 <kva2pa>
ffffffc050206ad6:	87aa                	mv	a5,a0
ffffffc050206ad8:	83b1                	srli	a5,a5,0xc
ffffffc050206ada:	f8f43423          	sd	a5,-120(s0)
ffffffc050206ade:	fd043783          	ld	a5,-48(s0)
ffffffc050206ae2:	00379713          	slli	a4,a5,0x3
ffffffc050206ae6:	fe843783          	ld	a5,-24(s0)
ffffffc050206aea:	97ba                	add	a5,a5,a4
ffffffc050206aec:	f8843583          	ld	a1,-120(s0)
ffffffc050206af0:	853e                	mv	a0,a5
ffffffc050206af2:	c1ffe0ef          	jal	ra,ffffffc050205710 <set_pfn>
ffffffc050206af6:	fd043783          	ld	a5,-48(s0)
ffffffc050206afa:	00379713          	slli	a4,a5,0x3
ffffffc050206afe:	fe843783          	ld	a5,-24(s0)
ffffffc050206b02:	97ba                	add	a5,a5,a4
ffffffc050206b04:	fc043583          	ld	a1,-64(s0)
ffffffc050206b08:	853e                	mv	a0,a5
ffffffc050206b0a:	c41fe0ef          	jal	ra,ffffffc05020574a <set_attribute>
ffffffc050206b0e:	fc843783          	ld	a5,-56(s0)
ffffffc050206b12:	00379713          	slli	a4,a5,0x3
ffffffc050206b16:	fe043783          	ld	a5,-32(s0)
ffffffc050206b1a:	97ba                	add	a5,a5,a4
ffffffc050206b1c:	639c                	ld	a5,0(a5)
ffffffc050206b1e:	f8f43023          	sd	a5,-128(s0)
ffffffc050206b22:	f8043783          	ld	a5,-128(s0)
ffffffc050206b26:	8b85                	andi	a5,a5,1
ffffffc050206b28:	f6f43c23          	sd	a5,-136(s0)
ffffffc050206b2c:	f7843783          	ld	a5,-136(s0)
ffffffc050206b30:	cf81                	beqz	a5,ffffffc050206b48 <alloc_share_page+0x1b8>
ffffffc050206b32:	f8043503          	ld	a0,-128(s0)
ffffffc050206b36:	b99fe0ef          	jal	ra,ffffffc0502056ce <get_pa>
ffffffc050206b3a:	87aa                	mv	a5,a0
ffffffc050206b3c:	853e                	mv	a0,a5
ffffffc050206b3e:	b65fe0ef          	jal	ra,ffffffc0502056a2 <pa2kva>
ffffffc050206b42:	f6a43823          	sd	a0,-144(s0)
ffffffc050206b46:	a0a9                	j	ffffffc050206b90 <alloc_share_page+0x200>
ffffffc050206b48:	f4043783          	ld	a5,-192(s0)
ffffffc050206b4c:	f6f43823          	sd	a5,-144(s0)
ffffffc050206b50:	f7043503          	ld	a0,-144(s0)
ffffffc050206b54:	b23fe0ef          	jal	ra,ffffffc050205676 <kva2pa>
ffffffc050206b58:	87aa                	mv	a5,a0
ffffffc050206b5a:	83b1                	srli	a5,a5,0xc
ffffffc050206b5c:	f6f43423          	sd	a5,-152(s0)
ffffffc050206b60:	fc843783          	ld	a5,-56(s0)
ffffffc050206b64:	00379713          	slli	a4,a5,0x3
ffffffc050206b68:	fe043783          	ld	a5,-32(s0)
ffffffc050206b6c:	97ba                	add	a5,a5,a4
ffffffc050206b6e:	f6843583          	ld	a1,-152(s0)
ffffffc050206b72:	853e                	mv	a0,a5
ffffffc050206b74:	b9dfe0ef          	jal	ra,ffffffc050205710 <set_pfn>
ffffffc050206b78:	fc843783          	ld	a5,-56(s0)
ffffffc050206b7c:	00379713          	slli	a4,a5,0x3
ffffffc050206b80:	fe043783          	ld	a5,-32(s0)
ffffffc050206b84:	97ba                	add	a5,a5,a4
ffffffc050206b86:	fb843583          	ld	a1,-72(s0)
ffffffc050206b8a:	853e                	mv	a0,a5
ffffffc050206b8c:	bbffe0ef          	jal	ra,ffffffc05020574a <set_attribute>
ffffffc050206b90:	0001                	nop
ffffffc050206b92:	70ea                	ld	ra,184(sp)
ffffffc050206b94:	744a                	ld	s0,176(sp)
ffffffc050206b96:	6129                	addi	sp,sp,192
ffffffc050206b98:	8082                	ret

ffffffc050206b9a <alloc_snp_page>:
ffffffc050206b9a:	7131                	addi	sp,sp,-192
ffffffc050206b9c:	fd06                	sd	ra,184(sp)
ffffffc050206b9e:	f922                	sd	s0,176(sp)
ffffffc050206ba0:	0180                	addi	s0,sp,192
ffffffc050206ba2:	f4a43c23          	sd	a0,-168(s0)
ffffffc050206ba6:	f4b43823          	sd	a1,-176(s0)
ffffffc050206baa:	f4c43423          	sd	a2,-184(s0)
ffffffc050206bae:	f4d43023          	sd	a3,-192(s0)
ffffffc050206bb2:	f5843703          	ld	a4,-168(s0)
ffffffc050206bb6:	57fd                	li	a5,-1
ffffffc050206bb8:	83e5                	srli	a5,a5,0x19
ffffffc050206bba:	8ff9                	and	a5,a5,a4
ffffffc050206bbc:	f4f43c23          	sd	a5,-168(s0)
ffffffc050206bc0:	f5843783          	ld	a5,-168(s0)
ffffffc050206bc4:	83f9                	srli	a5,a5,0x1e
ffffffc050206bc6:	fcf43c23          	sd	a5,-40(s0)
ffffffc050206bca:	fd843783          	ld	a5,-40(s0)
ffffffc050206bce:	00979713          	slli	a4,a5,0x9
ffffffc050206bd2:	f5843783          	ld	a5,-168(s0)
ffffffc050206bd6:	83d5                	srli	a5,a5,0x15
ffffffc050206bd8:	8fb9                	xor	a5,a5,a4
ffffffc050206bda:	fcf43823          	sd	a5,-48(s0)
ffffffc050206bde:	f5843783          	ld	a5,-168(s0)
ffffffc050206be2:	00c7d713          	srli	a4,a5,0xc
ffffffc050206be6:	fd843783          	ld	a5,-40(s0)
ffffffc050206bea:	07ca                	slli	a5,a5,0x12
ffffffc050206bec:	8f3d                	xor	a4,a4,a5
ffffffc050206bee:	fd043783          	ld	a5,-48(s0)
ffffffc050206bf2:	07a6                	slli	a5,a5,0x9
ffffffc050206bf4:	8fb9                	xor	a5,a5,a4
ffffffc050206bf6:	fcf43423          	sd	a5,-56(s0)
ffffffc050206bfa:	47c5                	li	a5,17
ffffffc050206bfc:	fcf43023          	sd	a5,-64(s0)
ffffffc050206c00:	0db00793          	li	a5,219
ffffffc050206c04:	faf43c23          	sd	a5,-72(s0)
ffffffc050206c08:	fd843783          	ld	a5,-40(s0)
ffffffc050206c0c:	00379713          	slli	a4,a5,0x3
ffffffc050206c10:	f5043783          	ld	a5,-176(s0)
ffffffc050206c14:	97ba                	add	a5,a5,a4
ffffffc050206c16:	639c                	ld	a5,0(a5)
ffffffc050206c18:	faf43823          	sd	a5,-80(s0)
ffffffc050206c1c:	fb043783          	ld	a5,-80(s0)
ffffffc050206c20:	8b85                	andi	a5,a5,1
ffffffc050206c22:	faf43423          	sd	a5,-88(s0)
ffffffc050206c26:	fa843783          	ld	a5,-88(s0)
ffffffc050206c2a:	cf81                	beqz	a5,ffffffc050206c42 <alloc_snp_page+0xa8>
ffffffc050206c2c:	fb043503          	ld	a0,-80(s0)
ffffffc050206c30:	a9ffe0ef          	jal	ra,ffffffc0502056ce <get_pa>
ffffffc050206c34:	87aa                	mv	a5,a0
ffffffc050206c36:	853e                	mv	a0,a5
ffffffc050206c38:	a6bfe0ef          	jal	ra,ffffffc0502056a2 <pa2kva>
ffffffc050206c3c:	fea43423          	sd	a0,-24(s0)
ffffffc050206c40:	a881                	j	ffffffc050206c90 <alloc_snp_page+0xf6>
ffffffc050206c42:	f4843583          	ld	a1,-184(s0)
ffffffc050206c46:	4505                	li	a0,1
ffffffc050206c48:	e75fe0ef          	jal	ra,ffffffc050205abc <allocPgdir>
ffffffc050206c4c:	fea43423          	sd	a0,-24(s0)
ffffffc050206c50:	fe843503          	ld	a0,-24(s0)
ffffffc050206c54:	a23fe0ef          	jal	ra,ffffffc050205676 <kva2pa>
ffffffc050206c58:	87aa                	mv	a5,a0
ffffffc050206c5a:	83b1                	srli	a5,a5,0xc
ffffffc050206c5c:	faf43023          	sd	a5,-96(s0)
ffffffc050206c60:	fd843783          	ld	a5,-40(s0)
ffffffc050206c64:	00379713          	slli	a4,a5,0x3
ffffffc050206c68:	f5043783          	ld	a5,-176(s0)
ffffffc050206c6c:	97ba                	add	a5,a5,a4
ffffffc050206c6e:	fa043583          	ld	a1,-96(s0)
ffffffc050206c72:	853e                	mv	a0,a5
ffffffc050206c74:	a9dfe0ef          	jal	ra,ffffffc050205710 <set_pfn>
ffffffc050206c78:	fd843783          	ld	a5,-40(s0)
ffffffc050206c7c:	00379713          	slli	a4,a5,0x3
ffffffc050206c80:	f5043783          	ld	a5,-176(s0)
ffffffc050206c84:	97ba                	add	a5,a5,a4
ffffffc050206c86:	fc043583          	ld	a1,-64(s0)
ffffffc050206c8a:	853e                	mv	a0,a5
ffffffc050206c8c:	abffe0ef          	jal	ra,ffffffc05020574a <set_attribute>
ffffffc050206c90:	fd043783          	ld	a5,-48(s0)
ffffffc050206c94:	00379713          	slli	a4,a5,0x3
ffffffc050206c98:	fe843783          	ld	a5,-24(s0)
ffffffc050206c9c:	97ba                	add	a5,a5,a4
ffffffc050206c9e:	639c                	ld	a5,0(a5)
ffffffc050206ca0:	f8f43c23          	sd	a5,-104(s0)
ffffffc050206ca4:	f9843783          	ld	a5,-104(s0)
ffffffc050206ca8:	8b85                	andi	a5,a5,1
ffffffc050206caa:	f8f43823          	sd	a5,-112(s0)
ffffffc050206cae:	f9043783          	ld	a5,-112(s0)
ffffffc050206cb2:	cf81                	beqz	a5,ffffffc050206cca <alloc_snp_page+0x130>
ffffffc050206cb4:	f9843503          	ld	a0,-104(s0)
ffffffc050206cb8:	a17fe0ef          	jal	ra,ffffffc0502056ce <get_pa>
ffffffc050206cbc:	87aa                	mv	a5,a0
ffffffc050206cbe:	853e                	mv	a0,a5
ffffffc050206cc0:	9e3fe0ef          	jal	ra,ffffffc0502056a2 <pa2kva>
ffffffc050206cc4:	fea43023          	sd	a0,-32(s0)
ffffffc050206cc8:	a881                	j	ffffffc050206d18 <alloc_snp_page+0x17e>
ffffffc050206cca:	f4843583          	ld	a1,-184(s0)
ffffffc050206cce:	4505                	li	a0,1
ffffffc050206cd0:	dedfe0ef          	jal	ra,ffffffc050205abc <allocPgdir>
ffffffc050206cd4:	fea43023          	sd	a0,-32(s0)
ffffffc050206cd8:	fe043503          	ld	a0,-32(s0)
ffffffc050206cdc:	99bfe0ef          	jal	ra,ffffffc050205676 <kva2pa>
ffffffc050206ce0:	87aa                	mv	a5,a0
ffffffc050206ce2:	83b1                	srli	a5,a5,0xc
ffffffc050206ce4:	f8f43423          	sd	a5,-120(s0)
ffffffc050206ce8:	fd043783          	ld	a5,-48(s0)
ffffffc050206cec:	00379713          	slli	a4,a5,0x3
ffffffc050206cf0:	fe843783          	ld	a5,-24(s0)
ffffffc050206cf4:	97ba                	add	a5,a5,a4
ffffffc050206cf6:	f8843583          	ld	a1,-120(s0)
ffffffc050206cfa:	853e                	mv	a0,a5
ffffffc050206cfc:	a15fe0ef          	jal	ra,ffffffc050205710 <set_pfn>
ffffffc050206d00:	fd043783          	ld	a5,-48(s0)
ffffffc050206d04:	00379713          	slli	a4,a5,0x3
ffffffc050206d08:	fe843783          	ld	a5,-24(s0)
ffffffc050206d0c:	97ba                	add	a5,a5,a4
ffffffc050206d0e:	fc043583          	ld	a1,-64(s0)
ffffffc050206d12:	853e                	mv	a0,a5
ffffffc050206d14:	a37fe0ef          	jal	ra,ffffffc05020574a <set_attribute>
ffffffc050206d18:	fc843783          	ld	a5,-56(s0)
ffffffc050206d1c:	00379713          	slli	a4,a5,0x3
ffffffc050206d20:	fe043783          	ld	a5,-32(s0)
ffffffc050206d24:	97ba                	add	a5,a5,a4
ffffffc050206d26:	639c                	ld	a5,0(a5)
ffffffc050206d28:	f8f43023          	sd	a5,-128(s0)
ffffffc050206d2c:	f8043783          	ld	a5,-128(s0)
ffffffc050206d30:	8b85                	andi	a5,a5,1
ffffffc050206d32:	f6f43c23          	sd	a5,-136(s0)
ffffffc050206d36:	f7843783          	ld	a5,-136(s0)
ffffffc050206d3a:	cf81                	beqz	a5,ffffffc050206d52 <alloc_snp_page+0x1b8>
ffffffc050206d3c:	f8043503          	ld	a0,-128(s0)
ffffffc050206d40:	98ffe0ef          	jal	ra,ffffffc0502056ce <get_pa>
ffffffc050206d44:	87aa                	mv	a5,a0
ffffffc050206d46:	853e                	mv	a0,a5
ffffffc050206d48:	95bfe0ef          	jal	ra,ffffffc0502056a2 <pa2kva>
ffffffc050206d4c:	f6a43823          	sd	a0,-144(s0)
ffffffc050206d50:	a0a9                	j	ffffffc050206d9a <alloc_snp_page+0x200>
ffffffc050206d52:	f4043783          	ld	a5,-192(s0)
ffffffc050206d56:	f6f43823          	sd	a5,-144(s0)
ffffffc050206d5a:	f7043503          	ld	a0,-144(s0)
ffffffc050206d5e:	919fe0ef          	jal	ra,ffffffc050205676 <kva2pa>
ffffffc050206d62:	87aa                	mv	a5,a0
ffffffc050206d64:	83b1                	srli	a5,a5,0xc
ffffffc050206d66:	f6f43423          	sd	a5,-152(s0)
ffffffc050206d6a:	fc843783          	ld	a5,-56(s0)
ffffffc050206d6e:	00379713          	slli	a4,a5,0x3
ffffffc050206d72:	fe043783          	ld	a5,-32(s0)
ffffffc050206d76:	97ba                	add	a5,a5,a4
ffffffc050206d78:	f6843583          	ld	a1,-152(s0)
ffffffc050206d7c:	853e                	mv	a0,a5
ffffffc050206d7e:	993fe0ef          	jal	ra,ffffffc050205710 <set_pfn>
ffffffc050206d82:	fc843783          	ld	a5,-56(s0)
ffffffc050206d86:	00379713          	slli	a4,a5,0x3
ffffffc050206d8a:	fe043783          	ld	a5,-32(s0)
ffffffc050206d8e:	97ba                	add	a5,a5,a4
ffffffc050206d90:	fb843583          	ld	a1,-72(s0)
ffffffc050206d94:	853e                	mv	a0,a5
ffffffc050206d96:	9b5fe0ef          	jal	ra,ffffffc05020574a <set_attribute>
ffffffc050206d9a:	0001                	nop
ffffffc050206d9c:	70ea                	ld	ra,184(sp)
ffffffc050206d9e:	744a                	ld	s0,176(sp)
ffffffc050206da0:	6129                	addi	sp,sp,192
ffffffc050206da2:	8082                	ret

ffffffc050206da4 <find_valid_addr>:
ffffffc050206da4:	7119                	addi	sp,sp,-128
ffffffc050206da6:	fc86                	sd	ra,120(sp)
ffffffc050206da8:	f8a2                	sd	s0,112(sp)
ffffffc050206daa:	0100                	addi	s0,sp,128
ffffffc050206dac:	f8a43423          	sd	a0,-120(s0)
ffffffc050206db0:	00006797          	auipc	a5,0x6
ffffffc050206db4:	c7878793          	addi	a5,a5,-904 # ffffffc05020ca28 <shauserCurr>
ffffffc050206db8:	639c                	ld	a5,0(a5)
ffffffc050206dba:	fef43423          	sd	a5,-24(s0)
ffffffc050206dbe:	a8f5                	j	ffffffc050206eba <find_valid_addr+0x116>
ffffffc050206dc0:	fe843703          	ld	a4,-24(s0)
ffffffc050206dc4:	57fd                	li	a5,-1
ffffffc050206dc6:	83e5                	srli	a5,a5,0x19
ffffffc050206dc8:	8ff9                	and	a5,a5,a4
ffffffc050206dca:	fef43423          	sd	a5,-24(s0)
ffffffc050206dce:	fe843783          	ld	a5,-24(s0)
ffffffc050206dd2:	83f9                	srli	a5,a5,0x1e
ffffffc050206dd4:	fef43023          	sd	a5,-32(s0)
ffffffc050206dd8:	fe043783          	ld	a5,-32(s0)
ffffffc050206ddc:	00979713          	slli	a4,a5,0x9
ffffffc050206de0:	fe843783          	ld	a5,-24(s0)
ffffffc050206de4:	83d5                	srli	a5,a5,0x15
ffffffc050206de6:	8fb9                	xor	a5,a5,a4
ffffffc050206de8:	fcf43c23          	sd	a5,-40(s0)
ffffffc050206dec:	fe843783          	ld	a5,-24(s0)
ffffffc050206df0:	00c7d713          	srli	a4,a5,0xc
ffffffc050206df4:	fe043783          	ld	a5,-32(s0)
ffffffc050206df8:	07ca                	slli	a5,a5,0x12
ffffffc050206dfa:	8f3d                	xor	a4,a4,a5
ffffffc050206dfc:	fd843783          	ld	a5,-40(s0)
ffffffc050206e00:	07a6                	slli	a5,a5,0x9
ffffffc050206e02:	8fb9                	xor	a5,a5,a4
ffffffc050206e04:	fcf43823          	sd	a5,-48(s0)
ffffffc050206e08:	fe043783          	ld	a5,-32(s0)
ffffffc050206e0c:	00379713          	slli	a4,a5,0x3
ffffffc050206e10:	f8843783          	ld	a5,-120(s0)
ffffffc050206e14:	97ba                	add	a5,a5,a4
ffffffc050206e16:	639c                	ld	a5,0(a5)
ffffffc050206e18:	fcf43423          	sd	a5,-56(s0)
ffffffc050206e1c:	fc843783          	ld	a5,-56(s0)
ffffffc050206e20:	8b85                	andi	a5,a5,1
ffffffc050206e22:	fcf43023          	sd	a5,-64(s0)
ffffffc050206e26:	fc043783          	ld	a5,-64(s0)
ffffffc050206e2a:	e781                	bnez	a5,ffffffc050206e32 <find_valid_addr+0x8e>
ffffffc050206e2c:	fe843783          	ld	a5,-24(s0)
ffffffc050206e30:	a055                	j	ffffffc050206ed4 <find_valid_addr+0x130>
ffffffc050206e32:	fc843503          	ld	a0,-56(s0)
ffffffc050206e36:	899fe0ef          	jal	ra,ffffffc0502056ce <get_pa>
ffffffc050206e3a:	87aa                	mv	a5,a0
ffffffc050206e3c:	853e                	mv	a0,a5
ffffffc050206e3e:	865fe0ef          	jal	ra,ffffffc0502056a2 <pa2kva>
ffffffc050206e42:	faa43c23          	sd	a0,-72(s0)
ffffffc050206e46:	fd843783          	ld	a5,-40(s0)
ffffffc050206e4a:	00379713          	slli	a4,a5,0x3
ffffffc050206e4e:	fb843783          	ld	a5,-72(s0)
ffffffc050206e52:	97ba                	add	a5,a5,a4
ffffffc050206e54:	639c                	ld	a5,0(a5)
ffffffc050206e56:	faf43823          	sd	a5,-80(s0)
ffffffc050206e5a:	fb043783          	ld	a5,-80(s0)
ffffffc050206e5e:	8b85                	andi	a5,a5,1
ffffffc050206e60:	faf43423          	sd	a5,-88(s0)
ffffffc050206e64:	fa843783          	ld	a5,-88(s0)
ffffffc050206e68:	e781                	bnez	a5,ffffffc050206e70 <find_valid_addr+0xcc>
ffffffc050206e6a:	fe843783          	ld	a5,-24(s0)
ffffffc050206e6e:	a09d                	j	ffffffc050206ed4 <find_valid_addr+0x130>
ffffffc050206e70:	fb043503          	ld	a0,-80(s0)
ffffffc050206e74:	85bfe0ef          	jal	ra,ffffffc0502056ce <get_pa>
ffffffc050206e78:	87aa                	mv	a5,a0
ffffffc050206e7a:	853e                	mv	a0,a5
ffffffc050206e7c:	827fe0ef          	jal	ra,ffffffc0502056a2 <pa2kva>
ffffffc050206e80:	faa43023          	sd	a0,-96(s0)
ffffffc050206e84:	fd043783          	ld	a5,-48(s0)
ffffffc050206e88:	00379713          	slli	a4,a5,0x3
ffffffc050206e8c:	fa043783          	ld	a5,-96(s0)
ffffffc050206e90:	97ba                	add	a5,a5,a4
ffffffc050206e92:	639c                	ld	a5,0(a5)
ffffffc050206e94:	f8f43c23          	sd	a5,-104(s0)
ffffffc050206e98:	f9843783          	ld	a5,-104(s0)
ffffffc050206e9c:	8b85                	andi	a5,a5,1
ffffffc050206e9e:	f8f43823          	sd	a5,-112(s0)
ffffffc050206ea2:	f9043783          	ld	a5,-112(s0)
ffffffc050206ea6:	e781                	bnez	a5,ffffffc050206eae <find_valid_addr+0x10a>
ffffffc050206ea8:	fe843783          	ld	a5,-24(s0)
ffffffc050206eac:	a025                	j	ffffffc050206ed4 <find_valid_addr+0x130>
ffffffc050206eae:	fe843703          	ld	a4,-24(s0)
ffffffc050206eb2:	6785                	lui	a5,0x1
ffffffc050206eb4:	97ba                	add	a5,a5,a4
ffffffc050206eb6:	fef43423          	sd	a5,-24(s0)
ffffffc050206eba:	00006797          	auipc	a5,0x6
ffffffc050206ebe:	b6e78793          	addi	a5,a5,-1170 # ffffffc05020ca28 <shauserCurr>
ffffffc050206ec2:	6398                	ld	a4,0(a5)
ffffffc050206ec4:	001007b7          	lui	a5,0x100
ffffffc050206ec8:	97ba                	add	a5,a5,a4
ffffffc050206eca:	fe843703          	ld	a4,-24(s0)
ffffffc050206ece:	eef769e3          	bltu	a4,a5,ffffffc050206dc0 <find_valid_addr+0x1c>
ffffffc050206ed2:	4781                	li	a5,0
ffffffc050206ed4:	853e                	mv	a0,a5
ffffffc050206ed6:	70e6                	ld	ra,120(sp)
ffffffc050206ed8:	7446                	ld	s0,112(sp)
ffffffc050206eda:	6109                	addi	sp,sp,128
ffffffc050206edc:	8082                	ret

ffffffc050206ede <get_page_addr>:
ffffffc050206ede:	711d                	addi	sp,sp,-96
ffffffc050206ee0:	ec86                	sd	ra,88(sp)
ffffffc050206ee2:	e8a2                	sd	s0,80(sp)
ffffffc050206ee4:	1080                	addi	s0,sp,96
ffffffc050206ee6:	faa43423          	sd	a0,-88(s0)
ffffffc050206eea:	00055797          	auipc	a5,0x55
ffffffc050206eee:	22e78793          	addi	a5,a5,558 # ffffffc05025c118 <current_running>
ffffffc050206ef2:	639c                	ld	a5,0(a5)
ffffffc050206ef4:	6bdc                	ld	a5,144(a5)
ffffffc050206ef6:	fef43423          	sd	a5,-24(s0)
ffffffc050206efa:	fa843703          	ld	a4,-88(s0)
ffffffc050206efe:	57fd                	li	a5,-1
ffffffc050206f00:	83e5                	srli	a5,a5,0x19
ffffffc050206f02:	8ff9                	and	a5,a5,a4
ffffffc050206f04:	faf43423          	sd	a5,-88(s0)
ffffffc050206f08:	fa843783          	ld	a5,-88(s0)
ffffffc050206f0c:	83f9                	srli	a5,a5,0x1e
ffffffc050206f0e:	fef43023          	sd	a5,-32(s0)
ffffffc050206f12:	fe043783          	ld	a5,-32(s0)
ffffffc050206f16:	00979713          	slli	a4,a5,0x9
ffffffc050206f1a:	fa843783          	ld	a5,-88(s0)
ffffffc050206f1e:	83d5                	srli	a5,a5,0x15
ffffffc050206f20:	8fb9                	xor	a5,a5,a4
ffffffc050206f22:	fcf43c23          	sd	a5,-40(s0)
ffffffc050206f26:	fa843783          	ld	a5,-88(s0)
ffffffc050206f2a:	00c7d713          	srli	a4,a5,0xc
ffffffc050206f2e:	fe043783          	ld	a5,-32(s0)
ffffffc050206f32:	07ca                	slli	a5,a5,0x12
ffffffc050206f34:	8f3d                	xor	a4,a4,a5
ffffffc050206f36:	fd843783          	ld	a5,-40(s0)
ffffffc050206f3a:	07a6                	slli	a5,a5,0x9
ffffffc050206f3c:	8fb9                	xor	a5,a5,a4
ffffffc050206f3e:	fcf43823          	sd	a5,-48(s0)
ffffffc050206f42:	fe043783          	ld	a5,-32(s0)
ffffffc050206f46:	078e                	slli	a5,a5,0x3
ffffffc050206f48:	fe843703          	ld	a4,-24(s0)
ffffffc050206f4c:	97ba                	add	a5,a5,a4
ffffffc050206f4e:	639c                	ld	a5,0(a5)
ffffffc050206f50:	853e                	mv	a0,a5
ffffffc050206f52:	f7cfe0ef          	jal	ra,ffffffc0502056ce <get_pa>
ffffffc050206f56:	87aa                	mv	a5,a0
ffffffc050206f58:	853e                	mv	a0,a5
ffffffc050206f5a:	f48fe0ef          	jal	ra,ffffffc0502056a2 <pa2kva>
ffffffc050206f5e:	87aa                	mv	a5,a0
ffffffc050206f60:	fcf43423          	sd	a5,-56(s0)
ffffffc050206f64:	fd843783          	ld	a5,-40(s0)
ffffffc050206f68:	078e                	slli	a5,a5,0x3
ffffffc050206f6a:	fc843703          	ld	a4,-56(s0)
ffffffc050206f6e:	97ba                	add	a5,a5,a4
ffffffc050206f70:	639c                	ld	a5,0(a5)
ffffffc050206f72:	853e                	mv	a0,a5
ffffffc050206f74:	f5afe0ef          	jal	ra,ffffffc0502056ce <get_pa>
ffffffc050206f78:	87aa                	mv	a5,a0
ffffffc050206f7a:	853e                	mv	a0,a5
ffffffc050206f7c:	f26fe0ef          	jal	ra,ffffffc0502056a2 <pa2kva>
ffffffc050206f80:	87aa                	mv	a5,a0
ffffffc050206f82:	fcf43023          	sd	a5,-64(s0)
ffffffc050206f86:	fd043783          	ld	a5,-48(s0)
ffffffc050206f8a:	078e                	slli	a5,a5,0x3
ffffffc050206f8c:	fc043703          	ld	a4,-64(s0)
ffffffc050206f90:	97ba                	add	a5,a5,a4
ffffffc050206f92:	639c                	ld	a5,0(a5)
ffffffc050206f94:	83a9                	srli	a5,a5,0xa
ffffffc050206f96:	07b2                	slli	a5,a5,0xc
ffffffc050206f98:	faf43c23          	sd	a5,-72(s0)
ffffffc050206f9c:	fb843783          	ld	a5,-72(s0)
ffffffc050206fa0:	853e                	mv	a0,a5
ffffffc050206fa2:	60e6                	ld	ra,88(sp)
ffffffc050206fa4:	6446                	ld	s0,80(sp)
ffffffc050206fa6:	6125                	addi	sp,sp,96
ffffffc050206fa8:	8082                	ret

ffffffc050206faa <check_if_snp>:
ffffffc050206faa:	7119                	addi	sp,sp,-128
ffffffc050206fac:	fc86                	sd	ra,120(sp)
ffffffc050206fae:	f8a2                	sd	s0,112(sp)
ffffffc050206fb0:	0100                	addi	s0,sp,128
ffffffc050206fb2:	f8a43423          	sd	a0,-120(s0)
ffffffc050206fb6:	f8b43023          	sd	a1,-128(s0)
ffffffc050206fba:	f8843703          	ld	a4,-120(s0)
ffffffc050206fbe:	57fd                	li	a5,-1
ffffffc050206fc0:	83e5                	srli	a5,a5,0x19
ffffffc050206fc2:	8ff9                	and	a5,a5,a4
ffffffc050206fc4:	f8f43423          	sd	a5,-120(s0)
ffffffc050206fc8:	f8843783          	ld	a5,-120(s0)
ffffffc050206fcc:	83f9                	srli	a5,a5,0x1e
ffffffc050206fce:	fef43423          	sd	a5,-24(s0)
ffffffc050206fd2:	fe843783          	ld	a5,-24(s0)
ffffffc050206fd6:	00979713          	slli	a4,a5,0x9
ffffffc050206fda:	f8843783          	ld	a5,-120(s0)
ffffffc050206fde:	83d5                	srli	a5,a5,0x15
ffffffc050206fe0:	8fb9                	xor	a5,a5,a4
ffffffc050206fe2:	fef43023          	sd	a5,-32(s0)
ffffffc050206fe6:	f8843783          	ld	a5,-120(s0)
ffffffc050206fea:	00c7d713          	srli	a4,a5,0xc
ffffffc050206fee:	fe843783          	ld	a5,-24(s0)
ffffffc050206ff2:	07ca                	slli	a5,a5,0x12
ffffffc050206ff4:	8f3d                	xor	a4,a4,a5
ffffffc050206ff6:	fe043783          	ld	a5,-32(s0)
ffffffc050206ffa:	07a6                	slli	a5,a5,0x9
ffffffc050206ffc:	8fb9                	xor	a5,a5,a4
ffffffc050206ffe:	fcf43c23          	sd	a5,-40(s0)
ffffffc050207002:	fe843783          	ld	a5,-24(s0)
ffffffc050207006:	00379713          	slli	a4,a5,0x3
ffffffc05020700a:	f8043783          	ld	a5,-128(s0)
ffffffc05020700e:	97ba                	add	a5,a5,a4
ffffffc050207010:	639c                	ld	a5,0(a5)
ffffffc050207012:	fcf43823          	sd	a5,-48(s0)
ffffffc050207016:	fd043783          	ld	a5,-48(s0)
ffffffc05020701a:	8b85                	andi	a5,a5,1
ffffffc05020701c:	fcf43423          	sd	a5,-56(s0)
ffffffc050207020:	fc843783          	ld	a5,-56(s0)
ffffffc050207024:	e399                	bnez	a5,ffffffc05020702a <check_if_snp+0x80>
ffffffc050207026:	4781                	li	a5,0
ffffffc050207028:	a841                	j	ffffffc0502070b8 <check_if_snp+0x10e>
ffffffc05020702a:	fd043503          	ld	a0,-48(s0)
ffffffc05020702e:	ea0fe0ef          	jal	ra,ffffffc0502056ce <get_pa>
ffffffc050207032:	87aa                	mv	a5,a0
ffffffc050207034:	853e                	mv	a0,a5
ffffffc050207036:	e6cfe0ef          	jal	ra,ffffffc0502056a2 <pa2kva>
ffffffc05020703a:	fca43023          	sd	a0,-64(s0)
ffffffc05020703e:	fe043783          	ld	a5,-32(s0)
ffffffc050207042:	00379713          	slli	a4,a5,0x3
ffffffc050207046:	fc043783          	ld	a5,-64(s0)
ffffffc05020704a:	97ba                	add	a5,a5,a4
ffffffc05020704c:	639c                	ld	a5,0(a5)
ffffffc05020704e:	faf43c23          	sd	a5,-72(s0)
ffffffc050207052:	fb843783          	ld	a5,-72(s0)
ffffffc050207056:	8b85                	andi	a5,a5,1
ffffffc050207058:	faf43823          	sd	a5,-80(s0)
ffffffc05020705c:	fb043783          	ld	a5,-80(s0)
ffffffc050207060:	e399                	bnez	a5,ffffffc050207066 <check_if_snp+0xbc>
ffffffc050207062:	4781                	li	a5,0
ffffffc050207064:	a891                	j	ffffffc0502070b8 <check_if_snp+0x10e>
ffffffc050207066:	fb843503          	ld	a0,-72(s0)
ffffffc05020706a:	e64fe0ef          	jal	ra,ffffffc0502056ce <get_pa>
ffffffc05020706e:	87aa                	mv	a5,a0
ffffffc050207070:	853e                	mv	a0,a5
ffffffc050207072:	e30fe0ef          	jal	ra,ffffffc0502056a2 <pa2kva>
ffffffc050207076:	faa43423          	sd	a0,-88(s0)
ffffffc05020707a:	fd843783          	ld	a5,-40(s0)
ffffffc05020707e:	00379713          	slli	a4,a5,0x3
ffffffc050207082:	fa843783          	ld	a5,-88(s0)
ffffffc050207086:	97ba                	add	a5,a5,a4
ffffffc050207088:	639c                	ld	a5,0(a5)
ffffffc05020708a:	faf43023          	sd	a5,-96(s0)
ffffffc05020708e:	fa043783          	ld	a5,-96(s0)
ffffffc050207092:	8b85                	andi	a5,a5,1
ffffffc050207094:	f8f43c23          	sd	a5,-104(s0)
ffffffc050207098:	fa043783          	ld	a5,-96(s0)
ffffffc05020709c:	8b91                	andi	a5,a5,4
ffffffc05020709e:	f8f43823          	sd	a5,-112(s0)
ffffffc0502070a2:	f9843703          	ld	a4,-104(s0)
ffffffc0502070a6:	4785                	li	a5,1
ffffffc0502070a8:	00f71763          	bne	a4,a5,ffffffc0502070b6 <check_if_snp+0x10c>
ffffffc0502070ac:	f9043783          	ld	a5,-112(s0)
ffffffc0502070b0:	e399                	bnez	a5,ffffffc0502070b6 <check_if_snp+0x10c>
ffffffc0502070b2:	4785                	li	a5,1
ffffffc0502070b4:	a011                	j	ffffffc0502070b8 <check_if_snp+0x10e>
ffffffc0502070b6:	4781                	li	a5,0
ffffffc0502070b8:	853e                	mv	a0,a5
ffffffc0502070ba:	70e6                	ld	ra,120(sp)
ffffffc0502070bc:	7446                	ld	s0,112(sp)
ffffffc0502070be:	6109                	addi	sp,sp,128
ffffffc0502070c0:	8082                	ret

ffffffc0502070c2 <make_page_valid>:
ffffffc0502070c2:	715d                	addi	sp,sp,-80
ffffffc0502070c4:	e486                	sd	ra,72(sp)
ffffffc0502070c6:	e0a2                	sd	s0,64(sp)
ffffffc0502070c8:	0880                	addi	s0,sp,80
ffffffc0502070ca:	faa43c23          	sd	a0,-72(s0)
ffffffc0502070ce:	fab43823          	sd	a1,-80(s0)
ffffffc0502070d2:	fb843703          	ld	a4,-72(s0)
ffffffc0502070d6:	57fd                	li	a5,-1
ffffffc0502070d8:	83e5                	srli	a5,a5,0x19
ffffffc0502070da:	8ff9                	and	a5,a5,a4
ffffffc0502070dc:	faf43c23          	sd	a5,-72(s0)
ffffffc0502070e0:	fb043783          	ld	a5,-80(s0)
ffffffc0502070e4:	fef43423          	sd	a5,-24(s0)
ffffffc0502070e8:	fb843783          	ld	a5,-72(s0)
ffffffc0502070ec:	83f9                	srli	a5,a5,0x1e
ffffffc0502070ee:	fef43023          	sd	a5,-32(s0)
ffffffc0502070f2:	fe043783          	ld	a5,-32(s0)
ffffffc0502070f6:	00979713          	slli	a4,a5,0x9
ffffffc0502070fa:	fb843783          	ld	a5,-72(s0)
ffffffc0502070fe:	83d5                	srli	a5,a5,0x15
ffffffc050207100:	8fb9                	xor	a5,a5,a4
ffffffc050207102:	fcf43c23          	sd	a5,-40(s0)
ffffffc050207106:	fb843783          	ld	a5,-72(s0)
ffffffc05020710a:	00c7d713          	srli	a4,a5,0xc
ffffffc05020710e:	fe043783          	ld	a5,-32(s0)
ffffffc050207112:	07ca                	slli	a5,a5,0x12
ffffffc050207114:	8f3d                	xor	a4,a4,a5
ffffffc050207116:	fd843783          	ld	a5,-40(s0)
ffffffc05020711a:	07a6                	slli	a5,a5,0x9
ffffffc05020711c:	8fb9                	xor	a5,a5,a4
ffffffc05020711e:	fcf43823          	sd	a5,-48(s0)
ffffffc050207122:	fe043783          	ld	a5,-32(s0)
ffffffc050207126:	078e                	slli	a5,a5,0x3
ffffffc050207128:	fe843703          	ld	a4,-24(s0)
ffffffc05020712c:	97ba                	add	a5,a5,a4
ffffffc05020712e:	639c                	ld	a5,0(a5)
ffffffc050207130:	853e                	mv	a0,a5
ffffffc050207132:	d9cfe0ef          	jal	ra,ffffffc0502056ce <get_pa>
ffffffc050207136:	87aa                	mv	a5,a0
ffffffc050207138:	853e                	mv	a0,a5
ffffffc05020713a:	d68fe0ef          	jal	ra,ffffffc0502056a2 <pa2kva>
ffffffc05020713e:	87aa                	mv	a5,a0
ffffffc050207140:	fcf43423          	sd	a5,-56(s0)
ffffffc050207144:	fd843783          	ld	a5,-40(s0)
ffffffc050207148:	078e                	slli	a5,a5,0x3
ffffffc05020714a:	fc843703          	ld	a4,-56(s0)
ffffffc05020714e:	97ba                	add	a5,a5,a4
ffffffc050207150:	639c                	ld	a5,0(a5)
ffffffc050207152:	853e                	mv	a0,a5
ffffffc050207154:	d7afe0ef          	jal	ra,ffffffc0502056ce <get_pa>
ffffffc050207158:	87aa                	mv	a5,a0
ffffffc05020715a:	853e                	mv	a0,a5
ffffffc05020715c:	d46fe0ef          	jal	ra,ffffffc0502056a2 <pa2kva>
ffffffc050207160:	87aa                	mv	a5,a0
ffffffc050207162:	fcf43023          	sd	a5,-64(s0)
ffffffc050207166:	fd043783          	ld	a5,-48(s0)
ffffffc05020716a:	078e                	slli	a5,a5,0x3
ffffffc05020716c:	fc043703          	ld	a4,-64(s0)
ffffffc050207170:	97ba                	add	a5,a5,a4
ffffffc050207172:	4581                	li	a1,0
ffffffc050207174:	853e                	mv	a0,a5
ffffffc050207176:	dd4fe0ef          	jal	ra,ffffffc05020574a <set_attribute>
ffffffc05020717a:	0001                	nop
ffffffc05020717c:	60a6                	ld	ra,72(sp)
ffffffc05020717e:	6406                	ld	s0,64(sp)
ffffffc050207180:	6161                	addi	sp,sp,80
ffffffc050207182:	8082                	ret

ffffffc050207184 <local_flush_tlb_all>:
ffffffc050207184:	1141                	addi	sp,sp,-16
ffffffc050207186:	e422                	sd	s0,8(sp)
ffffffc050207188:	0800                	addi	s0,sp,16
ffffffc05020718a:	12000073          	sfence.vma
ffffffc05020718e:	0001                	nop
ffffffc050207190:	6422                	ld	s0,8(sp)
ffffffc050207192:	0141                	addi	sp,sp,16
ffffffc050207194:	8082                	ret

ffffffc050207196 <kva2pa>:
ffffffc050207196:	7179                	addi	sp,sp,-48
ffffffc050207198:	f422                	sd	s0,40(sp)
ffffffc05020719a:	1800                	addi	s0,sp,48
ffffffc05020719c:	fca43c23          	sd	a0,-40(s0)
ffffffc0502071a0:	57fd                	li	a5,-1
ffffffc0502071a2:	9381                	srli	a5,a5,0x20
ffffffc0502071a4:	fef43423          	sd	a5,-24(s0)
ffffffc0502071a8:	fd843703          	ld	a4,-40(s0)
ffffffc0502071ac:	fe843783          	ld	a5,-24(s0)
ffffffc0502071b0:	8ff9                	and	a5,a5,a4
ffffffc0502071b2:	fef43023          	sd	a5,-32(s0)
ffffffc0502071b6:	fe043783          	ld	a5,-32(s0)
ffffffc0502071ba:	853e                	mv	a0,a5
ffffffc0502071bc:	7422                	ld	s0,40(sp)
ffffffc0502071be:	6145                	addi	sp,sp,48
ffffffc0502071c0:	8082                	ret

ffffffc0502071c2 <pa2kva>:
ffffffc0502071c2:	7179                	addi	sp,sp,-48
ffffffc0502071c4:	f422                	sd	s0,40(sp)
ffffffc0502071c6:	1800                	addi	s0,sp,48
ffffffc0502071c8:	fca43c23          	sd	a0,-40(s0)
ffffffc0502071cc:	57fd                	li	a5,-1
ffffffc0502071ce:	179a                	slli	a5,a5,0x26
ffffffc0502071d0:	fef43423          	sd	a5,-24(s0)
ffffffc0502071d4:	fd843703          	ld	a4,-40(s0)
ffffffc0502071d8:	fe843783          	ld	a5,-24(s0)
ffffffc0502071dc:	8fd9                	or	a5,a5,a4
ffffffc0502071de:	fef43023          	sd	a5,-32(s0)
ffffffc0502071e2:	fe043783          	ld	a5,-32(s0)
ffffffc0502071e6:	853e                	mv	a0,a5
ffffffc0502071e8:	7422                	ld	s0,40(sp)
ffffffc0502071ea:	6145                	addi	sp,sp,48
ffffffc0502071ec:	8082                	ret

ffffffc0502071ee <get_pa>:
ffffffc0502071ee:	7179                	addi	sp,sp,-48
ffffffc0502071f0:	f422                	sd	s0,40(sp)
ffffffc0502071f2:	1800                	addi	s0,sp,48
ffffffc0502071f4:	fca43c23          	sd	a0,-40(s0)
ffffffc0502071f8:	fd843783          	ld	a5,-40(s0)
ffffffc0502071fc:	83a9                	srli	a5,a5,0xa
ffffffc0502071fe:	07b2                	slli	a5,a5,0xc
ffffffc050207200:	fef43423          	sd	a5,-24(s0)
ffffffc050207204:	fe843783          	ld	a5,-24(s0)
ffffffc050207208:	853e                	mv	a0,a5
ffffffc05020720a:	7422                	ld	s0,40(sp)
ffffffc05020720c:	6145                	addi	sp,sp,48
ffffffc05020720e:	8082                	ret

ffffffc050207210 <set_pfn>:
ffffffc050207210:	1101                	addi	sp,sp,-32
ffffffc050207212:	ec22                	sd	s0,24(sp)
ffffffc050207214:	1000                	addi	s0,sp,32
ffffffc050207216:	fea43423          	sd	a0,-24(s0)
ffffffc05020721a:	feb43023          	sd	a1,-32(s0)
ffffffc05020721e:	fe843783          	ld	a5,-24(s0)
ffffffc050207222:	639c                	ld	a5,0(a5)
ffffffc050207224:	1ff7f713          	andi	a4,a5,511
ffffffc050207228:	fe843783          	ld	a5,-24(s0)
ffffffc05020722c:	e398                	sd	a4,0(a5)
ffffffc05020722e:	fe843783          	ld	a5,-24(s0)
ffffffc050207232:	6398                	ld	a4,0(a5)
ffffffc050207234:	fe043783          	ld	a5,-32(s0)
ffffffc050207238:	07aa                	slli	a5,a5,0xa
ffffffc05020723a:	8f5d                	or	a4,a4,a5
ffffffc05020723c:	fe843783          	ld	a5,-24(s0)
ffffffc050207240:	e398                	sd	a4,0(a5)
ffffffc050207242:	0001                	nop
ffffffc050207244:	6462                	ld	s0,24(sp)
ffffffc050207246:	6105                	addi	sp,sp,32
ffffffc050207248:	8082                	ret

ffffffc05020724a <set_attribute>:
ffffffc05020724a:	7179                	addi	sp,sp,-48
ffffffc05020724c:	f422                	sd	s0,40(sp)
ffffffc05020724e:	1800                	addi	s0,sp,48
ffffffc050207250:	fca43c23          	sd	a0,-40(s0)
ffffffc050207254:	fcb43823          	sd	a1,-48(s0)
ffffffc050207258:	fd843783          	ld	a5,-40(s0)
ffffffc05020725c:	639c                	ld	a5,0(a5)
ffffffc05020725e:	c007f793          	andi	a5,a5,-1024
ffffffc050207262:	fef43423          	sd	a5,-24(s0)
ffffffc050207266:	fe843703          	ld	a4,-24(s0)
ffffffc05020726a:	fd043783          	ld	a5,-48(s0)
ffffffc05020726e:	8f5d                	or	a4,a4,a5
ffffffc050207270:	fd843783          	ld	a5,-40(s0)
ffffffc050207274:	e398                	sd	a4,0(a5)
ffffffc050207276:	0001                	nop
ffffffc050207278:	7422                	ld	s0,40(sp)
ffffffc05020727a:	6145                	addi	sp,sp,48
ffffffc05020727c:	8082                	ret

ffffffc05020727e <clear_pgdir>:
ffffffc05020727e:	7179                	addi	sp,sp,-48
ffffffc050207280:	f422                	sd	s0,40(sp)
ffffffc050207282:	1800                	addi	s0,sp,48
ffffffc050207284:	fca43c23          	sd	a0,-40(s0)
ffffffc050207288:	fd843783          	ld	a5,-40(s0)
ffffffc05020728c:	fef43023          	sd	a5,-32(s0)
ffffffc050207290:	fe042623          	sw	zero,-20(s0)
ffffffc050207294:	a831                	j	ffffffc0502072b0 <clear_pgdir+0x32>
ffffffc050207296:	fec42783          	lw	a5,-20(s0)
ffffffc05020729a:	078e                	slli	a5,a5,0x3
ffffffc05020729c:	fe043703          	ld	a4,-32(s0)
ffffffc0502072a0:	97ba                	add	a5,a5,a4
ffffffc0502072a2:	0007b023          	sd	zero,0(a5)
ffffffc0502072a6:	fec42783          	lw	a5,-20(s0)
ffffffc0502072aa:	2785                	addiw	a5,a5,1
ffffffc0502072ac:	fef42623          	sw	a5,-20(s0)
ffffffc0502072b0:	fec42783          	lw	a5,-20(s0)
ffffffc0502072b4:	0007871b          	sext.w	a4,a5
ffffffc0502072b8:	1ff00793          	li	a5,511
ffffffc0502072bc:	fce7dde3          	bge	a5,a4,ffffffc050207296 <clear_pgdir+0x18>
ffffffc0502072c0:	0001                	nop
ffffffc0502072c2:	0001                	nop
ffffffc0502072c4:	7422                	ld	s0,40(sp)
ffffffc0502072c6:	6145                	addi	sp,sp,48
ffffffc0502072c8:	8082                	ret

ffffffc0502072ca <alloc_page_v>:
ffffffc0502072ca:	1141                	addi	sp,sp,-16
ffffffc0502072cc:	e422                	sd	s0,8(sp)
ffffffc0502072ce:	0800                	addi	s0,sp,16
ffffffc0502072d0:	00005797          	auipc	a5,0x5
ffffffc0502072d4:	77078793          	addi	a5,a5,1904 # ffffffc05020ca40 <pg_base.1330>
ffffffc0502072d8:	6398                	ld	a4,0(a5)
ffffffc0502072da:	6785                	lui	a5,0x1
ffffffc0502072dc:	973e                	add	a4,a4,a5
ffffffc0502072de:	00005797          	auipc	a5,0x5
ffffffc0502072e2:	76278793          	addi	a5,a5,1890 # ffffffc05020ca40 <pg_base.1330>
ffffffc0502072e6:	e398                	sd	a4,0(a5)
ffffffc0502072e8:	00005797          	auipc	a5,0x5
ffffffc0502072ec:	75878793          	addi	a5,a5,1880 # ffffffc05020ca40 <pg_base.1330>
ffffffc0502072f0:	639c                	ld	a5,0(a5)
ffffffc0502072f2:	853e                	mv	a0,a5
ffffffc0502072f4:	6422                	ld	s0,8(sp)
ffffffc0502072f6:	0141                	addi	sp,sp,16
ffffffc0502072f8:	8082                	ret

ffffffc0502072fa <map_page_v>:
ffffffc0502072fa:	711d                	addi	sp,sp,-96
ffffffc0502072fc:	ec86                	sd	ra,88(sp)
ffffffc0502072fe:	e8a2                	sd	s0,80(sp)
ffffffc050207300:	e4a6                	sd	s1,72(sp)
ffffffc050207302:	1080                	addi	s0,sp,96
ffffffc050207304:	faa43c23          	sd	a0,-72(s0)
ffffffc050207308:	fab43823          	sd	a1,-80(s0)
ffffffc05020730c:	fac43423          	sd	a2,-88(s0)
ffffffc050207310:	fb843703          	ld	a4,-72(s0)
ffffffc050207314:	57fd                	li	a5,-1
ffffffc050207316:	83e5                	srli	a5,a5,0x19
ffffffc050207318:	8ff9                	and	a5,a5,a4
ffffffc05020731a:	faf43c23          	sd	a5,-72(s0)
ffffffc05020731e:	fb843783          	ld	a5,-72(s0)
ffffffc050207322:	83f9                	srli	a5,a5,0x1e
ffffffc050207324:	fcf43c23          	sd	a5,-40(s0)
ffffffc050207328:	fd843783          	ld	a5,-40(s0)
ffffffc05020732c:	00979713          	slli	a4,a5,0x9
ffffffc050207330:	fb843783          	ld	a5,-72(s0)
ffffffc050207334:	83d5                	srli	a5,a5,0x15
ffffffc050207336:	8fb9                	xor	a5,a5,a4
ffffffc050207338:	fcf43823          	sd	a5,-48(s0)
ffffffc05020733c:	fa843783          	ld	a5,-88(s0)
ffffffc050207340:	fcf43423          	sd	a5,-56(s0)
ffffffc050207344:	fd843783          	ld	a5,-40(s0)
ffffffc050207348:	078e                	slli	a5,a5,0x3
ffffffc05020734a:	fc843703          	ld	a4,-56(s0)
ffffffc05020734e:	97ba                	add	a5,a5,a4
ffffffc050207350:	639c                	ld	a5,0(a5)
ffffffc050207352:	e3a5                	bnez	a5,ffffffc0502073b2 <map_page_v+0xb8>
ffffffc050207354:	fd843783          	ld	a5,-40(s0)
ffffffc050207358:	078e                	slli	a5,a5,0x3
ffffffc05020735a:	fc843703          	ld	a4,-56(s0)
ffffffc05020735e:	00f704b3          	add	s1,a4,a5
ffffffc050207362:	f69ff0ef          	jal	ra,ffffffc0502072ca <alloc_page_v>
ffffffc050207366:	87aa                	mv	a5,a0
ffffffc050207368:	853e                	mv	a0,a5
ffffffc05020736a:	e2dff0ef          	jal	ra,ffffffc050207196 <kva2pa>
ffffffc05020736e:	87aa                	mv	a5,a0
ffffffc050207370:	83b1                	srli	a5,a5,0xc
ffffffc050207372:	85be                	mv	a1,a5
ffffffc050207374:	8526                	mv	a0,s1
ffffffc050207376:	e9bff0ef          	jal	ra,ffffffc050207210 <set_pfn>
ffffffc05020737a:	fd843783          	ld	a5,-40(s0)
ffffffc05020737e:	078e                	slli	a5,a5,0x3
ffffffc050207380:	fc843703          	ld	a4,-56(s0)
ffffffc050207384:	97ba                	add	a5,a5,a4
ffffffc050207386:	4585                	li	a1,1
ffffffc050207388:	853e                	mv	a0,a5
ffffffc05020738a:	ec1ff0ef          	jal	ra,ffffffc05020724a <set_attribute>
ffffffc05020738e:	fd843783          	ld	a5,-40(s0)
ffffffc050207392:	078e                	slli	a5,a5,0x3
ffffffc050207394:	fc843703          	ld	a4,-56(s0)
ffffffc050207398:	97ba                	add	a5,a5,a4
ffffffc05020739a:	639c                	ld	a5,0(a5)
ffffffc05020739c:	853e                	mv	a0,a5
ffffffc05020739e:	e51ff0ef          	jal	ra,ffffffc0502071ee <get_pa>
ffffffc0502073a2:	87aa                	mv	a5,a0
ffffffc0502073a4:	853e                	mv	a0,a5
ffffffc0502073a6:	e1dff0ef          	jal	ra,ffffffc0502071c2 <pa2kva>
ffffffc0502073aa:	87aa                	mv	a5,a0
ffffffc0502073ac:	853e                	mv	a0,a5
ffffffc0502073ae:	ed1ff0ef          	jal	ra,ffffffc05020727e <clear_pgdir>
ffffffc0502073b2:	fd843783          	ld	a5,-40(s0)
ffffffc0502073b6:	078e                	slli	a5,a5,0x3
ffffffc0502073b8:	fc843703          	ld	a4,-56(s0)
ffffffc0502073bc:	97ba                	add	a5,a5,a4
ffffffc0502073be:	639c                	ld	a5,0(a5)
ffffffc0502073c0:	853e                	mv	a0,a5
ffffffc0502073c2:	e2dff0ef          	jal	ra,ffffffc0502071ee <get_pa>
ffffffc0502073c6:	87aa                	mv	a5,a0
ffffffc0502073c8:	853e                	mv	a0,a5
ffffffc0502073ca:	df9ff0ef          	jal	ra,ffffffc0502071c2 <pa2kva>
ffffffc0502073ce:	87aa                	mv	a5,a0
ffffffc0502073d0:	fcf43023          	sd	a5,-64(s0)
ffffffc0502073d4:	fd043783          	ld	a5,-48(s0)
ffffffc0502073d8:	078e                	slli	a5,a5,0x3
ffffffc0502073da:	fc043703          	ld	a4,-64(s0)
ffffffc0502073de:	973e                	add	a4,a4,a5
ffffffc0502073e0:	fb043783          	ld	a5,-80(s0)
ffffffc0502073e4:	83b1                	srli	a5,a5,0xc
ffffffc0502073e6:	85be                	mv	a1,a5
ffffffc0502073e8:	853a                	mv	a0,a4
ffffffc0502073ea:	e27ff0ef          	jal	ra,ffffffc050207210 <set_pfn>
ffffffc0502073ee:	fd043783          	ld	a5,-48(s0)
ffffffc0502073f2:	078e                	slli	a5,a5,0x3
ffffffc0502073f4:	fc043703          	ld	a4,-64(s0)
ffffffc0502073f8:	97ba                	add	a5,a5,a4
ffffffc0502073fa:	0cf00593          	li	a1,207
ffffffc0502073fe:	853e                	mv	a0,a5
ffffffc050207400:	e4bff0ef          	jal	ra,ffffffc05020724a <set_attribute>
ffffffc050207404:	0001                	nop
ffffffc050207406:	60e6                	ld	ra,88(sp)
ffffffc050207408:	6446                	ld	s0,80(sp)
ffffffc05020740a:	64a6                	ld	s1,72(sp)
ffffffc05020740c:	6125                	addi	sp,sp,96
ffffffc05020740e:	8082                	ret

ffffffc050207410 <ioremap>:
ffffffc050207410:	715d                	addi	sp,sp,-80
ffffffc050207412:	e486                	sd	ra,72(sp)
ffffffc050207414:	e0a2                	sd	s0,64(sp)
ffffffc050207416:	0880                	addi	s0,sp,80
ffffffc050207418:	faa43c23          	sd	a0,-72(s0)
ffffffc05020741c:	fab43823          	sd	a1,-80(s0)
ffffffc050207420:	fb043783          	ld	a5,-80(s0)
ffffffc050207424:	83d5                	srli	a5,a5,0x15
ffffffc050207426:	fb043683          	ld	a3,-80(s0)
ffffffc05020742a:	00200737          	lui	a4,0x200
ffffffc05020742e:	177d                	addi	a4,a4,-1
ffffffc050207430:	8f75                	and	a4,a4,a3
ffffffc050207432:	00e03733          	snez	a4,a4
ffffffc050207436:	0ff77713          	andi	a4,a4,255
ffffffc05020743a:	97ba                	add	a5,a5,a4
ffffffc05020743c:	07d6                	slli	a5,a5,0x15
ffffffc05020743e:	fcf43c23          	sd	a5,-40(s0)
ffffffc050207442:	00005797          	auipc	a5,0x5
ffffffc050207446:	5ee78793          	addi	a5,a5,1518 # ffffffc05020ca30 <io_base>
ffffffc05020744a:	639c                	ld	a5,0(a5)
ffffffc05020744c:	fcf43823          	sd	a5,-48(s0)
ffffffc050207450:	fd043783          	ld	a5,-48(s0)
ffffffc050207454:	fef43423          	sd	a5,-24(s0)
ffffffc050207458:	fb843783          	ld	a5,-72(s0)
ffffffc05020745c:	fef43023          	sd	a5,-32(s0)
ffffffc050207460:	00005797          	auipc	a5,0x5
ffffffc050207464:	5d078793          	addi	a5,a5,1488 # ffffffc05020ca30 <io_base>
ffffffc050207468:	6398                	ld	a4,0(a5)
ffffffc05020746a:	fd843783          	ld	a5,-40(s0)
ffffffc05020746e:	973e                	add	a4,a4,a5
ffffffc050207470:	00005797          	auipc	a5,0x5
ffffffc050207474:	5c078793          	addi	a5,a5,1472 # ffffffc05020ca30 <io_base>
ffffffc050207478:	e398                	sd	a4,0(a5)
ffffffc05020747a:	fc0517b7          	lui	a5,0xfc051
ffffffc05020747e:	07b2                	slli	a5,a5,0xc
ffffffc050207480:	fcf43423          	sd	a5,-56(s0)
ffffffc050207484:	a03d                	j	ffffffc0502074b2 <ioremap+0xa2>
ffffffc050207486:	fc843603          	ld	a2,-56(s0)
ffffffc05020748a:	fe043583          	ld	a1,-32(s0)
ffffffc05020748e:	fe843503          	ld	a0,-24(s0)
ffffffc050207492:	e69ff0ef          	jal	ra,ffffffc0502072fa <map_page_v>
ffffffc050207496:	fe843703          	ld	a4,-24(s0)
ffffffc05020749a:	002007b7          	lui	a5,0x200
ffffffc05020749e:	97ba                	add	a5,a5,a4
ffffffc0502074a0:	fef43423          	sd	a5,-24(s0)
ffffffc0502074a4:	fe043703          	ld	a4,-32(s0)
ffffffc0502074a8:	002007b7          	lui	a5,0x200
ffffffc0502074ac:	97ba                	add	a5,a5,a4
ffffffc0502074ae:	fef43023          	sd	a5,-32(s0)
ffffffc0502074b2:	00005797          	auipc	a5,0x5
ffffffc0502074b6:	57e78793          	addi	a5,a5,1406 # ffffffc05020ca30 <io_base>
ffffffc0502074ba:	639c                	ld	a5,0(a5)
ffffffc0502074bc:	fe843703          	ld	a4,-24(s0)
ffffffc0502074c0:	fcf763e3          	bltu	a4,a5,ffffffc050207486 <ioremap+0x76>
ffffffc0502074c4:	cc1ff0ef          	jal	ra,ffffffc050207184 <local_flush_tlb_all>
ffffffc0502074c8:	fd043783          	ld	a5,-48(s0)
ffffffc0502074cc:	853e                	mv	a0,a5
ffffffc0502074ce:	60a6                	ld	ra,72(sp)
ffffffc0502074d0:	6406                	ld	s0,64(sp)
ffffffc0502074d2:	6161                	addi	sp,sp,80
ffffffc0502074d4:	8082                	ret

ffffffc0502074d6 <iounmap>:
ffffffc0502074d6:	1101                	addi	sp,sp,-32
ffffffc0502074d8:	ec22                	sd	s0,24(sp)
ffffffc0502074da:	1000                	addi	s0,sp,32
ffffffc0502074dc:	fea43423          	sd	a0,-24(s0)
ffffffc0502074e0:	0001                	nop
ffffffc0502074e2:	6462                	ld	s0,24(sp)
ffffffc0502074e4:	6105                	addi	sp,sp,32
ffffffc0502074e6:	8082                	ret

ffffffc0502074e8 <Dequeue>:
ffffffc0502074e8:	7139                	addi	sp,sp,-64
ffffffc0502074ea:	fc22                	sd	s0,56(sp)
ffffffc0502074ec:	0080                	addi	s0,sp,64
ffffffc0502074ee:	fca43423          	sd	a0,-56(s0)
ffffffc0502074f2:	fc843783          	ld	a5,-56(s0)
ffffffc0502074f6:	679c                	ld	a5,8(a5)
ffffffc0502074f8:	fef43423          	sd	a5,-24(s0)
ffffffc0502074fc:	fc843783          	ld	a5,-56(s0)
ffffffc050207500:	639c                	ld	a5,0(a5)
ffffffc050207502:	fef43023          	sd	a5,-32(s0)
ffffffc050207506:	fe843703          	ld	a4,-24(s0)
ffffffc05020750a:	fc843783          	ld	a5,-56(s0)
ffffffc05020750e:	00f71a63          	bne	a4,a5,ffffffc050207522 <Dequeue+0x3a>
ffffffc050207512:	fe043703          	ld	a4,-32(s0)
ffffffc050207516:	fc843783          	ld	a5,-56(s0)
ffffffc05020751a:	00f71463          	bne	a4,a5,ffffffc050207522 <Dequeue+0x3a>
ffffffc05020751e:	4781                	li	a5,0
ffffffc050207520:	a0b1                	j	ffffffc05020756c <Dequeue+0x84>
ffffffc050207522:	fe043703          	ld	a4,-32(s0)
ffffffc050207526:	fe843783          	ld	a5,-24(s0)
ffffffc05020752a:	02f71063          	bne	a4,a5,ffffffc05020754a <Dequeue+0x62>
ffffffc05020752e:	fc843783          	ld	a5,-56(s0)
ffffffc050207532:	fc843703          	ld	a4,-56(s0)
ffffffc050207536:	e398                	sd	a4,0(a5)
ffffffc050207538:	fc843783          	ld	a5,-56(s0)
ffffffc05020753c:	6398                	ld	a4,0(a5)
ffffffc05020753e:	fc843783          	ld	a5,-56(s0)
ffffffc050207542:	e798                	sd	a4,8(a5)
ffffffc050207544:	fe043783          	ld	a5,-32(s0)
ffffffc050207548:	a015                	j	ffffffc05020756c <Dequeue+0x84>
ffffffc05020754a:	fe043783          	ld	a5,-32(s0)
ffffffc05020754e:	679c                	ld	a5,8(a5)
ffffffc050207550:	fcf43c23          	sd	a5,-40(s0)
ffffffc050207554:	fd843783          	ld	a5,-40(s0)
ffffffc050207558:	fc843703          	ld	a4,-56(s0)
ffffffc05020755c:	e398                	sd	a4,0(a5)
ffffffc05020755e:	fc843783          	ld	a5,-56(s0)
ffffffc050207562:	fd843703          	ld	a4,-40(s0)
ffffffc050207566:	e398                	sd	a4,0(a5)
ffffffc050207568:	fe043783          	ld	a5,-32(s0)
ffffffc05020756c:	853e                	mv	a0,a5
ffffffc05020756e:	7462                	ld	s0,56(sp)
ffffffc050207570:	6121                	addi	sp,sp,64
ffffffc050207572:	8082                	ret

ffffffc050207574 <Enqueue>:
ffffffc050207574:	7179                	addi	sp,sp,-48
ffffffc050207576:	f422                	sd	s0,40(sp)
ffffffc050207578:	1800                	addi	s0,sp,48
ffffffc05020757a:	fca43c23          	sd	a0,-40(s0)
ffffffc05020757e:	fcb43823          	sd	a1,-48(s0)
ffffffc050207582:	fd843783          	ld	a5,-40(s0)
ffffffc050207586:	679c                	ld	a5,8(a5)
ffffffc050207588:	fef43423          	sd	a5,-24(s0)
ffffffc05020758c:	fd843783          	ld	a5,-40(s0)
ffffffc050207590:	639c                	ld	a5,0(a5)
ffffffc050207592:	fef43023          	sd	a5,-32(s0)
ffffffc050207596:	fe843703          	ld	a4,-24(s0)
ffffffc05020759a:	fd843783          	ld	a5,-40(s0)
ffffffc05020759e:	02f71f63          	bne	a4,a5,ffffffc0502075dc <Enqueue+0x68>
ffffffc0502075a2:	fe043703          	ld	a4,-32(s0)
ffffffc0502075a6:	fd843783          	ld	a5,-40(s0)
ffffffc0502075aa:	02f71963          	bne	a4,a5,ffffffc0502075dc <Enqueue+0x68>
ffffffc0502075ae:	fd843783          	ld	a5,-40(s0)
ffffffc0502075b2:	fd043703          	ld	a4,-48(s0)
ffffffc0502075b6:	e398                	sd	a4,0(a5)
ffffffc0502075b8:	fd843783          	ld	a5,-40(s0)
ffffffc0502075bc:	6398                	ld	a4,0(a5)
ffffffc0502075be:	fd843783          	ld	a5,-40(s0)
ffffffc0502075c2:	e798                	sd	a4,8(a5)
ffffffc0502075c4:	fd043783          	ld	a5,-48(s0)
ffffffc0502075c8:	fd843703          	ld	a4,-40(s0)
ffffffc0502075cc:	e398                	sd	a4,0(a5)
ffffffc0502075ce:	fd043783          	ld	a5,-48(s0)
ffffffc0502075d2:	6398                	ld	a4,0(a5)
ffffffc0502075d4:	fd043783          	ld	a5,-48(s0)
ffffffc0502075d8:	e798                	sd	a4,8(a5)
ffffffc0502075da:	a035                	j	ffffffc050207606 <Enqueue+0x92>
ffffffc0502075dc:	fd843783          	ld	a5,-40(s0)
ffffffc0502075e0:	fd043703          	ld	a4,-48(s0)
ffffffc0502075e4:	e798                	sd	a4,8(a5)
ffffffc0502075e6:	fd043783          	ld	a5,-48(s0)
ffffffc0502075ea:	fe843703          	ld	a4,-24(s0)
ffffffc0502075ee:	e398                	sd	a4,0(a5)
ffffffc0502075f0:	fd043783          	ld	a5,-48(s0)
ffffffc0502075f4:	fd843703          	ld	a4,-40(s0)
ffffffc0502075f8:	e798                	sd	a4,8(a5)
ffffffc0502075fa:	fe843783          	ld	a5,-24(s0)
ffffffc0502075fe:	fd043703          	ld	a4,-48(s0)
ffffffc050207602:	e798                	sd	a4,8(a5)
ffffffc050207604:	0001                	nop
ffffffc050207606:	0001                	nop
ffffffc050207608:	7422                	ld	s0,40(sp)
ffffffc05020760a:	6145                	addi	sp,sp,48
ffffffc05020760c:	8082                	ret

ffffffc05020760e <init_queue>:
ffffffc05020760e:	1101                	addi	sp,sp,-32
ffffffc050207610:	ec22                	sd	s0,24(sp)
ffffffc050207612:	1000                	addi	s0,sp,32
ffffffc050207614:	fea43423          	sd	a0,-24(s0)
ffffffc050207618:	fe843783          	ld	a5,-24(s0)
ffffffc05020761c:	fe843703          	ld	a4,-24(s0)
ffffffc050207620:	e798                	sd	a4,8(a5)
ffffffc050207622:	fe843783          	ld	a5,-24(s0)
ffffffc050207626:	fe843703          	ld	a4,-24(s0)
ffffffc05020762a:	e398                	sd	a4,0(a5)
ffffffc05020762c:	0001                	nop
ffffffc05020762e:	6462                	ld	s0,24(sp)
ffffffc050207630:	6105                	addi	sp,sp,32
ffffffc050207632:	8082                	ret

ffffffc050207634 <init_locks>:
ffffffc050207634:	1141                	addi	sp,sp,-16
ffffffc050207636:	e422                	sd	s0,8(sp)
ffffffc050207638:	0800                	addi	s0,sp,16
ffffffc05020763a:	0001                	nop
ffffffc05020763c:	6422                	ld	s0,8(sp)
ffffffc05020763e:	0141                	addi	sp,sp,16
ffffffc050207640:	8082                	ret

ffffffc050207642 <spin_lock_init>:
ffffffc050207642:	1101                	addi	sp,sp,-32
ffffffc050207644:	ec22                	sd	s0,24(sp)
ffffffc050207646:	1000                	addi	s0,sp,32
ffffffc050207648:	fea43423          	sd	a0,-24(s0)
ffffffc05020764c:	fe843783          	ld	a5,-24(s0)
ffffffc050207650:	0007a023          	sw	zero,0(a5)
ffffffc050207654:	0001                	nop
ffffffc050207656:	6462                	ld	s0,24(sp)
ffffffc050207658:	6105                	addi	sp,sp,32
ffffffc05020765a:	8082                	ret

ffffffc05020765c <spin_lock_try_acquire>:
ffffffc05020765c:	1101                	addi	sp,sp,-32
ffffffc05020765e:	ec22                	sd	s0,24(sp)
ffffffc050207660:	1000                	addi	s0,sp,32
ffffffc050207662:	fea43423          	sd	a0,-24(s0)
ffffffc050207666:	fe843783          	ld	a5,-24(s0)
ffffffc05020766a:	439c                	lw	a5,0(a5)
ffffffc05020766c:	2781                	sext.w	a5,a5
ffffffc05020766e:	0017b793          	seqz	a5,a5
ffffffc050207672:	0ff7f793          	andi	a5,a5,255
ffffffc050207676:	2781                	sext.w	a5,a5
ffffffc050207678:	853e                	mv	a0,a5
ffffffc05020767a:	6462                	ld	s0,24(sp)
ffffffc05020767c:	6105                	addi	sp,sp,32
ffffffc05020767e:	8082                	ret

ffffffc050207680 <spin_lock_acquire>:
ffffffc050207680:	1101                	addi	sp,sp,-32
ffffffc050207682:	ec22                	sd	s0,24(sp)
ffffffc050207684:	1000                	addi	s0,sp,32
ffffffc050207686:	fea43423          	sd	a0,-24(s0)
ffffffc05020768a:	fe843783          	ld	a5,-24(s0)
ffffffc05020768e:	4705                	li	a4,1
ffffffc050207690:	c398                	sw	a4,0(a5)
ffffffc050207692:	0001                	nop
ffffffc050207694:	6462                	ld	s0,24(sp)
ffffffc050207696:	6105                	addi	sp,sp,32
ffffffc050207698:	8082                	ret

ffffffc05020769a <spin_lock_release>:
ffffffc05020769a:	1101                	addi	sp,sp,-32
ffffffc05020769c:	ec22                	sd	s0,24(sp)
ffffffc05020769e:	1000                	addi	s0,sp,32
ffffffc0502076a0:	fea43423          	sd	a0,-24(s0)
ffffffc0502076a4:	fe843783          	ld	a5,-24(s0)
ffffffc0502076a8:	0007a023          	sw	zero,0(a5)
ffffffc0502076ac:	0001                	nop
ffffffc0502076ae:	6462                	ld	s0,24(sp)
ffffffc0502076b0:	6105                	addi	sp,sp,32
ffffffc0502076b2:	8082                	ret

ffffffc0502076b4 <do_mutex_lock_init>:
ffffffc0502076b4:	7179                	addi	sp,sp,-48
ffffffc0502076b6:	f406                	sd	ra,40(sp)
ffffffc0502076b8:	f022                	sd	s0,32(sp)
ffffffc0502076ba:	1800                	addi	s0,sp,48
ffffffc0502076bc:	87aa                	mv	a5,a0
ffffffc0502076be:	fcf42e23          	sw	a5,-36(s0)
ffffffc0502076c2:	fdc42703          	lw	a4,-36(s0)
ffffffc0502076c6:	41f7579b          	sraiw	a5,a4,0x1f
ffffffc0502076ca:	01a7d79b          	srliw	a5,a5,0x1a
ffffffc0502076ce:	9f3d                	addw	a4,a4,a5
ffffffc0502076d0:	03f77713          	andi	a4,a4,63
ffffffc0502076d4:	40f707bb          	subw	a5,a4,a5
ffffffc0502076d8:	fef42623          	sw	a5,-20(s0)
ffffffc0502076dc:	00050717          	auipc	a4,0x50
ffffffc0502076e0:	62c70713          	addi	a4,a4,1580 # ffffffc050257d08 <mlocks>
ffffffc0502076e4:	fec42783          	lw	a5,-20(s0)
ffffffc0502076e8:	0796                	slli	a5,a5,0x5
ffffffc0502076ea:	97ba                	add	a5,a5,a4
ffffffc0502076ec:	fdc42703          	lw	a4,-36(s0)
ffffffc0502076f0:	cf98                	sw	a4,24(a5)
ffffffc0502076f2:	fec42783          	lw	a5,-20(s0)
ffffffc0502076f6:	00579713          	slli	a4,a5,0x5
ffffffc0502076fa:	00050797          	auipc	a5,0x50
ffffffc0502076fe:	60e78793          	addi	a5,a5,1550 # ffffffc050257d08 <mlocks>
ffffffc050207702:	97ba                	add	a5,a5,a4
ffffffc050207704:	07a1                	addi	a5,a5,8
ffffffc050207706:	fef43023          	sd	a5,-32(s0)
ffffffc05020770a:	00050717          	auipc	a4,0x50
ffffffc05020770e:	5fe70713          	addi	a4,a4,1534 # ffffffc050257d08 <mlocks>
ffffffc050207712:	fec42783          	lw	a5,-20(s0)
ffffffc050207716:	0796                	slli	a5,a5,0x5
ffffffc050207718:	97ba                	add	a5,a5,a4
ffffffc05020771a:	fe043703          	ld	a4,-32(s0)
ffffffc05020771e:	eb98                	sd	a4,16(a5)
ffffffc050207720:	00050717          	auipc	a4,0x50
ffffffc050207724:	5e870713          	addi	a4,a4,1512 # ffffffc050257d08 <mlocks>
ffffffc050207728:	fec42783          	lw	a5,-20(s0)
ffffffc05020772c:	0796                	slli	a5,a5,0x5
ffffffc05020772e:	97ba                	add	a5,a5,a4
ffffffc050207730:	fe043703          	ld	a4,-32(s0)
ffffffc050207734:	e798                	sd	a4,8(a5)
ffffffc050207736:	fec42783          	lw	a5,-20(s0)
ffffffc05020773a:	00579713          	slli	a4,a5,0x5
ffffffc05020773e:	00050797          	auipc	a5,0x50
ffffffc050207742:	5ca78793          	addi	a5,a5,1482 # ffffffc050257d08 <mlocks>
ffffffc050207746:	97ba                	add	a5,a5,a4
ffffffc050207748:	853e                	mv	a0,a5
ffffffc05020774a:	ef9ff0ef          	jal	ra,ffffffc050207642 <spin_lock_init>
ffffffc05020774e:	fec42783          	lw	a5,-20(s0)
ffffffc050207752:	853e                	mv	a0,a5
ffffffc050207754:	70a2                	ld	ra,40(sp)
ffffffc050207756:	7402                	ld	s0,32(sp)
ffffffc050207758:	6145                	addi	sp,sp,48
ffffffc05020775a:	8082                	ret

ffffffc05020775c <do_mutex_lock_acquire>:
ffffffc05020775c:	7179                	addi	sp,sp,-48
ffffffc05020775e:	f406                	sd	ra,40(sp)
ffffffc050207760:	f022                	sd	s0,32(sp)
ffffffc050207762:	1800                	addi	s0,sp,48
ffffffc050207764:	87aa                	mv	a5,a0
ffffffc050207766:	fcf42e23          	sw	a5,-36(s0)
ffffffc05020776a:	fdc42783          	lw	a5,-36(s0)
ffffffc05020776e:	00579713          	slli	a4,a5,0x5
ffffffc050207772:	00050797          	auipc	a5,0x50
ffffffc050207776:	59678793          	addi	a5,a5,1430 # ffffffc050257d08 <mlocks>
ffffffc05020777a:	97ba                	add	a5,a5,a4
ffffffc05020777c:	853e                	mv	a0,a5
ffffffc05020777e:	edfff0ef          	jal	ra,ffffffc05020765c <spin_lock_try_acquire>
ffffffc050207782:	87aa                	mv	a5,a0
ffffffc050207784:	cba5                	beqz	a5,ffffffc0502077f4 <do_mutex_lock_acquire+0x98>
ffffffc050207786:	fdc42783          	lw	a5,-36(s0)
ffffffc05020778a:	00579713          	slli	a4,a5,0x5
ffffffc05020778e:	00050797          	auipc	a5,0x50
ffffffc050207792:	57a78793          	addi	a5,a5,1402 # ffffffc050257d08 <mlocks>
ffffffc050207796:	97ba                	add	a5,a5,a4
ffffffc050207798:	853e                	mv	a0,a5
ffffffc05020779a:	ee7ff0ef          	jal	ra,ffffffc050207680 <spin_lock_acquire>
ffffffc05020779e:	fe042623          	sw	zero,-20(s0)
ffffffc0502077a2:	a089                	j	ffffffc0502077e4 <do_mutex_lock_acquire+0x88>
ffffffc0502077a4:	00055797          	auipc	a5,0x55
ffffffc0502077a8:	97478793          	addi	a5,a5,-1676 # ffffffc05025c118 <current_running>
ffffffc0502077ac:	6398                	ld	a4,0(a5)
ffffffc0502077ae:	fec42783          	lw	a5,-20(s0)
ffffffc0502077b2:	07e1                	addi	a5,a5,24
ffffffc0502077b4:	078a                	slli	a5,a5,0x2
ffffffc0502077b6:	97ba                	add	a5,a5,a4
ffffffc0502077b8:	439c                	lw	a5,0(a5)
ffffffc0502077ba:	e385                	bnez	a5,ffffffc0502077da <do_mutex_lock_acquire+0x7e>
ffffffc0502077bc:	00055797          	auipc	a5,0x55
ffffffc0502077c0:	95c78793          	addi	a5,a5,-1700 # ffffffc05025c118 <current_running>
ffffffc0502077c4:	6398                	ld	a4,0(a5)
ffffffc0502077c6:	fec42783          	lw	a5,-20(s0)
ffffffc0502077ca:	07e1                	addi	a5,a5,24
ffffffc0502077cc:	078a                	slli	a5,a5,0x2
ffffffc0502077ce:	97ba                	add	a5,a5,a4
ffffffc0502077d0:	fdc42703          	lw	a4,-36(s0)
ffffffc0502077d4:	c398                	sw	a4,0(a5)
ffffffc0502077d6:	0001                	nop
ffffffc0502077d8:	a881                	j	ffffffc050207828 <do_mutex_lock_acquire+0xcc>
ffffffc0502077da:	fec42783          	lw	a5,-20(s0)
ffffffc0502077de:	2785                	addiw	a5,a5,1
ffffffc0502077e0:	fef42623          	sw	a5,-20(s0)
ffffffc0502077e4:	fec42783          	lw	a5,-20(s0)
ffffffc0502077e8:	0007871b          	sext.w	a4,a5
ffffffc0502077ec:	47a5                	li	a5,9
ffffffc0502077ee:	fae7dbe3          	bge	a5,a4,ffffffc0502077a4 <do_mutex_lock_acquire+0x48>
ffffffc0502077f2:	a81d                	j	ffffffc050207828 <do_mutex_lock_acquire+0xcc>
ffffffc0502077f4:	00055797          	auipc	a5,0x55
ffffffc0502077f8:	92478793          	addi	a5,a5,-1756 # ffffffc05025c118 <current_running>
ffffffc0502077fc:	639c                	ld	a5,0(a5)
ffffffc0502077fe:	01078693          	addi	a3,a5,16
ffffffc050207802:	fdc42783          	lw	a5,-36(s0)
ffffffc050207806:	00579713          	slli	a4,a5,0x5
ffffffc05020780a:	00050797          	auipc	a5,0x50
ffffffc05020780e:	4fe78793          	addi	a5,a5,1278 # ffffffc050257d08 <mlocks>
ffffffc050207812:	97ba                	add	a5,a5,a4
ffffffc050207814:	07a1                	addi	a5,a5,8
ffffffc050207816:	85be                	mv	a1,a5
ffffffc050207818:	8536                	mv	a0,a3
ffffffc05020781a:	457010ef          	jal	ra,ffffffc050209470 <do_block>
ffffffc05020781e:	fdc42783          	lw	a5,-36(s0)
ffffffc050207822:	853e                	mv	a0,a5
ffffffc050207824:	f39ff0ef          	jal	ra,ffffffc05020775c <do_mutex_lock_acquire>
ffffffc050207828:	0001                	nop
ffffffc05020782a:	70a2                	ld	ra,40(sp)
ffffffc05020782c:	7402                	ld	s0,32(sp)
ffffffc05020782e:	6145                	addi	sp,sp,48
ffffffc050207830:	8082                	ret

ffffffc050207832 <do_mutex_lock_release>:
ffffffc050207832:	7179                	addi	sp,sp,-48
ffffffc050207834:	f406                	sd	ra,40(sp)
ffffffc050207836:	f022                	sd	s0,32(sp)
ffffffc050207838:	1800                	addi	s0,sp,48
ffffffc05020783a:	87aa                	mv	a5,a0
ffffffc05020783c:	fcf42e23          	sw	a5,-36(s0)
ffffffc050207840:	fe042623          	sw	zero,-20(s0)
ffffffc050207844:	a099                	j	ffffffc05020788a <do_mutex_lock_release+0x58>
ffffffc050207846:	00055797          	auipc	a5,0x55
ffffffc05020784a:	8d278793          	addi	a5,a5,-1838 # ffffffc05025c118 <current_running>
ffffffc05020784e:	6398                	ld	a4,0(a5)
ffffffc050207850:	fec42783          	lw	a5,-20(s0)
ffffffc050207854:	07e1                	addi	a5,a5,24
ffffffc050207856:	078a                	slli	a5,a5,0x2
ffffffc050207858:	97ba                	add	a5,a5,a4
ffffffc05020785a:	4398                	lw	a4,0(a5)
ffffffc05020785c:	fdc42783          	lw	a5,-36(s0)
ffffffc050207860:	2781                	sext.w	a5,a5
ffffffc050207862:	00e79f63          	bne	a5,a4,ffffffc050207880 <do_mutex_lock_release+0x4e>
ffffffc050207866:	00055797          	auipc	a5,0x55
ffffffc05020786a:	8b278793          	addi	a5,a5,-1870 # ffffffc05025c118 <current_running>
ffffffc05020786e:	6398                	ld	a4,0(a5)
ffffffc050207870:	fec42783          	lw	a5,-20(s0)
ffffffc050207874:	07e1                	addi	a5,a5,24
ffffffc050207876:	078a                	slli	a5,a5,0x2
ffffffc050207878:	97ba                	add	a5,a5,a4
ffffffc05020787a:	0007a023          	sw	zero,0(a5)
ffffffc05020787e:	a829                	j	ffffffc050207898 <do_mutex_lock_release+0x66>
ffffffc050207880:	fec42783          	lw	a5,-20(s0)
ffffffc050207884:	2785                	addiw	a5,a5,1
ffffffc050207886:	fef42623          	sw	a5,-20(s0)
ffffffc05020788a:	fec42783          	lw	a5,-20(s0)
ffffffc05020788e:	0007871b          	sext.w	a4,a5
ffffffc050207892:	47a5                	li	a5,9
ffffffc050207894:	fae7d9e3          	bge	a5,a4,ffffffc050207846 <do_mutex_lock_release+0x14>
ffffffc050207898:	fdc42783          	lw	a5,-36(s0)
ffffffc05020789c:	00579713          	slli	a4,a5,0x5
ffffffc0502078a0:	00050797          	auipc	a5,0x50
ffffffc0502078a4:	46878793          	addi	a5,a5,1128 # ffffffc050257d08 <mlocks>
ffffffc0502078a8:	97ba                	add	a5,a5,a4
ffffffc0502078aa:	853e                	mv	a0,a5
ffffffc0502078ac:	defff0ef          	jal	ra,ffffffc05020769a <spin_lock_release>
ffffffc0502078b0:	fdc42783          	lw	a5,-36(s0)
ffffffc0502078b4:	00579713          	slli	a4,a5,0x5
ffffffc0502078b8:	00050797          	auipc	a5,0x50
ffffffc0502078bc:	45078793          	addi	a5,a5,1104 # ffffffc050257d08 <mlocks>
ffffffc0502078c0:	97ba                	add	a5,a5,a4
ffffffc0502078c2:	07a1                	addi	a5,a5,8
ffffffc0502078c4:	853e                	mv	a0,a5
ffffffc0502078c6:	3e7010ef          	jal	ra,ffffffc0502094ac <do_unblock>
ffffffc0502078ca:	0001                	nop
ffffffc0502078cc:	70a2                	ld	ra,40(sp)
ffffffc0502078ce:	7402                	ld	s0,32(sp)
ffffffc0502078d0:	6145                	addi	sp,sp,48
ffffffc0502078d2:	8082                	ret

ffffffc0502078d4 <kill_process_lock_release>:
ffffffc0502078d4:	1101                	addi	sp,sp,-32
ffffffc0502078d6:	ec06                	sd	ra,24(sp)
ffffffc0502078d8:	e822                	sd	s0,16(sp)
ffffffc0502078da:	1000                	addi	s0,sp,32
ffffffc0502078dc:	87aa                	mv	a5,a0
ffffffc0502078de:	fef42623          	sw	a5,-20(s0)
ffffffc0502078e2:	fec42783          	lw	a5,-20(s0)
ffffffc0502078e6:	00579713          	slli	a4,a5,0x5
ffffffc0502078ea:	00050797          	auipc	a5,0x50
ffffffc0502078ee:	41e78793          	addi	a5,a5,1054 # ffffffc050257d08 <mlocks>
ffffffc0502078f2:	97ba                	add	a5,a5,a4
ffffffc0502078f4:	853e                	mv	a0,a5
ffffffc0502078f6:	da5ff0ef          	jal	ra,ffffffc05020769a <spin_lock_release>
ffffffc0502078fa:	fec42783          	lw	a5,-20(s0)
ffffffc0502078fe:	00579713          	slli	a4,a5,0x5
ffffffc050207902:	00050797          	auipc	a5,0x50
ffffffc050207906:	40678793          	addi	a5,a5,1030 # ffffffc050257d08 <mlocks>
ffffffc05020790a:	97ba                	add	a5,a5,a4
ffffffc05020790c:	07a1                	addi	a5,a5,8
ffffffc05020790e:	853e                	mv	a0,a5
ffffffc050207910:	39d010ef          	jal	ra,ffffffc0502094ac <do_unblock>
ffffffc050207914:	0001                	nop
ffffffc050207916:	60e2                	ld	ra,24(sp)
ffffffc050207918:	6442                	ld	s0,16(sp)
ffffffc05020791a:	6105                	addi	sp,sp,32
ffffffc05020791c:	8082                	ret

ffffffc05020791e <do_barrier_init>:
ffffffc05020791e:	7179                	addi	sp,sp,-48
ffffffc050207920:	f406                	sd	ra,40(sp)
ffffffc050207922:	f022                	sd	s0,32(sp)
ffffffc050207924:	1800                	addi	s0,sp,48
ffffffc050207926:	87aa                	mv	a5,a0
ffffffc050207928:	872e                	mv	a4,a1
ffffffc05020792a:	fcf42e23          	sw	a5,-36(s0)
ffffffc05020792e:	87ba                	mv	a5,a4
ffffffc050207930:	fcf42c23          	sw	a5,-40(s0)
ffffffc050207934:	fdc42703          	lw	a4,-36(s0)
ffffffc050207938:	41f7579b          	sraiw	a5,a4,0x1f
ffffffc05020793c:	01a7d79b          	srliw	a5,a5,0x1a
ffffffc050207940:	9f3d                	addw	a4,a4,a5
ffffffc050207942:	03f77713          	andi	a4,a4,63
ffffffc050207946:	40f707bb          	subw	a5,a4,a5
ffffffc05020794a:	fef42623          	sw	a5,-20(s0)
ffffffc05020794e:	00051697          	auipc	a3,0x51
ffffffc050207952:	bba68693          	addi	a3,a3,-1094 # ffffffc050258508 <barriers>
ffffffc050207956:	fec42703          	lw	a4,-20(s0)
ffffffc05020795a:	87ba                	mv	a5,a4
ffffffc05020795c:	0786                	slli	a5,a5,0x1
ffffffc05020795e:	97ba                	add	a5,a5,a4
ffffffc050207960:	078e                	slli	a5,a5,0x3
ffffffc050207962:	97b6                	add	a5,a5,a3
ffffffc050207964:	fd842703          	lw	a4,-40(s0)
ffffffc050207968:	c3d8                	sw	a4,4(a5)
ffffffc05020796a:	00051697          	auipc	a3,0x51
ffffffc05020796e:	b9e68693          	addi	a3,a3,-1122 # ffffffc050258508 <barriers>
ffffffc050207972:	fec42703          	lw	a4,-20(s0)
ffffffc050207976:	87ba                	mv	a5,a4
ffffffc050207978:	0786                	slli	a5,a5,0x1
ffffffc05020797a:	97ba                	add	a5,a5,a4
ffffffc05020797c:	078e                	slli	a5,a5,0x3
ffffffc05020797e:	97b6                	add	a5,a5,a3
ffffffc050207980:	0007a023          	sw	zero,0(a5)
ffffffc050207984:	fec42703          	lw	a4,-20(s0)
ffffffc050207988:	87ba                	mv	a5,a4
ffffffc05020798a:	0786                	slli	a5,a5,0x1
ffffffc05020798c:	97ba                	add	a5,a5,a4
ffffffc05020798e:	078e                	slli	a5,a5,0x3
ffffffc050207990:	00051717          	auipc	a4,0x51
ffffffc050207994:	b7870713          	addi	a4,a4,-1160 # ffffffc050258508 <barriers>
ffffffc050207998:	97ba                	add	a5,a5,a4
ffffffc05020799a:	07a1                	addi	a5,a5,8
ffffffc05020799c:	853e                	mv	a0,a5
ffffffc05020799e:	c71ff0ef          	jal	ra,ffffffc05020760e <init_queue>
ffffffc0502079a2:	fec42783          	lw	a5,-20(s0)
ffffffc0502079a6:	853e                	mv	a0,a5
ffffffc0502079a8:	70a2                	ld	ra,40(sp)
ffffffc0502079aa:	7402                	ld	s0,32(sp)
ffffffc0502079ac:	6145                	addi	sp,sp,48
ffffffc0502079ae:	8082                	ret

ffffffc0502079b0 <do_barrier_wait>:
ffffffc0502079b0:	7179                	addi	sp,sp,-48
ffffffc0502079b2:	f406                	sd	ra,40(sp)
ffffffc0502079b4:	f022                	sd	s0,32(sp)
ffffffc0502079b6:	1800                	addi	s0,sp,48
ffffffc0502079b8:	87aa                	mv	a5,a0
ffffffc0502079ba:	fcf42e23          	sw	a5,-36(s0)
ffffffc0502079be:	00051697          	auipc	a3,0x51
ffffffc0502079c2:	b4a68693          	addi	a3,a3,-1206 # ffffffc050258508 <barriers>
ffffffc0502079c6:	fdc42703          	lw	a4,-36(s0)
ffffffc0502079ca:	87ba                	mv	a5,a4
ffffffc0502079cc:	0786                	slli	a5,a5,0x1
ffffffc0502079ce:	97ba                	add	a5,a5,a4
ffffffc0502079d0:	078e                	slli	a5,a5,0x3
ffffffc0502079d2:	97b6                	add	a5,a5,a3
ffffffc0502079d4:	439c                	lw	a5,0(a5)
ffffffc0502079d6:	2785                	addiw	a5,a5,1
ffffffc0502079d8:	0007869b          	sext.w	a3,a5
ffffffc0502079dc:	00051617          	auipc	a2,0x51
ffffffc0502079e0:	b2c60613          	addi	a2,a2,-1236 # ffffffc050258508 <barriers>
ffffffc0502079e4:	fdc42703          	lw	a4,-36(s0)
ffffffc0502079e8:	87ba                	mv	a5,a4
ffffffc0502079ea:	0786                	slli	a5,a5,0x1
ffffffc0502079ec:	97ba                	add	a5,a5,a4
ffffffc0502079ee:	078e                	slli	a5,a5,0x3
ffffffc0502079f0:	97b2                	add	a5,a5,a2
ffffffc0502079f2:	c394                	sw	a3,0(a5)
ffffffc0502079f4:	00051697          	auipc	a3,0x51
ffffffc0502079f8:	b1468693          	addi	a3,a3,-1260 # ffffffc050258508 <barriers>
ffffffc0502079fc:	fdc42703          	lw	a4,-36(s0)
ffffffc050207a00:	87ba                	mv	a5,a4
ffffffc050207a02:	0786                	slli	a5,a5,0x1
ffffffc050207a04:	97ba                	add	a5,a5,a4
ffffffc050207a06:	078e                	slli	a5,a5,0x3
ffffffc050207a08:	97b6                	add	a5,a5,a3
ffffffc050207a0a:	4390                	lw	a2,0(a5)
ffffffc050207a0c:	00051697          	auipc	a3,0x51
ffffffc050207a10:	afc68693          	addi	a3,a3,-1284 # ffffffc050258508 <barriers>
ffffffc050207a14:	fdc42703          	lw	a4,-36(s0)
ffffffc050207a18:	87ba                	mv	a5,a4
ffffffc050207a1a:	0786                	slli	a5,a5,0x1
ffffffc050207a1c:	97ba                	add	a5,a5,a4
ffffffc050207a1e:	078e                	slli	a5,a5,0x3
ffffffc050207a20:	97b6                	add	a5,a5,a3
ffffffc050207a22:	43dc                	lw	a5,4(a5)
ffffffc050207a24:	8732                	mv	a4,a2
ffffffc050207a26:	06f71a63          	bne	a4,a5,ffffffc050207a9a <do_barrier_wait+0xea>
ffffffc050207a2a:	a035                	j	ffffffc050207a56 <do_barrier_wait+0xa6>
ffffffc050207a2c:	fe843783          	ld	a5,-24(s0)
ffffffc050207a30:	17c1                	addi	a5,a5,-16
ffffffc050207a32:	fef43023          	sd	a5,-32(s0)
ffffffc050207a36:	fe043783          	ld	a5,-32(s0)
ffffffc050207a3a:	5f9c                	lw	a5,56(a5)
ffffffc050207a3c:	ef89                	bnez	a5,ffffffc050207a56 <do_barrier_wait+0xa6>
ffffffc050207a3e:	fe043783          	ld	a5,-32(s0)
ffffffc050207a42:	4709                	li	a4,2
ffffffc050207a44:	df98                	sw	a4,56(a5)
ffffffc050207a46:	fe843583          	ld	a1,-24(s0)
ffffffc050207a4a:	00005517          	auipc	a0,0x5
ffffffc050207a4e:	f2650513          	addi	a0,a0,-218 # ffffffc05020c970 <ready_queue>
ffffffc050207a52:	b23ff0ef          	jal	ra,ffffffc050207574 <Enqueue>
ffffffc050207a56:	fdc42703          	lw	a4,-36(s0)
ffffffc050207a5a:	87ba                	mv	a5,a4
ffffffc050207a5c:	0786                	slli	a5,a5,0x1
ffffffc050207a5e:	97ba                	add	a5,a5,a4
ffffffc050207a60:	078e                	slli	a5,a5,0x3
ffffffc050207a62:	00051717          	auipc	a4,0x51
ffffffc050207a66:	aa670713          	addi	a4,a4,-1370 # ffffffc050258508 <barriers>
ffffffc050207a6a:	97ba                	add	a5,a5,a4
ffffffc050207a6c:	07a1                	addi	a5,a5,8
ffffffc050207a6e:	853e                	mv	a0,a5
ffffffc050207a70:	a79ff0ef          	jal	ra,ffffffc0502074e8 <Dequeue>
ffffffc050207a74:	fea43423          	sd	a0,-24(s0)
ffffffc050207a78:	fe843783          	ld	a5,-24(s0)
ffffffc050207a7c:	fbc5                	bnez	a5,ffffffc050207a2c <do_barrier_wait+0x7c>
ffffffc050207a7e:	00051697          	auipc	a3,0x51
ffffffc050207a82:	a8a68693          	addi	a3,a3,-1398 # ffffffc050258508 <barriers>
ffffffc050207a86:	fdc42703          	lw	a4,-36(s0)
ffffffc050207a8a:	87ba                	mv	a5,a4
ffffffc050207a8c:	0786                	slli	a5,a5,0x1
ffffffc050207a8e:	97ba                	add	a5,a5,a4
ffffffc050207a90:	078e                	slli	a5,a5,0x3
ffffffc050207a92:	97b6                	add	a5,a5,a3
ffffffc050207a94:	0007a023          	sw	zero,0(a5)
ffffffc050207a98:	a089                	j	ffffffc050207ada <do_barrier_wait+0x12a>
ffffffc050207a9a:	00054797          	auipc	a5,0x54
ffffffc050207a9e:	67e78793          	addi	a5,a5,1662 # ffffffc05025c118 <current_running>
ffffffc050207aa2:	639c                	ld	a5,0(a5)
ffffffc050207aa4:	0207ac23          	sw	zero,56(a5)
ffffffc050207aa8:	fdc42703          	lw	a4,-36(s0)
ffffffc050207aac:	87ba                	mv	a5,a4
ffffffc050207aae:	0786                	slli	a5,a5,0x1
ffffffc050207ab0:	97ba                	add	a5,a5,a4
ffffffc050207ab2:	078e                	slli	a5,a5,0x3
ffffffc050207ab4:	00051717          	auipc	a4,0x51
ffffffc050207ab8:	a5470713          	addi	a4,a4,-1452 # ffffffc050258508 <barriers>
ffffffc050207abc:	97ba                	add	a5,a5,a4
ffffffc050207abe:	00878713          	addi	a4,a5,8
ffffffc050207ac2:	00054797          	auipc	a5,0x54
ffffffc050207ac6:	65678793          	addi	a5,a5,1622 # ffffffc05025c118 <current_running>
ffffffc050207aca:	639c                	ld	a5,0(a5)
ffffffc050207acc:	07c1                	addi	a5,a5,16
ffffffc050207ace:	85be                	mv	a1,a5
ffffffc050207ad0:	853a                	mv	a0,a4
ffffffc050207ad2:	aa3ff0ef          	jal	ra,ffffffc050207574 <Enqueue>
ffffffc050207ad6:	6a4010ef          	jal	ra,ffffffc05020917a <do_scheduler>
ffffffc050207ada:	0001                	nop
ffffffc050207adc:	70a2                	ld	ra,40(sp)
ffffffc050207ade:	7402                	ld	s0,32(sp)
ffffffc050207ae0:	6145                	addi	sp,sp,48
ffffffc050207ae2:	8082                	ret

ffffffc050207ae4 <do_barrier_destroy>:
ffffffc050207ae4:	1101                	addi	sp,sp,-32
ffffffc050207ae6:	ec06                	sd	ra,24(sp)
ffffffc050207ae8:	e822                	sd	s0,16(sp)
ffffffc050207aea:	1000                	addi	s0,sp,32
ffffffc050207aec:	87aa                	mv	a5,a0
ffffffc050207aee:	fef42623          	sw	a5,-20(s0)
ffffffc050207af2:	00051697          	auipc	a3,0x51
ffffffc050207af6:	a1668693          	addi	a3,a3,-1514 # ffffffc050258508 <barriers>
ffffffc050207afa:	fec42703          	lw	a4,-20(s0)
ffffffc050207afe:	87ba                	mv	a5,a4
ffffffc050207b00:	0786                	slli	a5,a5,0x1
ffffffc050207b02:	97ba                	add	a5,a5,a4
ffffffc050207b04:	078e                	slli	a5,a5,0x3
ffffffc050207b06:	97b6                	add	a5,a5,a3
ffffffc050207b08:	0007a223          	sw	zero,4(a5)
ffffffc050207b0c:	00051697          	auipc	a3,0x51
ffffffc050207b10:	9fc68693          	addi	a3,a3,-1540 # ffffffc050258508 <barriers>
ffffffc050207b14:	fec42703          	lw	a4,-20(s0)
ffffffc050207b18:	87ba                	mv	a5,a4
ffffffc050207b1a:	0786                	slli	a5,a5,0x1
ffffffc050207b1c:	97ba                	add	a5,a5,a4
ffffffc050207b1e:	078e                	slli	a5,a5,0x3
ffffffc050207b20:	97b6                	add	a5,a5,a3
ffffffc050207b22:	0007a023          	sw	zero,0(a5)
ffffffc050207b26:	fec42703          	lw	a4,-20(s0)
ffffffc050207b2a:	87ba                	mv	a5,a4
ffffffc050207b2c:	0786                	slli	a5,a5,0x1
ffffffc050207b2e:	97ba                	add	a5,a5,a4
ffffffc050207b30:	078e                	slli	a5,a5,0x3
ffffffc050207b32:	00051717          	auipc	a4,0x51
ffffffc050207b36:	9d670713          	addi	a4,a4,-1578 # ffffffc050258508 <barriers>
ffffffc050207b3a:	97ba                	add	a5,a5,a4
ffffffc050207b3c:	07a1                	addi	a5,a5,8
ffffffc050207b3e:	853e                	mv	a0,a5
ffffffc050207b40:	acfff0ef          	jal	ra,ffffffc05020760e <init_queue>
ffffffc050207b44:	0001                	nop
ffffffc050207b46:	60e2                	ld	ra,24(sp)
ffffffc050207b48:	6442                	ld	s0,16(sp)
ffffffc050207b4a:	6105                	addi	sp,sp,32
ffffffc050207b4c:	8082                	ret

ffffffc050207b4e <do_condition_init>:
ffffffc050207b4e:	7179                	addi	sp,sp,-48
ffffffc050207b50:	f406                	sd	ra,40(sp)
ffffffc050207b52:	f022                	sd	s0,32(sp)
ffffffc050207b54:	1800                	addi	s0,sp,48
ffffffc050207b56:	87aa                	mv	a5,a0
ffffffc050207b58:	fcf42e23          	sw	a5,-36(s0)
ffffffc050207b5c:	fdc42703          	lw	a4,-36(s0)
ffffffc050207b60:	41f7579b          	sraiw	a5,a4,0x1f
ffffffc050207b64:	01a7d79b          	srliw	a5,a5,0x1a
ffffffc050207b68:	9f3d                	addw	a4,a4,a5
ffffffc050207b6a:	03f77713          	andi	a4,a4,63
ffffffc050207b6e:	40f707bb          	subw	a5,a4,a5
ffffffc050207b72:	fef42623          	sw	a5,-20(s0)
ffffffc050207b76:	fec42783          	lw	a5,-20(s0)
ffffffc050207b7a:	00479713          	slli	a4,a5,0x4
ffffffc050207b7e:	00050797          	auipc	a5,0x50
ffffffc050207b82:	d8a78793          	addi	a5,a5,-630 # ffffffc050257908 <conditions>
ffffffc050207b86:	97ba                	add	a5,a5,a4
ffffffc050207b88:	853e                	mv	a0,a5
ffffffc050207b8a:	a85ff0ef          	jal	ra,ffffffc05020760e <init_queue>
ffffffc050207b8e:	fec42783          	lw	a5,-20(s0)
ffffffc050207b92:	853e                	mv	a0,a5
ffffffc050207b94:	70a2                	ld	ra,40(sp)
ffffffc050207b96:	7402                	ld	s0,32(sp)
ffffffc050207b98:	6145                	addi	sp,sp,48
ffffffc050207b9a:	8082                	ret

ffffffc050207b9c <do_condition_wait>:
ffffffc050207b9c:	1101                	addi	sp,sp,-32
ffffffc050207b9e:	ec06                	sd	ra,24(sp)
ffffffc050207ba0:	e822                	sd	s0,16(sp)
ffffffc050207ba2:	1000                	addi	s0,sp,32
ffffffc050207ba4:	87aa                	mv	a5,a0
ffffffc050207ba6:	872e                	mv	a4,a1
ffffffc050207ba8:	fef42623          	sw	a5,-20(s0)
ffffffc050207bac:	87ba                	mv	a5,a4
ffffffc050207bae:	fef42423          	sw	a5,-24(s0)
ffffffc050207bb2:	fe842783          	lw	a5,-24(s0)
ffffffc050207bb6:	853e                	mv	a0,a5
ffffffc050207bb8:	c7bff0ef          	jal	ra,ffffffc050207832 <do_mutex_lock_release>
ffffffc050207bbc:	00054797          	auipc	a5,0x54
ffffffc050207bc0:	55c78793          	addi	a5,a5,1372 # ffffffc05025c118 <current_running>
ffffffc050207bc4:	639c                	ld	a5,0(a5)
ffffffc050207bc6:	0207ac23          	sw	zero,56(a5)
ffffffc050207bca:	fec42783          	lw	a5,-20(s0)
ffffffc050207bce:	00479713          	slli	a4,a5,0x4
ffffffc050207bd2:	00050797          	auipc	a5,0x50
ffffffc050207bd6:	d3678793          	addi	a5,a5,-714 # ffffffc050257908 <conditions>
ffffffc050207bda:	973e                	add	a4,a4,a5
ffffffc050207bdc:	00054797          	auipc	a5,0x54
ffffffc050207be0:	53c78793          	addi	a5,a5,1340 # ffffffc05025c118 <current_running>
ffffffc050207be4:	639c                	ld	a5,0(a5)
ffffffc050207be6:	07c1                	addi	a5,a5,16
ffffffc050207be8:	85be                	mv	a1,a5
ffffffc050207bea:	853a                	mv	a0,a4
ffffffc050207bec:	989ff0ef          	jal	ra,ffffffc050207574 <Enqueue>
ffffffc050207bf0:	58a010ef          	jal	ra,ffffffc05020917a <do_scheduler>
ffffffc050207bf4:	0001                	nop
ffffffc050207bf6:	60e2                	ld	ra,24(sp)
ffffffc050207bf8:	6442                	ld	s0,16(sp)
ffffffc050207bfa:	6105                	addi	sp,sp,32
ffffffc050207bfc:	8082                	ret

ffffffc050207bfe <do_condition_signal>:
ffffffc050207bfe:	7179                	addi	sp,sp,-48
ffffffc050207c00:	f406                	sd	ra,40(sp)
ffffffc050207c02:	f022                	sd	s0,32(sp)
ffffffc050207c04:	1800                	addi	s0,sp,48
ffffffc050207c06:	87aa                	mv	a5,a0
ffffffc050207c08:	fcf42e23          	sw	a5,-36(s0)
ffffffc050207c0c:	fdc42783          	lw	a5,-36(s0)
ffffffc050207c10:	00479713          	slli	a4,a5,0x4
ffffffc050207c14:	00050797          	auipc	a5,0x50
ffffffc050207c18:	cf478793          	addi	a5,a5,-780 # ffffffc050257908 <conditions>
ffffffc050207c1c:	97ba                	add	a5,a5,a4
ffffffc050207c1e:	853e                	mv	a0,a5
ffffffc050207c20:	8c9ff0ef          	jal	ra,ffffffc0502074e8 <Dequeue>
ffffffc050207c24:	fea43423          	sd	a0,-24(s0)
ffffffc050207c28:	fe843783          	ld	a5,-24(s0)
ffffffc050207c2c:	c795                	beqz	a5,ffffffc050207c58 <do_condition_signal+0x5a>
ffffffc050207c2e:	fe843783          	ld	a5,-24(s0)
ffffffc050207c32:	17c1                	addi	a5,a5,-16
ffffffc050207c34:	fef43023          	sd	a5,-32(s0)
ffffffc050207c38:	fe043783          	ld	a5,-32(s0)
ffffffc050207c3c:	5f9c                	lw	a5,56(a5)
ffffffc050207c3e:	ef89                	bnez	a5,ffffffc050207c58 <do_condition_signal+0x5a>
ffffffc050207c40:	fe043783          	ld	a5,-32(s0)
ffffffc050207c44:	4709                	li	a4,2
ffffffc050207c46:	df98                	sw	a4,56(a5)
ffffffc050207c48:	fe843583          	ld	a1,-24(s0)
ffffffc050207c4c:	00005517          	auipc	a0,0x5
ffffffc050207c50:	d2450513          	addi	a0,a0,-732 # ffffffc05020c970 <ready_queue>
ffffffc050207c54:	921ff0ef          	jal	ra,ffffffc050207574 <Enqueue>
ffffffc050207c58:	0001                	nop
ffffffc050207c5a:	70a2                	ld	ra,40(sp)
ffffffc050207c5c:	7402                	ld	s0,32(sp)
ffffffc050207c5e:	6145                	addi	sp,sp,48
ffffffc050207c60:	8082                	ret

ffffffc050207c62 <do_condition_broadcast>:
ffffffc050207c62:	7179                	addi	sp,sp,-48
ffffffc050207c64:	f406                	sd	ra,40(sp)
ffffffc050207c66:	f022                	sd	s0,32(sp)
ffffffc050207c68:	1800                	addi	s0,sp,48
ffffffc050207c6a:	87aa                	mv	a5,a0
ffffffc050207c6c:	fcf42e23          	sw	a5,-36(s0)
ffffffc050207c70:	a035                	j	ffffffc050207c9c <do_condition_broadcast+0x3a>
ffffffc050207c72:	fe843783          	ld	a5,-24(s0)
ffffffc050207c76:	17c1                	addi	a5,a5,-16
ffffffc050207c78:	fef43023          	sd	a5,-32(s0)
ffffffc050207c7c:	fe043783          	ld	a5,-32(s0)
ffffffc050207c80:	5f9c                	lw	a5,56(a5)
ffffffc050207c82:	ef89                	bnez	a5,ffffffc050207c9c <do_condition_broadcast+0x3a>
ffffffc050207c84:	fe043783          	ld	a5,-32(s0)
ffffffc050207c88:	4709                	li	a4,2
ffffffc050207c8a:	df98                	sw	a4,56(a5)
ffffffc050207c8c:	fe843583          	ld	a1,-24(s0)
ffffffc050207c90:	00005517          	auipc	a0,0x5
ffffffc050207c94:	ce050513          	addi	a0,a0,-800 # ffffffc05020c970 <ready_queue>
ffffffc050207c98:	8ddff0ef          	jal	ra,ffffffc050207574 <Enqueue>
ffffffc050207c9c:	fdc42783          	lw	a5,-36(s0)
ffffffc050207ca0:	00479713          	slli	a4,a5,0x4
ffffffc050207ca4:	00050797          	auipc	a5,0x50
ffffffc050207ca8:	c6478793          	addi	a5,a5,-924 # ffffffc050257908 <conditions>
ffffffc050207cac:	97ba                	add	a5,a5,a4
ffffffc050207cae:	853e                	mv	a0,a5
ffffffc050207cb0:	839ff0ef          	jal	ra,ffffffc0502074e8 <Dequeue>
ffffffc050207cb4:	fea43423          	sd	a0,-24(s0)
ffffffc050207cb8:	fe843783          	ld	a5,-24(s0)
ffffffc050207cbc:	fbdd                	bnez	a5,ffffffc050207c72 <do_condition_broadcast+0x10>
ffffffc050207cbe:	0001                	nop
ffffffc050207cc0:	0001                	nop
ffffffc050207cc2:	70a2                	ld	ra,40(sp)
ffffffc050207cc4:	7402                	ld	s0,32(sp)
ffffffc050207cc6:	6145                	addi	sp,sp,48
ffffffc050207cc8:	8082                	ret

ffffffc050207cca <Hash>:
ffffffc050207cca:	7179                	addi	sp,sp,-48
ffffffc050207ccc:	f406                	sd	ra,40(sp)
ffffffc050207cce:	f022                	sd	s0,32(sp)
ffffffc050207cd0:	1800                	addi	s0,sp,48
ffffffc050207cd2:	fca43c23          	sd	a0,-40(s0)
ffffffc050207cd6:	87ae                	mv	a5,a1
ffffffc050207cd8:	fcf42a23          	sw	a5,-44(s0)
ffffffc050207cdc:	fe042623          	sw	zero,-20(s0)
ffffffc050207ce0:	fd843503          	ld	a0,-40(s0)
ffffffc050207ce4:	42c030ef          	jal	ra,ffffffc05020b110 <strlen>
ffffffc050207ce8:	87aa                	mv	a5,a0
ffffffc050207cea:	fef42223          	sw	a5,-28(s0)
ffffffc050207cee:	fe042423          	sw	zero,-24(s0)
ffffffc050207cf2:	a01d                	j	ffffffc050207d18 <Hash+0x4e>
ffffffc050207cf4:	fe842783          	lw	a5,-24(s0)
ffffffc050207cf8:	fd843703          	ld	a4,-40(s0)
ffffffc050207cfc:	97ba                	add	a5,a5,a4
ffffffc050207cfe:	0007c783          	lbu	a5,0(a5)
ffffffc050207d02:	2781                	sext.w	a5,a5
ffffffc050207d04:	fec42703          	lw	a4,-20(s0)
ffffffc050207d08:	9fb9                	addw	a5,a5,a4
ffffffc050207d0a:	fef42623          	sw	a5,-20(s0)
ffffffc050207d0e:	fe842783          	lw	a5,-24(s0)
ffffffc050207d12:	2785                	addiw	a5,a5,1
ffffffc050207d14:	fef42423          	sw	a5,-24(s0)
ffffffc050207d18:	fe842703          	lw	a4,-24(s0)
ffffffc050207d1c:	fe442783          	lw	a5,-28(s0)
ffffffc050207d20:	2701                	sext.w	a4,a4
ffffffc050207d22:	2781                	sext.w	a5,a5
ffffffc050207d24:	fcf748e3          	blt	a4,a5,ffffffc050207cf4 <Hash+0x2a>
ffffffc050207d28:	fec42703          	lw	a4,-20(s0)
ffffffc050207d2c:	fd442783          	lw	a5,-44(s0)
ffffffc050207d30:	02f767bb          	remw	a5,a4,a5
ffffffc050207d34:	fef42623          	sw	a5,-20(s0)
ffffffc050207d38:	fec42783          	lw	a5,-20(s0)
ffffffc050207d3c:	fef42023          	sw	a5,-32(s0)
ffffffc050207d40:	0004e717          	auipc	a4,0x4e
ffffffc050207d44:	bc870713          	addi	a4,a4,-1080 # ffffffc050255908 <mailboxs>
ffffffc050207d48:	fec42783          	lw	a5,-20(s0)
ffffffc050207d4c:	079e                	slli	a5,a5,0x7
ffffffc050207d4e:	97ba                	add	a5,a5,a4
ffffffc050207d50:	439c                	lw	a5,0(a5)
ffffffc050207d52:	873e                	mv	a4,a5
ffffffc050207d54:	4785                	li	a5,1
ffffffc050207d56:	04f71263          	bne	a4,a5,ffffffc050207d9a <Hash+0xd0>
ffffffc050207d5a:	fec42783          	lw	a5,-20(s0)
ffffffc050207d5e:	0007871b          	sext.w	a4,a5
ffffffc050207d62:	03e00793          	li	a5,62
ffffffc050207d66:	02e7c763          	blt	a5,a4,ffffffc050207d94 <Hash+0xca>
ffffffc050207d6a:	fec42783          	lw	a5,-20(s0)
ffffffc050207d6e:	2785                	addiw	a5,a5,1
ffffffc050207d70:	fef42623          	sw	a5,-20(s0)
ffffffc050207d74:	fec42703          	lw	a4,-20(s0)
ffffffc050207d78:	fe042783          	lw	a5,-32(s0)
ffffffc050207d7c:	2701                	sext.w	a4,a4
ffffffc050207d7e:	2781                	sext.w	a5,a5
ffffffc050207d80:	fcf710e3          	bne	a4,a5,ffffffc050207d40 <Hash+0x76>
ffffffc050207d84:	00004517          	auipc	a0,0x4
ffffffc050207d88:	b9c50513          	addi	a0,a0,-1124 # ffffffc05020b920 <__FUNCTION__.1616+0xd8>
ffffffc050207d8c:	14c030ef          	jal	ra,ffffffc05020aed8 <printk>
ffffffc050207d90:	57fd                	li	a5,-1
ffffffc050207d92:	a039                	j	ffffffc050207da0 <Hash+0xd6>
ffffffc050207d94:	fe042623          	sw	zero,-20(s0)
ffffffc050207d98:	b765                	j	ffffffc050207d40 <Hash+0x76>
ffffffc050207d9a:	0001                	nop
ffffffc050207d9c:	fec42783          	lw	a5,-20(s0)
ffffffc050207da0:	853e                	mv	a0,a5
ffffffc050207da2:	70a2                	ld	ra,40(sp)
ffffffc050207da4:	7402                	ld	s0,32(sp)
ffffffc050207da6:	6145                	addi	sp,sp,48
ffffffc050207da8:	8082                	ret

ffffffc050207daa <do_condition_destroy>:
ffffffc050207daa:	1101                	addi	sp,sp,-32
ffffffc050207dac:	ec06                	sd	ra,24(sp)
ffffffc050207dae:	e822                	sd	s0,16(sp)
ffffffc050207db0:	1000                	addi	s0,sp,32
ffffffc050207db2:	87aa                	mv	a5,a0
ffffffc050207db4:	fef42623          	sw	a5,-20(s0)
ffffffc050207db8:	fec42783          	lw	a5,-20(s0)
ffffffc050207dbc:	00479713          	slli	a4,a5,0x4
ffffffc050207dc0:	00050797          	auipc	a5,0x50
ffffffc050207dc4:	b4878793          	addi	a5,a5,-1208 # ffffffc050257908 <conditions>
ffffffc050207dc8:	97ba                	add	a5,a5,a4
ffffffc050207dca:	853e                	mv	a0,a5
ffffffc050207dcc:	843ff0ef          	jal	ra,ffffffc05020760e <init_queue>
ffffffc050207dd0:	0001                	nop
ffffffc050207dd2:	60e2                	ld	ra,24(sp)
ffffffc050207dd4:	6442                	ld	s0,16(sp)
ffffffc050207dd6:	6105                	addi	sp,sp,32
ffffffc050207dd8:	8082                	ret

ffffffc050207dda <init_mbox>:
ffffffc050207dda:	1101                	addi	sp,sp,-32
ffffffc050207ddc:	ec06                	sd	ra,24(sp)
ffffffc050207dde:	e822                	sd	s0,16(sp)
ffffffc050207de0:	1000                	addi	s0,sp,32
ffffffc050207de2:	fea43423          	sd	a0,-24(s0)
ffffffc050207de6:	87ae                	mv	a5,a1
ffffffc050207de8:	fef42223          	sw	a5,-28(s0)
ffffffc050207dec:	0004e717          	auipc	a4,0x4e
ffffffc050207df0:	b1c70713          	addi	a4,a4,-1252 # ffffffc050255908 <mailboxs>
ffffffc050207df4:	fe442783          	lw	a5,-28(s0)
ffffffc050207df8:	079e                	slli	a5,a5,0x7
ffffffc050207dfa:	97ba                	add	a5,a5,a4
ffffffc050207dfc:	4705                	li	a4,1
ffffffc050207dfe:	c398                	sw	a4,0(a5)
ffffffc050207e00:	fe442783          	lw	a5,-28(s0)
ffffffc050207e04:	00779713          	slli	a4,a5,0x7
ffffffc050207e08:	0004e797          	auipc	a5,0x4e
ffffffc050207e0c:	b0078793          	addi	a5,a5,-1280 # ffffffc050255908 <mailboxs>
ffffffc050207e10:	97ba                	add	a5,a5,a4
ffffffc050207e12:	0791                	addi	a5,a5,4
ffffffc050207e14:	fe843583          	ld	a1,-24(s0)
ffffffc050207e18:	853e                	mv	a0,a5
ffffffc050207e1a:	45e030ef          	jal	ra,ffffffc05020b278 <strcpy>
ffffffc050207e1e:	0004e717          	auipc	a4,0x4e
ffffffc050207e22:	aea70713          	addi	a4,a4,-1302 # ffffffc050255908 <mailboxs>
ffffffc050207e26:	fe442783          	lw	a5,-28(s0)
ffffffc050207e2a:	079e                	slli	a5,a5,0x7
ffffffc050207e2c:	97ba                	add	a5,a5,a4
ffffffc050207e2e:	0607a223          	sw	zero,100(a5)
ffffffc050207e32:	0004e717          	auipc	a4,0x4e
ffffffc050207e36:	ad670713          	addi	a4,a4,-1322 # ffffffc050255908 <mailboxs>
ffffffc050207e3a:	fe442783          	lw	a5,-28(s0)
ffffffc050207e3e:	079e                	slli	a5,a5,0x7
ffffffc050207e40:	97ba                	add	a5,a5,a4
ffffffc050207e42:	0607a423          	sw	zero,104(a5)
ffffffc050207e46:	0004e717          	auipc	a4,0x4e
ffffffc050207e4a:	ac270713          	addi	a4,a4,-1342 # ffffffc050255908 <mailboxs>
ffffffc050207e4e:	fe442783          	lw	a5,-28(s0)
ffffffc050207e52:	079e                	slli	a5,a5,0x7
ffffffc050207e54:	97ba                	add	a5,a5,a4
ffffffc050207e56:	0607a623          	sw	zero,108(a5)
ffffffc050207e5a:	0004e717          	auipc	a4,0x4e
ffffffc050207e5e:	aae70713          	addi	a4,a4,-1362 # ffffffc050255908 <mailboxs>
ffffffc050207e62:	fe442783          	lw	a5,-28(s0)
ffffffc050207e66:	079e                	slli	a5,a5,0x7
ffffffc050207e68:	97ba                	add	a5,a5,a4
ffffffc050207e6a:	0607a823          	sw	zero,112(a5)
ffffffc050207e6e:	fe442783          	lw	a5,-28(s0)
ffffffc050207e72:	853e                	mv	a0,a5
ffffffc050207e74:	841ff0ef          	jal	ra,ffffffc0502076b4 <do_mutex_lock_init>
ffffffc050207e78:	87aa                	mv	a5,a0
ffffffc050207e7a:	86be                	mv	a3,a5
ffffffc050207e7c:	0004e717          	auipc	a4,0x4e
ffffffc050207e80:	a8c70713          	addi	a4,a4,-1396 # ffffffc050255908 <mailboxs>
ffffffc050207e84:	fe442783          	lw	a5,-28(s0)
ffffffc050207e88:	079e                	slli	a5,a5,0x7
ffffffc050207e8a:	97ba                	add	a5,a5,a4
ffffffc050207e8c:	dbf4                	sw	a3,116(a5)
ffffffc050207e8e:	fe442783          	lw	a5,-28(s0)
ffffffc050207e92:	853e                	mv	a0,a5
ffffffc050207e94:	cbbff0ef          	jal	ra,ffffffc050207b4e <do_condition_init>
ffffffc050207e98:	87aa                	mv	a5,a0
ffffffc050207e9a:	86be                	mv	a3,a5
ffffffc050207e9c:	0004e717          	auipc	a4,0x4e
ffffffc050207ea0:	a6c70713          	addi	a4,a4,-1428 # ffffffc050255908 <mailboxs>
ffffffc050207ea4:	fe442783          	lw	a5,-28(s0)
ffffffc050207ea8:	079e                	slli	a5,a5,0x7
ffffffc050207eaa:	97ba                	add	a5,a5,a4
ffffffc050207eac:	dfb4                	sw	a3,120(a5)
ffffffc050207eae:	fe442783          	lw	a5,-28(s0)
ffffffc050207eb2:	2785                	addiw	a5,a5,1
ffffffc050207eb4:	2781                	sext.w	a5,a5
ffffffc050207eb6:	853e                	mv	a0,a5
ffffffc050207eb8:	c97ff0ef          	jal	ra,ffffffc050207b4e <do_condition_init>
ffffffc050207ebc:	87aa                	mv	a5,a0
ffffffc050207ebe:	86be                	mv	a3,a5
ffffffc050207ec0:	0004e717          	auipc	a4,0x4e
ffffffc050207ec4:	a4870713          	addi	a4,a4,-1464 # ffffffc050255908 <mailboxs>
ffffffc050207ec8:	fe442783          	lw	a5,-28(s0)
ffffffc050207ecc:	079e                	slli	a5,a5,0x7
ffffffc050207ece:	97ba                	add	a5,a5,a4
ffffffc050207ed0:	dff4                	sw	a3,124(a5)
ffffffc050207ed2:	0001                	nop
ffffffc050207ed4:	60e2                	ld	ra,24(sp)
ffffffc050207ed6:	6442                	ld	s0,16(sp)
ffffffc050207ed8:	6105                	addi	sp,sp,32
ffffffc050207eda:	8082                	ret

ffffffc050207edc <do_mbox_open>:
ffffffc050207edc:	7179                	addi	sp,sp,-48
ffffffc050207ede:	f406                	sd	ra,40(sp)
ffffffc050207ee0:	f022                	sd	s0,32(sp)
ffffffc050207ee2:	1800                	addi	s0,sp,48
ffffffc050207ee4:	fca43c23          	sd	a0,-40(s0)
ffffffc050207ee8:	fe042623          	sw	zero,-20(s0)
ffffffc050207eec:	a815                	j	ffffffc050207f20 <do_mbox_open+0x44>
ffffffc050207eee:	fec42783          	lw	a5,-20(s0)
ffffffc050207ef2:	00779713          	slli	a4,a5,0x7
ffffffc050207ef6:	0004e797          	auipc	a5,0x4e
ffffffc050207efa:	a1278793          	addi	a5,a5,-1518 # ffffffc050255908 <mailboxs>
ffffffc050207efe:	97ba                	add	a5,a5,a4
ffffffc050207f00:	0791                	addi	a5,a5,4
ffffffc050207f02:	fd843583          	ld	a1,-40(s0)
ffffffc050207f06:	853e                	mv	a0,a5
ffffffc050207f08:	23e030ef          	jal	ra,ffffffc05020b146 <strcmp>
ffffffc050207f0c:	87aa                	mv	a5,a0
ffffffc050207f0e:	e781                	bnez	a5,ffffffc050207f16 <do_mbox_open+0x3a>
ffffffc050207f10:	fec42783          	lw	a5,-20(s0)
ffffffc050207f14:	a081                	j	ffffffc050207f54 <do_mbox_open+0x78>
ffffffc050207f16:	fec42783          	lw	a5,-20(s0)
ffffffc050207f1a:	2785                	addiw	a5,a5,1
ffffffc050207f1c:	fef42623          	sw	a5,-20(s0)
ffffffc050207f20:	fec42783          	lw	a5,-20(s0)
ffffffc050207f24:	0007871b          	sext.w	a4,a5
ffffffc050207f28:	03f00793          	li	a5,63
ffffffc050207f2c:	fce7d1e3          	bge	a5,a4,ffffffc050207eee <do_mbox_open+0x12>
ffffffc050207f30:	04000593          	li	a1,64
ffffffc050207f34:	fd843503          	ld	a0,-40(s0)
ffffffc050207f38:	d93ff0ef          	jal	ra,ffffffc050207cca <Hash>
ffffffc050207f3c:	87aa                	mv	a5,a0
ffffffc050207f3e:	fef42423          	sw	a5,-24(s0)
ffffffc050207f42:	fe842783          	lw	a5,-24(s0)
ffffffc050207f46:	85be                	mv	a1,a5
ffffffc050207f48:	fd843503          	ld	a0,-40(s0)
ffffffc050207f4c:	e8fff0ef          	jal	ra,ffffffc050207dda <init_mbox>
ffffffc050207f50:	fe842783          	lw	a5,-24(s0)
ffffffc050207f54:	853e                	mv	a0,a5
ffffffc050207f56:	70a2                	ld	ra,40(sp)
ffffffc050207f58:	7402                	ld	s0,32(sp)
ffffffc050207f5a:	6145                	addi	sp,sp,48
ffffffc050207f5c:	8082                	ret

ffffffc050207f5e <do_mbox_close>:
ffffffc050207f5e:	1101                	addi	sp,sp,-32
ffffffc050207f60:	ec22                	sd	s0,24(sp)
ffffffc050207f62:	1000                	addi	s0,sp,32
ffffffc050207f64:	87aa                	mv	a5,a0
ffffffc050207f66:	fef42623          	sw	a5,-20(s0)
ffffffc050207f6a:	0004e717          	auipc	a4,0x4e
ffffffc050207f6e:	99e70713          	addi	a4,a4,-1634 # ffffffc050255908 <mailboxs>
ffffffc050207f72:	fec42783          	lw	a5,-20(s0)
ffffffc050207f76:	079e                	slli	a5,a5,0x7
ffffffc050207f78:	97ba                	add	a5,a5,a4
ffffffc050207f7a:	53fc                	lw	a5,100(a5)
ffffffc050207f7c:	04f05b63          	blez	a5,ffffffc050207fd2 <do_mbox_close+0x74>
ffffffc050207f80:	0004e717          	auipc	a4,0x4e
ffffffc050207f84:	98870713          	addi	a4,a4,-1656 # ffffffc050255908 <mailboxs>
ffffffc050207f88:	fec42783          	lw	a5,-20(s0)
ffffffc050207f8c:	079e                	slli	a5,a5,0x7
ffffffc050207f8e:	97ba                	add	a5,a5,a4
ffffffc050207f90:	53fc                	lw	a5,100(a5)
ffffffc050207f92:	37fd                	addiw	a5,a5,-1
ffffffc050207f94:	0007871b          	sext.w	a4,a5
ffffffc050207f98:	0004e697          	auipc	a3,0x4e
ffffffc050207f9c:	97068693          	addi	a3,a3,-1680 # ffffffc050255908 <mailboxs>
ffffffc050207fa0:	fec42783          	lw	a5,-20(s0)
ffffffc050207fa4:	079e                	slli	a5,a5,0x7
ffffffc050207fa6:	97b6                	add	a5,a5,a3
ffffffc050207fa8:	d3f8                	sw	a4,100(a5)
ffffffc050207faa:	0004e717          	auipc	a4,0x4e
ffffffc050207fae:	95e70713          	addi	a4,a4,-1698 # ffffffc050255908 <mailboxs>
ffffffc050207fb2:	fec42783          	lw	a5,-20(s0)
ffffffc050207fb6:	079e                	slli	a5,a5,0x7
ffffffc050207fb8:	97ba                	add	a5,a5,a4
ffffffc050207fba:	53fc                	lw	a5,100(a5)
ffffffc050207fbc:	eb99                	bnez	a5,ffffffc050207fd2 <do_mbox_close+0x74>
ffffffc050207fbe:	0004e717          	auipc	a4,0x4e
ffffffc050207fc2:	94a70713          	addi	a4,a4,-1718 # ffffffc050255908 <mailboxs>
ffffffc050207fc6:	fec42783          	lw	a5,-20(s0)
ffffffc050207fca:	079e                	slli	a5,a5,0x7
ffffffc050207fcc:	97ba                	add	a5,a5,a4
ffffffc050207fce:	0007a023          	sw	zero,0(a5)
ffffffc050207fd2:	0001                	nop
ffffffc050207fd4:	6462                	ld	s0,24(sp)
ffffffc050207fd6:	6105                	addi	sp,sp,32
ffffffc050207fd8:	8082                	ret

ffffffc050207fda <do_mbox_send>:
ffffffc050207fda:	7139                	addi	sp,sp,-64
ffffffc050207fdc:	fc06                	sd	ra,56(sp)
ffffffc050207fde:	f822                	sd	s0,48(sp)
ffffffc050207fe0:	0080                	addi	s0,sp,64
ffffffc050207fe2:	87aa                	mv	a5,a0
ffffffc050207fe4:	fcb43023          	sd	a1,-64(s0)
ffffffc050207fe8:	8732                	mv	a4,a2
ffffffc050207fea:	fcf42623          	sw	a5,-52(s0)
ffffffc050207fee:	87ba                	mv	a5,a4
ffffffc050207ff0:	fcf42423          	sw	a5,-56(s0)
ffffffc050207ff4:	0004e717          	auipc	a4,0x4e
ffffffc050207ff8:	91470713          	addi	a4,a4,-1772 # ffffffc050255908 <mailboxs>
ffffffc050207ffc:	fcc42783          	lw	a5,-52(s0)
ffffffc050208000:	079e                	slli	a5,a5,0x7
ffffffc050208002:	97ba                	add	a5,a5,a4
ffffffc050208004:	5bfc                	lw	a5,116(a5)
ffffffc050208006:	853e                	mv	a0,a5
ffffffc050208008:	f54ff0ef          	jal	ra,ffffffc05020775c <do_mutex_lock_acquire>
ffffffc05020800c:	a03d                	j	ffffffc05020803a <do_mbox_send+0x60>
ffffffc05020800e:	0004e717          	auipc	a4,0x4e
ffffffc050208012:	8fa70713          	addi	a4,a4,-1798 # ffffffc050255908 <mailboxs>
ffffffc050208016:	fcc42783          	lw	a5,-52(s0)
ffffffc05020801a:	079e                	slli	a5,a5,0x7
ffffffc05020801c:	97ba                	add	a5,a5,a4
ffffffc05020801e:	5fb4                	lw	a3,120(a5)
ffffffc050208020:	0004e717          	auipc	a4,0x4e
ffffffc050208024:	8e870713          	addi	a4,a4,-1816 # ffffffc050255908 <mailboxs>
ffffffc050208028:	fcc42783          	lw	a5,-52(s0)
ffffffc05020802c:	079e                	slli	a5,a5,0x7
ffffffc05020802e:	97ba                	add	a5,a5,a4
ffffffc050208030:	5bfc                	lw	a5,116(a5)
ffffffc050208032:	85be                	mv	a1,a5
ffffffc050208034:	8536                	mv	a0,a3
ffffffc050208036:	b67ff0ef          	jal	ra,ffffffc050207b9c <do_condition_wait>
ffffffc05020803a:	0004e717          	auipc	a4,0x4e
ffffffc05020803e:	8ce70713          	addi	a4,a4,-1842 # ffffffc050255908 <mailboxs>
ffffffc050208042:	fcc42783          	lw	a5,-52(s0)
ffffffc050208046:	079e                	slli	a5,a5,0x7
ffffffc050208048:	97ba                	add	a5,a5,a4
ffffffc05020804a:	57bc                	lw	a5,104(a5)
ffffffc05020804c:	fc842703          	lw	a4,-56(s0)
ffffffc050208050:	9fb9                	addw	a5,a5,a4
ffffffc050208052:	2781                	sext.w	a5,a5
ffffffc050208054:	873e                	mv	a4,a5
ffffffc050208056:	04000793          	li	a5,64
ffffffc05020805a:	fae7cae3          	blt	a5,a4,ffffffc05020800e <do_mbox_send+0x34>
ffffffc05020805e:	0004e717          	auipc	a4,0x4e
ffffffc050208062:	8aa70713          	addi	a4,a4,-1878 # ffffffc050255908 <mailboxs>
ffffffc050208066:	fcc42783          	lw	a5,-52(s0)
ffffffc05020806a:	079e                	slli	a5,a5,0x7
ffffffc05020806c:	97ba                	add	a5,a5,a4
ffffffc05020806e:	57bc                	lw	a5,104(a5)
ffffffc050208070:	fc842703          	lw	a4,-56(s0)
ffffffc050208074:	9fb9                	addw	a5,a5,a4
ffffffc050208076:	0007871b          	sext.w	a4,a5
ffffffc05020807a:	0004e697          	auipc	a3,0x4e
ffffffc05020807e:	88e68693          	addi	a3,a3,-1906 # ffffffc050255908 <mailboxs>
ffffffc050208082:	fcc42783          	lw	a5,-52(s0)
ffffffc050208086:	079e                	slli	a5,a5,0x7
ffffffc050208088:	97b6                	add	a5,a5,a3
ffffffc05020808a:	d7b8                	sw	a4,104(a5)
ffffffc05020808c:	fc043783          	ld	a5,-64(s0)
ffffffc050208090:	fef43023          	sd	a5,-32(s0)
ffffffc050208094:	fcc42783          	lw	a5,-52(s0)
ffffffc050208098:	079e                	slli	a5,a5,0x7
ffffffc05020809a:	02078713          	addi	a4,a5,32
ffffffc05020809e:	0004e797          	auipc	a5,0x4e
ffffffc0502080a2:	86a78793          	addi	a5,a5,-1942 # ffffffc050255908 <mailboxs>
ffffffc0502080a6:	97ba                	add	a5,a5,a4
ffffffc0502080a8:	0791                	addi	a5,a5,4
ffffffc0502080aa:	fcf43c23          	sd	a5,-40(s0)
ffffffc0502080ae:	fe042623          	sw	zero,-20(s0)
ffffffc0502080b2:	a8a1                	j	ffffffc05020810a <do_mbox_send+0x130>
ffffffc0502080b4:	fec42783          	lw	a5,-20(s0)
ffffffc0502080b8:	fe043703          	ld	a4,-32(s0)
ffffffc0502080bc:	00f706b3          	add	a3,a4,a5
ffffffc0502080c0:	0004e717          	auipc	a4,0x4e
ffffffc0502080c4:	84870713          	addi	a4,a4,-1976 # ffffffc050255908 <mailboxs>
ffffffc0502080c8:	fcc42783          	lw	a5,-52(s0)
ffffffc0502080cc:	079e                	slli	a5,a5,0x7
ffffffc0502080ce:	97ba                	add	a5,a5,a4
ffffffc0502080d0:	5bbc                	lw	a5,112(a5)
ffffffc0502080d2:	fec42703          	lw	a4,-20(s0)
ffffffc0502080d6:	9fb9                	addw	a5,a5,a4
ffffffc0502080d8:	2781                	sext.w	a5,a5
ffffffc0502080da:	873e                	mv	a4,a5
ffffffc0502080dc:	41f7579b          	sraiw	a5,a4,0x1f
ffffffc0502080e0:	01a7d79b          	srliw	a5,a5,0x1a
ffffffc0502080e4:	9f3d                	addw	a4,a4,a5
ffffffc0502080e6:	03f77713          	andi	a4,a4,63
ffffffc0502080ea:	40f707bb          	subw	a5,a4,a5
ffffffc0502080ee:	2781                	sext.w	a5,a5
ffffffc0502080f0:	873e                	mv	a4,a5
ffffffc0502080f2:	fd843783          	ld	a5,-40(s0)
ffffffc0502080f6:	97ba                	add	a5,a5,a4
ffffffc0502080f8:	0006c703          	lbu	a4,0(a3)
ffffffc0502080fc:	00e78023          	sb	a4,0(a5)
ffffffc050208100:	fec42783          	lw	a5,-20(s0)
ffffffc050208104:	2785                	addiw	a5,a5,1
ffffffc050208106:	fef42623          	sw	a5,-20(s0)
ffffffc05020810a:	fec42703          	lw	a4,-20(s0)
ffffffc05020810e:	fc842783          	lw	a5,-56(s0)
ffffffc050208112:	2701                	sext.w	a4,a4
ffffffc050208114:	2781                	sext.w	a5,a5
ffffffc050208116:	f8f74fe3          	blt	a4,a5,ffffffc0502080b4 <do_mbox_send+0xda>
ffffffc05020811a:	0004d717          	auipc	a4,0x4d
ffffffc05020811e:	7ee70713          	addi	a4,a4,2030 # ffffffc050255908 <mailboxs>
ffffffc050208122:	fcc42783          	lw	a5,-52(s0)
ffffffc050208126:	079e                	slli	a5,a5,0x7
ffffffc050208128:	97ba                	add	a5,a5,a4
ffffffc05020812a:	5bbc                	lw	a5,112(a5)
ffffffc05020812c:	fc842703          	lw	a4,-56(s0)
ffffffc050208130:	9fb9                	addw	a5,a5,a4
ffffffc050208132:	2781                	sext.w	a5,a5
ffffffc050208134:	873e                	mv	a4,a5
ffffffc050208136:	41f7579b          	sraiw	a5,a4,0x1f
ffffffc05020813a:	01a7d79b          	srliw	a5,a5,0x1a
ffffffc05020813e:	9f3d                	addw	a4,a4,a5
ffffffc050208140:	03f77713          	andi	a4,a4,63
ffffffc050208144:	40f707bb          	subw	a5,a4,a5
ffffffc050208148:	0007871b          	sext.w	a4,a5
ffffffc05020814c:	0004d697          	auipc	a3,0x4d
ffffffc050208150:	7bc68693          	addi	a3,a3,1980 # ffffffc050255908 <mailboxs>
ffffffc050208154:	fcc42783          	lw	a5,-52(s0)
ffffffc050208158:	079e                	slli	a5,a5,0x7
ffffffc05020815a:	97b6                	add	a5,a5,a3
ffffffc05020815c:	dbb8                	sw	a4,112(a5)
ffffffc05020815e:	0004d717          	auipc	a4,0x4d
ffffffc050208162:	7aa70713          	addi	a4,a4,1962 # ffffffc050255908 <mailboxs>
ffffffc050208166:	fcc42783          	lw	a5,-52(s0)
ffffffc05020816a:	079e                	slli	a5,a5,0x7
ffffffc05020816c:	97ba                	add	a5,a5,a4
ffffffc05020816e:	5ffc                	lw	a5,124(a5)
ffffffc050208170:	853e                	mv	a0,a5
ffffffc050208172:	af1ff0ef          	jal	ra,ffffffc050207c62 <do_condition_broadcast>
ffffffc050208176:	0004d717          	auipc	a4,0x4d
ffffffc05020817a:	79270713          	addi	a4,a4,1938 # ffffffc050255908 <mailboxs>
ffffffc05020817e:	fcc42783          	lw	a5,-52(s0)
ffffffc050208182:	079e                	slli	a5,a5,0x7
ffffffc050208184:	97ba                	add	a5,a5,a4
ffffffc050208186:	5bfc                	lw	a5,116(a5)
ffffffc050208188:	853e                	mv	a0,a5
ffffffc05020818a:	ea8ff0ef          	jal	ra,ffffffc050207832 <do_mutex_lock_release>
ffffffc05020818e:	4781                	li	a5,0
ffffffc050208190:	853e                	mv	a0,a5
ffffffc050208192:	70e2                	ld	ra,56(sp)
ffffffc050208194:	7442                	ld	s0,48(sp)
ffffffc050208196:	6121                	addi	sp,sp,64
ffffffc050208198:	8082                	ret

ffffffc05020819a <do_mbox_recv>:
ffffffc05020819a:	7139                	addi	sp,sp,-64
ffffffc05020819c:	fc06                	sd	ra,56(sp)
ffffffc05020819e:	f822                	sd	s0,48(sp)
ffffffc0502081a0:	0080                	addi	s0,sp,64
ffffffc0502081a2:	87aa                	mv	a5,a0
ffffffc0502081a4:	fcb43023          	sd	a1,-64(s0)
ffffffc0502081a8:	8732                	mv	a4,a2
ffffffc0502081aa:	fcf42623          	sw	a5,-52(s0)
ffffffc0502081ae:	87ba                	mv	a5,a4
ffffffc0502081b0:	fcf42423          	sw	a5,-56(s0)
ffffffc0502081b4:	0004d717          	auipc	a4,0x4d
ffffffc0502081b8:	75470713          	addi	a4,a4,1876 # ffffffc050255908 <mailboxs>
ffffffc0502081bc:	fcc42783          	lw	a5,-52(s0)
ffffffc0502081c0:	079e                	slli	a5,a5,0x7
ffffffc0502081c2:	97ba                	add	a5,a5,a4
ffffffc0502081c4:	5bfc                	lw	a5,116(a5)
ffffffc0502081c6:	853e                	mv	a0,a5
ffffffc0502081c8:	d94ff0ef          	jal	ra,ffffffc05020775c <do_mutex_lock_acquire>
ffffffc0502081cc:	a03d                	j	ffffffc0502081fa <do_mbox_recv+0x60>
ffffffc0502081ce:	0004d717          	auipc	a4,0x4d
ffffffc0502081d2:	73a70713          	addi	a4,a4,1850 # ffffffc050255908 <mailboxs>
ffffffc0502081d6:	fcc42783          	lw	a5,-52(s0)
ffffffc0502081da:	079e                	slli	a5,a5,0x7
ffffffc0502081dc:	97ba                	add	a5,a5,a4
ffffffc0502081de:	5ff4                	lw	a3,124(a5)
ffffffc0502081e0:	0004d717          	auipc	a4,0x4d
ffffffc0502081e4:	72870713          	addi	a4,a4,1832 # ffffffc050255908 <mailboxs>
ffffffc0502081e8:	fcc42783          	lw	a5,-52(s0)
ffffffc0502081ec:	079e                	slli	a5,a5,0x7
ffffffc0502081ee:	97ba                	add	a5,a5,a4
ffffffc0502081f0:	5bfc                	lw	a5,116(a5)
ffffffc0502081f2:	85be                	mv	a1,a5
ffffffc0502081f4:	8536                	mv	a0,a3
ffffffc0502081f6:	9a7ff0ef          	jal	ra,ffffffc050207b9c <do_condition_wait>
ffffffc0502081fa:	0004d717          	auipc	a4,0x4d
ffffffc0502081fe:	70e70713          	addi	a4,a4,1806 # ffffffc050255908 <mailboxs>
ffffffc050208202:	fcc42783          	lw	a5,-52(s0)
ffffffc050208206:	079e                	slli	a5,a5,0x7
ffffffc050208208:	97ba                	add	a5,a5,a4
ffffffc05020820a:	57b8                	lw	a4,104(a5)
ffffffc05020820c:	fc842783          	lw	a5,-56(s0)
ffffffc050208210:	40f707bb          	subw	a5,a4,a5
ffffffc050208214:	2781                	sext.w	a5,a5
ffffffc050208216:	fa07cce3          	bltz	a5,ffffffc0502081ce <do_mbox_recv+0x34>
ffffffc05020821a:	0004d717          	auipc	a4,0x4d
ffffffc05020821e:	6ee70713          	addi	a4,a4,1774 # ffffffc050255908 <mailboxs>
ffffffc050208222:	fcc42783          	lw	a5,-52(s0)
ffffffc050208226:	079e                	slli	a5,a5,0x7
ffffffc050208228:	97ba                	add	a5,a5,a4
ffffffc05020822a:	57b8                	lw	a4,104(a5)
ffffffc05020822c:	fc842783          	lw	a5,-56(s0)
ffffffc050208230:	40f707bb          	subw	a5,a4,a5
ffffffc050208234:	0007871b          	sext.w	a4,a5
ffffffc050208238:	0004d697          	auipc	a3,0x4d
ffffffc05020823c:	6d068693          	addi	a3,a3,1744 # ffffffc050255908 <mailboxs>
ffffffc050208240:	fcc42783          	lw	a5,-52(s0)
ffffffc050208244:	079e                	slli	a5,a5,0x7
ffffffc050208246:	97b6                	add	a5,a5,a3
ffffffc050208248:	d7b8                	sw	a4,104(a5)
ffffffc05020824a:	fcc42783          	lw	a5,-52(s0)
ffffffc05020824e:	079e                	slli	a5,a5,0x7
ffffffc050208250:	02078713          	addi	a4,a5,32
ffffffc050208254:	0004d797          	auipc	a5,0x4d
ffffffc050208258:	6b478793          	addi	a5,a5,1716 # ffffffc050255908 <mailboxs>
ffffffc05020825c:	97ba                	add	a5,a5,a4
ffffffc05020825e:	0791                	addi	a5,a5,4
ffffffc050208260:	fef43023          	sd	a5,-32(s0)
ffffffc050208264:	fc043783          	ld	a5,-64(s0)
ffffffc050208268:	fcf43c23          	sd	a5,-40(s0)
ffffffc05020826c:	fe042623          	sw	zero,-20(s0)
ffffffc050208270:	a899                	j	ffffffc0502082c6 <do_mbox_recv+0x12c>
ffffffc050208272:	0004d717          	auipc	a4,0x4d
ffffffc050208276:	69670713          	addi	a4,a4,1686 # ffffffc050255908 <mailboxs>
ffffffc05020827a:	fcc42783          	lw	a5,-52(s0)
ffffffc05020827e:	079e                	slli	a5,a5,0x7
ffffffc050208280:	97ba                	add	a5,a5,a4
ffffffc050208282:	57fc                	lw	a5,108(a5)
ffffffc050208284:	fec42703          	lw	a4,-20(s0)
ffffffc050208288:	9fb9                	addw	a5,a5,a4
ffffffc05020828a:	2781                	sext.w	a5,a5
ffffffc05020828c:	873e                	mv	a4,a5
ffffffc05020828e:	41f7579b          	sraiw	a5,a4,0x1f
ffffffc050208292:	01a7d79b          	srliw	a5,a5,0x1a
ffffffc050208296:	9f3d                	addw	a4,a4,a5
ffffffc050208298:	03f77713          	andi	a4,a4,63
ffffffc05020829c:	40f707bb          	subw	a5,a4,a5
ffffffc0502082a0:	2781                	sext.w	a5,a5
ffffffc0502082a2:	873e                	mv	a4,a5
ffffffc0502082a4:	fe043783          	ld	a5,-32(s0)
ffffffc0502082a8:	973e                	add	a4,a4,a5
ffffffc0502082aa:	fec42783          	lw	a5,-20(s0)
ffffffc0502082ae:	fd843683          	ld	a3,-40(s0)
ffffffc0502082b2:	97b6                	add	a5,a5,a3
ffffffc0502082b4:	00074703          	lbu	a4,0(a4)
ffffffc0502082b8:	00e78023          	sb	a4,0(a5)
ffffffc0502082bc:	fec42783          	lw	a5,-20(s0)
ffffffc0502082c0:	2785                	addiw	a5,a5,1
ffffffc0502082c2:	fef42623          	sw	a5,-20(s0)
ffffffc0502082c6:	fec42703          	lw	a4,-20(s0)
ffffffc0502082ca:	fc842783          	lw	a5,-56(s0)
ffffffc0502082ce:	2701                	sext.w	a4,a4
ffffffc0502082d0:	2781                	sext.w	a5,a5
ffffffc0502082d2:	faf740e3          	blt	a4,a5,ffffffc050208272 <do_mbox_recv+0xd8>
ffffffc0502082d6:	0004d717          	auipc	a4,0x4d
ffffffc0502082da:	63270713          	addi	a4,a4,1586 # ffffffc050255908 <mailboxs>
ffffffc0502082de:	fcc42783          	lw	a5,-52(s0)
ffffffc0502082e2:	079e                	slli	a5,a5,0x7
ffffffc0502082e4:	97ba                	add	a5,a5,a4
ffffffc0502082e6:	57fc                	lw	a5,108(a5)
ffffffc0502082e8:	fc842703          	lw	a4,-56(s0)
ffffffc0502082ec:	9fb9                	addw	a5,a5,a4
ffffffc0502082ee:	2781                	sext.w	a5,a5
ffffffc0502082f0:	873e                	mv	a4,a5
ffffffc0502082f2:	41f7579b          	sraiw	a5,a4,0x1f
ffffffc0502082f6:	01a7d79b          	srliw	a5,a5,0x1a
ffffffc0502082fa:	9f3d                	addw	a4,a4,a5
ffffffc0502082fc:	03f77713          	andi	a4,a4,63
ffffffc050208300:	40f707bb          	subw	a5,a4,a5
ffffffc050208304:	0007871b          	sext.w	a4,a5
ffffffc050208308:	0004d697          	auipc	a3,0x4d
ffffffc05020830c:	60068693          	addi	a3,a3,1536 # ffffffc050255908 <mailboxs>
ffffffc050208310:	fcc42783          	lw	a5,-52(s0)
ffffffc050208314:	079e                	slli	a5,a5,0x7
ffffffc050208316:	97b6                	add	a5,a5,a3
ffffffc050208318:	d7f8                	sw	a4,108(a5)
ffffffc05020831a:	0004d717          	auipc	a4,0x4d
ffffffc05020831e:	5ee70713          	addi	a4,a4,1518 # ffffffc050255908 <mailboxs>
ffffffc050208322:	fcc42783          	lw	a5,-52(s0)
ffffffc050208326:	079e                	slli	a5,a5,0x7
ffffffc050208328:	97ba                	add	a5,a5,a4
ffffffc05020832a:	5fbc                	lw	a5,120(a5)
ffffffc05020832c:	853e                	mv	a0,a5
ffffffc05020832e:	935ff0ef          	jal	ra,ffffffc050207c62 <do_condition_broadcast>
ffffffc050208332:	0004d717          	auipc	a4,0x4d
ffffffc050208336:	5d670713          	addi	a4,a4,1494 # ffffffc050255908 <mailboxs>
ffffffc05020833a:	fcc42783          	lw	a5,-52(s0)
ffffffc05020833e:	079e                	slli	a5,a5,0x7
ffffffc050208340:	97ba                	add	a5,a5,a4
ffffffc050208342:	5bfc                	lw	a5,116(a5)
ffffffc050208344:	853e                	mv	a0,a5
ffffffc050208346:	cecff0ef          	jal	ra,ffffffc050207832 <do_mutex_lock_release>
ffffffc05020834a:	4781                	li	a5,0
ffffffc05020834c:	853e                	mv	a0,a5
ffffffc05020834e:	70e2                	ld	ra,56(sp)
ffffffc050208350:	7442                	ld	s0,48(sp)
ffffffc050208352:	6121                	addi	sp,sp,64
ffffffc050208354:	8082                	ret

ffffffc050208356 <atomic_swap>:
ffffffc050208356:	7179                	addi	sp,sp,-48
ffffffc050208358:	f422                	sd	s0,40(sp)
ffffffc05020835a:	1800                	addi	s0,sp,48
ffffffc05020835c:	87aa                	mv	a5,a0
ffffffc05020835e:	fcb43823          	sd	a1,-48(s0)
ffffffc050208362:	fcf42e23          	sw	a5,-36(s0)
ffffffc050208366:	fd043783          	ld	a5,-48(s0)
ffffffc05020836a:	fdc42703          	lw	a4,-36(s0)
ffffffc05020836e:	0ee7a72f          	amoswap.w.aqrl	a4,a4,(a5)
ffffffc050208372:	fee42623          	sw	a4,-20(s0)
ffffffc050208376:	fec42783          	lw	a5,-20(s0)
ffffffc05020837a:	853e                	mv	a0,a5
ffffffc05020837c:	7422                	ld	s0,40(sp)
ffffffc05020837e:	6145                	addi	sp,sp,48
ffffffc050208380:	8082                	ret

ffffffc050208382 <smp_init>:
ffffffc050208382:	1141                	addi	sp,sp,-16
ffffffc050208384:	e422                	sd	s0,8(sp)
ffffffc050208386:	0800                	addi	s0,sp,16
ffffffc050208388:	0001                	nop
ffffffc05020838a:	6422                	ld	s0,8(sp)
ffffffc05020838c:	0141                	addi	sp,sp,16
ffffffc05020838e:	8082                	ret

ffffffc050208390 <wakeup_other_hart>:
ffffffc050208390:	1141                	addi	sp,sp,-16
ffffffc050208392:	e406                	sd	ra,8(sp)
ffffffc050208394:	e022                	sd	s0,0(sp)
ffffffc050208396:	0800                	addi	s0,sp,16
ffffffc050208398:	cb5f90ef          	jal	ra,ffffffc05020204c <disable_interrupt>
ffffffc05020839c:	00003517          	auipc	a0,0x3
ffffffc0502083a0:	5a450513          	addi	a0,a0,1444 # ffffffc05020b940 <__FUNCTION__.1616+0xf8>
ffffffc0502083a4:	445020ef          	jal	ra,ffffffc05020afe8 <printl>
ffffffc0502083a8:	4501                	li	a0,0
ffffffc0502083aa:	9eafb0ef          	jal	ra,ffffffc050203594 <send_ipi>
ffffffc0502083ae:	00003517          	auipc	a0,0x3
ffffffc0502083b2:	5aa50513          	addi	a0,a0,1450 # ffffffc05020b958 <__FUNCTION__.1616+0x110>
ffffffc0502083b6:	433020ef          	jal	ra,ffffffc05020afe8 <printl>
ffffffc0502083ba:	c9bf90ef          	jal	ra,ffffffc050202054 <clear_sip>
ffffffc0502083be:	c87f90ef          	jal	ra,ffffffc050202044 <enable_interrupt>
ffffffc0502083c2:	0001                	nop
ffffffc0502083c4:	60a2                	ld	ra,8(sp)
ffffffc0502083c6:	6402                	ld	s0,0(sp)
ffffffc0502083c8:	0141                	addi	sp,sp,16
ffffffc0502083ca:	8082                	ret

ffffffc0502083cc <lock_kernel>:
ffffffc0502083cc:	1141                	addi	sp,sp,-16
ffffffc0502083ce:	e406                	sd	ra,8(sp)
ffffffc0502083d0:	e022                	sd	s0,0(sp)
ffffffc0502083d2:	0800                	addi	s0,sp,16
ffffffc0502083d4:	0001                	nop
ffffffc0502083d6:	00050797          	auipc	a5,0x50
ffffffc0502083da:	73278793          	addi	a5,a5,1842 # ffffffc050258b08 <core_lock>
ffffffc0502083de:	85be                	mv	a1,a5
ffffffc0502083e0:	4505                	li	a0,1
ffffffc0502083e2:	f75ff0ef          	jal	ra,ffffffc050208356 <atomic_swap>
ffffffc0502083e6:	87aa                	mv	a5,a0
ffffffc0502083e8:	2781                	sext.w	a5,a5
ffffffc0502083ea:	873e                	mv	a4,a5
ffffffc0502083ec:	4785                	li	a5,1
ffffffc0502083ee:	fef704e3          	beq	a4,a5,ffffffc0502083d6 <lock_kernel+0xa>
ffffffc0502083f2:	0001                	nop
ffffffc0502083f4:	0001                	nop
ffffffc0502083f6:	60a2                	ld	ra,8(sp)
ffffffc0502083f8:	6402                	ld	s0,0(sp)
ffffffc0502083fa:	0141                	addi	sp,sp,16
ffffffc0502083fc:	8082                	ret

ffffffc0502083fe <unlock_kernel>:
ffffffc0502083fe:	1141                	addi	sp,sp,-16
ffffffc050208400:	e422                	sd	s0,8(sp)
ffffffc050208402:	0800                	addi	s0,sp,16
ffffffc050208404:	00050797          	auipc	a5,0x50
ffffffc050208408:	70478793          	addi	a5,a5,1796 # ffffffc050258b08 <core_lock>
ffffffc05020840c:	0007a023          	sw	zero,0(a5)
ffffffc050208410:	0001                	nop
ffffffc050208412:	6422                	ld	s0,8(sp)
ffffffc050208414:	0141                	addi	sp,sp,16
ffffffc050208416:	8082                	ret

ffffffc050208418 <Dequeue>:
ffffffc050208418:	7139                	addi	sp,sp,-64
ffffffc05020841a:	fc22                	sd	s0,56(sp)
ffffffc05020841c:	0080                	addi	s0,sp,64
ffffffc05020841e:	fca43423          	sd	a0,-56(s0)
ffffffc050208422:	fc843783          	ld	a5,-56(s0)
ffffffc050208426:	679c                	ld	a5,8(a5)
ffffffc050208428:	fef43423          	sd	a5,-24(s0)
ffffffc05020842c:	fc843783          	ld	a5,-56(s0)
ffffffc050208430:	639c                	ld	a5,0(a5)
ffffffc050208432:	fef43023          	sd	a5,-32(s0)
ffffffc050208436:	fe843703          	ld	a4,-24(s0)
ffffffc05020843a:	fc843783          	ld	a5,-56(s0)
ffffffc05020843e:	00f71a63          	bne	a4,a5,ffffffc050208452 <Dequeue+0x3a>
ffffffc050208442:	fe043703          	ld	a4,-32(s0)
ffffffc050208446:	fc843783          	ld	a5,-56(s0)
ffffffc05020844a:	00f71463          	bne	a4,a5,ffffffc050208452 <Dequeue+0x3a>
ffffffc05020844e:	4781                	li	a5,0
ffffffc050208450:	a0b1                	j	ffffffc05020849c <Dequeue+0x84>
ffffffc050208452:	fe043703          	ld	a4,-32(s0)
ffffffc050208456:	fe843783          	ld	a5,-24(s0)
ffffffc05020845a:	02f71063          	bne	a4,a5,ffffffc05020847a <Dequeue+0x62>
ffffffc05020845e:	fc843783          	ld	a5,-56(s0)
ffffffc050208462:	fc843703          	ld	a4,-56(s0)
ffffffc050208466:	e398                	sd	a4,0(a5)
ffffffc050208468:	fc843783          	ld	a5,-56(s0)
ffffffc05020846c:	6398                	ld	a4,0(a5)
ffffffc05020846e:	fc843783          	ld	a5,-56(s0)
ffffffc050208472:	e798                	sd	a4,8(a5)
ffffffc050208474:	fe043783          	ld	a5,-32(s0)
ffffffc050208478:	a015                	j	ffffffc05020849c <Dequeue+0x84>
ffffffc05020847a:	fe043783          	ld	a5,-32(s0)
ffffffc05020847e:	679c                	ld	a5,8(a5)
ffffffc050208480:	fcf43c23          	sd	a5,-40(s0)
ffffffc050208484:	fd843783          	ld	a5,-40(s0)
ffffffc050208488:	fc843703          	ld	a4,-56(s0)
ffffffc05020848c:	e398                	sd	a4,0(a5)
ffffffc05020848e:	fc843783          	ld	a5,-56(s0)
ffffffc050208492:	fd843703          	ld	a4,-40(s0)
ffffffc050208496:	e398                	sd	a4,0(a5)
ffffffc050208498:	fe043783          	ld	a5,-32(s0)
ffffffc05020849c:	853e                	mv	a0,a5
ffffffc05020849e:	7462                	ld	s0,56(sp)
ffffffc0502084a0:	6121                	addi	sp,sp,64
ffffffc0502084a2:	8082                	ret

ffffffc0502084a4 <Enqueue>:
ffffffc0502084a4:	7179                	addi	sp,sp,-48
ffffffc0502084a6:	f422                	sd	s0,40(sp)
ffffffc0502084a8:	1800                	addi	s0,sp,48
ffffffc0502084aa:	fca43c23          	sd	a0,-40(s0)
ffffffc0502084ae:	fcb43823          	sd	a1,-48(s0)
ffffffc0502084b2:	fd843783          	ld	a5,-40(s0)
ffffffc0502084b6:	679c                	ld	a5,8(a5)
ffffffc0502084b8:	fef43423          	sd	a5,-24(s0)
ffffffc0502084bc:	fd843783          	ld	a5,-40(s0)
ffffffc0502084c0:	639c                	ld	a5,0(a5)
ffffffc0502084c2:	fef43023          	sd	a5,-32(s0)
ffffffc0502084c6:	fe843703          	ld	a4,-24(s0)
ffffffc0502084ca:	fd843783          	ld	a5,-40(s0)
ffffffc0502084ce:	02f71f63          	bne	a4,a5,ffffffc05020850c <Enqueue+0x68>
ffffffc0502084d2:	fe043703          	ld	a4,-32(s0)
ffffffc0502084d6:	fd843783          	ld	a5,-40(s0)
ffffffc0502084da:	02f71963          	bne	a4,a5,ffffffc05020850c <Enqueue+0x68>
ffffffc0502084de:	fd843783          	ld	a5,-40(s0)
ffffffc0502084e2:	fd043703          	ld	a4,-48(s0)
ffffffc0502084e6:	e398                	sd	a4,0(a5)
ffffffc0502084e8:	fd843783          	ld	a5,-40(s0)
ffffffc0502084ec:	6398                	ld	a4,0(a5)
ffffffc0502084ee:	fd843783          	ld	a5,-40(s0)
ffffffc0502084f2:	e798                	sd	a4,8(a5)
ffffffc0502084f4:	fd043783          	ld	a5,-48(s0)
ffffffc0502084f8:	fd843703          	ld	a4,-40(s0)
ffffffc0502084fc:	e398                	sd	a4,0(a5)
ffffffc0502084fe:	fd043783          	ld	a5,-48(s0)
ffffffc050208502:	6398                	ld	a4,0(a5)
ffffffc050208504:	fd043783          	ld	a5,-48(s0)
ffffffc050208508:	e798                	sd	a4,8(a5)
ffffffc05020850a:	a035                	j	ffffffc050208536 <Enqueue+0x92>
ffffffc05020850c:	fd843783          	ld	a5,-40(s0)
ffffffc050208510:	fd043703          	ld	a4,-48(s0)
ffffffc050208514:	e798                	sd	a4,8(a5)
ffffffc050208516:	fd043783          	ld	a5,-48(s0)
ffffffc05020851a:	fe843703          	ld	a4,-24(s0)
ffffffc05020851e:	e398                	sd	a4,0(a5)
ffffffc050208520:	fd043783          	ld	a5,-48(s0)
ffffffc050208524:	fd843703          	ld	a4,-40(s0)
ffffffc050208528:	e798                	sd	a4,8(a5)
ffffffc05020852a:	fe843783          	ld	a5,-24(s0)
ffffffc05020852e:	fd043703          	ld	a4,-48(s0)
ffffffc050208532:	e798                	sd	a4,8(a5)
ffffffc050208534:	0001                	nop
ffffffc050208536:	0001                	nop
ffffffc050208538:	7422                	ld	s0,40(sp)
ffffffc05020853a:	6145                	addi	sp,sp,48
ffffffc05020853c:	8082                	ret

ffffffc05020853e <if_queue_empty>:
ffffffc05020853e:	1101                	addi	sp,sp,-32
ffffffc050208540:	ec22                	sd	s0,24(sp)
ffffffc050208542:	1000                	addi	s0,sp,32
ffffffc050208544:	fea43423          	sd	a0,-24(s0)
ffffffc050208548:	fe843783          	ld	a5,-24(s0)
ffffffc05020854c:	679c                	ld	a5,8(a5)
ffffffc05020854e:	fe843703          	ld	a4,-24(s0)
ffffffc050208552:	00f71b63          	bne	a4,a5,ffffffc050208568 <if_queue_empty+0x2a>
ffffffc050208556:	fe843783          	ld	a5,-24(s0)
ffffffc05020855a:	639c                	ld	a5,0(a5)
ffffffc05020855c:	fe843703          	ld	a4,-24(s0)
ffffffc050208560:	00f71463          	bne	a4,a5,ffffffc050208568 <if_queue_empty+0x2a>
ffffffc050208564:	4785                	li	a5,1
ffffffc050208566:	a011                	j	ffffffc05020856a <if_queue_empty+0x2c>
ffffffc050208568:	4781                	li	a5,0
ffffffc05020856a:	853e                	mv	a0,a5
ffffffc05020856c:	6462                	ld	s0,24(sp)
ffffffc05020856e:	6105                	addi	sp,sp,32
ffffffc050208570:	8082                	ret

ffffffc050208572 <get_ticks>:
ffffffc050208572:	1141                	addi	sp,sp,-16
ffffffc050208574:	e422                	sd	s0,8(sp)
ffffffc050208576:	0800                	addi	s0,sp,16
ffffffc050208578:	c0102773          	rdtime	a4
ffffffc05020857c:	00004797          	auipc	a5,0x4
ffffffc050208580:	4ec78793          	addi	a5,a5,1260 # ffffffc05020ca68 <time_elapsed>
ffffffc050208584:	e398                	sd	a4,0(a5)
ffffffc050208586:	00004797          	auipc	a5,0x4
ffffffc05020858a:	4e278793          	addi	a5,a5,1250 # ffffffc05020ca68 <time_elapsed>
ffffffc05020858e:	639c                	ld	a5,0(a5)
ffffffc050208590:	853e                	mv	a0,a5
ffffffc050208592:	6422                	ld	s0,8(sp)
ffffffc050208594:	0141                	addi	sp,sp,16
ffffffc050208596:	8082                	ret

ffffffc050208598 <get_timer>:
ffffffc050208598:	1141                	addi	sp,sp,-16
ffffffc05020859a:	e406                	sd	ra,8(sp)
ffffffc05020859c:	e022                	sd	s0,0(sp)
ffffffc05020859e:	0800                	addi	s0,sp,16
ffffffc0502085a0:	fd3ff0ef          	jal	ra,ffffffc050208572 <get_ticks>
ffffffc0502085a4:	872a                	mv	a4,a0
ffffffc0502085a6:	00004797          	auipc	a5,0x4
ffffffc0502085aa:	4ca78793          	addi	a5,a5,1226 # ffffffc05020ca70 <time_base>
ffffffc0502085ae:	639c                	ld	a5,0(a5)
ffffffc0502085b0:	02f757b3          	divu	a5,a4,a5
ffffffc0502085b4:	853e                	mv	a0,a5
ffffffc0502085b6:	60a2                	ld	ra,8(sp)
ffffffc0502085b8:	6402                	ld	s0,0(sp)
ffffffc0502085ba:	0141                	addi	sp,sp,16
ffffffc0502085bc:	8082                	ret

ffffffc0502085be <get_time_base>:
ffffffc0502085be:	1141                	addi	sp,sp,-16
ffffffc0502085c0:	e422                	sd	s0,8(sp)
ffffffc0502085c2:	0800                	addi	s0,sp,16
ffffffc0502085c4:	00004797          	auipc	a5,0x4
ffffffc0502085c8:	4ac78793          	addi	a5,a5,1196 # ffffffc05020ca70 <time_base>
ffffffc0502085cc:	639c                	ld	a5,0(a5)
ffffffc0502085ce:	853e                	mv	a0,a5
ffffffc0502085d0:	6422                	ld	s0,8(sp)
ffffffc0502085d2:	0141                	addi	sp,sp,16
ffffffc0502085d4:	8082                	ret

ffffffc0502085d6 <latency>:
ffffffc0502085d6:	7179                	addi	sp,sp,-48
ffffffc0502085d8:	f406                	sd	ra,40(sp)
ffffffc0502085da:	f022                	sd	s0,32(sp)
ffffffc0502085dc:	1800                	addi	s0,sp,48
ffffffc0502085de:	fca43c23          	sd	a0,-40(s0)
ffffffc0502085e2:	fb7ff0ef          	jal	ra,ffffffc050208598 <get_timer>
ffffffc0502085e6:	fea43423          	sd	a0,-24(s0)
ffffffc0502085ea:	0001                	nop
ffffffc0502085ec:	fadff0ef          	jal	ra,ffffffc050208598 <get_timer>
ffffffc0502085f0:	872a                	mv	a4,a0
ffffffc0502085f2:	fe843783          	ld	a5,-24(s0)
ffffffc0502085f6:	40f707b3          	sub	a5,a4,a5
ffffffc0502085fa:	fd843703          	ld	a4,-40(s0)
ffffffc0502085fe:	fee7e7e3          	bltu	a5,a4,ffffffc0502085ec <latency+0x16>
ffffffc050208602:	0001                	nop
ffffffc050208604:	70a2                	ld	ra,40(sp)
ffffffc050208606:	7402                	ld	s0,32(sp)
ffffffc050208608:	6145                	addi	sp,sp,48
ffffffc05020860a:	8082                	ret

ffffffc05020860c <check_sleeping>:
ffffffc05020860c:	7179                	addi	sp,sp,-48
ffffffc05020860e:	f406                	sd	ra,40(sp)
ffffffc050208610:	f022                	sd	s0,32(sp)
ffffffc050208612:	1800                	addi	s0,sp,48
ffffffc050208614:	00004797          	auipc	a5,0x4
ffffffc050208618:	36c78793          	addi	a5,a5,876 # ffffffc05020c980 <sleep_queue>
ffffffc05020861c:	679c                	ld	a5,8(a5)
ffffffc05020861e:	fef43423          	sd	a5,-24(s0)
ffffffc050208622:	a88d                	j	ffffffc050208694 <check_sleeping+0x88>
ffffffc050208624:	00004517          	auipc	a0,0x4
ffffffc050208628:	35c50513          	addi	a0,a0,860 # ffffffc05020c980 <sleep_queue>
ffffffc05020862c:	dedff0ef          	jal	ra,ffffffc050208418 <Dequeue>
ffffffc050208630:	fea43023          	sd	a0,-32(s0)
ffffffc050208634:	fe043783          	ld	a5,-32(s0)
ffffffc050208638:	17c1                	addi	a5,a5,-16
ffffffc05020863a:	fcf43c23          	sd	a5,-40(s0)
ffffffc05020863e:	f5bff0ef          	jal	ra,ffffffc050208598 <get_timer>
ffffffc050208642:	872a                	mv	a4,a0
ffffffc050208644:	fd843783          	ld	a5,-40(s0)
ffffffc050208648:	67bc                	ld	a5,72(a5)
ffffffc05020864a:	02f76763          	bltu	a4,a5,ffffffc050208678 <check_sleeping+0x6c>
ffffffc05020864e:	fd843783          	ld	a5,-40(s0)
ffffffc050208652:	5f9c                	lw	a5,56(a5)
ffffffc050208654:	eb95                	bnez	a5,ffffffc050208688 <check_sleeping+0x7c>
ffffffc050208656:	fd843783          	ld	a5,-40(s0)
ffffffc05020865a:	4709                	li	a4,2
ffffffc05020865c:	df98                	sw	a4,56(a5)
ffffffc05020865e:	fd843783          	ld	a5,-40(s0)
ffffffc050208662:	0407b423          	sd	zero,72(a5)
ffffffc050208666:	fe043583          	ld	a1,-32(s0)
ffffffc05020866a:	00004517          	auipc	a0,0x4
ffffffc05020866e:	30650513          	addi	a0,a0,774 # ffffffc05020c970 <ready_queue>
ffffffc050208672:	e33ff0ef          	jal	ra,ffffffc0502084a4 <Enqueue>
ffffffc050208676:	a809                	j	ffffffc050208688 <check_sleeping+0x7c>
ffffffc050208678:	fe043583          	ld	a1,-32(s0)
ffffffc05020867c:	00004517          	auipc	a0,0x4
ffffffc050208680:	30450513          	addi	a0,a0,772 # ffffffc05020c980 <sleep_queue>
ffffffc050208684:	e21ff0ef          	jal	ra,ffffffc0502084a4 <Enqueue>
ffffffc050208688:	fe043703          	ld	a4,-32(s0)
ffffffc05020868c:	fe843783          	ld	a5,-24(s0)
ffffffc050208690:	00f70b63          	beq	a4,a5,ffffffc0502086a6 <check_sleeping+0x9a>
ffffffc050208694:	00004517          	auipc	a0,0x4
ffffffc050208698:	2ec50513          	addi	a0,a0,748 # ffffffc05020c980 <sleep_queue>
ffffffc05020869c:	ea3ff0ef          	jal	ra,ffffffc05020853e <if_queue_empty>
ffffffc0502086a0:	87aa                	mv	a5,a0
ffffffc0502086a2:	d3c9                	beqz	a5,ffffffc050208624 <check_sleeping+0x18>
ffffffc0502086a4:	a011                	j	ffffffc0502086a8 <check_sleeping+0x9c>
ffffffc0502086a6:	0001                	nop
ffffffc0502086a8:	0001                	nop
ffffffc0502086aa:	70a2                	ld	ra,40(sp)
ffffffc0502086ac:	7402                	ld	s0,32(sp)
ffffffc0502086ae:	6145                	addi	sp,sp,48
ffffffc0502086b0:	8082                	ret

ffffffc0502086b2 <Dequeue>:
ffffffc0502086b2:	7139                	addi	sp,sp,-64
ffffffc0502086b4:	fc22                	sd	s0,56(sp)
ffffffc0502086b6:	0080                	addi	s0,sp,64
ffffffc0502086b8:	fca43423          	sd	a0,-56(s0)
ffffffc0502086bc:	fc843783          	ld	a5,-56(s0)
ffffffc0502086c0:	679c                	ld	a5,8(a5)
ffffffc0502086c2:	fef43423          	sd	a5,-24(s0)
ffffffc0502086c6:	fc843783          	ld	a5,-56(s0)
ffffffc0502086ca:	639c                	ld	a5,0(a5)
ffffffc0502086cc:	fef43023          	sd	a5,-32(s0)
ffffffc0502086d0:	fe843703          	ld	a4,-24(s0)
ffffffc0502086d4:	fc843783          	ld	a5,-56(s0)
ffffffc0502086d8:	00f71a63          	bne	a4,a5,ffffffc0502086ec <Dequeue+0x3a>
ffffffc0502086dc:	fe043703          	ld	a4,-32(s0)
ffffffc0502086e0:	fc843783          	ld	a5,-56(s0)
ffffffc0502086e4:	00f71463          	bne	a4,a5,ffffffc0502086ec <Dequeue+0x3a>
ffffffc0502086e8:	4781                	li	a5,0
ffffffc0502086ea:	a0b1                	j	ffffffc050208736 <Dequeue+0x84>
ffffffc0502086ec:	fe043703          	ld	a4,-32(s0)
ffffffc0502086f0:	fe843783          	ld	a5,-24(s0)
ffffffc0502086f4:	02f71063          	bne	a4,a5,ffffffc050208714 <Dequeue+0x62>
ffffffc0502086f8:	fc843783          	ld	a5,-56(s0)
ffffffc0502086fc:	fc843703          	ld	a4,-56(s0)
ffffffc050208700:	e398                	sd	a4,0(a5)
ffffffc050208702:	fc843783          	ld	a5,-56(s0)
ffffffc050208706:	6398                	ld	a4,0(a5)
ffffffc050208708:	fc843783          	ld	a5,-56(s0)
ffffffc05020870c:	e798                	sd	a4,8(a5)
ffffffc05020870e:	fe043783          	ld	a5,-32(s0)
ffffffc050208712:	a015                	j	ffffffc050208736 <Dequeue+0x84>
ffffffc050208714:	fe043783          	ld	a5,-32(s0)
ffffffc050208718:	679c                	ld	a5,8(a5)
ffffffc05020871a:	fcf43c23          	sd	a5,-40(s0)
ffffffc05020871e:	fd843783          	ld	a5,-40(s0)
ffffffc050208722:	fc843703          	ld	a4,-56(s0)
ffffffc050208726:	e398                	sd	a4,0(a5)
ffffffc050208728:	fc843783          	ld	a5,-56(s0)
ffffffc05020872c:	fd843703          	ld	a4,-40(s0)
ffffffc050208730:	e398                	sd	a4,0(a5)
ffffffc050208732:	fe043783          	ld	a5,-32(s0)
ffffffc050208736:	853e                	mv	a0,a5
ffffffc050208738:	7462                	ld	s0,56(sp)
ffffffc05020873a:	6121                	addi	sp,sp,64
ffffffc05020873c:	8082                	ret

ffffffc05020873e <Enqueue>:
ffffffc05020873e:	7179                	addi	sp,sp,-48
ffffffc050208740:	f422                	sd	s0,40(sp)
ffffffc050208742:	1800                	addi	s0,sp,48
ffffffc050208744:	fca43c23          	sd	a0,-40(s0)
ffffffc050208748:	fcb43823          	sd	a1,-48(s0)
ffffffc05020874c:	fd843783          	ld	a5,-40(s0)
ffffffc050208750:	679c                	ld	a5,8(a5)
ffffffc050208752:	fef43423          	sd	a5,-24(s0)
ffffffc050208756:	fd843783          	ld	a5,-40(s0)
ffffffc05020875a:	639c                	ld	a5,0(a5)
ffffffc05020875c:	fef43023          	sd	a5,-32(s0)
ffffffc050208760:	fe843703          	ld	a4,-24(s0)
ffffffc050208764:	fd843783          	ld	a5,-40(s0)
ffffffc050208768:	02f71f63          	bne	a4,a5,ffffffc0502087a6 <Enqueue+0x68>
ffffffc05020876c:	fe043703          	ld	a4,-32(s0)
ffffffc050208770:	fd843783          	ld	a5,-40(s0)
ffffffc050208774:	02f71963          	bne	a4,a5,ffffffc0502087a6 <Enqueue+0x68>
ffffffc050208778:	fd843783          	ld	a5,-40(s0)
ffffffc05020877c:	fd043703          	ld	a4,-48(s0)
ffffffc050208780:	e398                	sd	a4,0(a5)
ffffffc050208782:	fd843783          	ld	a5,-40(s0)
ffffffc050208786:	6398                	ld	a4,0(a5)
ffffffc050208788:	fd843783          	ld	a5,-40(s0)
ffffffc05020878c:	e798                	sd	a4,8(a5)
ffffffc05020878e:	fd043783          	ld	a5,-48(s0)
ffffffc050208792:	fd843703          	ld	a4,-40(s0)
ffffffc050208796:	e398                	sd	a4,0(a5)
ffffffc050208798:	fd043783          	ld	a5,-48(s0)
ffffffc05020879c:	6398                	ld	a4,0(a5)
ffffffc05020879e:	fd043783          	ld	a5,-48(s0)
ffffffc0502087a2:	e798                	sd	a4,8(a5)
ffffffc0502087a4:	a035                	j	ffffffc0502087d0 <Enqueue+0x92>
ffffffc0502087a6:	fd843783          	ld	a5,-40(s0)
ffffffc0502087aa:	fd043703          	ld	a4,-48(s0)
ffffffc0502087ae:	e798                	sd	a4,8(a5)
ffffffc0502087b0:	fd043783          	ld	a5,-48(s0)
ffffffc0502087b4:	fe843703          	ld	a4,-24(s0)
ffffffc0502087b8:	e398                	sd	a4,0(a5)
ffffffc0502087ba:	fd043783          	ld	a5,-48(s0)
ffffffc0502087be:	fd843703          	ld	a4,-40(s0)
ffffffc0502087c2:	e798                	sd	a4,8(a5)
ffffffc0502087c4:	fe843783          	ld	a5,-24(s0)
ffffffc0502087c8:	fd043703          	ld	a4,-48(s0)
ffffffc0502087cc:	e798                	sd	a4,8(a5)
ffffffc0502087ce:	0001                	nop
ffffffc0502087d0:	0001                	nop
ffffffc0502087d2:	7422                	ld	s0,40(sp)
ffffffc0502087d4:	6145                	addi	sp,sp,48
ffffffc0502087d6:	8082                	ret

ffffffc0502087d8 <Print_queue>:
ffffffc0502087d8:	7139                	addi	sp,sp,-64
ffffffc0502087da:	fc06                	sd	ra,56(sp)
ffffffc0502087dc:	f822                	sd	s0,48(sp)
ffffffc0502087de:	0080                	addi	s0,sp,64
ffffffc0502087e0:	fca43423          	sd	a0,-56(s0)
ffffffc0502087e4:	fc843783          	ld	a5,-56(s0)
ffffffc0502087e8:	679c                	ld	a5,8(a5)
ffffffc0502087ea:	fef43023          	sd	a5,-32(s0)
ffffffc0502087ee:	fc843783          	ld	a5,-56(s0)
ffffffc0502087f2:	639c                	ld	a5,0(a5)
ffffffc0502087f4:	fcf43c23          	sd	a5,-40(s0)
ffffffc0502087f8:	fe043783          	ld	a5,-32(s0)
ffffffc0502087fc:	fef43423          	sd	a5,-24(s0)
ffffffc050208800:	fe043703          	ld	a4,-32(s0)
ffffffc050208804:	fc843783          	ld	a5,-56(s0)
ffffffc050208808:	00f71f63          	bne	a4,a5,ffffffc050208826 <Print_queue+0x4e>
ffffffc05020880c:	fd843703          	ld	a4,-40(s0)
ffffffc050208810:	fc843783          	ld	a5,-56(s0)
ffffffc050208814:	00f71963          	bne	a4,a5,ffffffc050208826 <Print_queue+0x4e>
ffffffc050208818:	00003517          	auipc	a0,0x3
ffffffc05020881c:	15050513          	addi	a0,a0,336 # ffffffc05020b968 <__FUNCTION__.1616+0x120>
ffffffc050208820:	7c8020ef          	jal	ra,ffffffc05020afe8 <printl>
ffffffc050208824:	a081                	j	ffffffc050208864 <Print_queue+0x8c>
ffffffc050208826:	00003517          	auipc	a0,0x3
ffffffc05020882a:	15250513          	addi	a0,a0,338 # ffffffc05020b978 <__FUNCTION__.1616+0x130>
ffffffc05020882e:	7ba020ef          	jal	ra,ffffffc05020afe8 <printl>
ffffffc050208832:	fe843583          	ld	a1,-24(s0)
ffffffc050208836:	00003517          	auipc	a0,0x3
ffffffc05020883a:	14a50513          	addi	a0,a0,330 # ffffffc05020b980 <__FUNCTION__.1616+0x138>
ffffffc05020883e:	7aa020ef          	jal	ra,ffffffc05020afe8 <printl>
ffffffc050208842:	fe843783          	ld	a5,-24(s0)
ffffffc050208846:	639c                	ld	a5,0(a5)
ffffffc050208848:	fef43423          	sd	a5,-24(s0)
ffffffc05020884c:	fe843703          	ld	a4,-24(s0)
ffffffc050208850:	fc843783          	ld	a5,-56(s0)
ffffffc050208854:	fcf71fe3          	bne	a4,a5,ffffffc050208832 <Print_queue+0x5a>
ffffffc050208858:	00003517          	auipc	a0,0x3
ffffffc05020885c:	13050513          	addi	a0,a0,304 # ffffffc05020b988 <__FUNCTION__.1616+0x140>
ffffffc050208860:	788020ef          	jal	ra,ffffffc05020afe8 <printl>
ffffffc050208864:	70e2                	ld	ra,56(sp)
ffffffc050208866:	7442                	ld	s0,48(sp)
ffffffc050208868:	6121                	addi	sp,sp,64
ffffffc05020886a:	8082                	ret

ffffffc05020886c <init_queue>:
ffffffc05020886c:	1101                	addi	sp,sp,-32
ffffffc05020886e:	ec22                	sd	s0,24(sp)
ffffffc050208870:	1000                	addi	s0,sp,32
ffffffc050208872:	fea43423          	sd	a0,-24(s0)
ffffffc050208876:	fe843783          	ld	a5,-24(s0)
ffffffc05020887a:	fe843703          	ld	a4,-24(s0)
ffffffc05020887e:	e798                	sd	a4,8(a5)
ffffffc050208880:	fe843783          	ld	a5,-24(s0)
ffffffc050208884:	fe843703          	ld	a4,-24(s0)
ffffffc050208888:	e398                	sd	a4,0(a5)
ffffffc05020888a:	0001                	nop
ffffffc05020888c:	6462                	ld	s0,24(sp)
ffffffc05020888e:	6105                	addi	sp,sp,32
ffffffc050208890:	8082                	ret

ffffffc050208892 <local_flush_tlb_all>:
ffffffc050208892:	1141                	addi	sp,sp,-16
ffffffc050208894:	e422                	sd	s0,8(sp)
ffffffc050208896:	0800                	addi	s0,sp,16
ffffffc050208898:	12000073          	sfence.vma
ffffffc05020889c:	0001                	nop
ffffffc05020889e:	6422                	ld	s0,8(sp)
ffffffc0502088a0:	0141                	addi	sp,sp,16
ffffffc0502088a2:	8082                	ret

ffffffc0502088a4 <set_satp>:
ffffffc0502088a4:	7179                	addi	sp,sp,-48
ffffffc0502088a6:	f422                	sd	s0,40(sp)
ffffffc0502088a8:	1800                	addi	s0,sp,48
ffffffc0502088aa:	87aa                	mv	a5,a0
ffffffc0502088ac:	872e                	mv	a4,a1
ffffffc0502088ae:	fcc43823          	sd	a2,-48(s0)
ffffffc0502088b2:	fcf42e23          	sw	a5,-36(s0)
ffffffc0502088b6:	87ba                	mv	a5,a4
ffffffc0502088b8:	fcf42c23          	sw	a5,-40(s0)
ffffffc0502088bc:	fdc46783          	lwu	a5,-36(s0)
ffffffc0502088c0:	03c79713          	slli	a4,a5,0x3c
ffffffc0502088c4:	fd846783          	lwu	a5,-40(s0)
ffffffc0502088c8:	17b2                	slli	a5,a5,0x2c
ffffffc0502088ca:	8fd9                	or	a5,a5,a4
ffffffc0502088cc:	fd043703          	ld	a4,-48(s0)
ffffffc0502088d0:	8fd9                	or	a5,a5,a4
ffffffc0502088d2:	fef43423          	sd	a5,-24(s0)
ffffffc0502088d6:	fe843783          	ld	a5,-24(s0)
ffffffc0502088da:	12000073          	sfence.vma
ffffffc0502088de:	18079073          	csrw	satp,a5
ffffffc0502088e2:	0001                	nop
ffffffc0502088e4:	7422                	ld	s0,40(sp)
ffffffc0502088e6:	6145                	addi	sp,sp,48
ffffffc0502088e8:	8082                	ret

ffffffc0502088ea <kva2pa>:
ffffffc0502088ea:	7179                	addi	sp,sp,-48
ffffffc0502088ec:	f422                	sd	s0,40(sp)
ffffffc0502088ee:	1800                	addi	s0,sp,48
ffffffc0502088f0:	fca43c23          	sd	a0,-40(s0)
ffffffc0502088f4:	57fd                	li	a5,-1
ffffffc0502088f6:	9381                	srli	a5,a5,0x20
ffffffc0502088f8:	fef43423          	sd	a5,-24(s0)
ffffffc0502088fc:	fd843703          	ld	a4,-40(s0)
ffffffc050208900:	fe843783          	ld	a5,-24(s0)
ffffffc050208904:	8ff9                	and	a5,a5,a4
ffffffc050208906:	fef43023          	sd	a5,-32(s0)
ffffffc05020890a:	fe043783          	ld	a5,-32(s0)
ffffffc05020890e:	853e                	mv	a0,a5
ffffffc050208910:	7422                	ld	s0,40(sp)
ffffffc050208912:	6145                	addi	sp,sp,48
ffffffc050208914:	8082                	ret

ffffffc050208916 <pa2kva>:
ffffffc050208916:	7179                	addi	sp,sp,-48
ffffffc050208918:	f422                	sd	s0,40(sp)
ffffffc05020891a:	1800                	addi	s0,sp,48
ffffffc05020891c:	fca43c23          	sd	a0,-40(s0)
ffffffc050208920:	57fd                	li	a5,-1
ffffffc050208922:	179a                	slli	a5,a5,0x26
ffffffc050208924:	fef43423          	sd	a5,-24(s0)
ffffffc050208928:	fd843703          	ld	a4,-40(s0)
ffffffc05020892c:	fe843783          	ld	a5,-24(s0)
ffffffc050208930:	8fd9                	or	a5,a5,a4
ffffffc050208932:	fef43023          	sd	a5,-32(s0)
ffffffc050208936:	fe043783          	ld	a5,-32(s0)
ffffffc05020893a:	853e                	mv	a0,a5
ffffffc05020893c:	7422                	ld	s0,40(sp)
ffffffc05020893e:	6145                	addi	sp,sp,48
ffffffc050208940:	8082                	ret

ffffffc050208942 <call_jmptab>:
ffffffc050208942:	7139                	addi	sp,sp,-64
ffffffc050208944:	fc06                	sd	ra,56(sp)
ffffffc050208946:	f822                	sd	s0,48(sp)
ffffffc050208948:	0080                	addi	s0,sp,64
ffffffc05020894a:	fca43c23          	sd	a0,-40(s0)
ffffffc05020894e:	fcb43823          	sd	a1,-48(s0)
ffffffc050208952:	fcc43423          	sd	a2,-56(s0)
ffffffc050208956:	fcd43023          	sd	a3,-64(s0)
ffffffc05020895a:	fd843783          	ld	a5,-40(s0)
ffffffc05020895e:	00379713          	slli	a4,a5,0x3
ffffffc050208962:	fe0297b7          	lui	a5,0xfe029
ffffffc050208966:	07b6                	slli	a5,a5,0xd
ffffffc050208968:	f0078793          	addi	a5,a5,-256 # fffffffffe028f00 <__BSS_END__+0x3faddbf5d8>
ffffffc05020896c:	97ba                	add	a5,a5,a4
ffffffc05020896e:	639c                	ld	a5,0(a5)
ffffffc050208970:	fef43423          	sd	a5,-24(s0)
ffffffc050208974:	fe843783          	ld	a5,-24(s0)
ffffffc050208978:	fef43023          	sd	a5,-32(s0)
ffffffc05020897c:	fe043783          	ld	a5,-32(s0)
ffffffc050208980:	fc043603          	ld	a2,-64(s0)
ffffffc050208984:	fc843583          	ld	a1,-56(s0)
ffffffc050208988:	fd043503          	ld	a0,-48(s0)
ffffffc05020898c:	9782                	jalr	a5
ffffffc05020898e:	87aa                	mv	a5,a0
ffffffc050208990:	853e                	mv	a0,a5
ffffffc050208992:	70e2                	ld	ra,56(sp)
ffffffc050208994:	7442                	ld	s0,48(sp)
ffffffc050208996:	6121                	addi	sp,sp,64
ffffffc050208998:	8082                	ret

ffffffc05020899a <bios_sdread>:
ffffffc05020899a:	1101                	addi	sp,sp,-32
ffffffc05020899c:	ec06                	sd	ra,24(sp)
ffffffc05020899e:	e822                	sd	s0,16(sp)
ffffffc0502089a0:	1000                	addi	s0,sp,32
ffffffc0502089a2:	87aa                	mv	a5,a0
ffffffc0502089a4:	86ae                	mv	a3,a1
ffffffc0502089a6:	8732                	mv	a4,a2
ffffffc0502089a8:	fef42623          	sw	a5,-20(s0)
ffffffc0502089ac:	87b6                	mv	a5,a3
ffffffc0502089ae:	fef42423          	sw	a5,-24(s0)
ffffffc0502089b2:	87ba                	mv	a5,a4
ffffffc0502089b4:	fef42223          	sw	a5,-28(s0)
ffffffc0502089b8:	fec46783          	lwu	a5,-20(s0)
ffffffc0502089bc:	fe846703          	lwu	a4,-24(s0)
ffffffc0502089c0:	fe446683          	lwu	a3,-28(s0)
ffffffc0502089c4:	863a                	mv	a2,a4
ffffffc0502089c6:	85be                	mv	a1,a5
ffffffc0502089c8:	450d                	li	a0,3
ffffffc0502089ca:	f79ff0ef          	jal	ra,ffffffc050208942 <call_jmptab>
ffffffc0502089ce:	87aa                	mv	a5,a0
ffffffc0502089d0:	2781                	sext.w	a5,a5
ffffffc0502089d2:	853e                	mv	a0,a5
ffffffc0502089d4:	60e2                	ld	ra,24(sp)
ffffffc0502089d6:	6442                	ld	s0,16(sp)
ffffffc0502089d8:	6105                	addi	sp,sp,32
ffffffc0502089da:	8082                	ret

ffffffc0502089dc <alloc_pid>:
ffffffc0502089dc:	1101                	addi	sp,sp,-32
ffffffc0502089de:	ec22                	sd	s0,24(sp)
ffffffc0502089e0:	1000                	addi	s0,sp,32
ffffffc0502089e2:	fe042623          	sw	zero,-20(s0)
ffffffc0502089e6:	a82d                	j	ffffffc050208a20 <alloc_pid+0x44>
ffffffc0502089e8:	00053717          	auipc	a4,0x53
ffffffc0502089ec:	6a870713          	addi	a4,a4,1704 # ffffffc05025c090 <pid_valid>
ffffffc0502089f0:	fec42783          	lw	a5,-20(s0)
ffffffc0502089f4:	078a                	slli	a5,a5,0x2
ffffffc0502089f6:	97ba                	add	a5,a5,a4
ffffffc0502089f8:	439c                	lw	a5,0(a5)
ffffffc0502089fa:	ef91                	bnez	a5,ffffffc050208a16 <alloc_pid+0x3a>
ffffffc0502089fc:	00053717          	auipc	a4,0x53
ffffffc050208a00:	69470713          	addi	a4,a4,1684 # ffffffc05025c090 <pid_valid>
ffffffc050208a04:	fec42783          	lw	a5,-20(s0)
ffffffc050208a08:	078a                	slli	a5,a5,0x2
ffffffc050208a0a:	97ba                	add	a5,a5,a4
ffffffc050208a0c:	4705                	li	a4,1
ffffffc050208a0e:	c398                	sw	a4,0(a5)
ffffffc050208a10:	fec42783          	lw	a5,-20(s0)
ffffffc050208a14:	a831                	j	ffffffc050208a30 <alloc_pid+0x54>
ffffffc050208a16:	fec42783          	lw	a5,-20(s0)
ffffffc050208a1a:	2785                	addiw	a5,a5,1
ffffffc050208a1c:	fef42623          	sw	a5,-20(s0)
ffffffc050208a20:	fec42783          	lw	a5,-20(s0)
ffffffc050208a24:	0007871b          	sext.w	a4,a5
ffffffc050208a28:	47fd                	li	a5,31
ffffffc050208a2a:	fae7dfe3          	bge	a5,a4,ffffffc0502089e8 <alloc_pid+0xc>
ffffffc050208a2e:	4781                	li	a5,0
ffffffc050208a30:	853e                	mv	a0,a5
ffffffc050208a32:	6462                	ld	s0,24(sp)
ffffffc050208a34:	6105                	addi	sp,sp,32
ffffffc050208a36:	8082                	ret

ffffffc050208a38 <recover_pid>:
ffffffc050208a38:	1101                	addi	sp,sp,-32
ffffffc050208a3a:	ec06                	sd	ra,24(sp)
ffffffc050208a3c:	e822                	sd	s0,16(sp)
ffffffc050208a3e:	1000                	addi	s0,sp,32
ffffffc050208a40:	87aa                	mv	a5,a0
ffffffc050208a42:	fef42623          	sw	a5,-20(s0)
ffffffc050208a46:	fec42783          	lw	a5,-20(s0)
ffffffc050208a4a:	2781                	sext.w	a5,a5
ffffffc050208a4c:	02f05463          	blez	a5,ffffffc050208a74 <recover_pid+0x3c>
ffffffc050208a50:	fec42783          	lw	a5,-20(s0)
ffffffc050208a54:	0007871b          	sext.w	a4,a5
ffffffc050208a58:	47fd                	li	a5,31
ffffffc050208a5a:	00e7cd63          	blt	a5,a4,ffffffc050208a74 <recover_pid+0x3c>
ffffffc050208a5e:	00053717          	auipc	a4,0x53
ffffffc050208a62:	63270713          	addi	a4,a4,1586 # ffffffc05025c090 <pid_valid>
ffffffc050208a66:	fec42783          	lw	a5,-20(s0)
ffffffc050208a6a:	078a                	slli	a5,a5,0x2
ffffffc050208a6c:	97ba                	add	a5,a5,a4
ffffffc050208a6e:	0007a023          	sw	zero,0(a5)
ffffffc050208a72:	a801                	j	ffffffc050208a82 <recover_pid+0x4a>
ffffffc050208a74:	00003517          	auipc	a0,0x3
ffffffc050208a78:	f1c50513          	addi	a0,a0,-228 # ffffffc05020b990 <__FUNCTION__.1616+0x148>
ffffffc050208a7c:	45c020ef          	jal	ra,ffffffc05020aed8 <printk>
ffffffc050208a80:	0001                	nop
ffffffc050208a82:	0001                	nop
ffffffc050208a84:	60e2                	ld	ra,24(sp)
ffffffc050208a86:	6442                	ld	s0,16(sp)
ffffffc050208a88:	6105                	addi	sp,sp,32
ffffffc050208a8a:	8082                	ret

ffffffc050208a8c <add_user_stack>:
ffffffc050208a8c:	7119                	addi	sp,sp,-128
ffffffc050208a8e:	fc86                	sd	ra,120(sp)
ffffffc050208a90:	f8a2                	sd	s0,112(sp)
ffffffc050208a92:	0100                	addi	s0,sp,128
ffffffc050208a94:	faa43423          	sd	a0,-88(s0)
ffffffc050208a98:	fab43023          	sd	a1,-96(s0)
ffffffc050208a9c:	f8c43c23          	sd	a2,-104(s0)
ffffffc050208aa0:	87b6                	mv	a5,a3
ffffffc050208aa2:	f8e43423          	sd	a4,-120(s0)
ffffffc050208aa6:	f8f42a23          	sw	a5,-108(s0)
ffffffc050208aaa:	fa843783          	ld	a5,-88(s0)
ffffffc050208aae:	fef43423          	sd	a5,-24(s0)
ffffffc050208ab2:	fa043783          	ld	a5,-96(s0)
ffffffc050208ab6:	fef43023          	sd	a5,-32(s0)
ffffffc050208aba:	f9442783          	lw	a5,-108(s0)
ffffffc050208abe:	078e                	slli	a5,a5,0x3
ffffffc050208ac0:	fe843703          	ld	a4,-24(s0)
ffffffc050208ac4:	40f707b3          	sub	a5,a4,a5
ffffffc050208ac8:	fef43423          	sd	a5,-24(s0)
ffffffc050208acc:	f9442783          	lw	a5,-108(s0)
ffffffc050208ad0:	078e                	slli	a5,a5,0x3
ffffffc050208ad2:	fe043703          	ld	a4,-32(s0)
ffffffc050208ad6:	40f707b3          	sub	a5,a4,a5
ffffffc050208ada:	fef43023          	sd	a5,-32(s0)
ffffffc050208ade:	fe843783          	ld	a5,-24(s0)
ffffffc050208ae2:	fcf43823          	sd	a5,-48(s0)
ffffffc050208ae6:	fe043783          	ld	a5,-32(s0)
ffffffc050208aea:	fcf43423          	sd	a5,-56(s0)
ffffffc050208aee:	fc042e23          	sw	zero,-36(s0)
ffffffc050208af2:	a041                	j	ffffffc050208b72 <add_user_stack+0xe6>
ffffffc050208af4:	fdc42783          	lw	a5,-36(s0)
ffffffc050208af8:	078e                	slli	a5,a5,0x3
ffffffc050208afa:	f8843703          	ld	a4,-120(s0)
ffffffc050208afe:	97ba                	add	a5,a5,a4
ffffffc050208b00:	639c                	ld	a5,0(a5)
ffffffc050208b02:	853e                	mv	a0,a5
ffffffc050208b04:	60c020ef          	jal	ra,ffffffc05020b110 <strlen>
ffffffc050208b08:	87aa                	mv	a5,a0
ffffffc050208b0a:	fcf42023          	sw	a5,-64(s0)
ffffffc050208b0e:	fc042783          	lw	a5,-64(s0)
ffffffc050208b12:	2785                	addiw	a5,a5,1
ffffffc050208b14:	2781                	sext.w	a5,a5
ffffffc050208b16:	873e                	mv	a4,a5
ffffffc050208b18:	fe843783          	ld	a5,-24(s0)
ffffffc050208b1c:	8f99                	sub	a5,a5,a4
ffffffc050208b1e:	fef43423          	sd	a5,-24(s0)
ffffffc050208b22:	fc042783          	lw	a5,-64(s0)
ffffffc050208b26:	2785                	addiw	a5,a5,1
ffffffc050208b28:	2781                	sext.w	a5,a5
ffffffc050208b2a:	873e                	mv	a4,a5
ffffffc050208b2c:	fe043783          	ld	a5,-32(s0)
ffffffc050208b30:	8f99                	sub	a5,a5,a4
ffffffc050208b32:	fef43023          	sd	a5,-32(s0)
ffffffc050208b36:	fe843783          	ld	a5,-24(s0)
ffffffc050208b3a:	faf43c23          	sd	a5,-72(s0)
ffffffc050208b3e:	fdc42783          	lw	a5,-36(s0)
ffffffc050208b42:	078e                	slli	a5,a5,0x3
ffffffc050208b44:	f8843703          	ld	a4,-120(s0)
ffffffc050208b48:	97ba                	add	a5,a5,a4
ffffffc050208b4a:	639c                	ld	a5,0(a5)
ffffffc050208b4c:	85be                	mv	a1,a5
ffffffc050208b4e:	fb843503          	ld	a0,-72(s0)
ffffffc050208b52:	726020ef          	jal	ra,ffffffc05020b278 <strcpy>
ffffffc050208b56:	fd043703          	ld	a4,-48(s0)
ffffffc050208b5a:	fdc42783          	lw	a5,-36(s0)
ffffffc050208b5e:	078e                	slli	a5,a5,0x3
ffffffc050208b60:	97ba                	add	a5,a5,a4
ffffffc050208b62:	fe043703          	ld	a4,-32(s0)
ffffffc050208b66:	e398                	sd	a4,0(a5)
ffffffc050208b68:	fdc42783          	lw	a5,-36(s0)
ffffffc050208b6c:	2785                	addiw	a5,a5,1
ffffffc050208b6e:	fcf42e23          	sw	a5,-36(s0)
ffffffc050208b72:	fdc42703          	lw	a4,-36(s0)
ffffffc050208b76:	f9442783          	lw	a5,-108(s0)
ffffffc050208b7a:	2701                	sext.w	a4,a4
ffffffc050208b7c:	2781                	sext.w	a5,a5
ffffffc050208b7e:	f6f74be3          	blt	a4,a5,ffffffc050208af4 <add_user_stack+0x68>
ffffffc050208b82:	fa843703          	ld	a4,-88(s0)
ffffffc050208b86:	fe843783          	ld	a5,-24(s0)
ffffffc050208b8a:	40f707b3          	sub	a5,a4,a5
ffffffc050208b8e:	8391                	srli	a5,a5,0x4
ffffffc050208b90:	fcf42223          	sw	a5,-60(s0)
ffffffc050208b94:	fc442783          	lw	a5,-60(s0)
ffffffc050208b98:	2785                	addiw	a5,a5,1
ffffffc050208b9a:	2781                	sext.w	a5,a5
ffffffc050208b9c:	0047979b          	slliw	a5,a5,0x4
ffffffc050208ba0:	2781                	sext.w	a5,a5
ffffffc050208ba2:	873e                	mv	a4,a5
ffffffc050208ba4:	fa043783          	ld	a5,-96(s0)
ffffffc050208ba8:	40e78733          	sub	a4,a5,a4
ffffffc050208bac:	f9843783          	ld	a5,-104(s0)
ffffffc050208bb0:	e798                	sd	a4,8(a5)
ffffffc050208bb2:	fc843783          	ld	a5,-56(s0)
ffffffc050208bb6:	853e                	mv	a0,a5
ffffffc050208bb8:	70e6                	ld	ra,120(sp)
ffffffc050208bba:	7446                	ld	s0,112(sp)
ffffffc050208bbc:	6109                	addi	sp,sp,128
ffffffc050208bbe:	8082                	ret

ffffffc050208bc0 <add_pcb_stack>:
ffffffc050208bc0:	715d                	addi	sp,sp,-80
ffffffc050208bc2:	e4a2                	sd	s0,72(sp)
ffffffc050208bc4:	0880                	addi	s0,sp,80
ffffffc050208bc6:	fca43c23          	sd	a0,-40(s0)
ffffffc050208bca:	fcb43823          	sd	a1,-48(s0)
ffffffc050208bce:	fcc43423          	sd	a2,-56(s0)
ffffffc050208bd2:	fcd43023          	sd	a3,-64(s0)
ffffffc050208bd6:	86ba                	mv	a3,a4
ffffffc050208bd8:	873e                	mv	a4,a5
ffffffc050208bda:	87b6                	mv	a5,a3
ffffffc050208bdc:	faf42e23          	sw	a5,-68(s0)
ffffffc050208be0:	87ba                	mv	a5,a4
ffffffc050208be2:	faf42c23          	sw	a5,-72(s0)
ffffffc050208be6:	fd843783          	ld	a5,-40(s0)
ffffffc050208bea:	ee078793          	addi	a5,a5,-288
ffffffc050208bee:	fef43423          	sd	a5,-24(s0)
ffffffc050208bf2:	ffff9717          	auipc	a4,0xffff9
ffffffc050208bf6:	4ea70713          	addi	a4,a4,1258 # ffffffc0502020dc <ret_from_exception>
ffffffc050208bfa:	fe843783          	ld	a5,-24(s0)
ffffffc050208bfe:	e798                	sd	a4,8(a5)
ffffffc050208c00:	fc043783          	ld	a5,-64(s0)
ffffffc050208c04:	6798                	ld	a4,8(a5)
ffffffc050208c06:	fe843783          	ld	a5,-24(s0)
ffffffc050208c0a:	eb98                	sd	a4,16(a5)
ffffffc050208c0c:	fc043703          	ld	a4,-64(s0)
ffffffc050208c10:	fe843783          	ld	a5,-24(s0)
ffffffc050208c14:	f398                	sd	a4,32(a5)
ffffffc050208c16:	fb842783          	lw	a5,-72(s0)
ffffffc050208c1a:	2781                	sext.w	a5,a5
ffffffc050208c1c:	c799                	beqz	a5,ffffffc050208c2a <add_pcb_stack+0x6a>
ffffffc050208c1e:	fe843783          	ld	a5,-24(s0)
ffffffc050208c22:	fd043703          	ld	a4,-48(s0)
ffffffc050208c26:	ebb8                	sd	a4,80(a5)
ffffffc050208c28:	a031                	j	ffffffc050208c34 <add_pcb_stack+0x74>
ffffffc050208c2a:	fbc42703          	lw	a4,-68(s0)
ffffffc050208c2e:	fe843783          	ld	a5,-24(s0)
ffffffc050208c32:	ebb8                	sd	a4,80(a5)
ffffffc050208c34:	fe843783          	ld	a5,-24(s0)
ffffffc050208c38:	fd043703          	ld	a4,-48(s0)
ffffffc050208c3c:	efb8                	sd	a4,88(a5)
ffffffc050208c3e:	fe843783          	ld	a5,-24(s0)
ffffffc050208c42:	fc843703          	ld	a4,-56(s0)
ffffffc050208c46:	10e7b423          	sd	a4,264(a5)
ffffffc050208c4a:	fe843783          	ld	a5,-24(s0)
ffffffc050208c4e:	00046737          	lui	a4,0x46
ffffffc050208c52:	02070713          	addi	a4,a4,32 # 46020 <boot_stack_top_base-0x501bbfe0>
ffffffc050208c56:	10e7b023          	sd	a4,256(a5)
ffffffc050208c5a:	fe843783          	ld	a5,-24(s0)
ffffffc050208c5e:	f9078793          	addi	a5,a5,-112
ffffffc050208c62:	fef43023          	sd	a5,-32(s0)
ffffffc050208c66:	ffff9717          	auipc	a4,0xffff9
ffffffc050208c6a:	47670713          	addi	a4,a4,1142 # ffffffc0502020dc <ret_from_exception>
ffffffc050208c6e:	fe043783          	ld	a5,-32(s0)
ffffffc050208c72:	e398                	sd	a4,0(a5)
ffffffc050208c74:	fe043703          	ld	a4,-32(s0)
ffffffc050208c78:	fc043783          	ld	a5,-64(s0)
ffffffc050208c7c:	e398                	sd	a4,0(a5)
ffffffc050208c7e:	fc043783          	ld	a5,-64(s0)
ffffffc050208c82:	6398                	ld	a4,0(a5)
ffffffc050208c84:	fe043783          	ld	a5,-32(s0)
ffffffc050208c88:	e798                	sd	a4,8(a5)
ffffffc050208c8a:	0001                	nop
ffffffc050208c8c:	6426                	ld	s0,72(sp)
ffffffc050208c8e:	6161                	addi	sp,sp,80
ffffffc050208c90:	8082                	ret

ffffffc050208c92 <add_pcb>:
ffffffc050208c92:	7175                	addi	sp,sp,-144
ffffffc050208c94:	e506                	sd	ra,136(sp)
ffffffc050208c96:	e122                	sd	s0,128(sp)
ffffffc050208c98:	fca6                	sd	s1,120(sp)
ffffffc050208c9a:	0900                	addi	s0,sp,144
ffffffc050208c9c:	f8a43423          	sd	a0,-120(s0)
ffffffc050208ca0:	87ae                	mv	a5,a1
ffffffc050208ca2:	f6c43c23          	sd	a2,-136(s0)
ffffffc050208ca6:	8736                	mv	a4,a3
ffffffc050208ca8:	f8f42223          	sw	a5,-124(s0)
ffffffc050208cac:	87ba                	mv	a5,a4
ffffffc050208cae:	f8f42023          	sw	a5,-128(s0)
ffffffc050208cb2:	fc042e23          	sw	zero,-36(s0)
ffffffc050208cb6:	a165                	j	ffffffc05020915e <add_pcb+0x4cc>
ffffffc050208cb8:	fdc42703          	lw	a4,-36(s0)
ffffffc050208cbc:	87ba                	mv	a5,a4
ffffffc050208cbe:	078e                	slli	a5,a5,0x3
ffffffc050208cc0:	97ba                	add	a5,a5,a4
ffffffc050208cc2:	078a                	slli	a5,a5,0x2
ffffffc050208cc4:	01078713          	addi	a4,a5,16
ffffffc050208cc8:	00046797          	auipc	a5,0x46
ffffffc050208ccc:	50078793          	addi	a5,a5,1280 # ffffffc05024f1c8 <tasks>
ffffffc050208cd0:	97ba                	add	a5,a5,a4
ffffffc050208cd2:	f8843583          	ld	a1,-120(s0)
ffffffc050208cd6:	853e                	mv	a0,a5
ffffffc050208cd8:	46e020ef          	jal	ra,ffffffc05020b146 <strcmp>
ffffffc050208cdc:	87aa                	mv	a5,a0
ffffffc050208cde:	46079b63          	bnez	a5,ffffffc050209154 <add_pcb+0x4c2>
ffffffc050208ce2:	cfbff0ef          	jal	ra,ffffffc0502089dc <alloc_pid>
ffffffc050208ce6:	87aa                	mv	a5,a0
ffffffc050208ce8:	fcf42623          	sw	a5,-52(s0)
ffffffc050208cec:	fcc42783          	lw	a5,-52(s0)
ffffffc050208cf0:	fcf42423          	sw	a5,-56(s0)
ffffffc050208cf4:	00053717          	auipc	a4,0x53
ffffffc050208cf8:	43470713          	addi	a4,a4,1076 # ffffffc05025c128 <pcb>
ffffffc050208cfc:	fc842683          	lw	a3,-56(s0)
ffffffc050208d00:	6b000793          	li	a5,1712
ffffffc050208d04:	02f687b3          	mul	a5,a3,a5
ffffffc050208d08:	97ba                	add	a5,a5,a4
ffffffc050208d0a:	4705                	li	a4,1
ffffffc050208d0c:	dbd8                	sw	a4,52(a5)
ffffffc050208d0e:	fc842703          	lw	a4,-56(s0)
ffffffc050208d12:	6b000793          	li	a5,1712
ffffffc050208d16:	02f707b3          	mul	a5,a4,a5
ffffffc050208d1a:	6a078713          	addi	a4,a5,1696
ffffffc050208d1e:	00053797          	auipc	a5,0x53
ffffffc050208d22:	40a78793          	addi	a5,a5,1034 # ffffffc05025c128 <pcb>
ffffffc050208d26:	00f706b3          	add	a3,a4,a5
ffffffc050208d2a:	fdc42703          	lw	a4,-36(s0)
ffffffc050208d2e:	87ba                	mv	a5,a4
ffffffc050208d30:	078e                	slli	a5,a5,0x3
ffffffc050208d32:	97ba                	add	a5,a5,a4
ffffffc050208d34:	078a                	slli	a5,a5,0x2
ffffffc050208d36:	01078713          	addi	a4,a5,16
ffffffc050208d3a:	00046797          	auipc	a5,0x46
ffffffc050208d3e:	48e78793          	addi	a5,a5,1166 # ffffffc05024f1c8 <tasks>
ffffffc050208d42:	97ba                	add	a5,a5,a4
ffffffc050208d44:	85be                	mv	a1,a5
ffffffc050208d46:	8536                	mv	a0,a3
ffffffc050208d48:	530020ef          	jal	ra,ffffffc05020b278 <strcpy>
ffffffc050208d4c:	fc842703          	lw	a4,-56(s0)
ffffffc050208d50:	6b000793          	li	a5,1712
ffffffc050208d54:	02f707b3          	mul	a5,a4,a5
ffffffc050208d58:	02078713          	addi	a4,a5,32
ffffffc050208d5c:	00053797          	auipc	a5,0x53
ffffffc050208d60:	3cc78793          	addi	a5,a5,972 # ffffffc05025c128 <pcb>
ffffffc050208d64:	97ba                	add	a5,a5,a4
ffffffc050208d66:	853e                	mv	a0,a5
ffffffc050208d68:	b05ff0ef          	jal	ra,ffffffc05020886c <init_queue>
ffffffc050208d6c:	fc042c23          	sw	zero,-40(s0)
ffffffc050208d70:	a805                	j	ffffffc050208da0 <add_pcb+0x10e>
ffffffc050208d72:	00053717          	auipc	a4,0x53
ffffffc050208d76:	3b670713          	addi	a4,a4,950 # ffffffc05025c128 <pcb>
ffffffc050208d7a:	fd842783          	lw	a5,-40(s0)
ffffffc050208d7e:	fc842603          	lw	a2,-56(s0)
ffffffc050208d82:	1ac00693          	li	a3,428
ffffffc050208d86:	02d606b3          	mul	a3,a2,a3
ffffffc050208d8a:	97b6                	add	a5,a5,a3
ffffffc050208d8c:	07e1                	addi	a5,a5,24
ffffffc050208d8e:	078a                	slli	a5,a5,0x2
ffffffc050208d90:	97ba                	add	a5,a5,a4
ffffffc050208d92:	0007a023          	sw	zero,0(a5)
ffffffc050208d96:	fd842783          	lw	a5,-40(s0)
ffffffc050208d9a:	2785                	addiw	a5,a5,1
ffffffc050208d9c:	fcf42c23          	sw	a5,-40(s0)
ffffffc050208da0:	fd842783          	lw	a5,-40(s0)
ffffffc050208da4:	0007871b          	sext.w	a4,a5
ffffffc050208da8:	47a5                	li	a5,9
ffffffc050208daa:	fce7d4e3          	bge	a5,a4,ffffffc050208d72 <add_pcb+0xe0>
ffffffc050208dae:	00053717          	auipc	a4,0x53
ffffffc050208db2:	37a70713          	addi	a4,a4,890 # ffffffc05025c128 <pcb>
ffffffc050208db6:	fc842683          	lw	a3,-56(s0)
ffffffc050208dba:	6b000793          	li	a5,1712
ffffffc050208dbe:	02f687b3          	mul	a5,a3,a5
ffffffc050208dc2:	97ba                	add	a5,a5,a4
ffffffc050208dc4:	f8042703          	lw	a4,-128(s0)
ffffffc050208dc8:	08e7a423          	sw	a4,136(a5)
ffffffc050208dcc:	c18f90ef          	jal	ra,ffffffc0502021e4 <get_current_cpu_id>
ffffffc050208dd0:	87aa                	mv	a5,a0
ffffffc050208dd2:	863e                	mv	a2,a5
ffffffc050208dd4:	00053717          	auipc	a4,0x53
ffffffc050208dd8:	35470713          	addi	a4,a4,852 # ffffffc05025c128 <pcb>
ffffffc050208ddc:	fc842683          	lw	a3,-56(s0)
ffffffc050208de0:	6b000793          	li	a5,1712
ffffffc050208de4:	02f687b3          	mul	a5,a3,a5
ffffffc050208de8:	97ba                	add	a5,a5,a4
ffffffc050208dea:	08c7a623          	sw	a2,140(a5)
ffffffc050208dee:	00053717          	auipc	a4,0x53
ffffffc050208df2:	33a70713          	addi	a4,a4,826 # ffffffc05025c128 <pcb>
ffffffc050208df6:	fc842683          	lw	a3,-56(s0)
ffffffc050208dfa:	6b000793          	li	a5,1712
ffffffc050208dfe:	02f687b3          	mul	a5,a3,a5
ffffffc050208e02:	97ba                	add	a5,a5,a4
ffffffc050208e04:	0807ac23          	sw	zero,152(a5)
ffffffc050208e08:	fc042a23          	sw	zero,-44(s0)
ffffffc050208e0c:	a805                	j	ffffffc050208e3c <add_pcb+0x1aa>
ffffffc050208e0e:	00053717          	auipc	a4,0x53
ffffffc050208e12:	31a70713          	addi	a4,a4,794 # ffffffc05025c128 <pcb>
ffffffc050208e16:	fd442783          	lw	a5,-44(s0)
ffffffc050208e1a:	fc842603          	lw	a2,-56(s0)
ffffffc050208e1e:	0d600693          	li	a3,214
ffffffc050208e22:	02d606b3          	mul	a3,a2,a3
ffffffc050208e26:	97b6                	add	a5,a5,a3
ffffffc050208e28:	07d1                	addi	a5,a5,20
ffffffc050208e2a:	078e                	slli	a5,a5,0x3
ffffffc050208e2c:	97ba                	add	a5,a5,a4
ffffffc050208e2e:	0007b023          	sd	zero,0(a5)
ffffffc050208e32:	fd442783          	lw	a5,-44(s0)
ffffffc050208e36:	2785                	addiw	a5,a5,1
ffffffc050208e38:	fcf42a23          	sw	a5,-44(s0)
ffffffc050208e3c:	fd442783          	lw	a5,-44(s0)
ffffffc050208e40:	0007871b          	sext.w	a4,a5
ffffffc050208e44:	07f00793          	li	a5,127
ffffffc050208e48:	fce7d3e3          	bge	a5,a4,ffffffc050208e0e <add_pcb+0x17c>
ffffffc050208e4c:	fc042823          	sw	zero,-48(s0)
ffffffc050208e50:	a80d                	j	ffffffc050208e82 <add_pcb+0x1f0>
ffffffc050208e52:	00053717          	auipc	a4,0x53
ffffffc050208e56:	2d670713          	addi	a4,a4,726 # ffffffc05025c128 <pcb>
ffffffc050208e5a:	fd042783          	lw	a5,-48(s0)
ffffffc050208e5e:	fc842603          	lw	a2,-56(s0)
ffffffc050208e62:	1ac00693          	li	a3,428
ffffffc050208e66:	02d606b3          	mul	a3,a2,a3
ffffffc050208e6a:	97b6                	add	a5,a5,a3
ffffffc050208e6c:	12878793          	addi	a5,a5,296
ffffffc050208e70:	078a                	slli	a5,a5,0x2
ffffffc050208e72:	97ba                	add	a5,a5,a4
ffffffc050208e74:	0007a023          	sw	zero,0(a5)
ffffffc050208e78:	fd042783          	lw	a5,-48(s0)
ffffffc050208e7c:	2785                	addiw	a5,a5,1
ffffffc050208e7e:	fcf42823          	sw	a5,-48(s0)
ffffffc050208e82:	fd042783          	lw	a5,-48(s0)
ffffffc050208e86:	0007871b          	sext.w	a4,a5
ffffffc050208e8a:	07f00793          	li	a5,127
ffffffc050208e8e:	fce7d2e3          	bge	a5,a4,ffffffc050208e52 <add_pcb+0x1c0>
ffffffc050208e92:	fc842703          	lw	a4,-56(s0)
ffffffc050208e96:	6b000793          	li	a5,1712
ffffffc050208e9a:	02f70733          	mul	a4,a4,a5
ffffffc050208e9e:	00053797          	auipc	a5,0x53
ffffffc050208ea2:	28a78793          	addi	a5,a5,650 # ffffffc05025c128 <pcb>
ffffffc050208ea6:	97ba                	add	a5,a5,a4
ffffffc050208ea8:	85be                	mv	a1,a5
ffffffc050208eaa:	4505                	li	a0,1
ffffffc050208eac:	c11fc0ef          	jal	ra,ffffffc050205abc <allocPgdir>
ffffffc050208eb0:	862a                	mv	a2,a0
ffffffc050208eb2:	00053717          	auipc	a4,0x53
ffffffc050208eb6:	27670713          	addi	a4,a4,630 # ffffffc05025c128 <pcb>
ffffffc050208eba:	fc842683          	lw	a3,-56(s0)
ffffffc050208ebe:	6b000793          	li	a5,1712
ffffffc050208ec2:	02f687b3          	mul	a5,a3,a5
ffffffc050208ec6:	97ba                	add	a5,a5,a4
ffffffc050208ec8:	ebd0                	sd	a2,144(a5)
ffffffc050208eca:	00053717          	auipc	a4,0x53
ffffffc050208ece:	25e70713          	addi	a4,a4,606 # ffffffc05025c128 <pcb>
ffffffc050208ed2:	fc842683          	lw	a3,-56(s0)
ffffffc050208ed6:	6b000793          	li	a5,1712
ffffffc050208eda:	02f687b3          	mul	a5,a3,a5
ffffffc050208ede:	97ba                	add	a5,a5,a4
ffffffc050208ee0:	6bdc                	ld	a5,144(a5)
ffffffc050208ee2:	85be                	mv	a1,a5
ffffffc050208ee4:	00003517          	auipc	a0,0x3
ffffffc050208ee8:	ac450513          	addi	a0,a0,-1340 # ffffffc05020b9a8 <__FUNCTION__.1616+0x160>
ffffffc050208eec:	0fc020ef          	jal	ra,ffffffc05020afe8 <printl>
ffffffc050208ef0:	00053717          	auipc	a4,0x53
ffffffc050208ef4:	23870713          	addi	a4,a4,568 # ffffffc05025c128 <pcb>
ffffffc050208ef8:	fc842683          	lw	a3,-56(s0)
ffffffc050208efc:	6b000793          	li	a5,1712
ffffffc050208f00:	02f687b3          	mul	a5,a3,a5
ffffffc050208f04:	97ba                	add	a5,a5,a4
ffffffc050208f06:	6bc4                	ld	s1,144(a5)
ffffffc050208f08:	51000537          	lui	a0,0x51000
ffffffc050208f0c:	a0bff0ef          	jal	ra,ffffffc050208916 <pa2kva>
ffffffc050208f10:	87aa                	mv	a5,a0
ffffffc050208f12:	85be                	mv	a1,a5
ffffffc050208f14:	8526                	mv	a0,s1
ffffffc050208f16:	a24fd0ef          	jal	ra,ffffffc05020613a <share_pgtable>
ffffffc050208f1a:	fc842703          	lw	a4,-56(s0)
ffffffc050208f1e:	6b000793          	li	a5,1712
ffffffc050208f22:	02f70733          	mul	a4,a4,a5
ffffffc050208f26:	00053797          	auipc	a5,0x53
ffffffc050208f2a:	20278793          	addi	a5,a5,514 # ffffffc05025c128 <pcb>
ffffffc050208f2e:	97ba                	add	a5,a5,a4
ffffffc050208f30:	85be                	mv	a1,a5
ffffffc050208f32:	4505                	li	a0,1
ffffffc050208f34:	c61fc0ef          	jal	ra,ffffffc050205b94 <allocKernPage>
ffffffc050208f38:	862a                	mv	a2,a0
ffffffc050208f3a:	00053717          	auipc	a4,0x53
ffffffc050208f3e:	1ee70713          	addi	a4,a4,494 # ffffffc05025c128 <pcb>
ffffffc050208f42:	fc842683          	lw	a3,-56(s0)
ffffffc050208f46:	6b000793          	li	a5,1712
ffffffc050208f4a:	02f687b3          	mul	a5,a3,a5
ffffffc050208f4e:	97ba                	add	a5,a5,a4
ffffffc050208f50:	ebb0                	sd	a2,80(a5)
ffffffc050208f52:	00053717          	auipc	a4,0x53
ffffffc050208f56:	1d670713          	addi	a4,a4,470 # ffffffc05025c128 <pcb>
ffffffc050208f5a:	fc842683          	lw	a3,-56(s0)
ffffffc050208f5e:	6b000793          	li	a5,1712
ffffffc050208f62:	02f687b3          	mul	a5,a3,a5
ffffffc050208f66:	97ba                	add	a5,a5,a4
ffffffc050208f68:	6bb8                	ld	a4,80(a5)
ffffffc050208f6a:	6785                	lui	a5,0x1
ffffffc050208f6c:	97ba                	add	a5,a5,a4
ffffffc050208f6e:	fcf43023          	sd	a5,-64(s0)
ffffffc050208f72:	00053717          	auipc	a4,0x53
ffffffc050208f76:	1b670713          	addi	a4,a4,438 # ffffffc05025c128 <pcb>
ffffffc050208f7a:	fc842683          	lw	a3,-56(s0)
ffffffc050208f7e:	6b000793          	li	a5,1712
ffffffc050208f82:	02f687b3          	mul	a5,a3,a5
ffffffc050208f86:	97ba                	add	a5,a5,a4
ffffffc050208f88:	000f0737          	lui	a4,0xf0
ffffffc050208f8c:	0705                	addi	a4,a4,1
ffffffc050208f8e:	0742                	slli	a4,a4,0x10
ffffffc050208f90:	efb8                	sd	a4,88(a5)
ffffffc050208f92:	00053717          	auipc	a4,0x53
ffffffc050208f96:	19670713          	addi	a4,a4,406 # ffffffc05025c128 <pcb>
ffffffc050208f9a:	fc842683          	lw	a3,-56(s0)
ffffffc050208f9e:	6b000793          	li	a5,1712
ffffffc050208fa2:	02f687b3          	mul	a5,a3,a5
ffffffc050208fa6:	97ba                	add	a5,a5,a4
ffffffc050208fa8:	6fb8                	ld	a4,88(a5)
ffffffc050208faa:	6785                	lui	a5,0x1
ffffffc050208fac:	97ba                	add	a5,a5,a4
ffffffc050208fae:	faf43c23          	sd	a5,-72(s0)
ffffffc050208fb2:	00053717          	auipc	a4,0x53
ffffffc050208fb6:	17670713          	addi	a4,a4,374 # ffffffc05025c128 <pcb>
ffffffc050208fba:	fc842683          	lw	a3,-56(s0)
ffffffc050208fbe:	6b000793          	li	a5,1712
ffffffc050208fc2:	02f687b3          	mul	a5,a3,a5
ffffffc050208fc6:	97ba                	add	a5,a5,a4
ffffffc050208fc8:	6bcc                	ld	a1,144(a5)
ffffffc050208fca:	fc842703          	lw	a4,-56(s0)
ffffffc050208fce:	6b000793          	li	a5,1712
ffffffc050208fd2:	02f70733          	mul	a4,a4,a5
ffffffc050208fd6:	00053797          	auipc	a5,0x53
ffffffc050208fda:	15278793          	addi	a5,a5,338 # ffffffc05025c128 <pcb>
ffffffc050208fde:	97ba                	add	a5,a5,a4
ffffffc050208fe0:	4685                	li	a3,1
ffffffc050208fe2:	863e                	mv	a2,a5
ffffffc050208fe4:	000f07b7          	lui	a5,0xf0
ffffffc050208fe8:	0785                	addi	a5,a5,1
ffffffc050208fea:	01079513          	slli	a0,a5,0x10
ffffffc050208fee:	978fd0ef          	jal	ra,ffffffc050206166 <alloc_page_helper>
ffffffc050208ff2:	faa43823          	sd	a0,-80(s0)
ffffffc050208ff6:	fb043703          	ld	a4,-80(s0)
ffffffc050208ffa:	6785                	lui	a5,0x1
ffffffc050208ffc:	97ba                	add	a5,a5,a4
ffffffc050208ffe:	faf43423          	sd	a5,-88(s0)
ffffffc050209002:	fc842703          	lw	a4,-56(s0)
ffffffc050209006:	6b000793          	li	a5,1712
ffffffc05020900a:	02f70733          	mul	a4,a4,a5
ffffffc05020900e:	00053797          	auipc	a5,0x53
ffffffc050209012:	11a78793          	addi	a5,a5,282 # ffffffc05025c128 <pcb>
ffffffc050209016:	97ba                	add	a5,a5,a4
ffffffc050209018:	f8442683          	lw	a3,-124(s0)
ffffffc05020901c:	f7843703          	ld	a4,-136(s0)
ffffffc050209020:	863e                	mv	a2,a5
ffffffc050209022:	fb843583          	ld	a1,-72(s0)
ffffffc050209026:	fa843503          	ld	a0,-88(s0)
ffffffc05020902a:	a63ff0ef          	jal	ra,ffffffc050208a8c <add_user_stack>
ffffffc05020902e:	faa43023          	sd	a0,-96(s0)
ffffffc050209032:	00053717          	auipc	a4,0x53
ffffffc050209036:	0f670713          	addi	a4,a4,246 # ffffffc05025c128 <pcb>
ffffffc05020903a:	fc842683          	lw	a3,-56(s0)
ffffffc05020903e:	6b000793          	li	a5,1712
ffffffc050209042:	02f687b3          	mul	a5,a3,a5
ffffffc050209046:	97ba                	add	a5,a5,a4
ffffffc050209048:	6bd4                	ld	a3,144(a5)
ffffffc05020904a:	fc842703          	lw	a4,-56(s0)
ffffffc05020904e:	6b000793          	li	a5,1712
ffffffc050209052:	02f70733          	mul	a4,a4,a5
ffffffc050209056:	00053797          	auipc	a5,0x53
ffffffc05020905a:	0d278793          	addi	a5,a5,210 # ffffffc05025c128 <pcb>
ffffffc05020905e:	973e                	add	a4,a4,a5
ffffffc050209060:	fdc42783          	lw	a5,-36(s0)
ffffffc050209064:	863a                	mv	a2,a4
ffffffc050209066:	85b6                	mv	a1,a3
ffffffc050209068:	853e                	mv	a0,a5
ffffffc05020906a:	8fcfc0ef          	jal	ra,ffffffc050205166 <load_task_img>
ffffffc05020906e:	87aa                	mv	a5,a0
ffffffc050209070:	f8f43c23          	sd	a5,-104(s0)
ffffffc050209074:	fc842703          	lw	a4,-56(s0)
ffffffc050209078:	6b000793          	li	a5,1712
ffffffc05020907c:	02f70733          	mul	a4,a4,a5
ffffffc050209080:	00053797          	auipc	a5,0x53
ffffffc050209084:	0a878793          	addi	a5,a5,168 # ffffffc05025c128 <pcb>
ffffffc050209088:	00f706b3          	add	a3,a4,a5
ffffffc05020908c:	f8442703          	lw	a4,-124(s0)
ffffffc050209090:	4781                	li	a5,0
ffffffc050209092:	f9843603          	ld	a2,-104(s0)
ffffffc050209096:	fa043583          	ld	a1,-96(s0)
ffffffc05020909a:	fc043503          	ld	a0,-64(s0)
ffffffc05020909e:	b23ff0ef          	jal	ra,ffffffc050208bc0 <add_pcb_stack>
ffffffc0502090a2:	00053717          	auipc	a4,0x53
ffffffc0502090a6:	08670713          	addi	a4,a4,134 # ffffffc05025c128 <pcb>
ffffffc0502090aa:	fc842683          	lw	a3,-56(s0)
ffffffc0502090ae:	6b000793          	li	a5,1712
ffffffc0502090b2:	02f687b3          	mul	a5,a3,a5
ffffffc0502090b6:	97ba                	add	a5,a5,a4
ffffffc0502090b8:	fcc42703          	lw	a4,-52(s0)
ffffffc0502090bc:	db98                	sw	a4,48(a5)
ffffffc0502090be:	00053717          	auipc	a4,0x53
ffffffc0502090c2:	06a70713          	addi	a4,a4,106 # ffffffc05025c128 <pcb>
ffffffc0502090c6:	fc842683          	lw	a3,-56(s0)
ffffffc0502090ca:	6b000793          	li	a5,1712
ffffffc0502090ce:	02f687b3          	mul	a5,a3,a5
ffffffc0502090d2:	97ba                	add	a5,a5,a4
ffffffc0502090d4:	0207ae23          	sw	zero,60(a5)
ffffffc0502090d8:	00053717          	auipc	a4,0x53
ffffffc0502090dc:	05070713          	addi	a4,a4,80 # ffffffc05025c128 <pcb>
ffffffc0502090e0:	fc842683          	lw	a3,-56(s0)
ffffffc0502090e4:	6b000793          	li	a5,1712
ffffffc0502090e8:	02f687b3          	mul	a5,a3,a5
ffffffc0502090ec:	97ba                	add	a5,a5,a4
ffffffc0502090ee:	0407a023          	sw	zero,64(a5)
ffffffc0502090f2:	00053717          	auipc	a4,0x53
ffffffc0502090f6:	03670713          	addi	a4,a4,54 # ffffffc05025c128 <pcb>
ffffffc0502090fa:	fc842683          	lw	a3,-56(s0)
ffffffc0502090fe:	6b000793          	li	a5,1712
ffffffc050209102:	02f687b3          	mul	a5,a3,a5
ffffffc050209106:	97ba                	add	a5,a5,a4
ffffffc050209108:	4709                	li	a4,2
ffffffc05020910a:	df98                	sw	a4,56(a5)
ffffffc05020910c:	00053717          	auipc	a4,0x53
ffffffc050209110:	01c70713          	addi	a4,a4,28 # ffffffc05025c128 <pcb>
ffffffc050209114:	fc842683          	lw	a3,-56(s0)
ffffffc050209118:	6b000793          	li	a5,1712
ffffffc05020911c:	02f687b3          	mul	a5,a3,a5
ffffffc050209120:	97ba                	add	a5,a5,a4
ffffffc050209122:	0407b423          	sd	zero,72(a5)
ffffffc050209126:	fc842703          	lw	a4,-56(s0)
ffffffc05020912a:	6b000793          	li	a5,1712
ffffffc05020912e:	02f707b3          	mul	a5,a4,a5
ffffffc050209132:	01078713          	addi	a4,a5,16
ffffffc050209136:	00053797          	auipc	a5,0x53
ffffffc05020913a:	ff278793          	addi	a5,a5,-14 # ffffffc05025c128 <pcb>
ffffffc05020913e:	97ba                	add	a5,a5,a4
ffffffc050209140:	85be                	mv	a1,a5
ffffffc050209142:	00004517          	auipc	a0,0x4
ffffffc050209146:	82e50513          	addi	a0,a0,-2002 # ffffffc05020c970 <ready_queue>
ffffffc05020914a:	df4ff0ef          	jal	ra,ffffffc05020873e <Enqueue>
ffffffc05020914e:	fcc42783          	lw	a5,-52(s0)
ffffffc050209152:	a831                	j	ffffffc05020916e <add_pcb+0x4dc>
ffffffc050209154:	fdc42783          	lw	a5,-36(s0)
ffffffc050209158:	2785                	addiw	a5,a5,1
ffffffc05020915a:	fcf42e23          	sw	a5,-36(s0)
ffffffc05020915e:	fdc42783          	lw	a5,-36(s0)
ffffffc050209162:	0007871b          	sext.w	a4,a5
ffffffc050209166:	47fd                	li	a5,31
ffffffc050209168:	b4e7d8e3          	bge	a5,a4,ffffffc050208cb8 <add_pcb+0x26>
ffffffc05020916c:	4781                	li	a5,0
ffffffc05020916e:	853e                	mv	a0,a5
ffffffc050209170:	60aa                	ld	ra,136(sp)
ffffffc050209172:	640a                	ld	s0,128(sp)
ffffffc050209174:	74e6                	ld	s1,120(sp)
ffffffc050209176:	6149                	addi	sp,sp,144
ffffffc050209178:	8082                	ret

ffffffc05020917a <do_scheduler>:
ffffffc05020917a:	7139                	addi	sp,sp,-64
ffffffc05020917c:	fc06                	sd	ra,56(sp)
ffffffc05020917e:	f822                	sd	s0,48(sp)
ffffffc050209180:	f426                	sd	s1,40(sp)
ffffffc050209182:	0080                	addi	s0,sp,64
ffffffc050209184:	860f90ef          	jal	ra,ffffffc0502021e4 <get_current_cpu_id>
ffffffc050209188:	87aa                	mv	a5,a0
ffffffc05020918a:	fcf43823          	sd	a5,-48(s0)
ffffffc05020918e:	fd043783          	ld	a5,-48(s0)
ffffffc050209192:	ef81                	bnez	a5,ffffffc0502091aa <do_scheduler+0x30>
ffffffc050209194:	00053797          	auipc	a5,0x53
ffffffc050209198:	f8c78793          	addi	a5,a5,-116 # ffffffc05025c120 <current_running_m>
ffffffc05020919c:	6398                	ld	a4,0(a5)
ffffffc05020919e:	00053797          	auipc	a5,0x53
ffffffc0502091a2:	f7a78793          	addi	a5,a5,-134 # ffffffc05025c118 <current_running>
ffffffc0502091a6:	e398                	sd	a4,0(a5)
ffffffc0502091a8:	a819                	j	ffffffc0502091be <do_scheduler+0x44>
ffffffc0502091aa:	00053797          	auipc	a5,0x53
ffffffc0502091ae:	f6678793          	addi	a5,a5,-154 # ffffffc05025c110 <current_running_n>
ffffffc0502091b2:	6398                	ld	a4,0(a5)
ffffffc0502091b4:	00053797          	auipc	a5,0x53
ffffffc0502091b8:	f6478793          	addi	a5,a5,-156 # ffffffc05025c118 <current_running>
ffffffc0502091bc:	e398                	sd	a4,0(a5)
ffffffc0502091be:	c4eff0ef          	jal	ra,ffffffc05020860c <check_sleeping>
ffffffc0502091c2:	00053797          	auipc	a5,0x53
ffffffc0502091c6:	f5678793          	addi	a5,a5,-170 # ffffffc05025c118 <current_running>
ffffffc0502091ca:	639c                	ld	a5,0(a5)
ffffffc0502091cc:	5f9c                	lw	a5,56(a5)
ffffffc0502091ce:	873e                	mv	a4,a5
ffffffc0502091d0:	4785                	li	a5,1
ffffffc0502091d2:	00f71963          	bne	a4,a5,ffffffc0502091e4 <do_scheduler+0x6a>
ffffffc0502091d6:	00053797          	auipc	a5,0x53
ffffffc0502091da:	f4278793          	addi	a5,a5,-190 # ffffffc05025c118 <current_running>
ffffffc0502091de:	639c                	ld	a5,0(a5)
ffffffc0502091e0:	4709                	li	a4,2
ffffffc0502091e2:	df98                	sw	a4,56(a5)
ffffffc0502091e4:	00053797          	auipc	a5,0x53
ffffffc0502091e8:	f3478793          	addi	a5,a5,-204 # ffffffc05025c118 <current_running>
ffffffc0502091ec:	639c                	ld	a5,0(a5)
ffffffc0502091ee:	fcf43423          	sd	a5,-56(s0)
ffffffc0502091f2:	00003517          	auipc	a0,0x3
ffffffc0502091f6:	77e50513          	addi	a0,a0,1918 # ffffffc05020c970 <ready_queue>
ffffffc0502091fa:	cb8ff0ef          	jal	ra,ffffffc0502086b2 <Dequeue>
ffffffc0502091fe:	fca43023          	sd	a0,-64(s0)
ffffffc050209202:	fc043783          	ld	a5,-64(s0)
ffffffc050209206:	c3ed                	beqz	a5,ffffffc0502092e8 <do_scheduler+0x16e>
ffffffc050209208:	fc043783          	ld	a5,-64(s0)
ffffffc05020920c:	17c1                	addi	a5,a5,-16
ffffffc05020920e:	fcf43c23          	sd	a5,-40(s0)
ffffffc050209212:	fd843783          	ld	a5,-40(s0)
ffffffc050209216:	0887a783          	lw	a5,136(a5)
ffffffc05020921a:	873e                	mv	a4,a5
ffffffc05020921c:	478d                	li	a5,3
ffffffc05020921e:	04f70f63          	beq	a4,a5,ffffffc05020927c <do_scheduler+0x102>
ffffffc050209222:	fd843783          	ld	a5,-40(s0)
ffffffc050209226:	0887a783          	lw	a5,136(a5)
ffffffc05020922a:	37fd                	addiw	a5,a5,-1
ffffffc05020922c:	2781                	sext.w	a5,a5
ffffffc05020922e:	873e                	mv	a4,a5
ffffffc050209230:	fd043783          	ld	a5,-48(s0)
ffffffc050209234:	04e78463          	beq	a5,a4,ffffffc05020927c <do_scheduler+0x102>
ffffffc050209238:	fd843783          	ld	a5,-40(s0)
ffffffc05020923c:	6a078793          	addi	a5,a5,1696
ffffffc050209240:	85be                	mv	a1,a5
ffffffc050209242:	00002517          	auipc	a0,0x2
ffffffc050209246:	77650513          	addi	a0,a0,1910 # ffffffc05020b9b8 <__FUNCTION__.1616+0x170>
ffffffc05020924a:	59f010ef          	jal	ra,ffffffc05020afe8 <printl>
ffffffc05020924e:	fc043583          	ld	a1,-64(s0)
ffffffc050209252:	00003517          	auipc	a0,0x3
ffffffc050209256:	71e50513          	addi	a0,a0,1822 # ffffffc05020c970 <ready_queue>
ffffffc05020925a:	ce4ff0ef          	jal	ra,ffffffc05020873e <Enqueue>
ffffffc05020925e:	fd043783          	ld	a5,-48(s0)
ffffffc050209262:	e791                	bnez	a5,ffffffc05020926e <do_scheduler+0xf4>
ffffffc050209264:	00003797          	auipc	a5,0x3
ffffffc050209268:	9ac78793          	addi	a5,a5,-1620 # ffffffc05020bc10 <pid0_pcb>
ffffffc05020926c:	a029                	j	ffffffc050209276 <do_scheduler+0xfc>
ffffffc05020926e:	00003797          	auipc	a5,0x3
ffffffc050209272:	05278793          	addi	a5,a5,82 # ffffffc05020c2c0 <pidn_pcb>
ffffffc050209276:	fcf43c23          	sd	a5,-40(s0)
ffffffc05020927a:	a87d                	j	ffffffc050209338 <do_scheduler+0x1be>
ffffffc05020927c:	00053797          	auipc	a5,0x53
ffffffc050209280:	e9c78793          	addi	a5,a5,-356 # ffffffc05025c118 <current_running>
ffffffc050209284:	6398                	ld	a4,0(a5)
ffffffc050209286:	00003797          	auipc	a5,0x3
ffffffc05020928a:	98a78793          	addi	a5,a5,-1654 # ffffffc05020bc10 <pid0_pcb>
ffffffc05020928e:	00f70d63          	beq	a4,a5,ffffffc0502092a8 <do_scheduler+0x12e>
ffffffc050209292:	00053797          	auipc	a5,0x53
ffffffc050209296:	e8678793          	addi	a5,a5,-378 # ffffffc05025c118 <current_running>
ffffffc05020929a:	6398                	ld	a4,0(a5)
ffffffc05020929c:	00003797          	auipc	a5,0x3
ffffffc0502092a0:	02478793          	addi	a5,a5,36 # ffffffc05020c2c0 <pidn_pcb>
ffffffc0502092a4:	02f71863          	bne	a4,a5,ffffffc0502092d4 <do_scheduler+0x15a>
ffffffc0502092a8:	00003797          	auipc	a5,0x3
ffffffc0502092ac:	7a878793          	addi	a5,a5,1960 # ffffffc05020ca50 <if_first_do_sche>
ffffffc0502092b0:	439c                	lw	a5,0(a5)
ffffffc0502092b2:	c38d                	beqz	a5,ffffffc0502092d4 <do_scheduler+0x15a>
ffffffc0502092b4:	abeff0ef          	jal	ra,ffffffc050208572 <get_ticks>
ffffffc0502092b8:	872a                	mv	a4,a0
ffffffc0502092ba:	67b1                	lui	a5,0xc
ffffffc0502092bc:	35078793          	addi	a5,a5,848 # c350 <boot_stack_top_base-0x501f5cb0>
ffffffc0502092c0:	97ba                	add	a5,a5,a4
ffffffc0502092c2:	853e                	mv	a0,a5
ffffffc0502092c4:	a54fa0ef          	jal	ra,ffffffc050203518 <set_timer>
ffffffc0502092c8:	00003797          	auipc	a5,0x3
ffffffc0502092cc:	78878793          	addi	a5,a5,1928 # ffffffc05020ca50 <if_first_do_sche>
ffffffc0502092d0:	0007a023          	sw	zero,0(a5)
ffffffc0502092d4:	fd843783          	ld	a5,-40(s0)
ffffffc0502092d8:	5f9c                	lw	a5,56(a5)
ffffffc0502092da:	873e                	mv	a4,a5
ffffffc0502092dc:	478d                	li	a5,3
ffffffc0502092de:	04f71d63          	bne	a4,a5,ffffffc050209338 <do_scheduler+0x1be>
ffffffc0502092e2:	e99ff0ef          	jal	ra,ffffffc05020917a <do_scheduler>
ffffffc0502092e6:	a215                	j	ffffffc05020940a <do_scheduler+0x290>
ffffffc0502092e8:	00053797          	auipc	a5,0x53
ffffffc0502092ec:	e3078793          	addi	a5,a5,-464 # ffffffc05025c118 <current_running>
ffffffc0502092f0:	639c                	ld	a5,0(a5)
ffffffc0502092f2:	5f9c                	lw	a5,56(a5)
ffffffc0502092f4:	873e                	mv	a4,a5
ffffffc0502092f6:	4785                	li	a5,1
ffffffc0502092f8:	02f71063          	bne	a4,a5,ffffffc050209318 <do_scheduler+0x19e>
ffffffc0502092fc:	00053797          	auipc	a5,0x53
ffffffc050209300:	e1c78793          	addi	a5,a5,-484 # ffffffc05025c118 <current_running>
ffffffc050209304:	639c                	ld	a5,0(a5)
ffffffc050209306:	fcf43c23          	sd	a5,-40(s0)
ffffffc05020930a:	fd843583          	ld	a1,-40(s0)
ffffffc05020930e:	fc843503          	ld	a0,-56(s0)
ffffffc050209312:	d4bf80ef          	jal	ra,ffffffc05020205c <switch_to>
ffffffc050209316:	a00d                	j	ffffffc050209338 <do_scheduler+0x1be>
ffffffc050209318:	fd043783          	ld	a5,-48(s0)
ffffffc05020931c:	eb81                	bnez	a5,ffffffc05020932c <do_scheduler+0x1b2>
ffffffc05020931e:	00003797          	auipc	a5,0x3
ffffffc050209322:	8f278793          	addi	a5,a5,-1806 # ffffffc05020bc10 <pid0_pcb>
ffffffc050209326:	fcf43c23          	sd	a5,-40(s0)
ffffffc05020932a:	a039                	j	ffffffc050209338 <do_scheduler+0x1be>
ffffffc05020932c:	00003797          	auipc	a5,0x3
ffffffc050209330:	f9478793          	addi	a5,a5,-108 # ffffffc05020c2c0 <pidn_pcb>
ffffffc050209334:	fcf43c23          	sd	a5,-40(s0)
ffffffc050209338:	00053797          	auipc	a5,0x53
ffffffc05020933c:	de078793          	addi	a5,a5,-544 # ffffffc05025c118 <current_running>
ffffffc050209340:	6398                	ld	a4,0(a5)
ffffffc050209342:	00003797          	auipc	a5,0x3
ffffffc050209346:	8ce78793          	addi	a5,a5,-1842 # ffffffc05020bc10 <pid0_pcb>
ffffffc05020934a:	04f70163          	beq	a4,a5,ffffffc05020938c <do_scheduler+0x212>
ffffffc05020934e:	00053797          	auipc	a5,0x53
ffffffc050209352:	dca78793          	addi	a5,a5,-566 # ffffffc05025c118 <current_running>
ffffffc050209356:	6398                	ld	a4,0(a5)
ffffffc050209358:	00003797          	auipc	a5,0x3
ffffffc05020935c:	f6878793          	addi	a5,a5,-152 # ffffffc05020c2c0 <pidn_pcb>
ffffffc050209360:	02f70663          	beq	a4,a5,ffffffc05020938c <do_scheduler+0x212>
ffffffc050209364:	00053797          	auipc	a5,0x53
ffffffc050209368:	db478793          	addi	a5,a5,-588 # ffffffc05025c118 <current_running>
ffffffc05020936c:	639c                	ld	a5,0(a5)
ffffffc05020936e:	5f9c                	lw	a5,56(a5)
ffffffc050209370:	873e                	mv	a4,a5
ffffffc050209372:	4789                	li	a5,2
ffffffc050209374:	00f71c63          	bne	a4,a5,ffffffc05020938c <do_scheduler+0x212>
ffffffc050209378:	fc843783          	ld	a5,-56(s0)
ffffffc05020937c:	07c1                	addi	a5,a5,16
ffffffc05020937e:	85be                	mv	a1,a5
ffffffc050209380:	00003517          	auipc	a0,0x3
ffffffc050209384:	5f050513          	addi	a0,a0,1520 # ffffffc05020c970 <ready_queue>
ffffffc050209388:	bb6ff0ef          	jal	ra,ffffffc05020873e <Enqueue>
ffffffc05020938c:	fd843783          	ld	a5,-40(s0)
ffffffc050209390:	4705                	li	a4,1
ffffffc050209392:	df98                	sw	a4,56(a5)
ffffffc050209394:	00053797          	auipc	a5,0x53
ffffffc050209398:	d8478793          	addi	a5,a5,-636 # ffffffc05025c118 <current_running>
ffffffc05020939c:	fd843703          	ld	a4,-40(s0)
ffffffc0502093a0:	e398                	sd	a4,0(a5)
ffffffc0502093a2:	fd043783          	ld	a5,-48(s0)
ffffffc0502093a6:	eb89                	bnez	a5,ffffffc0502093b8 <do_scheduler+0x23e>
ffffffc0502093a8:	00053797          	auipc	a5,0x53
ffffffc0502093ac:	d7878793          	addi	a5,a5,-648 # ffffffc05025c120 <current_running_m>
ffffffc0502093b0:	fd843703          	ld	a4,-40(s0)
ffffffc0502093b4:	e398                	sd	a4,0(a5)
ffffffc0502093b6:	a801                	j	ffffffc0502093c6 <do_scheduler+0x24c>
ffffffc0502093b8:	00053797          	auipc	a5,0x53
ffffffc0502093bc:	d5878793          	addi	a5,a5,-680 # ffffffc05025c110 <current_running_n>
ffffffc0502093c0:	fd843703          	ld	a4,-40(s0)
ffffffc0502093c4:	e398                	sd	a4,0(a5)
ffffffc0502093c6:	fd043783          	ld	a5,-48(s0)
ffffffc0502093ca:	0007871b          	sext.w	a4,a5
ffffffc0502093ce:	fd843783          	ld	a5,-40(s0)
ffffffc0502093d2:	08e7a623          	sw	a4,140(a5)
ffffffc0502093d6:	fd843783          	ld	a5,-40(s0)
ffffffc0502093da:	5b9c                	lw	a5,48(a5)
ffffffc0502093dc:	0007849b          	sext.w	s1,a5
ffffffc0502093e0:	fd843783          	ld	a5,-40(s0)
ffffffc0502093e4:	6bdc                	ld	a5,144(a5)
ffffffc0502093e6:	853e                	mv	a0,a5
ffffffc0502093e8:	d02ff0ef          	jal	ra,ffffffc0502088ea <kva2pa>
ffffffc0502093ec:	87aa                	mv	a5,a0
ffffffc0502093ee:	83b1                	srli	a5,a5,0xc
ffffffc0502093f0:	863e                	mv	a2,a5
ffffffc0502093f2:	85a6                	mv	a1,s1
ffffffc0502093f4:	4521                	li	a0,8
ffffffc0502093f6:	caeff0ef          	jal	ra,ffffffc0502088a4 <set_satp>
ffffffc0502093fa:	c98ff0ef          	jal	ra,ffffffc050208892 <local_flush_tlb_all>
ffffffc0502093fe:	fd843583          	ld	a1,-40(s0)
ffffffc050209402:	fc843503          	ld	a0,-56(s0)
ffffffc050209406:	c57f80ef          	jal	ra,ffffffc05020205c <switch_to>
ffffffc05020940a:	70e2                	ld	ra,56(sp)
ffffffc05020940c:	7442                	ld	s0,48(sp)
ffffffc05020940e:	74a2                	ld	s1,40(sp)
ffffffc050209410:	6121                	addi	sp,sp,64
ffffffc050209412:	8082                	ret

ffffffc050209414 <do_sleep>:
ffffffc050209414:	1101                	addi	sp,sp,-32
ffffffc050209416:	ec06                	sd	ra,24(sp)
ffffffc050209418:	e822                	sd	s0,16(sp)
ffffffc05020941a:	1000                	addi	s0,sp,32
ffffffc05020941c:	87aa                	mv	a5,a0
ffffffc05020941e:	fef42623          	sw	a5,-20(s0)
ffffffc050209422:	00053797          	auipc	a5,0x53
ffffffc050209426:	cf678793          	addi	a5,a5,-778 # ffffffc05025c118 <current_running>
ffffffc05020942a:	639c                	ld	a5,0(a5)
ffffffc05020942c:	0207ac23          	sw	zero,56(a5)
ffffffc050209430:	968ff0ef          	jal	ra,ffffffc050208598 <get_timer>
ffffffc050209434:	86aa                	mv	a3,a0
ffffffc050209436:	fec46703          	lwu	a4,-20(s0)
ffffffc05020943a:	00053797          	auipc	a5,0x53
ffffffc05020943e:	cde78793          	addi	a5,a5,-802 # ffffffc05025c118 <current_running>
ffffffc050209442:	639c                	ld	a5,0(a5)
ffffffc050209444:	9736                	add	a4,a4,a3
ffffffc050209446:	e7b8                	sd	a4,72(a5)
ffffffc050209448:	00053797          	auipc	a5,0x53
ffffffc05020944c:	cd078793          	addi	a5,a5,-816 # ffffffc05025c118 <current_running>
ffffffc050209450:	639c                	ld	a5,0(a5)
ffffffc050209452:	07c1                	addi	a5,a5,16
ffffffc050209454:	85be                	mv	a1,a5
ffffffc050209456:	00003517          	auipc	a0,0x3
ffffffc05020945a:	52a50513          	addi	a0,a0,1322 # ffffffc05020c980 <sleep_queue>
ffffffc05020945e:	ae0ff0ef          	jal	ra,ffffffc05020873e <Enqueue>
ffffffc050209462:	d19ff0ef          	jal	ra,ffffffc05020917a <do_scheduler>
ffffffc050209466:	0001                	nop
ffffffc050209468:	60e2                	ld	ra,24(sp)
ffffffc05020946a:	6442                	ld	s0,16(sp)
ffffffc05020946c:	6105                	addi	sp,sp,32
ffffffc05020946e:	8082                	ret

ffffffc050209470 <do_block>:
ffffffc050209470:	7179                	addi	sp,sp,-48
ffffffc050209472:	f406                	sd	ra,40(sp)
ffffffc050209474:	f022                	sd	s0,32(sp)
ffffffc050209476:	1800                	addi	s0,sp,48
ffffffc050209478:	fca43c23          	sd	a0,-40(s0)
ffffffc05020947c:	fcb43823          	sd	a1,-48(s0)
ffffffc050209480:	fd843783          	ld	a5,-40(s0)
ffffffc050209484:	17c1                	addi	a5,a5,-16
ffffffc050209486:	fef43423          	sd	a5,-24(s0)
ffffffc05020948a:	fe843783          	ld	a5,-24(s0)
ffffffc05020948e:	0207ac23          	sw	zero,56(a5)
ffffffc050209492:	fd843583          	ld	a1,-40(s0)
ffffffc050209496:	fd043503          	ld	a0,-48(s0)
ffffffc05020949a:	aa4ff0ef          	jal	ra,ffffffc05020873e <Enqueue>
ffffffc05020949e:	cddff0ef          	jal	ra,ffffffc05020917a <do_scheduler>
ffffffc0502094a2:	0001                	nop
ffffffc0502094a4:	70a2                	ld	ra,40(sp)
ffffffc0502094a6:	7402                	ld	s0,32(sp)
ffffffc0502094a8:	6145                	addi	sp,sp,48
ffffffc0502094aa:	8082                	ret

ffffffc0502094ac <do_unblock>:
ffffffc0502094ac:	7179                	addi	sp,sp,-48
ffffffc0502094ae:	f406                	sd	ra,40(sp)
ffffffc0502094b0:	f022                	sd	s0,32(sp)
ffffffc0502094b2:	1800                	addi	s0,sp,48
ffffffc0502094b4:	fca43c23          	sd	a0,-40(s0)
ffffffc0502094b8:	fd843503          	ld	a0,-40(s0)
ffffffc0502094bc:	9f6ff0ef          	jal	ra,ffffffc0502086b2 <Dequeue>
ffffffc0502094c0:	fea43423          	sd	a0,-24(s0)
ffffffc0502094c4:	a825                	j	ffffffc0502094fc <do_unblock+0x50>
ffffffc0502094c6:	fe843783          	ld	a5,-24(s0)
ffffffc0502094ca:	17c1                	addi	a5,a5,-16
ffffffc0502094cc:	fef43023          	sd	a5,-32(s0)
ffffffc0502094d0:	fe043783          	ld	a5,-32(s0)
ffffffc0502094d4:	5f9c                	lw	a5,56(a5)
ffffffc0502094d6:	ef89                	bnez	a5,ffffffc0502094f0 <do_unblock+0x44>
ffffffc0502094d8:	fe043783          	ld	a5,-32(s0)
ffffffc0502094dc:	4709                	li	a4,2
ffffffc0502094de:	df98                	sw	a4,56(a5)
ffffffc0502094e0:	fe843583          	ld	a1,-24(s0)
ffffffc0502094e4:	00003517          	auipc	a0,0x3
ffffffc0502094e8:	48c50513          	addi	a0,a0,1164 # ffffffc05020c970 <ready_queue>
ffffffc0502094ec:	a52ff0ef          	jal	ra,ffffffc05020873e <Enqueue>
ffffffc0502094f0:	fd843503          	ld	a0,-40(s0)
ffffffc0502094f4:	9beff0ef          	jal	ra,ffffffc0502086b2 <Dequeue>
ffffffc0502094f8:	fea43423          	sd	a0,-24(s0)
ffffffc0502094fc:	fe843783          	ld	a5,-24(s0)
ffffffc050209500:	f3f9                	bnez	a5,ffffffc0502094c6 <do_unblock+0x1a>
ffffffc050209502:	0001                	nop
ffffffc050209504:	0001                	nop
ffffffc050209506:	70a2                	ld	ra,40(sp)
ffffffc050209508:	7402                	ld	s0,32(sp)
ffffffc05020950a:	6145                	addi	sp,sp,48
ffffffc05020950c:	8082                	ret

ffffffc05020950e <thread_create>:
ffffffc05020950e:	7119                	addi	sp,sp,-128
ffffffc050209510:	fc86                	sd	ra,120(sp)
ffffffc050209512:	f8a2                	sd	s0,112(sp)
ffffffc050209514:	0100                	addi	s0,sp,128
ffffffc050209516:	f8a43c23          	sd	a0,-104(s0)
ffffffc05020951a:	f8b43823          	sd	a1,-112(s0)
ffffffc05020951e:	f8c43423          	sd	a2,-120(s0)
ffffffc050209522:	cbaff0ef          	jal	ra,ffffffc0502089dc <alloc_pid>
ffffffc050209526:	87aa                	mv	a5,a0
ffffffc050209528:	fef42423          	sw	a5,-24(s0)
ffffffc05020952c:	f9843783          	ld	a5,-104(s0)
ffffffc050209530:	fe842703          	lw	a4,-24(s0)
ffffffc050209534:	c398                	sw	a4,0(a5)
ffffffc050209536:	fe842783          	lw	a5,-24(s0)
ffffffc05020953a:	fef42223          	sw	a5,-28(s0)
ffffffc05020953e:	00053717          	auipc	a4,0x53
ffffffc050209542:	bea70713          	addi	a4,a4,-1046 # ffffffc05025c128 <pcb>
ffffffc050209546:	fe442683          	lw	a3,-28(s0)
ffffffc05020954a:	6b000793          	li	a5,1712
ffffffc05020954e:	02f687b3          	mul	a5,a3,a5
ffffffc050209552:	97ba                	add	a5,a5,a4
ffffffc050209554:	4705                	li	a4,1
ffffffc050209556:	dbd8                	sw	a4,52(a5)
ffffffc050209558:	fe442703          	lw	a4,-28(s0)
ffffffc05020955c:	6b000793          	li	a5,1712
ffffffc050209560:	02f707b3          	mul	a5,a4,a5
ffffffc050209564:	02078713          	addi	a4,a5,32
ffffffc050209568:	00053797          	auipc	a5,0x53
ffffffc05020956c:	bc078793          	addi	a5,a5,-1088 # ffffffc05025c128 <pcb>
ffffffc050209570:	97ba                	add	a5,a5,a4
ffffffc050209572:	853e                	mv	a0,a5
ffffffc050209574:	af8ff0ef          	jal	ra,ffffffc05020886c <init_queue>
ffffffc050209578:	fe042623          	sw	zero,-20(s0)
ffffffc05020957c:	a805                	j	ffffffc0502095ac <thread_create+0x9e>
ffffffc05020957e:	00053717          	auipc	a4,0x53
ffffffc050209582:	baa70713          	addi	a4,a4,-1110 # ffffffc05025c128 <pcb>
ffffffc050209586:	fec42783          	lw	a5,-20(s0)
ffffffc05020958a:	fe442603          	lw	a2,-28(s0)
ffffffc05020958e:	1ac00693          	li	a3,428
ffffffc050209592:	02d606b3          	mul	a3,a2,a3
ffffffc050209596:	97b6                	add	a5,a5,a3
ffffffc050209598:	07e1                	addi	a5,a5,24
ffffffc05020959a:	078a                	slli	a5,a5,0x2
ffffffc05020959c:	97ba                	add	a5,a5,a4
ffffffc05020959e:	0007a023          	sw	zero,0(a5)
ffffffc0502095a2:	fec42783          	lw	a5,-20(s0)
ffffffc0502095a6:	2785                	addiw	a5,a5,1
ffffffc0502095a8:	fef42623          	sw	a5,-20(s0)
ffffffc0502095ac:	fec42783          	lw	a5,-20(s0)
ffffffc0502095b0:	0007871b          	sext.w	a4,a5
ffffffc0502095b4:	47a5                	li	a5,9
ffffffc0502095b6:	fce7d4e3          	bge	a5,a4,ffffffc05020957e <thread_create+0x70>
ffffffc0502095ba:	00053797          	auipc	a5,0x53
ffffffc0502095be:	b5e78793          	addi	a5,a5,-1186 # ffffffc05025c118 <current_running>
ffffffc0502095c2:	639c                	ld	a5,0(a5)
ffffffc0502095c4:	0887a703          	lw	a4,136(a5)
ffffffc0502095c8:	00053697          	auipc	a3,0x53
ffffffc0502095cc:	b6068693          	addi	a3,a3,-1184 # ffffffc05025c128 <pcb>
ffffffc0502095d0:	fe442603          	lw	a2,-28(s0)
ffffffc0502095d4:	6b000793          	li	a5,1712
ffffffc0502095d8:	02f607b3          	mul	a5,a2,a5
ffffffc0502095dc:	97b6                	add	a5,a5,a3
ffffffc0502095de:	08e7a423          	sw	a4,136(a5)
ffffffc0502095e2:	c03f80ef          	jal	ra,ffffffc0502021e4 <get_current_cpu_id>
ffffffc0502095e6:	87aa                	mv	a5,a0
ffffffc0502095e8:	863e                	mv	a2,a5
ffffffc0502095ea:	00053717          	auipc	a4,0x53
ffffffc0502095ee:	b3e70713          	addi	a4,a4,-1218 # ffffffc05025c128 <pcb>
ffffffc0502095f2:	fe442683          	lw	a3,-28(s0)
ffffffc0502095f6:	6b000793          	li	a5,1712
ffffffc0502095fa:	02f687b3          	mul	a5,a3,a5
ffffffc0502095fe:	97ba                	add	a5,a5,a4
ffffffc050209600:	08c7a623          	sw	a2,140(a5)
ffffffc050209604:	00053717          	auipc	a4,0x53
ffffffc050209608:	b2470713          	addi	a4,a4,-1244 # ffffffc05025c128 <pcb>
ffffffc05020960c:	fe442683          	lw	a3,-28(s0)
ffffffc050209610:	6b000793          	li	a5,1712
ffffffc050209614:	02f687b3          	mul	a5,a3,a5
ffffffc050209618:	97ba                	add	a5,a5,a4
ffffffc05020961a:	4705                	li	a4,1
ffffffc05020961c:	08e7ac23          	sw	a4,152(a5)
ffffffc050209620:	00053797          	auipc	a5,0x53
ffffffc050209624:	af878793          	addi	a5,a5,-1288 # ffffffc05025c118 <current_running>
ffffffc050209628:	639c                	ld	a5,0(a5)
ffffffc05020962a:	6bd8                	ld	a4,144(a5)
ffffffc05020962c:	00053697          	auipc	a3,0x53
ffffffc050209630:	afc68693          	addi	a3,a3,-1284 # ffffffc05025c128 <pcb>
ffffffc050209634:	fe442603          	lw	a2,-28(s0)
ffffffc050209638:	6b000793          	li	a5,1712
ffffffc05020963c:	02f607b3          	mul	a5,a2,a5
ffffffc050209640:	97b6                	add	a5,a5,a3
ffffffc050209642:	ebd8                	sd	a4,144(a5)
ffffffc050209644:	fe442703          	lw	a4,-28(s0)
ffffffc050209648:	6b000793          	li	a5,1712
ffffffc05020964c:	02f70733          	mul	a4,a4,a5
ffffffc050209650:	00053797          	auipc	a5,0x53
ffffffc050209654:	ad878793          	addi	a5,a5,-1320 # ffffffc05025c128 <pcb>
ffffffc050209658:	97ba                	add	a5,a5,a4
ffffffc05020965a:	85be                	mv	a1,a5
ffffffc05020965c:	4505                	li	a0,1
ffffffc05020965e:	d36fc0ef          	jal	ra,ffffffc050205b94 <allocKernPage>
ffffffc050209662:	862a                	mv	a2,a0
ffffffc050209664:	00053717          	auipc	a4,0x53
ffffffc050209668:	ac470713          	addi	a4,a4,-1340 # ffffffc05025c128 <pcb>
ffffffc05020966c:	fe442683          	lw	a3,-28(s0)
ffffffc050209670:	6b000793          	li	a5,1712
ffffffc050209674:	02f687b3          	mul	a5,a3,a5
ffffffc050209678:	97ba                	add	a5,a5,a4
ffffffc05020967a:	ebb0                	sd	a2,80(a5)
ffffffc05020967c:	00053717          	auipc	a4,0x53
ffffffc050209680:	aac70713          	addi	a4,a4,-1364 # ffffffc05025c128 <pcb>
ffffffc050209684:	fe442683          	lw	a3,-28(s0)
ffffffc050209688:	6b000793          	li	a5,1712
ffffffc05020968c:	02f687b3          	mul	a5,a3,a5
ffffffc050209690:	97ba                	add	a5,a5,a4
ffffffc050209692:	6bb8                	ld	a4,80(a5)
ffffffc050209694:	6785                	lui	a5,0x1
ffffffc050209696:	97ba                	add	a5,a5,a4
ffffffc050209698:	fcf43c23          	sd	a5,-40(s0)
ffffffc05020969c:	00053717          	auipc	a4,0x53
ffffffc0502096a0:	a8c70713          	addi	a4,a4,-1396 # ffffffc05025c128 <pcb>
ffffffc0502096a4:	fe442683          	lw	a3,-28(s0)
ffffffc0502096a8:	6b000793          	li	a5,1712
ffffffc0502096ac:	02f687b3          	mul	a5,a3,a5
ffffffc0502096b0:	97ba                	add	a5,a5,a4
ffffffc0502096b2:	000f0737          	lui	a4,0xf0
ffffffc0502096b6:	0715                	addi	a4,a4,5
ffffffc0502096b8:	0742                	slli	a4,a4,0x10
ffffffc0502096ba:	efb8                	sd	a4,88(a5)
ffffffc0502096bc:	00053717          	auipc	a4,0x53
ffffffc0502096c0:	a6c70713          	addi	a4,a4,-1428 # ffffffc05025c128 <pcb>
ffffffc0502096c4:	fe442683          	lw	a3,-28(s0)
ffffffc0502096c8:	6b000793          	li	a5,1712
ffffffc0502096cc:	02f687b3          	mul	a5,a3,a5
ffffffc0502096d0:	97ba                	add	a5,a5,a4
ffffffc0502096d2:	6fb8                	ld	a4,88(a5)
ffffffc0502096d4:	6785                	lui	a5,0x1
ffffffc0502096d6:	97ba                	add	a5,a5,a4
ffffffc0502096d8:	fcf43823          	sd	a5,-48(s0)
ffffffc0502096dc:	00053717          	auipc	a4,0x53
ffffffc0502096e0:	a4c70713          	addi	a4,a4,-1460 # ffffffc05025c128 <pcb>
ffffffc0502096e4:	fe442683          	lw	a3,-28(s0)
ffffffc0502096e8:	6b000793          	li	a5,1712
ffffffc0502096ec:	02f687b3          	mul	a5,a3,a5
ffffffc0502096f0:	97ba                	add	a5,a5,a4
ffffffc0502096f2:	6bcc                	ld	a1,144(a5)
ffffffc0502096f4:	fe442703          	lw	a4,-28(s0)
ffffffc0502096f8:	6b000793          	li	a5,1712
ffffffc0502096fc:	02f70733          	mul	a4,a4,a5
ffffffc050209700:	00053797          	auipc	a5,0x53
ffffffc050209704:	a2878793          	addi	a5,a5,-1496 # ffffffc05025c128 <pcb>
ffffffc050209708:	97ba                	add	a5,a5,a4
ffffffc05020970a:	4685                	li	a3,1
ffffffc05020970c:	863e                	mv	a2,a5
ffffffc05020970e:	000f07b7          	lui	a5,0xf0
ffffffc050209712:	0795                	addi	a5,a5,5
ffffffc050209714:	01079513          	slli	a0,a5,0x10
ffffffc050209718:	a4ffc0ef          	jal	ra,ffffffc050206166 <alloc_page_helper>
ffffffc05020971c:	fca43423          	sd	a0,-56(s0)
ffffffc050209720:	fc843703          	ld	a4,-56(s0)
ffffffc050209724:	6785                	lui	a5,0x1
ffffffc050209726:	97ba                	add	a5,a5,a4
ffffffc050209728:	fcf43023          	sd	a5,-64(s0)
ffffffc05020972c:	fe442703          	lw	a4,-28(s0)
ffffffc050209730:	6b000793          	li	a5,1712
ffffffc050209734:	02f70733          	mul	a4,a4,a5
ffffffc050209738:	00053797          	auipc	a5,0x53
ffffffc05020973c:	9f078793          	addi	a5,a5,-1552 # ffffffc05025c128 <pcb>
ffffffc050209740:	97ba                	add	a5,a5,a4
ffffffc050209742:	f8843703          	ld	a4,-120(s0)
ffffffc050209746:	4685                	li	a3,1
ffffffc050209748:	863e                	mv	a2,a5
ffffffc05020974a:	fd043583          	ld	a1,-48(s0)
ffffffc05020974e:	fc043503          	ld	a0,-64(s0)
ffffffc050209752:	b3aff0ef          	jal	ra,ffffffc050208a8c <add_user_stack>
ffffffc050209756:	faa43c23          	sd	a0,-72(s0)
ffffffc05020975a:	fb843783          	ld	a5,-72(s0)
ffffffc05020975e:	639c                	ld	a5,0(a5)
ffffffc050209760:	0007c783          	lbu	a5,0(a5)
ffffffc050209764:	faf43823          	sd	a5,-80(s0)
ffffffc050209768:	f9043783          	ld	a5,-112(s0)
ffffffc05020976c:	faf43423          	sd	a5,-88(s0)
ffffffc050209770:	fe442703          	lw	a4,-28(s0)
ffffffc050209774:	6b000793          	li	a5,1712
ffffffc050209778:	02f70733          	mul	a4,a4,a5
ffffffc05020977c:	00053797          	auipc	a5,0x53
ffffffc050209780:	9ac78793          	addi	a5,a5,-1620 # ffffffc05025c128 <pcb>
ffffffc050209784:	00f706b3          	add	a3,a4,a5
ffffffc050209788:	4785                	li	a5,1
ffffffc05020978a:	4701                	li	a4,0
ffffffc05020978c:	fa843603          	ld	a2,-88(s0)
ffffffc050209790:	fb043583          	ld	a1,-80(s0)
ffffffc050209794:	fd843503          	ld	a0,-40(s0)
ffffffc050209798:	c28ff0ef          	jal	ra,ffffffc050208bc0 <add_pcb_stack>
ffffffc05020979c:	00053717          	auipc	a4,0x53
ffffffc0502097a0:	98c70713          	addi	a4,a4,-1652 # ffffffc05025c128 <pcb>
ffffffc0502097a4:	fe442683          	lw	a3,-28(s0)
ffffffc0502097a8:	6b000793          	li	a5,1712
ffffffc0502097ac:	02f687b3          	mul	a5,a3,a5
ffffffc0502097b0:	97ba                	add	a5,a5,a4
ffffffc0502097b2:	fe842703          	lw	a4,-24(s0)
ffffffc0502097b6:	db98                	sw	a4,48(a5)
ffffffc0502097b8:	00053717          	auipc	a4,0x53
ffffffc0502097bc:	97070713          	addi	a4,a4,-1680 # ffffffc05025c128 <pcb>
ffffffc0502097c0:	fe442683          	lw	a3,-28(s0)
ffffffc0502097c4:	6b000793          	li	a5,1712
ffffffc0502097c8:	02f687b3          	mul	a5,a3,a5
ffffffc0502097cc:	97ba                	add	a5,a5,a4
ffffffc0502097ce:	0207ae23          	sw	zero,60(a5)
ffffffc0502097d2:	00053717          	auipc	a4,0x53
ffffffc0502097d6:	95670713          	addi	a4,a4,-1706 # ffffffc05025c128 <pcb>
ffffffc0502097da:	fe442683          	lw	a3,-28(s0)
ffffffc0502097de:	6b000793          	li	a5,1712
ffffffc0502097e2:	02f687b3          	mul	a5,a3,a5
ffffffc0502097e6:	97ba                	add	a5,a5,a4
ffffffc0502097e8:	0407a023          	sw	zero,64(a5)
ffffffc0502097ec:	00053717          	auipc	a4,0x53
ffffffc0502097f0:	93c70713          	addi	a4,a4,-1732 # ffffffc05025c128 <pcb>
ffffffc0502097f4:	fe442683          	lw	a3,-28(s0)
ffffffc0502097f8:	6b000793          	li	a5,1712
ffffffc0502097fc:	02f687b3          	mul	a5,a3,a5
ffffffc050209800:	97ba                	add	a5,a5,a4
ffffffc050209802:	4709                	li	a4,2
ffffffc050209804:	df98                	sw	a4,56(a5)
ffffffc050209806:	00053717          	auipc	a4,0x53
ffffffc05020980a:	92270713          	addi	a4,a4,-1758 # ffffffc05025c128 <pcb>
ffffffc05020980e:	fe442683          	lw	a3,-28(s0)
ffffffc050209812:	6b000793          	li	a5,1712
ffffffc050209816:	02f687b3          	mul	a5,a3,a5
ffffffc05020981a:	97ba                	add	a5,a5,a4
ffffffc05020981c:	0407b423          	sd	zero,72(a5)
ffffffc050209820:	fe442703          	lw	a4,-28(s0)
ffffffc050209824:	6b000793          	li	a5,1712
ffffffc050209828:	02f707b3          	mul	a5,a4,a5
ffffffc05020982c:	01078713          	addi	a4,a5,16
ffffffc050209830:	00053797          	auipc	a5,0x53
ffffffc050209834:	8f878793          	addi	a5,a5,-1800 # ffffffc05025c128 <pcb>
ffffffc050209838:	97ba                	add	a5,a5,a4
ffffffc05020983a:	85be                	mv	a1,a5
ffffffc05020983c:	00003517          	auipc	a0,0x3
ffffffc050209840:	13450513          	addi	a0,a0,308 # ffffffc05020c970 <ready_queue>
ffffffc050209844:	efbfe0ef          	jal	ra,ffffffc05020873e <Enqueue>
ffffffc050209848:	0001                	nop
ffffffc05020984a:	70e6                	ld	ra,120(sp)
ffffffc05020984c:	7446                	ld	s0,112(sp)
ffffffc05020984e:	6109                	addi	sp,sp,128
ffffffc050209850:	8082                	ret

ffffffc050209852 <do_process_show>:
ffffffc050209852:	715d                	addi	sp,sp,-80
ffffffc050209854:	e486                	sd	ra,72(sp)
ffffffc050209856:	e0a2                	sd	s0,64(sp)
ffffffc050209858:	0880                	addi	s0,sp,80
ffffffc05020985a:	fa043823          	sd	zero,-80(s0)
ffffffc05020985e:	fa043c23          	sd	zero,-72(s0)
ffffffc050209862:	fc043023          	sd	zero,-64(s0)
ffffffc050209866:	fc043423          	sd	zero,-56(s0)
ffffffc05020986a:	fc043823          	sd	zero,-48(s0)
ffffffc05020986e:	fc043c23          	sd	zero,-40(s0)
ffffffc050209872:	fe041023          	sh	zero,-32(s0)
ffffffc050209876:	00002797          	auipc	a5,0x2
ffffffc05020987a:	24278793          	addi	a5,a5,578 # ffffffc05020bab8 <__FUNCTION__.1616+0x270>
ffffffc05020987e:	639c                	ld	a5,0(a5)
ffffffc050209880:	faf43823          	sd	a5,-80(s0)
ffffffc050209884:	fa041c23          	sh	zero,-72(s0)
ffffffc050209888:	00002797          	auipc	a5,0x2
ffffffc05020988c:	24078793          	addi	a5,a5,576 # ffffffc05020bac8 <__FUNCTION__.1616+0x280>
ffffffc050209890:	0007d603          	lhu	a2,0(a5)
ffffffc050209894:	0027d683          	lhu	a3,2(a5)
ffffffc050209898:	0047d703          	lhu	a4,4(a5)
ffffffc05020989c:	0067d783          	lhu	a5,6(a5)
ffffffc0502098a0:	fac41d23          	sh	a2,-70(s0)
ffffffc0502098a4:	fad41e23          	sh	a3,-68(s0)
ffffffc0502098a8:	fae41f23          	sh	a4,-66(s0)
ffffffc0502098ac:	fcf41023          	sh	a5,-64(s0)
ffffffc0502098b0:	fc041123          	sh	zero,-62(s0)
ffffffc0502098b4:	444147b7          	lui	a5,0x44414
ffffffc0502098b8:	55278793          	addi	a5,a5,1362 # 44414552 <boot_stack_top_base-0xbdedaae>
ffffffc0502098bc:	fcf42223          	sw	a5,-60(s0)
ffffffc0502098c0:	05900793          	li	a5,89
ffffffc0502098c4:	fcf42423          	sw	a5,-56(s0)
ffffffc0502098c8:	fc041623          	sh	zero,-52(s0)
ffffffc0502098cc:	00002797          	auipc	a5,0x2
ffffffc0502098d0:	20c78793          	addi	a5,a5,524 # ffffffc05020bad8 <__FUNCTION__.1616+0x290>
ffffffc0502098d4:	0007d603          	lhu	a2,0(a5)
ffffffc0502098d8:	0027d683          	lhu	a3,2(a5)
ffffffc0502098dc:	0047d703          	lhu	a4,4(a5)
ffffffc0502098e0:	0067d783          	lhu	a5,6(a5)
ffffffc0502098e4:	fcc41723          	sh	a2,-50(s0)
ffffffc0502098e8:	fcd41823          	sh	a3,-48(s0)
ffffffc0502098ec:	fce41923          	sh	a4,-46(s0)
ffffffc0502098f0:	fcf41a23          	sh	a5,-44(s0)
ffffffc0502098f4:	fc041b23          	sh	zero,-42(s0)
ffffffc0502098f8:	00002517          	auipc	a0,0x2
ffffffc0502098fc:	0e850513          	addi	a0,a0,232 # ffffffc05020b9e0 <__FUNCTION__.1616+0x198>
ffffffc050209900:	5d8010ef          	jal	ra,ffffffc05020aed8 <printk>
ffffffc050209904:	fe042623          	sw	zero,-20(s0)
ffffffc050209908:	fe042423          	sw	zero,-24(s0)
ffffffc05020990c:	a441                	j	ffffffc050209b8c <do_process_show+0x33a>
ffffffc05020990e:	00053717          	auipc	a4,0x53
ffffffc050209912:	81a70713          	addi	a4,a4,-2022 # ffffffc05025c128 <pcb>
ffffffc050209916:	fec42683          	lw	a3,-20(s0)
ffffffc05020991a:	6b000793          	li	a5,1712
ffffffc05020991e:	02f687b3          	mul	a5,a3,a5
ffffffc050209922:	97ba                	add	a5,a5,a4
ffffffc050209924:	5bdc                	lw	a5,52(a5)
ffffffc050209926:	873e                	mv	a4,a5
ffffffc050209928:	4785                	li	a5,1
ffffffc05020992a:	24f71c63          	bne	a4,a5,ffffffc050209b82 <do_process_show+0x330>
ffffffc05020992e:	00052717          	auipc	a4,0x52
ffffffc050209932:	7fa70713          	addi	a4,a4,2042 # ffffffc05025c128 <pcb>
ffffffc050209936:	fec42683          	lw	a3,-20(s0)
ffffffc05020993a:	6b000793          	li	a5,1712
ffffffc05020993e:	02f687b3          	mul	a5,a3,a5
ffffffc050209942:	97ba                	add	a5,a5,a4
ffffffc050209944:	5f9c                	lw	a5,56(a5)
ffffffc050209946:	873e                	mv	a4,a5
ffffffc050209948:	478d                	li	a5,3
ffffffc05020994a:	22f70c63          	beq	a4,a5,ffffffc050209b82 <do_process_show+0x330>
ffffffc05020994e:	fe842783          	lw	a5,-24(s0)
ffffffc050209952:	0007871b          	sext.w	a4,a5
ffffffc050209956:	47a1                	li	a5,8
ffffffc050209958:	0ae7ca63          	blt	a5,a4,ffffffc050209a0c <do_process_show+0x1ba>
ffffffc05020995c:	00052717          	auipc	a4,0x52
ffffffc050209960:	7cc70713          	addi	a4,a4,1996 # ffffffc05025c128 <pcb>
ffffffc050209964:	fec42683          	lw	a3,-20(s0)
ffffffc050209968:	6b000793          	li	a5,1712
ffffffc05020996c:	02f687b3          	mul	a5,a3,a5
ffffffc050209970:	97ba                	add	a5,a5,a4
ffffffc050209972:	5b90                	lw	a2,48(a5)
ffffffc050209974:	00052717          	auipc	a4,0x52
ffffffc050209978:	7b470713          	addi	a4,a4,1972 # ffffffc05025c128 <pcb>
ffffffc05020997c:	fec42683          	lw	a3,-20(s0)
ffffffc050209980:	6b000793          	li	a5,1712
ffffffc050209984:	02f687b3          	mul	a5,a3,a5
ffffffc050209988:	97ba                	add	a5,a5,a4
ffffffc05020998a:	5f9c                	lw	a5,56(a5)
ffffffc05020998c:	fb040693          	addi	a3,s0,-80
ffffffc050209990:	02079713          	slli	a4,a5,0x20
ffffffc050209994:	9301                	srli	a4,a4,0x20
ffffffc050209996:	87ba                	mv	a5,a4
ffffffc050209998:	078a                	slli	a5,a5,0x2
ffffffc05020999a:	97ba                	add	a5,a5,a4
ffffffc05020999c:	0786                	slli	a5,a5,0x1
ffffffc05020999e:	00f68533          	add	a0,a3,a5
ffffffc0502099a2:	fec42703          	lw	a4,-20(s0)
ffffffc0502099a6:	6b000793          	li	a5,1712
ffffffc0502099aa:	02f707b3          	mul	a5,a4,a5
ffffffc0502099ae:	6a078713          	addi	a4,a5,1696
ffffffc0502099b2:	00052797          	auipc	a5,0x52
ffffffc0502099b6:	77678793          	addi	a5,a5,1910 # ffffffc05025c128 <pcb>
ffffffc0502099ba:	00f708b3          	add	a7,a4,a5
ffffffc0502099be:	00052717          	auipc	a4,0x52
ffffffc0502099c2:	76a70713          	addi	a4,a4,1898 # ffffffc05025c128 <pcb>
ffffffc0502099c6:	fec42683          	lw	a3,-20(s0)
ffffffc0502099ca:	6b000793          	li	a5,1712
ffffffc0502099ce:	02f687b3          	mul	a5,a3,a5
ffffffc0502099d2:	97ba                	add	a5,a5,a4
ffffffc0502099d4:	0887a303          	lw	t1,136(a5)
ffffffc0502099d8:	00052717          	auipc	a4,0x52
ffffffc0502099dc:	75070713          	addi	a4,a4,1872 # ffffffc05025c128 <pcb>
ffffffc0502099e0:	fec42683          	lw	a3,-20(s0)
ffffffc0502099e4:	6b000793          	li	a5,1712
ffffffc0502099e8:	02f687b3          	mul	a5,a3,a5
ffffffc0502099ec:	97ba                	add	a5,a5,a4
ffffffc0502099ee:	08c7a783          	lw	a5,140(a5)
ffffffc0502099f2:	fe842583          	lw	a1,-24(s0)
ffffffc0502099f6:	883e                	mv	a6,a5
ffffffc0502099f8:	879a                	mv	a5,t1
ffffffc0502099fa:	8746                	mv	a4,a7
ffffffc0502099fc:	86aa                	mv	a3,a0
ffffffc0502099fe:	00002517          	auipc	a0,0x2
ffffffc050209a02:	ffa50513          	addi	a0,a0,-6 # ffffffc05020b9f8 <__FUNCTION__.1616+0x1b0>
ffffffc050209a06:	4d2010ef          	jal	ra,ffffffc05020aed8 <printk>
ffffffc050209a0a:	a2bd                	j	ffffffc050209b78 <do_process_show+0x326>
ffffffc050209a0c:	fe842783          	lw	a5,-24(s0)
ffffffc050209a10:	0007871b          	sext.w	a4,a5
ffffffc050209a14:	47a5                	li	a5,9
ffffffc050209a16:	0af71a63          	bne	a4,a5,ffffffc050209aca <do_process_show+0x278>
ffffffc050209a1a:	00052717          	auipc	a4,0x52
ffffffc050209a1e:	70e70713          	addi	a4,a4,1806 # ffffffc05025c128 <pcb>
ffffffc050209a22:	fec42683          	lw	a3,-20(s0)
ffffffc050209a26:	6b000793          	li	a5,1712
ffffffc050209a2a:	02f687b3          	mul	a5,a3,a5
ffffffc050209a2e:	97ba                	add	a5,a5,a4
ffffffc050209a30:	5b90                	lw	a2,48(a5)
ffffffc050209a32:	00052717          	auipc	a4,0x52
ffffffc050209a36:	6f670713          	addi	a4,a4,1782 # ffffffc05025c128 <pcb>
ffffffc050209a3a:	fec42683          	lw	a3,-20(s0)
ffffffc050209a3e:	6b000793          	li	a5,1712
ffffffc050209a42:	02f687b3          	mul	a5,a3,a5
ffffffc050209a46:	97ba                	add	a5,a5,a4
ffffffc050209a48:	5f9c                	lw	a5,56(a5)
ffffffc050209a4a:	fb040693          	addi	a3,s0,-80
ffffffc050209a4e:	02079713          	slli	a4,a5,0x20
ffffffc050209a52:	9301                	srli	a4,a4,0x20
ffffffc050209a54:	87ba                	mv	a5,a4
ffffffc050209a56:	078a                	slli	a5,a5,0x2
ffffffc050209a58:	97ba                	add	a5,a5,a4
ffffffc050209a5a:	0786                	slli	a5,a5,0x1
ffffffc050209a5c:	00f68533          	add	a0,a3,a5
ffffffc050209a60:	fec42703          	lw	a4,-20(s0)
ffffffc050209a64:	6b000793          	li	a5,1712
ffffffc050209a68:	02f707b3          	mul	a5,a4,a5
ffffffc050209a6c:	6a078713          	addi	a4,a5,1696
ffffffc050209a70:	00052797          	auipc	a5,0x52
ffffffc050209a74:	6b878793          	addi	a5,a5,1720 # ffffffc05025c128 <pcb>
ffffffc050209a78:	00f708b3          	add	a7,a4,a5
ffffffc050209a7c:	00052717          	auipc	a4,0x52
ffffffc050209a80:	6ac70713          	addi	a4,a4,1708 # ffffffc05025c128 <pcb>
ffffffc050209a84:	fec42683          	lw	a3,-20(s0)
ffffffc050209a88:	6b000793          	li	a5,1712
ffffffc050209a8c:	02f687b3          	mul	a5,a3,a5
ffffffc050209a90:	97ba                	add	a5,a5,a4
ffffffc050209a92:	0887a303          	lw	t1,136(a5)
ffffffc050209a96:	00052717          	auipc	a4,0x52
ffffffc050209a9a:	69270713          	addi	a4,a4,1682 # ffffffc05025c128 <pcb>
ffffffc050209a9e:	fec42683          	lw	a3,-20(s0)
ffffffc050209aa2:	6b000793          	li	a5,1712
ffffffc050209aa6:	02f687b3          	mul	a5,a3,a5
ffffffc050209aaa:	97ba                	add	a5,a5,a4
ffffffc050209aac:	08c7a783          	lw	a5,140(a5)
ffffffc050209ab0:	fe842583          	lw	a1,-24(s0)
ffffffc050209ab4:	883e                	mv	a6,a5
ffffffc050209ab6:	879a                	mv	a5,t1
ffffffc050209ab8:	8746                	mv	a4,a7
ffffffc050209aba:	86aa                	mv	a3,a0
ffffffc050209abc:	00002517          	auipc	a0,0x2
ffffffc050209ac0:	f7c50513          	addi	a0,a0,-132 # ffffffc05020ba38 <__FUNCTION__.1616+0x1f0>
ffffffc050209ac4:	414010ef          	jal	ra,ffffffc05020aed8 <printk>
ffffffc050209ac8:	a845                	j	ffffffc050209b78 <do_process_show+0x326>
ffffffc050209aca:	00052717          	auipc	a4,0x52
ffffffc050209ace:	65e70713          	addi	a4,a4,1630 # ffffffc05025c128 <pcb>
ffffffc050209ad2:	fec42683          	lw	a3,-20(s0)
ffffffc050209ad6:	6b000793          	li	a5,1712
ffffffc050209ada:	02f687b3          	mul	a5,a3,a5
ffffffc050209ade:	97ba                	add	a5,a5,a4
ffffffc050209ae0:	5b90                	lw	a2,48(a5)
ffffffc050209ae2:	00052717          	auipc	a4,0x52
ffffffc050209ae6:	64670713          	addi	a4,a4,1606 # ffffffc05025c128 <pcb>
ffffffc050209aea:	fec42683          	lw	a3,-20(s0)
ffffffc050209aee:	6b000793          	li	a5,1712
ffffffc050209af2:	02f687b3          	mul	a5,a3,a5
ffffffc050209af6:	97ba                	add	a5,a5,a4
ffffffc050209af8:	5f9c                	lw	a5,56(a5)
ffffffc050209afa:	fb040693          	addi	a3,s0,-80
ffffffc050209afe:	02079713          	slli	a4,a5,0x20
ffffffc050209b02:	9301                	srli	a4,a4,0x20
ffffffc050209b04:	87ba                	mv	a5,a4
ffffffc050209b06:	078a                	slli	a5,a5,0x2
ffffffc050209b08:	97ba                	add	a5,a5,a4
ffffffc050209b0a:	0786                	slli	a5,a5,0x1
ffffffc050209b0c:	00f68533          	add	a0,a3,a5
ffffffc050209b10:	fec42703          	lw	a4,-20(s0)
ffffffc050209b14:	6b000793          	li	a5,1712
ffffffc050209b18:	02f707b3          	mul	a5,a4,a5
ffffffc050209b1c:	6a078713          	addi	a4,a5,1696
ffffffc050209b20:	00052797          	auipc	a5,0x52
ffffffc050209b24:	60878793          	addi	a5,a5,1544 # ffffffc05025c128 <pcb>
ffffffc050209b28:	00f708b3          	add	a7,a4,a5
ffffffc050209b2c:	00052717          	auipc	a4,0x52
ffffffc050209b30:	5fc70713          	addi	a4,a4,1532 # ffffffc05025c128 <pcb>
ffffffc050209b34:	fec42683          	lw	a3,-20(s0)
ffffffc050209b38:	6b000793          	li	a5,1712
ffffffc050209b3c:	02f687b3          	mul	a5,a3,a5
ffffffc050209b40:	97ba                	add	a5,a5,a4
ffffffc050209b42:	0887a303          	lw	t1,136(a5)
ffffffc050209b46:	00052717          	auipc	a4,0x52
ffffffc050209b4a:	5e270713          	addi	a4,a4,1506 # ffffffc05025c128 <pcb>
ffffffc050209b4e:	fec42683          	lw	a3,-20(s0)
ffffffc050209b52:	6b000793          	li	a5,1712
ffffffc050209b56:	02f687b3          	mul	a5,a3,a5
ffffffc050209b5a:	97ba                	add	a5,a5,a4
ffffffc050209b5c:	08c7a783          	lw	a5,140(a5)
ffffffc050209b60:	fe842583          	lw	a1,-24(s0)
ffffffc050209b64:	883e                	mv	a6,a5
ffffffc050209b66:	879a                	mv	a5,t1
ffffffc050209b68:	8746                	mv	a4,a7
ffffffc050209b6a:	86aa                	mv	a3,a0
ffffffc050209b6c:	00002517          	auipc	a0,0x2
ffffffc050209b70:	f0c50513          	addi	a0,a0,-244 # ffffffc05020ba78 <__FUNCTION__.1616+0x230>
ffffffc050209b74:	364010ef          	jal	ra,ffffffc05020aed8 <printk>
ffffffc050209b78:	fe842783          	lw	a5,-24(s0)
ffffffc050209b7c:	2785                	addiw	a5,a5,1
ffffffc050209b7e:	fef42423          	sw	a5,-24(s0)
ffffffc050209b82:	fec42783          	lw	a5,-20(s0)
ffffffc050209b86:	2785                	addiw	a5,a5,1
ffffffc050209b88:	fef42623          	sw	a5,-20(s0)
ffffffc050209b8c:	fec42783          	lw	a5,-20(s0)
ffffffc050209b90:	0007871b          	sext.w	a4,a5
ffffffc050209b94:	47fd                	li	a5,31
ffffffc050209b96:	d6e7dce3          	bge	a5,a4,ffffffc05020990e <do_process_show+0xbc>
ffffffc050209b9a:	0001                	nop
ffffffc050209b9c:	0001                	nop
ffffffc050209b9e:	60a6                	ld	ra,72(sp)
ffffffc050209ba0:	6406                	ld	s0,64(sp)
ffffffc050209ba2:	6161                	addi	sp,sp,80
ffffffc050209ba4:	8082                	ret

ffffffc050209ba6 <do_clear>:
ffffffc050209ba6:	1141                	addi	sp,sp,-16
ffffffc050209ba8:	e422                	sd	s0,8(sp)
ffffffc050209baa:	0800                	addi	s0,sp,16
ffffffc050209bac:	0001                	nop
ffffffc050209bae:	6422                	ld	s0,8(sp)
ffffffc050209bb0:	0141                	addi	sp,sp,16
ffffffc050209bb2:	8082                	ret

ffffffc050209bb4 <do_exec>:
ffffffc050209bb4:	7139                	addi	sp,sp,-64
ffffffc050209bb6:	fc06                	sd	ra,56(sp)
ffffffc050209bb8:	f822                	sd	s0,48(sp)
ffffffc050209bba:	0080                	addi	s0,sp,64
ffffffc050209bbc:	fca43c23          	sd	a0,-40(s0)
ffffffc050209bc0:	87ae                	mv	a5,a1
ffffffc050209bc2:	fcc43423          	sd	a2,-56(s0)
ffffffc050209bc6:	fcf42a23          	sw	a5,-44(s0)
ffffffc050209bca:	00052797          	auipc	a5,0x52
ffffffc050209bce:	54e78793          	addi	a5,a5,1358 # ffffffc05025c118 <current_running>
ffffffc050209bd2:	639c                	ld	a5,0(a5)
ffffffc050209bd4:	0887a703          	lw	a4,136(a5)
ffffffc050209bd8:	fd442783          	lw	a5,-44(s0)
ffffffc050209bdc:	86ba                	mv	a3,a4
ffffffc050209bde:	fc843603          	ld	a2,-56(s0)
ffffffc050209be2:	85be                	mv	a1,a5
ffffffc050209be4:	fd843503          	ld	a0,-40(s0)
ffffffc050209be8:	8aaff0ef          	jal	ra,ffffffc050208c92 <add_pcb>
ffffffc050209bec:	87aa                	mv	a5,a0
ffffffc050209bee:	fef42623          	sw	a5,-20(s0)
ffffffc050209bf2:	fec42783          	lw	a5,-20(s0)
ffffffc050209bf6:	2781                	sext.w	a5,a5
ffffffc050209bf8:	c399                	beqz	a5,ffffffc050209bfe <do_exec+0x4a>
ffffffc050209bfa:	d80ff0ef          	jal	ra,ffffffc05020917a <do_scheduler>
ffffffc050209bfe:	fec42783          	lw	a5,-20(s0)
ffffffc050209c02:	853e                	mv	a0,a5
ffffffc050209c04:	70e2                	ld	ra,56(sp)
ffffffc050209c06:	7442                	ld	s0,48(sp)
ffffffc050209c08:	6121                	addi	sp,sp,64
ffffffc050209c0a:	8082                	ret

ffffffc050209c0c <do_exit>:
ffffffc050209c0c:	1101                	addi	sp,sp,-32
ffffffc050209c0e:	ec06                	sd	ra,24(sp)
ffffffc050209c10:	e822                	sd	s0,16(sp)
ffffffc050209c12:	1000                	addi	s0,sp,32
ffffffc050209c14:	00052797          	auipc	a5,0x52
ffffffc050209c18:	50478793          	addi	a5,a5,1284 # ffffffc05025c118 <current_running>
ffffffc050209c1c:	639c                	ld	a5,0(a5)
ffffffc050209c1e:	470d                	li	a4,3
ffffffc050209c20:	df98                	sw	a4,56(a5)
ffffffc050209c22:	00052797          	auipc	a5,0x52
ffffffc050209c26:	4f678793          	addi	a5,a5,1270 # ffffffc05025c118 <current_running>
ffffffc050209c2a:	639c                	ld	a5,0(a5)
ffffffc050209c2c:	5b9c                	lw	a5,48(a5)
ffffffc050209c2e:	853e                	mv	a0,a5
ffffffc050209c30:	e09fe0ef          	jal	ra,ffffffc050208a38 <recover_pid>
ffffffc050209c34:	00052797          	auipc	a5,0x52
ffffffc050209c38:	4e478793          	addi	a5,a5,1252 # ffffffc05025c118 <current_running>
ffffffc050209c3c:	639c                	ld	a5,0(a5)
ffffffc050209c3e:	0207aa23          	sw	zero,52(a5)
ffffffc050209c42:	a035                	j	ffffffc050209c6e <do_exit+0x62>
ffffffc050209c44:	fe843783          	ld	a5,-24(s0)
ffffffc050209c48:	17c1                	addi	a5,a5,-16
ffffffc050209c4a:	fef43023          	sd	a5,-32(s0)
ffffffc050209c4e:	fe043783          	ld	a5,-32(s0)
ffffffc050209c52:	5f9c                	lw	a5,56(a5)
ffffffc050209c54:	ef89                	bnez	a5,ffffffc050209c6e <do_exit+0x62>
ffffffc050209c56:	fe043783          	ld	a5,-32(s0)
ffffffc050209c5a:	4709                	li	a4,2
ffffffc050209c5c:	df98                	sw	a4,56(a5)
ffffffc050209c5e:	fe843583          	ld	a1,-24(s0)
ffffffc050209c62:	00003517          	auipc	a0,0x3
ffffffc050209c66:	d0e50513          	addi	a0,a0,-754 # ffffffc05020c970 <ready_queue>
ffffffc050209c6a:	ad5fe0ef          	jal	ra,ffffffc05020873e <Enqueue>
ffffffc050209c6e:	00052797          	auipc	a5,0x52
ffffffc050209c72:	4aa78793          	addi	a5,a5,1194 # ffffffc05025c118 <current_running>
ffffffc050209c76:	639c                	ld	a5,0(a5)
ffffffc050209c78:	02078793          	addi	a5,a5,32
ffffffc050209c7c:	853e                	mv	a0,a5
ffffffc050209c7e:	a35fe0ef          	jal	ra,ffffffc0502086b2 <Dequeue>
ffffffc050209c82:	fea43423          	sd	a0,-24(s0)
ffffffc050209c86:	fe843783          	ld	a5,-24(s0)
ffffffc050209c8a:	ffcd                	bnez	a5,ffffffc050209c44 <do_exit+0x38>
ffffffc050209c8c:	ceeff0ef          	jal	ra,ffffffc05020917a <do_scheduler>
ffffffc050209c90:	0001                	nop
ffffffc050209c92:	60e2                	ld	ra,24(sp)
ffffffc050209c94:	6442                	ld	s0,16(sp)
ffffffc050209c96:	6105                	addi	sp,sp,32
ffffffc050209c98:	8082                	ret

ffffffc050209c9a <do_kill>:
ffffffc050209c9a:	7139                	addi	sp,sp,-64
ffffffc050209c9c:	fc06                	sd	ra,56(sp)
ffffffc050209c9e:	f822                	sd	s0,48(sp)
ffffffc050209ca0:	0080                	addi	s0,sp,64
ffffffc050209ca2:	87aa                	mv	a5,a0
ffffffc050209ca4:	fcf42623          	sw	a5,-52(s0)
ffffffc050209ca8:	fe042623          	sw	zero,-20(s0)
ffffffc050209cac:	a241                	j	ffffffc050209e2c <do_kill+0x192>
ffffffc050209cae:	00052717          	auipc	a4,0x52
ffffffc050209cb2:	47a70713          	addi	a4,a4,1146 # ffffffc05025c128 <pcb>
ffffffc050209cb6:	fec42683          	lw	a3,-20(s0)
ffffffc050209cba:	6b000793          	li	a5,1712
ffffffc050209cbe:	02f687b3          	mul	a5,a3,a5
ffffffc050209cc2:	97ba                	add	a5,a5,a4
ffffffc050209cc4:	5b98                	lw	a4,48(a5)
ffffffc050209cc6:	fcc42783          	lw	a5,-52(s0)
ffffffc050209cca:	2781                	sext.w	a5,a5
ffffffc050209ccc:	14e79b63          	bne	a5,a4,ffffffc050209e22 <do_kill+0x188>
ffffffc050209cd0:	00052717          	auipc	a4,0x52
ffffffc050209cd4:	45870713          	addi	a4,a4,1112 # ffffffc05025c128 <pcb>
ffffffc050209cd8:	fec42683          	lw	a3,-20(s0)
ffffffc050209cdc:	6b000793          	li	a5,1712
ffffffc050209ce0:	02f687b3          	mul	a5,a3,a5
ffffffc050209ce4:	97ba                	add	a5,a5,a4
ffffffc050209ce6:	470d                	li	a4,3
ffffffc050209ce8:	df98                	sw	a4,56(a5)
ffffffc050209cea:	00052717          	auipc	a4,0x52
ffffffc050209cee:	43e70713          	addi	a4,a4,1086 # ffffffc05025c128 <pcb>
ffffffc050209cf2:	fec42683          	lw	a3,-20(s0)
ffffffc050209cf6:	6b000793          	li	a5,1712
ffffffc050209cfa:	02f687b3          	mul	a5,a3,a5
ffffffc050209cfe:	97ba                	add	a5,a5,a4
ffffffc050209d00:	5b9c                	lw	a5,48(a5)
ffffffc050209d02:	853e                	mv	a0,a5
ffffffc050209d04:	d35fe0ef          	jal	ra,ffffffc050208a38 <recover_pid>
ffffffc050209d08:	00052717          	auipc	a4,0x52
ffffffc050209d0c:	42070713          	addi	a4,a4,1056 # ffffffc05025c128 <pcb>
ffffffc050209d10:	fec42683          	lw	a3,-20(s0)
ffffffc050209d14:	6b000793          	li	a5,1712
ffffffc050209d18:	02f687b3          	mul	a5,a3,a5
ffffffc050209d1c:	97ba                	add	a5,a5,a4
ffffffc050209d1e:	0207aa23          	sw	zero,52(a5)
ffffffc050209d22:	a091                	j	ffffffc050209d66 <do_kill+0xcc>
ffffffc050209d24:	fe043783          	ld	a5,-32(s0)
ffffffc050209d28:	17c1                	addi	a5,a5,-16
ffffffc050209d2a:	fcf43c23          	sd	a5,-40(s0)
ffffffc050209d2e:	fec42703          	lw	a4,-20(s0)
ffffffc050209d32:	6b000793          	li	a5,1712
ffffffc050209d36:	02f707b3          	mul	a5,a4,a5
ffffffc050209d3a:	02078713          	addi	a4,a5,32
ffffffc050209d3e:	00052797          	auipc	a5,0x52
ffffffc050209d42:	3ea78793          	addi	a5,a5,1002 # ffffffc05025c128 <pcb>
ffffffc050209d46:	97ba                	add	a5,a5,a4
ffffffc050209d48:	853e                	mv	a0,a5
ffffffc050209d4a:	a8ffe0ef          	jal	ra,ffffffc0502087d8 <Print_queue>
ffffffc050209d4e:	fd843783          	ld	a5,-40(s0)
ffffffc050209d52:	4709                	li	a4,2
ffffffc050209d54:	df98                	sw	a4,56(a5)
ffffffc050209d56:	fe043583          	ld	a1,-32(s0)
ffffffc050209d5a:	00003517          	auipc	a0,0x3
ffffffc050209d5e:	c1650513          	addi	a0,a0,-1002 # ffffffc05020c970 <ready_queue>
ffffffc050209d62:	9ddfe0ef          	jal	ra,ffffffc05020873e <Enqueue>
ffffffc050209d66:	fec42703          	lw	a4,-20(s0)
ffffffc050209d6a:	6b000793          	li	a5,1712
ffffffc050209d6e:	02f707b3          	mul	a5,a4,a5
ffffffc050209d72:	02078713          	addi	a4,a5,32
ffffffc050209d76:	00052797          	auipc	a5,0x52
ffffffc050209d7a:	3b278793          	addi	a5,a5,946 # ffffffc05025c128 <pcb>
ffffffc050209d7e:	97ba                	add	a5,a5,a4
ffffffc050209d80:	853e                	mv	a0,a5
ffffffc050209d82:	931fe0ef          	jal	ra,ffffffc0502086b2 <Dequeue>
ffffffc050209d86:	fea43023          	sd	a0,-32(s0)
ffffffc050209d8a:	fe043783          	ld	a5,-32(s0)
ffffffc050209d8e:	fbd9                	bnez	a5,ffffffc050209d24 <do_kill+0x8a>
ffffffc050209d90:	fe042423          	sw	zero,-24(s0)
ffffffc050209d94:	a8b5                	j	ffffffc050209e10 <do_kill+0x176>
ffffffc050209d96:	00052717          	auipc	a4,0x52
ffffffc050209d9a:	39270713          	addi	a4,a4,914 # ffffffc05025c128 <pcb>
ffffffc050209d9e:	fe842783          	lw	a5,-24(s0)
ffffffc050209da2:	fec42603          	lw	a2,-20(s0)
ffffffc050209da6:	1ac00693          	li	a3,428
ffffffc050209daa:	02d606b3          	mul	a3,a2,a3
ffffffc050209dae:	97b6                	add	a5,a5,a3
ffffffc050209db0:	07e1                	addi	a5,a5,24
ffffffc050209db2:	078a                	slli	a5,a5,0x2
ffffffc050209db4:	97ba                	add	a5,a5,a4
ffffffc050209db6:	439c                	lw	a5,0(a5)
ffffffc050209db8:	c7b9                	beqz	a5,ffffffc050209e06 <do_kill+0x16c>
ffffffc050209dba:	00052717          	auipc	a4,0x52
ffffffc050209dbe:	36e70713          	addi	a4,a4,878 # ffffffc05025c128 <pcb>
ffffffc050209dc2:	fe842783          	lw	a5,-24(s0)
ffffffc050209dc6:	fec42603          	lw	a2,-20(s0)
ffffffc050209dca:	1ac00693          	li	a3,428
ffffffc050209dce:	02d606b3          	mul	a3,a2,a3
ffffffc050209dd2:	97b6                	add	a5,a5,a3
ffffffc050209dd4:	07e1                	addi	a5,a5,24
ffffffc050209dd6:	078a                	slli	a5,a5,0x2
ffffffc050209dd8:	97ba                	add	a5,a5,a4
ffffffc050209dda:	439c                	lw	a5,0(a5)
ffffffc050209ddc:	853e                	mv	a0,a5
ffffffc050209dde:	af7fd0ef          	jal	ra,ffffffc0502078d4 <kill_process_lock_release>
ffffffc050209de2:	00052717          	auipc	a4,0x52
ffffffc050209de6:	34670713          	addi	a4,a4,838 # ffffffc05025c128 <pcb>
ffffffc050209dea:	fe842783          	lw	a5,-24(s0)
ffffffc050209dee:	fec42603          	lw	a2,-20(s0)
ffffffc050209df2:	1ac00693          	li	a3,428
ffffffc050209df6:	02d606b3          	mul	a3,a2,a3
ffffffc050209dfa:	97b6                	add	a5,a5,a3
ffffffc050209dfc:	07e1                	addi	a5,a5,24
ffffffc050209dfe:	078a                	slli	a5,a5,0x2
ffffffc050209e00:	97ba                	add	a5,a5,a4
ffffffc050209e02:	0007a023          	sw	zero,0(a5)
ffffffc050209e06:	fe842783          	lw	a5,-24(s0)
ffffffc050209e0a:	2785                	addiw	a5,a5,1
ffffffc050209e0c:	fef42423          	sw	a5,-24(s0)
ffffffc050209e10:	fe842783          	lw	a5,-24(s0)
ffffffc050209e14:	0007871b          	sext.w	a4,a5
ffffffc050209e18:	47a5                	li	a5,9
ffffffc050209e1a:	f6e7dee3          	bge	a5,a4,ffffffc050209d96 <do_kill+0xfc>
ffffffc050209e1e:	4785                	li	a5,1
ffffffc050209e20:	a831                	j	ffffffc050209e3c <do_kill+0x1a2>
ffffffc050209e22:	fec42783          	lw	a5,-20(s0)
ffffffc050209e26:	2785                	addiw	a5,a5,1
ffffffc050209e28:	fef42623          	sw	a5,-20(s0)
ffffffc050209e2c:	fec42783          	lw	a5,-20(s0)
ffffffc050209e30:	0007871b          	sext.w	a4,a5
ffffffc050209e34:	47fd                	li	a5,31
ffffffc050209e36:	e6e7dce3          	bge	a5,a4,ffffffc050209cae <do_kill+0x14>
ffffffc050209e3a:	4781                	li	a5,0
ffffffc050209e3c:	853e                	mv	a0,a5
ffffffc050209e3e:	70e2                	ld	ra,56(sp)
ffffffc050209e40:	7442                	ld	s0,48(sp)
ffffffc050209e42:	6121                	addi	sp,sp,64
ffffffc050209e44:	8082                	ret

ffffffc050209e46 <do_waitpid>:
ffffffc050209e46:	7179                	addi	sp,sp,-48
ffffffc050209e48:	f406                	sd	ra,40(sp)
ffffffc050209e4a:	f022                	sd	s0,32(sp)
ffffffc050209e4c:	1800                	addi	s0,sp,48
ffffffc050209e4e:	87aa                	mv	a5,a0
ffffffc050209e50:	fcf42e23          	sw	a5,-36(s0)
ffffffc050209e54:	fe042623          	sw	zero,-20(s0)
ffffffc050209e58:	a845                	j	ffffffc050209f08 <do_waitpid+0xc2>
ffffffc050209e5a:	00052717          	auipc	a4,0x52
ffffffc050209e5e:	2ce70713          	addi	a4,a4,718 # ffffffc05025c128 <pcb>
ffffffc050209e62:	fec42683          	lw	a3,-20(s0)
ffffffc050209e66:	6b000793          	li	a5,1712
ffffffc050209e6a:	02f687b3          	mul	a5,a3,a5
ffffffc050209e6e:	97ba                	add	a5,a5,a4
ffffffc050209e70:	5b98                	lw	a4,48(a5)
ffffffc050209e72:	fdc42783          	lw	a5,-36(s0)
ffffffc050209e76:	2781                	sext.w	a5,a5
ffffffc050209e78:	08e79363          	bne	a5,a4,ffffffc050209efe <do_waitpid+0xb8>
ffffffc050209e7c:	00052717          	auipc	a4,0x52
ffffffc050209e80:	2ac70713          	addi	a4,a4,684 # ffffffc05025c128 <pcb>
ffffffc050209e84:	fec42683          	lw	a3,-20(s0)
ffffffc050209e88:	6b000793          	li	a5,1712
ffffffc050209e8c:	02f687b3          	mul	a5,a3,a5
ffffffc050209e90:	97ba                	add	a5,a5,a4
ffffffc050209e92:	5f9c                	lw	a5,56(a5)
ffffffc050209e94:	873e                	mv	a4,a5
ffffffc050209e96:	478d                	li	a5,3
ffffffc050209e98:	06f70363          	beq	a4,a5,ffffffc050209efe <do_waitpid+0xb8>
ffffffc050209e9c:	00052797          	auipc	a5,0x52
ffffffc050209ea0:	27c78793          	addi	a5,a5,636 # ffffffc05025c118 <current_running>
ffffffc050209ea4:	639c                	ld	a5,0(a5)
ffffffc050209ea6:	0207ac23          	sw	zero,56(a5)
ffffffc050209eaa:	00052797          	auipc	a5,0x52
ffffffc050209eae:	26e78793          	addi	a5,a5,622 # ffffffc05025c118 <current_running>
ffffffc050209eb2:	639c                	ld	a5,0(a5)
ffffffc050209eb4:	6a078793          	addi	a5,a5,1696
ffffffc050209eb8:	85be                	mv	a1,a5
ffffffc050209eba:	00002517          	auipc	a0,0x2
ffffffc050209ebe:	c2e50513          	addi	a0,a0,-978 # ffffffc05020bae8 <__FUNCTION__.1616+0x2a0>
ffffffc050209ec2:	126010ef          	jal	ra,ffffffc05020afe8 <printl>
ffffffc050209ec6:	fec42703          	lw	a4,-20(s0)
ffffffc050209eca:	6b000793          	li	a5,1712
ffffffc050209ece:	02f707b3          	mul	a5,a4,a5
ffffffc050209ed2:	02078713          	addi	a4,a5,32
ffffffc050209ed6:	00052797          	auipc	a5,0x52
ffffffc050209eda:	25278793          	addi	a5,a5,594 # ffffffc05025c128 <pcb>
ffffffc050209ede:	973e                	add	a4,a4,a5
ffffffc050209ee0:	00052797          	auipc	a5,0x52
ffffffc050209ee4:	23878793          	addi	a5,a5,568 # ffffffc05025c118 <current_running>
ffffffc050209ee8:	639c                	ld	a5,0(a5)
ffffffc050209eea:	07c1                	addi	a5,a5,16
ffffffc050209eec:	85be                	mv	a1,a5
ffffffc050209eee:	853a                	mv	a0,a4
ffffffc050209ef0:	84ffe0ef          	jal	ra,ffffffc05020873e <Enqueue>
ffffffc050209ef4:	a86ff0ef          	jal	ra,ffffffc05020917a <do_scheduler>
ffffffc050209ef8:	fdc42783          	lw	a5,-36(s0)
ffffffc050209efc:	a831                	j	ffffffc050209f18 <do_waitpid+0xd2>
ffffffc050209efe:	fec42783          	lw	a5,-20(s0)
ffffffc050209f02:	2785                	addiw	a5,a5,1
ffffffc050209f04:	fef42623          	sw	a5,-20(s0)
ffffffc050209f08:	fec42783          	lw	a5,-20(s0)
ffffffc050209f0c:	0007871b          	sext.w	a4,a5
ffffffc050209f10:	47fd                	li	a5,31
ffffffc050209f12:	f4e7d4e3          	bge	a5,a4,ffffffc050209e5a <do_waitpid+0x14>
ffffffc050209f16:	4781                	li	a5,0
ffffffc050209f18:	853e                	mv	a0,a5
ffffffc050209f1a:	70a2                	ld	ra,40(sp)
ffffffc050209f1c:	7402                	ld	s0,32(sp)
ffffffc050209f1e:	6145                	addi	sp,sp,48
ffffffc050209f20:	8082                	ret

ffffffc050209f22 <do_getpid>:
ffffffc050209f22:	1141                	addi	sp,sp,-16
ffffffc050209f24:	e422                	sd	s0,8(sp)
ffffffc050209f26:	0800                	addi	s0,sp,16
ffffffc050209f28:	00052797          	auipc	a5,0x52
ffffffc050209f2c:	1f078793          	addi	a5,a5,496 # ffffffc05025c118 <current_running>
ffffffc050209f30:	639c                	ld	a5,0(a5)
ffffffc050209f32:	5b9c                	lw	a5,48(a5)
ffffffc050209f34:	853e                	mv	a0,a5
ffffffc050209f36:	6422                	ld	s0,8(sp)
ffffffc050209f38:	0141                	addi	sp,sp,16
ffffffc050209f3a:	8082                	ret

ffffffc050209f3c <taskset_exec>:
ffffffc050209f3c:	711d                	addi	sp,sp,-96
ffffffc050209f3e:	ec86                	sd	ra,88(sp)
ffffffc050209f40:	e8a2                	sd	s0,80(sp)
ffffffc050209f42:	1080                	addi	s0,sp,96
ffffffc050209f44:	87aa                	mv	a5,a0
ffffffc050209f46:	fab43023          	sd	a1,-96(s0)
ffffffc050209f4a:	faf42623          	sw	a5,-84(s0)
ffffffc050209f4e:	fa043783          	ld	a5,-96(s0)
ffffffc050209f52:	07a1                	addi	a5,a5,8
ffffffc050209f54:	639c                	ld	a5,0(a5)
ffffffc050209f56:	eb81                	bnez	a5,ffffffc050209f66 <taskset_exec+0x2a>
ffffffc050209f58:	00002517          	auipc	a0,0x2
ffffffc050209f5c:	ba850513          	addi	a0,a0,-1112 # ffffffc05020bb00 <__FUNCTION__.1616+0x2b8>
ffffffc050209f60:	779000ef          	jal	ra,ffffffc05020aed8 <printk>
ffffffc050209f64:	a219                	j	ffffffc05020a06a <taskset_exec+0x12e>
ffffffc050209f66:	fa043783          	ld	a5,-96(s0)
ffffffc050209f6a:	07a1                	addi	a5,a5,8
ffffffc050209f6c:	639c                	ld	a5,0(a5)
ffffffc050209f6e:	85be                	mv	a1,a5
ffffffc050209f70:	00002517          	auipc	a0,0x2
ffffffc050209f74:	ba050513          	addi	a0,a0,-1120 # ffffffc05020bb10 <__FUNCTION__.1616+0x2c8>
ffffffc050209f78:	1ce010ef          	jal	ra,ffffffc05020b146 <strcmp>
ffffffc050209f7c:	87aa                	mv	a5,a0
ffffffc050209f7e:	00f037b3          	snez	a5,a5
ffffffc050209f82:	0ff7f793          	andi	a5,a5,255
ffffffc050209f86:	fef42223          	sw	a5,-28(s0)
ffffffc050209f8a:	fe442783          	lw	a5,-28(s0)
ffffffc050209f8e:	2781                	sext.w	a5,a5
ffffffc050209f90:	cfa1                	beqz	a5,ffffffc050209fe8 <taskset_exec+0xac>
ffffffc050209f92:	fa043783          	ld	a5,-96(s0)
ffffffc050209f96:	07a1                	addi	a5,a5,8
ffffffc050209f98:	639c                	ld	a5,0(a5)
ffffffc050209f9a:	0789                	addi	a5,a5,2
ffffffc050209f9c:	0007c783          	lbu	a5,0(a5)
ffffffc050209fa0:	2781                	sext.w	a5,a5
ffffffc050209fa2:	fd07879b          	addiw	a5,a5,-48
ffffffc050209fa6:	fef42023          	sw	a5,-32(s0)
ffffffc050209faa:	fa043783          	ld	a5,-96(s0)
ffffffc050209fae:	6b9c                	ld	a5,16(a5)
ffffffc050209fb0:	fcf43823          	sd	a5,-48(s0)
ffffffc050209fb4:	fac42783          	lw	a5,-84(s0)
ffffffc050209fb8:	37f9                	addiw	a5,a5,-2
ffffffc050209fba:	fcf42623          	sw	a5,-52(s0)
ffffffc050209fbe:	fa043783          	ld	a5,-96(s0)
ffffffc050209fc2:	07c1                	addi	a5,a5,16
ffffffc050209fc4:	fcf43023          	sd	a5,-64(s0)
ffffffc050209fc8:	fe042703          	lw	a4,-32(s0)
ffffffc050209fcc:	fcc42783          	lw	a5,-52(s0)
ffffffc050209fd0:	86ba                	mv	a3,a4
ffffffc050209fd2:	fc043603          	ld	a2,-64(s0)
ffffffc050209fd6:	85be                	mv	a1,a5
ffffffc050209fd8:	fd043503          	ld	a0,-48(s0)
ffffffc050209fdc:	cb7fe0ef          	jal	ra,ffffffc050208c92 <add_pcb>
ffffffc050209fe0:	87aa                	mv	a5,a0
ffffffc050209fe2:	faf42e23          	sw	a5,-68(s0)
ffffffc050209fe6:	a051                	j	ffffffc05020a06a <taskset_exec+0x12e>
ffffffc050209fe8:	fa043783          	ld	a5,-96(s0)
ffffffc050209fec:	07c1                	addi	a5,a5,16
ffffffc050209fee:	639c                	ld	a5,0(a5)
ffffffc050209ff0:	0789                	addi	a5,a5,2
ffffffc050209ff2:	0007c783          	lbu	a5,0(a5)
ffffffc050209ff6:	2781                	sext.w	a5,a5
ffffffc050209ff8:	fd07879b          	addiw	a5,a5,-48
ffffffc050209ffc:	fef42023          	sw	a5,-32(s0)
ffffffc05020a000:	fa043783          	ld	a5,-96(s0)
ffffffc05020a004:	6f9c                	ld	a5,24(a5)
ffffffc05020a006:	fcf43c23          	sd	a5,-40(s0)
ffffffc05020a00a:	fe042423          	sw	zero,-24(s0)
ffffffc05020a00e:	a835                	j	ffffffc05020a04a <taskset_exec+0x10e>
ffffffc05020a010:	fec42703          	lw	a4,-20(s0)
ffffffc05020a014:	87ba                	mv	a5,a4
ffffffc05020a016:	0027979b          	slliw	a5,a5,0x2
ffffffc05020a01a:	9fb9                	addw	a5,a5,a4
ffffffc05020a01c:	0017979b          	slliw	a5,a5,0x1
ffffffc05020a020:	0007871b          	sext.w	a4,a5
ffffffc05020a024:	fe842783          	lw	a5,-24(s0)
ffffffc05020a028:	fd843683          	ld	a3,-40(s0)
ffffffc05020a02c:	97b6                	add	a5,a5,a3
ffffffc05020a02e:	0007c783          	lbu	a5,0(a5)
ffffffc05020a032:	2781                	sext.w	a5,a5
ffffffc05020a034:	fd07879b          	addiw	a5,a5,-48
ffffffc05020a038:	2781                	sext.w	a5,a5
ffffffc05020a03a:	9fb9                	addw	a5,a5,a4
ffffffc05020a03c:	fef42623          	sw	a5,-20(s0)
ffffffc05020a040:	fe842783          	lw	a5,-24(s0)
ffffffc05020a044:	2785                	addiw	a5,a5,1
ffffffc05020a046:	fef42423          	sw	a5,-24(s0)
ffffffc05020a04a:	fe842783          	lw	a5,-24(s0)
ffffffc05020a04e:	fd843703          	ld	a4,-40(s0)
ffffffc05020a052:	97ba                	add	a5,a5,a4
ffffffc05020a054:	0007c783          	lbu	a5,0(a5)
ffffffc05020a058:	ffc5                	bnez	a5,ffffffc05020a010 <taskset_exec+0xd4>
ffffffc05020a05a:	fec42703          	lw	a4,-20(s0)
ffffffc05020a05e:	fe042783          	lw	a5,-32(s0)
ffffffc05020a062:	85ba                	mv	a1,a4
ffffffc05020a064:	853e                	mv	a0,a5
ffffffc05020a066:	00c000ef          	jal	ra,ffffffc05020a072 <taskset>
ffffffc05020a06a:	60e6                	ld	ra,88(sp)
ffffffc05020a06c:	6446                	ld	s0,80(sp)
ffffffc05020a06e:	6125                	addi	sp,sp,96
ffffffc05020a070:	8082                	ret

ffffffc05020a072 <taskset>:
ffffffc05020a072:	7179                	addi	sp,sp,-48
ffffffc05020a074:	f422                	sd	s0,40(sp)
ffffffc05020a076:	1800                	addi	s0,sp,48
ffffffc05020a078:	87aa                	mv	a5,a0
ffffffc05020a07a:	872e                	mv	a4,a1
ffffffc05020a07c:	fcf42e23          	sw	a5,-36(s0)
ffffffc05020a080:	87ba                	mv	a5,a4
ffffffc05020a082:	fcf42c23          	sw	a5,-40(s0)
ffffffc05020a086:	fe042623          	sw	zero,-20(s0)
ffffffc05020a08a:	a0b1                	j	ffffffc05020a0d6 <taskset+0x64>
ffffffc05020a08c:	00052717          	auipc	a4,0x52
ffffffc05020a090:	09c70713          	addi	a4,a4,156 # ffffffc05025c128 <pcb>
ffffffc05020a094:	fec42683          	lw	a3,-20(s0)
ffffffc05020a098:	6b000793          	li	a5,1712
ffffffc05020a09c:	02f687b3          	mul	a5,a3,a5
ffffffc05020a0a0:	97ba                	add	a5,a5,a4
ffffffc05020a0a2:	5b98                	lw	a4,48(a5)
ffffffc05020a0a4:	fd842783          	lw	a5,-40(s0)
ffffffc05020a0a8:	2781                	sext.w	a5,a5
ffffffc05020a0aa:	02e79163          	bne	a5,a4,ffffffc05020a0cc <taskset+0x5a>
ffffffc05020a0ae:	00052717          	auipc	a4,0x52
ffffffc05020a0b2:	07a70713          	addi	a4,a4,122 # ffffffc05025c128 <pcb>
ffffffc05020a0b6:	fec42683          	lw	a3,-20(s0)
ffffffc05020a0ba:	6b000793          	li	a5,1712
ffffffc05020a0be:	02f687b3          	mul	a5,a3,a5
ffffffc05020a0c2:	97ba                	add	a5,a5,a4
ffffffc05020a0c4:	fdc42703          	lw	a4,-36(s0)
ffffffc05020a0c8:	08e7a423          	sw	a4,136(a5)
ffffffc05020a0cc:	fec42783          	lw	a5,-20(s0)
ffffffc05020a0d0:	2785                	addiw	a5,a5,1
ffffffc05020a0d2:	fef42623          	sw	a5,-20(s0)
ffffffc05020a0d6:	fec42783          	lw	a5,-20(s0)
ffffffc05020a0da:	0007871b          	sext.w	a4,a5
ffffffc05020a0de:	47fd                	li	a5,31
ffffffc05020a0e0:	fae7d6e3          	bge	a5,a4,ffffffc05020a08c <taskset+0x1a>
ffffffc05020a0e4:	0001                	nop
ffffffc05020a0e6:	0001                	nop
ffffffc05020a0e8:	7422                	ld	s0,40(sp)
ffffffc05020a0ea:	6145                	addi	sp,sp,48
ffffffc05020a0ec:	8082                	ret

ffffffc05020a0ee <do_pagefault>:
ffffffc05020a0ee:	711d                	addi	sp,sp,-96
ffffffc05020a0f0:	ec86                	sd	ra,88(sp)
ffffffc05020a0f2:	e8a2                	sd	s0,80(sp)
ffffffc05020a0f4:	1080                	addi	s0,sp,96
ffffffc05020a0f6:	faa43423          	sd	a0,-88(s0)
ffffffc05020a0fa:	fa843503          	ld	a0,-88(s0)
ffffffc05020a0fe:	879fc0ef          	jal	ra,ffffffc050206976 <get_base_addr>
ffffffc05020a102:	fea43023          	sd	a0,-32(s0)
ffffffc05020a106:	fe042623          	sw	zero,-20(s0)
ffffffc05020a10a:	aaa5                	j	ffffffc05020a282 <do_pagefault+0x194>
ffffffc05020a10c:	00047717          	auipc	a4,0x47
ffffffc05020a110:	ffc70713          	addi	a4,a4,-4 # ffffffc050251108 <sdpages_mm>
ffffffc05020a114:	fec42783          	lw	a5,-20(s0)
ffffffc05020a118:	0796                	slli	a5,a5,0x5
ffffffc05020a11a:	97ba                	add	a5,a5,a4
ffffffc05020a11c:	4b9c                	lw	a5,16(a5)
ffffffc05020a11e:	873e                	mv	a4,a5
ffffffc05020a120:	4785                	li	a5,1
ffffffc05020a122:	14f71b63          	bne	a4,a5,ffffffc05020a278 <do_pagefault+0x18a>
ffffffc05020a126:	00047717          	auipc	a4,0x47
ffffffc05020a12a:	fe270713          	addi	a4,a4,-30 # ffffffc050251108 <sdpages_mm>
ffffffc05020a12e:	fec42783          	lw	a5,-20(s0)
ffffffc05020a132:	0796                	slli	a5,a5,0x5
ffffffc05020a134:	97ba                	add	a5,a5,a4
ffffffc05020a136:	639c                	ld	a5,0(a5)
ffffffc05020a138:	fe043703          	ld	a4,-32(s0)
ffffffc05020a13c:	12f71e63          	bne	a4,a5,ffffffc05020a278 <do_pagefault+0x18a>
ffffffc05020a140:	00052797          	auipc	a5,0x52
ffffffc05020a144:	fd878793          	addi	a5,a5,-40 # ffffffc05025c118 <current_running>
ffffffc05020a148:	639c                	ld	a5,0(a5)
ffffffc05020a14a:	6bd8                	ld	a4,144(a5)
ffffffc05020a14c:	00047697          	auipc	a3,0x47
ffffffc05020a150:	fbc68693          	addi	a3,a3,-68 # ffffffc050251108 <sdpages_mm>
ffffffc05020a154:	fec42783          	lw	a5,-20(s0)
ffffffc05020a158:	0796                	slli	a5,a5,0x5
ffffffc05020a15a:	97b6                	add	a5,a5,a3
ffffffc05020a15c:	679c                	ld	a5,8(a5)
ffffffc05020a15e:	10f71d63          	bne	a4,a5,ffffffc05020a278 <do_pagefault+0x18a>
ffffffc05020a162:	fe042423          	sw	zero,-24(s0)
ffffffc05020a166:	a891                	j	ffffffc05020a1ba <do_pagefault+0xcc>
ffffffc05020a168:	00052797          	auipc	a5,0x52
ffffffc05020a16c:	fb078793          	addi	a5,a5,-80 # ffffffc05025c118 <current_running>
ffffffc05020a170:	6398                	ld	a4,0(a5)
ffffffc05020a172:	fe842783          	lw	a5,-24(s0)
ffffffc05020a176:	07d1                	addi	a5,a5,20
ffffffc05020a178:	078e                	slli	a5,a5,0x3
ffffffc05020a17a:	97ba                	add	a5,a5,a4
ffffffc05020a17c:	6398                	ld	a4,0(a5)
ffffffc05020a17e:	00047697          	auipc	a3,0x47
ffffffc05020a182:	f8a68693          	addi	a3,a3,-118 # ffffffc050251108 <sdpages_mm>
ffffffc05020a186:	fec42783          	lw	a5,-20(s0)
ffffffc05020a18a:	0796                	slli	a5,a5,0x5
ffffffc05020a18c:	97b6                	add	a5,a5,a3
ffffffc05020a18e:	4f9c                	lw	a5,24(a5)
ffffffc05020a190:	02f71063          	bne	a4,a5,ffffffc05020a1b0 <do_pagefault+0xc2>
ffffffc05020a194:	00052797          	auipc	a5,0x52
ffffffc05020a198:	f8478793          	addi	a5,a5,-124 # ffffffc05025c118 <current_running>
ffffffc05020a19c:	6398                	ld	a4,0(a5)
ffffffc05020a19e:	fe842783          	lw	a5,-24(s0)
ffffffc05020a1a2:	12878793          	addi	a5,a5,296
ffffffc05020a1a6:	078a                	slli	a5,a5,0x2
ffffffc05020a1a8:	97ba                	add	a5,a5,a4
ffffffc05020a1aa:	470d                	li	a4,3
ffffffc05020a1ac:	c398                	sw	a4,0(a5)
ffffffc05020a1ae:	a015                	j	ffffffc05020a1d2 <do_pagefault+0xe4>
ffffffc05020a1b0:	fe842783          	lw	a5,-24(s0)
ffffffc05020a1b4:	2785                	addiw	a5,a5,1
ffffffc05020a1b6:	fef42423          	sw	a5,-24(s0)
ffffffc05020a1ba:	00052797          	auipc	a5,0x52
ffffffc05020a1be:	f5e78793          	addi	a5,a5,-162 # ffffffc05025c118 <current_running>
ffffffc05020a1c2:	639c                	ld	a5,0(a5)
ffffffc05020a1c4:	0987a703          	lw	a4,152(a5)
ffffffc05020a1c8:	fe842783          	lw	a5,-24(s0)
ffffffc05020a1cc:	2781                	sext.w	a5,a5
ffffffc05020a1ce:	f8e7cde3          	blt	a5,a4,ffffffc05020a168 <do_pagefault+0x7a>
ffffffc05020a1d2:	00052797          	auipc	a5,0x52
ffffffc05020a1d6:	f4678793          	addi	a5,a5,-186 # ffffffc05025c118 <current_running>
ffffffc05020a1da:	639c                	ld	a5,0(a5)
ffffffc05020a1dc:	6bd8                	ld	a4,144(a5)
ffffffc05020a1de:	00052797          	auipc	a5,0x52
ffffffc05020a1e2:	f3a78793          	addi	a5,a5,-198 # ffffffc05025c118 <current_running>
ffffffc05020a1e6:	639c                	ld	a5,0(a5)
ffffffc05020a1e8:	4681                	li	a3,0
ffffffc05020a1ea:	863e                	mv	a2,a5
ffffffc05020a1ec:	85ba                	mv	a1,a4
ffffffc05020a1ee:	fe043503          	ld	a0,-32(s0)
ffffffc05020a1f2:	f75fb0ef          	jal	ra,ffffffc050206166 <alloc_page_helper>
ffffffc05020a1f6:	faa43c23          	sd	a0,-72(s0)
ffffffc05020a1fa:	fb843503          	ld	a0,-72(s0)
ffffffc05020a1fe:	eecfe0ef          	jal	ra,ffffffc0502088ea <kva2pa>
ffffffc05020a202:	87aa                	mv	a5,a0
ffffffc05020a204:	0007869b          	sext.w	a3,a5
ffffffc05020a208:	00047717          	auipc	a4,0x47
ffffffc05020a20c:	f0070713          	addi	a4,a4,-256 # ffffffc050251108 <sdpages_mm>
ffffffc05020a210:	fec42783          	lw	a5,-20(s0)
ffffffc05020a214:	0796                	slli	a5,a5,0x5
ffffffc05020a216:	97ba                	add	a5,a5,a4
ffffffc05020a218:	4bdc                	lw	a5,20(a5)
ffffffc05020a21a:	2781                	sext.w	a5,a5
ffffffc05020a21c:	863e                	mv	a2,a5
ffffffc05020a21e:	45a1                	li	a1,8
ffffffc05020a220:	8536                	mv	a0,a3
ffffffc05020a222:	f78fe0ef          	jal	ra,ffffffc05020899a <bios_sdread>
ffffffc05020a226:	00047717          	auipc	a4,0x47
ffffffc05020a22a:	ee270713          	addi	a4,a4,-286 # ffffffc050251108 <sdpages_mm>
ffffffc05020a22e:	fec42783          	lw	a5,-20(s0)
ffffffc05020a232:	0796                	slli	a5,a5,0x5
ffffffc05020a234:	97ba                	add	a5,a5,a4
ffffffc05020a236:	0007a823          	sw	zero,16(a5)
ffffffc05020a23a:	00047717          	auipc	a4,0x47
ffffffc05020a23e:	ece70713          	addi	a4,a4,-306 # ffffffc050251108 <sdpages_mm>
ffffffc05020a242:	fec42783          	lw	a5,-20(s0)
ffffffc05020a246:	0796                	slli	a5,a5,0x5
ffffffc05020a248:	97ba                	add	a5,a5,a4
ffffffc05020a24a:	0007aa23          	sw	zero,20(a5)
ffffffc05020a24e:	00047717          	auipc	a4,0x47
ffffffc05020a252:	eba70713          	addi	a4,a4,-326 # ffffffc050251108 <sdpages_mm>
ffffffc05020a256:	fec42783          	lw	a5,-20(s0)
ffffffc05020a25a:	0796                	slli	a5,a5,0x5
ffffffc05020a25c:	97ba                	add	a5,a5,a4
ffffffc05020a25e:	0007b423          	sd	zero,8(a5)
ffffffc05020a262:	00047717          	auipc	a4,0x47
ffffffc05020a266:	ea670713          	addi	a4,a4,-346 # ffffffc050251108 <sdpages_mm>
ffffffc05020a26a:	fec42783          	lw	a5,-20(s0)
ffffffc05020a26e:	0796                	slli	a5,a5,0x5
ffffffc05020a270:	97ba                	add	a5,a5,a4
ffffffc05020a272:	0007b023          	sd	zero,0(a5)
ffffffc05020a276:	a0e1                	j	ffffffc05020a33e <do_pagefault+0x250>
ffffffc05020a278:	fec42783          	lw	a5,-20(s0)
ffffffc05020a27c:	2785                	addiw	a5,a5,1
ffffffc05020a27e:	fef42623          	sw	a5,-20(s0)
ffffffc05020a282:	fec42783          	lw	a5,-20(s0)
ffffffc05020a286:	0007871b          	sext.w	a4,a5
ffffffc05020a28a:	07f00793          	li	a5,127
ffffffc05020a28e:	e6e7dfe3          	bge	a5,a4,ffffffc05020a10c <do_pagefault+0x1e>
ffffffc05020a292:	00052797          	auipc	a5,0x52
ffffffc05020a296:	e8678793          	addi	a5,a5,-378 # ffffffc05025c118 <current_running>
ffffffc05020a29a:	639c                	ld	a5,0(a5)
ffffffc05020a29c:	6bdc                	ld	a5,144(a5)
ffffffc05020a29e:	85be                	mv	a1,a5
ffffffc05020a2a0:	fa843503          	ld	a0,-88(s0)
ffffffc05020a2a4:	d07fc0ef          	jal	ra,ffffffc050206faa <check_if_snp>
ffffffc05020a2a8:	87aa                	mv	a5,a0
ffffffc05020a2aa:	cba5                	beqz	a5,ffffffc05020a31a <do_pagefault+0x22c>
ffffffc05020a2ac:	00002517          	auipc	a0,0x2
ffffffc05020a2b0:	86c50513          	addi	a0,a0,-1940 # ffffffc05020bb18 <__FUNCTION__.1616+0x2d0>
ffffffc05020a2b4:	425000ef          	jal	ra,ffffffc05020aed8 <printk>
ffffffc05020a2b8:	00052797          	auipc	a5,0x52
ffffffc05020a2bc:	e6078793          	addi	a5,a5,-416 # ffffffc05025c118 <current_running>
ffffffc05020a2c0:	639c                	ld	a5,0(a5)
ffffffc05020a2c2:	6bdc                	ld	a5,144(a5)
ffffffc05020a2c4:	fcf43c23          	sd	a5,-40(s0)
ffffffc05020a2c8:	fa843503          	ld	a0,-88(s0)
ffffffc05020a2cc:	c13fc0ef          	jal	ra,ffffffc050206ede <get_page_addr>
ffffffc05020a2d0:	fca43823          	sd	a0,-48(s0)
ffffffc05020a2d4:	fd043503          	ld	a0,-48(s0)
ffffffc05020a2d8:	e3efe0ef          	jal	ra,ffffffc050208916 <pa2kva>
ffffffc05020a2dc:	fca43423          	sd	a0,-56(s0)
ffffffc05020a2e0:	fd843583          	ld	a1,-40(s0)
ffffffc05020a2e4:	fa843503          	ld	a0,-88(s0)
ffffffc05020a2e8:	8b0fc0ef          	jal	ra,ffffffc050206398 <make_page_invalid>
ffffffc05020a2ec:	00052797          	auipc	a5,0x52
ffffffc05020a2f0:	e2c78793          	addi	a5,a5,-468 # ffffffc05025c118 <current_running>
ffffffc05020a2f4:	639c                	ld	a5,0(a5)
ffffffc05020a2f6:	4681                	li	a3,0
ffffffc05020a2f8:	863e                	mv	a2,a5
ffffffc05020a2fa:	fd843583          	ld	a1,-40(s0)
ffffffc05020a2fe:	fa843503          	ld	a0,-88(s0)
ffffffc05020a302:	e65fb0ef          	jal	ra,ffffffc050206166 <alloc_page_helper>
ffffffc05020a306:	fca43023          	sd	a0,-64(s0)
ffffffc05020a30a:	6605                	lui	a2,0x1
ffffffc05020a30c:	fc843583          	ld	a1,-56(s0)
ffffffc05020a310:	fc043503          	ld	a0,-64(s0)
ffffffc05020a314:	52d000ef          	jal	ra,ffffffc05020b040 <memcpy>
ffffffc05020a318:	a01d                	j	ffffffc05020a33e <do_pagefault+0x250>
ffffffc05020a31a:	00052797          	auipc	a5,0x52
ffffffc05020a31e:	dfe78793          	addi	a5,a5,-514 # ffffffc05025c118 <current_running>
ffffffc05020a322:	639c                	ld	a5,0(a5)
ffffffc05020a324:	6bd8                	ld	a4,144(a5)
ffffffc05020a326:	00052797          	auipc	a5,0x52
ffffffc05020a32a:	df278793          	addi	a5,a5,-526 # ffffffc05025c118 <current_running>
ffffffc05020a32e:	639c                	ld	a5,0(a5)
ffffffc05020a330:	4681                	li	a3,0
ffffffc05020a332:	863e                	mv	a2,a5
ffffffc05020a334:	85ba                	mv	a1,a4
ffffffc05020a336:	fa843503          	ld	a0,-88(s0)
ffffffc05020a33a:	e2dfb0ef          	jal	ra,ffffffc050206166 <alloc_page_helper>
ffffffc05020a33e:	60e6                	ld	ra,88(sp)
ffffffc05020a340:	6446                	ld	s0,80(sp)
ffffffc05020a342:	6125                	addi	sp,sp,96
ffffffc05020a344:	8082                	ret

ffffffc05020a346 <show_addr>:
ffffffc05020a346:	7179                	addi	sp,sp,-48
ffffffc05020a348:	f406                	sd	ra,40(sp)
ffffffc05020a34a:	f022                	sd	s0,32(sp)
ffffffc05020a34c:	1800                	addi	s0,sp,48
ffffffc05020a34e:	fca43c23          	sd	a0,-40(s0)
ffffffc05020a352:	00052797          	auipc	a5,0x52
ffffffc05020a356:	dc678793          	addi	a5,a5,-570 # ffffffc05025c118 <current_running>
ffffffc05020a35a:	639c                	ld	a5,0(a5)
ffffffc05020a35c:	6a078713          	addi	a4,a5,1696
ffffffc05020a360:	00052797          	auipc	a5,0x52
ffffffc05020a364:	db878793          	addi	a5,a5,-584 # ffffffc05025c118 <current_running>
ffffffc05020a368:	639c                	ld	a5,0(a5)
ffffffc05020a36a:	0987a783          	lw	a5,152(a5)
ffffffc05020a36e:	863e                	mv	a2,a5
ffffffc05020a370:	85ba                	mv	a1,a4
ffffffc05020a372:	00001517          	auipc	a0,0x1
ffffffc05020a376:	7b650513          	addi	a0,a0,1974 # ffffffc05020bb28 <__FUNCTION__.1616+0x2e0>
ffffffc05020a37a:	46f000ef          	jal	ra,ffffffc05020afe8 <printl>
ffffffc05020a37e:	fe042623          	sw	zero,-20(s0)
ffffffc05020a382:	aa11                	j	ffffffc05020a496 <show_addr+0x150>
ffffffc05020a384:	00052797          	auipc	a5,0x52
ffffffc05020a388:	d9478793          	addi	a5,a5,-620 # ffffffc05025c118 <current_running>
ffffffc05020a38c:	6398                	ld	a4,0(a5)
ffffffc05020a38e:	fec42783          	lw	a5,-20(s0)
ffffffc05020a392:	12878793          	addi	a5,a5,296
ffffffc05020a396:	078a                	slli	a5,a5,0x2
ffffffc05020a398:	97ba                	add	a5,a5,a4
ffffffc05020a39a:	439c                	lw	a5,0(a5)
ffffffc05020a39c:	e79d                	bnez	a5,ffffffc05020a3ca <show_addr+0x84>
ffffffc05020a39e:	fec42783          	lw	a5,-20(s0)
ffffffc05020a3a2:	2785                	addiw	a5,a5,1
ffffffc05020a3a4:	0007869b          	sext.w	a3,a5
ffffffc05020a3a8:	fd843703          	ld	a4,-40(s0)
ffffffc05020a3ac:	fec42783          	lw	a5,-20(s0)
ffffffc05020a3b0:	07d1                	addi	a5,a5,20
ffffffc05020a3b2:	078e                	slli	a5,a5,0x3
ffffffc05020a3b4:	97ba                	add	a5,a5,a4
ffffffc05020a3b6:	639c                	ld	a5,0(a5)
ffffffc05020a3b8:	863e                	mv	a2,a5
ffffffc05020a3ba:	85b6                	mv	a1,a3
ffffffc05020a3bc:	00001517          	auipc	a0,0x1
ffffffc05020a3c0:	78450513          	addi	a0,a0,1924 # ffffffc05020bb40 <__FUNCTION__.1616+0x2f8>
ffffffc05020a3c4:	425000ef          	jal	ra,ffffffc05020afe8 <printl>
ffffffc05020a3c8:	a0d1                	j	ffffffc05020a48c <show_addr+0x146>
ffffffc05020a3ca:	00052797          	auipc	a5,0x52
ffffffc05020a3ce:	d4e78793          	addi	a5,a5,-690 # ffffffc05025c118 <current_running>
ffffffc05020a3d2:	6398                	ld	a4,0(a5)
ffffffc05020a3d4:	fec42783          	lw	a5,-20(s0)
ffffffc05020a3d8:	12878793          	addi	a5,a5,296
ffffffc05020a3dc:	078a                	slli	a5,a5,0x2
ffffffc05020a3de:	97ba                	add	a5,a5,a4
ffffffc05020a3e0:	439c                	lw	a5,0(a5)
ffffffc05020a3e2:	873e                	mv	a4,a5
ffffffc05020a3e4:	4785                	li	a5,1
ffffffc05020a3e6:	02f71863          	bne	a4,a5,ffffffc05020a416 <show_addr+0xd0>
ffffffc05020a3ea:	fec42783          	lw	a5,-20(s0)
ffffffc05020a3ee:	2785                	addiw	a5,a5,1
ffffffc05020a3f0:	0007869b          	sext.w	a3,a5
ffffffc05020a3f4:	fd843703          	ld	a4,-40(s0)
ffffffc05020a3f8:	fec42783          	lw	a5,-20(s0)
ffffffc05020a3fc:	07d1                	addi	a5,a5,20
ffffffc05020a3fe:	078e                	slli	a5,a5,0x3
ffffffc05020a400:	97ba                	add	a5,a5,a4
ffffffc05020a402:	639c                	ld	a5,0(a5)
ffffffc05020a404:	863e                	mv	a2,a5
ffffffc05020a406:	85b6                	mv	a1,a3
ffffffc05020a408:	00001517          	auipc	a0,0x1
ffffffc05020a40c:	74850513          	addi	a0,a0,1864 # ffffffc05020bb50 <__FUNCTION__.1616+0x308>
ffffffc05020a410:	3d9000ef          	jal	ra,ffffffc05020afe8 <printl>
ffffffc05020a414:	a8a5                	j	ffffffc05020a48c <show_addr+0x146>
ffffffc05020a416:	00052797          	auipc	a5,0x52
ffffffc05020a41a:	d0278793          	addi	a5,a5,-766 # ffffffc05025c118 <current_running>
ffffffc05020a41e:	6398                	ld	a4,0(a5)
ffffffc05020a420:	fec42783          	lw	a5,-20(s0)
ffffffc05020a424:	12878793          	addi	a5,a5,296
ffffffc05020a428:	078a                	slli	a5,a5,0x2
ffffffc05020a42a:	97ba                	add	a5,a5,a4
ffffffc05020a42c:	439c                	lw	a5,0(a5)
ffffffc05020a42e:	873e                	mv	a4,a5
ffffffc05020a430:	4789                	li	a5,2
ffffffc05020a432:	02f71863          	bne	a4,a5,ffffffc05020a462 <show_addr+0x11c>
ffffffc05020a436:	fec42783          	lw	a5,-20(s0)
ffffffc05020a43a:	2785                	addiw	a5,a5,1
ffffffc05020a43c:	0007869b          	sext.w	a3,a5
ffffffc05020a440:	fd843703          	ld	a4,-40(s0)
ffffffc05020a444:	fec42783          	lw	a5,-20(s0)
ffffffc05020a448:	07d1                	addi	a5,a5,20
ffffffc05020a44a:	078e                	slli	a5,a5,0x3
ffffffc05020a44c:	97ba                	add	a5,a5,a4
ffffffc05020a44e:	639c                	ld	a5,0(a5)
ffffffc05020a450:	863e                	mv	a2,a5
ffffffc05020a452:	85b6                	mv	a1,a3
ffffffc05020a454:	00001517          	auipc	a0,0x1
ffffffc05020a458:	71450513          	addi	a0,a0,1812 # ffffffc05020bb68 <__FUNCTION__.1616+0x320>
ffffffc05020a45c:	38d000ef          	jal	ra,ffffffc05020afe8 <printl>
ffffffc05020a460:	a035                	j	ffffffc05020a48c <show_addr+0x146>
ffffffc05020a462:	fec42783          	lw	a5,-20(s0)
ffffffc05020a466:	2785                	addiw	a5,a5,1
ffffffc05020a468:	0007869b          	sext.w	a3,a5
ffffffc05020a46c:	fd843703          	ld	a4,-40(s0)
ffffffc05020a470:	fec42783          	lw	a5,-20(s0)
ffffffc05020a474:	07d1                	addi	a5,a5,20
ffffffc05020a476:	078e                	slli	a5,a5,0x3
ffffffc05020a478:	97ba                	add	a5,a5,a4
ffffffc05020a47a:	639c                	ld	a5,0(a5)
ffffffc05020a47c:	863e                	mv	a2,a5
ffffffc05020a47e:	85b6                	mv	a1,a3
ffffffc05020a480:	00001517          	auipc	a0,0x1
ffffffc05020a484:	6f850513          	addi	a0,a0,1784 # ffffffc05020bb78 <__FUNCTION__.1616+0x330>
ffffffc05020a488:	361000ef          	jal	ra,ffffffc05020afe8 <printl>
ffffffc05020a48c:	fec42783          	lw	a5,-20(s0)
ffffffc05020a490:	2785                	addiw	a5,a5,1
ffffffc05020a492:	fef42623          	sw	a5,-20(s0)
ffffffc05020a496:	fd843783          	ld	a5,-40(s0)
ffffffc05020a49a:	0987a703          	lw	a4,152(a5)
ffffffc05020a49e:	fec42783          	lw	a5,-20(s0)
ffffffc05020a4a2:	2781                	sext.w	a5,a5
ffffffc05020a4a4:	eee7c0e3          	blt	a5,a4,ffffffc05020a384 <show_addr+0x3e>
ffffffc05020a4a8:	0001                	nop
ffffffc05020a4aa:	0001                	nop
ffffffc05020a4ac:	70a2                	ld	ra,40(sp)
ffffffc05020a4ae:	7402                	ld	s0,32(sp)
ffffffc05020a4b0:	6145                	addi	sp,sp,48
ffffffc05020a4b2:	8082                	ret

ffffffc05020a4b4 <check_net_send>:
ffffffc05020a4b4:	1141                	addi	sp,sp,-16
ffffffc05020a4b6:	e406                	sd	ra,8(sp)
ffffffc05020a4b8:	e022                	sd	s0,0(sp)
ffffffc05020a4ba:	0800                	addi	s0,sp,16
ffffffc05020a4bc:	a40fa0ef          	jal	ra,ffffffc0502046fc <check_send_valid>
ffffffc05020a4c0:	87aa                	mv	a5,a0
ffffffc05020a4c2:	c799                	beqz	a5,ffffffc05020a4d0 <check_net_send+0x1c>
ffffffc05020a4c4:	00002517          	auipc	a0,0x2
ffffffc05020a4c8:	4cc50513          	addi	a0,a0,1228 # ffffffc05020c990 <send_queue>
ffffffc05020a4cc:	fe1fe0ef          	jal	ra,ffffffc0502094ac <do_unblock>
ffffffc05020a4d0:	0001                	nop
ffffffc05020a4d2:	60a2                	ld	ra,8(sp)
ffffffc05020a4d4:	6402                	ld	s0,0(sp)
ffffffc05020a4d6:	0141                	addi	sp,sp,16
ffffffc05020a4d8:	8082                	ret

ffffffc05020a4da <check_net_recv>:
ffffffc05020a4da:	1141                	addi	sp,sp,-16
ffffffc05020a4dc:	e406                	sd	ra,8(sp)
ffffffc05020a4de:	e022                	sd	s0,0(sp)
ffffffc05020a4e0:	0800                	addi	s0,sp,16
ffffffc05020a4e2:	a54fa0ef          	jal	ra,ffffffc050204736 <check_recv_valid>
ffffffc05020a4e6:	87aa                	mv	a5,a0
ffffffc05020a4e8:	c799                	beqz	a5,ffffffc05020a4f6 <check_net_recv+0x1c>
ffffffc05020a4ea:	00002517          	auipc	a0,0x2
ffffffc05020a4ee:	4b650513          	addi	a0,a0,1206 # ffffffc05020c9a0 <recv_queue>
ffffffc05020a4f2:	fbbfe0ef          	jal	ra,ffffffc0502094ac <do_unblock>
ffffffc05020a4f6:	0001                	nop
ffffffc05020a4f8:	60a2                	ld	ra,8(sp)
ffffffc05020a4fa:	6402                	ld	s0,0(sp)
ffffffc05020a4fc:	0141                	addi	sp,sp,16
ffffffc05020a4fe:	8082                	ret

ffffffc05020a500 <handle_syscall>:
ffffffc05020a500:	7159                	addi	sp,sp,-112
ffffffc05020a502:	f486                	sd	ra,104(sp)
ffffffc05020a504:	f0a2                	sd	s0,96(sp)
ffffffc05020a506:	1880                	addi	s0,sp,112
ffffffc05020a508:	faa43423          	sd	a0,-88(s0)
ffffffc05020a50c:	fab43023          	sd	a1,-96(s0)
ffffffc05020a510:	f8c43c23          	sd	a2,-104(s0)
ffffffc05020a514:	fa843783          	ld	a5,-88(s0)
ffffffc05020a518:	67dc                	ld	a5,136(a5)
ffffffc05020a51a:	fef43423          	sd	a5,-24(s0)
ffffffc05020a51e:	fa843783          	ld	a5,-88(s0)
ffffffc05020a522:	6bbc                	ld	a5,80(a5)
ffffffc05020a524:	fef43023          	sd	a5,-32(s0)
ffffffc05020a528:	fa843783          	ld	a5,-88(s0)
ffffffc05020a52c:	6fbc                	ld	a5,88(a5)
ffffffc05020a52e:	fcf43c23          	sd	a5,-40(s0)
ffffffc05020a532:	fa843783          	ld	a5,-88(s0)
ffffffc05020a536:	73bc                	ld	a5,96(a5)
ffffffc05020a538:	fcf43823          	sd	a5,-48(s0)
ffffffc05020a53c:	fa843783          	ld	a5,-88(s0)
ffffffc05020a540:	77bc                	ld	a5,104(a5)
ffffffc05020a542:	fcf43423          	sd	a5,-56(s0)
ffffffc05020a546:	fa843783          	ld	a5,-88(s0)
ffffffc05020a54a:	7bbc                	ld	a5,112(a5)
ffffffc05020a54c:	fcf43023          	sd	a5,-64(s0)
ffffffc05020a550:	0005f717          	auipc	a4,0x5f
ffffffc05020a554:	1d870713          	addi	a4,a4,472 # ffffffc050269728 <syscall>
ffffffc05020a558:	fe843783          	ld	a5,-24(s0)
ffffffc05020a55c:	078e                	slli	a5,a5,0x3
ffffffc05020a55e:	97ba                	add	a5,a5,a4
ffffffc05020a560:	639c                	ld	a5,0(a5)
ffffffc05020a562:	fc043703          	ld	a4,-64(s0)
ffffffc05020a566:	fc843683          	ld	a3,-56(s0)
ffffffc05020a56a:	fd043603          	ld	a2,-48(s0)
ffffffc05020a56e:	fd843583          	ld	a1,-40(s0)
ffffffc05020a572:	fe043503          	ld	a0,-32(s0)
ffffffc05020a576:	9782                	jalr	a5
ffffffc05020a578:	87aa                	mv	a5,a0
ffffffc05020a57a:	faf43c23          	sd	a5,-72(s0)
ffffffc05020a57e:	fa843783          	ld	a5,-88(s0)
ffffffc05020a582:	fb843703          	ld	a4,-72(s0)
ffffffc05020a586:	ebb8                	sd	a4,80(a5)
ffffffc05020a588:	fa843783          	ld	a5,-88(s0)
ffffffc05020a58c:	1087b783          	ld	a5,264(a5)
ffffffc05020a590:	00478713          	addi	a4,a5,4
ffffffc05020a594:	fa843783          	ld	a5,-88(s0)
ffffffc05020a598:	10e7b423          	sd	a4,264(a5)
ffffffc05020a59c:	0001                	nop
ffffffc05020a59e:	70a6                	ld	ra,104(sp)
ffffffc05020a5a0:	7406                	ld	s0,96(sp)
ffffffc05020a5a2:	6165                	addi	sp,sp,112
ffffffc05020a5a4:	8082                	ret

ffffffc05020a5a6 <do_net_send>:
ffffffc05020a5a6:	7179                	addi	sp,sp,-48
ffffffc05020a5a8:	f406                	sd	ra,40(sp)
ffffffc05020a5aa:	f022                	sd	s0,32(sp)
ffffffc05020a5ac:	1800                	addi	s0,sp,48
ffffffc05020a5ae:	fca43c23          	sd	a0,-40(s0)
ffffffc05020a5b2:	87ae                	mv	a5,a1
ffffffc05020a5b4:	fcf42a23          	sw	a5,-44(s0)
ffffffc05020a5b8:	fd442783          	lw	a5,-44(s0)
ffffffc05020a5bc:	85be                	mv	a1,a5
ffffffc05020a5be:	fd843503          	ld	a0,-40(s0)
ffffffc05020a5c2:	eb3f90ef          	jal	ra,ffffffc050204474 <e1000_transmit>
ffffffc05020a5c6:	87aa                	mv	a5,a0
ffffffc05020a5c8:	fef42623          	sw	a5,-20(s0)
ffffffc05020a5cc:	fec42783          	lw	a5,-20(s0)
ffffffc05020a5d0:	853e                	mv	a0,a5
ffffffc05020a5d2:	70a2                	ld	ra,40(sp)
ffffffc05020a5d4:	7402                	ld	s0,32(sp)
ffffffc05020a5d6:	6145                	addi	sp,sp,48
ffffffc05020a5d8:	8082                	ret

ffffffc05020a5da <do_net_recv>:
ffffffc05020a5da:	711d                	addi	sp,sp,-96
ffffffc05020a5dc:	ec86                	sd	ra,88(sp)
ffffffc05020a5de:	e8a2                	sd	s0,80(sp)
ffffffc05020a5e0:	e4a6                	sd	s1,72(sp)
ffffffc05020a5e2:	1080                	addi	s0,sp,96
ffffffc05020a5e4:	faa43c23          	sd	a0,-72(s0)
ffffffc05020a5e8:	87ae                	mv	a5,a1
ffffffc05020a5ea:	fac43423          	sd	a2,-88(s0)
ffffffc05020a5ee:	faf42a23          	sw	a5,-76(s0)
ffffffc05020a5f2:	fc042e23          	sw	zero,-36(s0)
ffffffc05020a5f6:	fb843783          	ld	a5,-72(s0)
ffffffc05020a5fa:	fcf43823          	sd	a5,-48(s0)
ffffffc05020a5fe:	fc042623          	sw	zero,-52(s0)
ffffffc05020a602:	a8a1                	j	ffffffc05020a65a <do_net_recv+0x80>
ffffffc05020a604:	fcc42783          	lw	a5,-52(s0)
ffffffc05020a608:	078a                	slli	a5,a5,0x2
ffffffc05020a60a:	fa843703          	ld	a4,-88(s0)
ffffffc05020a60e:	00f704b3          	add	s1,a4,a5
ffffffc05020a612:	fd043503          	ld	a0,-48(s0)
ffffffc05020a616:	fb7f90ef          	jal	ra,ffffffc0502045cc <e1000_poll>
ffffffc05020a61a:	87aa                	mv	a5,a0
ffffffc05020a61c:	c09c                	sw	a5,0(s1)
ffffffc05020a61e:	fcc42783          	lw	a5,-52(s0)
ffffffc05020a622:	078a                	slli	a5,a5,0x2
ffffffc05020a624:	fa843703          	ld	a4,-88(s0)
ffffffc05020a628:	97ba                	add	a5,a5,a4
ffffffc05020a62a:	439c                	lw	a5,0(a5)
ffffffc05020a62c:	fdc42703          	lw	a4,-36(s0)
ffffffc05020a630:	9fb9                	addw	a5,a5,a4
ffffffc05020a632:	fcf42e23          	sw	a5,-36(s0)
ffffffc05020a636:	fcc42783          	lw	a5,-52(s0)
ffffffc05020a63a:	078a                	slli	a5,a5,0x2
ffffffc05020a63c:	fa843703          	ld	a4,-88(s0)
ffffffc05020a640:	97ba                	add	a5,a5,a4
ffffffc05020a642:	439c                	lw	a5,0(a5)
ffffffc05020a644:	873e                	mv	a4,a5
ffffffc05020a646:	fd043783          	ld	a5,-48(s0)
ffffffc05020a64a:	97ba                	add	a5,a5,a4
ffffffc05020a64c:	fcf43823          	sd	a5,-48(s0)
ffffffc05020a650:	fcc42783          	lw	a5,-52(s0)
ffffffc05020a654:	2785                	addiw	a5,a5,1
ffffffc05020a656:	fcf42623          	sw	a5,-52(s0)
ffffffc05020a65a:	fcc42703          	lw	a4,-52(s0)
ffffffc05020a65e:	fb442783          	lw	a5,-76(s0)
ffffffc05020a662:	2701                	sext.w	a4,a4
ffffffc05020a664:	2781                	sext.w	a5,a5
ffffffc05020a666:	f8f74fe3          	blt	a4,a5,ffffffc05020a604 <do_net_recv+0x2a>
ffffffc05020a66a:	fdc42783          	lw	a5,-36(s0)
ffffffc05020a66e:	853e                	mv	a0,a5
ffffffc05020a670:	60e6                	ld	ra,88(sp)
ffffffc05020a672:	6446                	ld	s0,80(sp)
ffffffc05020a674:	64a6                	ld	s1,72(sp)
ffffffc05020a676:	6125                	addi	sp,sp,96
ffffffc05020a678:	8082                	ret

ffffffc05020a67a <net_handle_irq>:
ffffffc05020a67a:	1141                	addi	sp,sp,-16
ffffffc05020a67c:	e422                	sd	s0,8(sp)
ffffffc05020a67e:	0800                	addi	s0,sp,16
ffffffc05020a680:	0001                	nop
ffffffc05020a682:	6422                	ld	s0,8(sp)
ffffffc05020a684:	0141                	addi	sp,sp,16
ffffffc05020a686:	8082                	ret

ffffffc05020a688 <kva2pa>:
ffffffc05020a688:	7179                	addi	sp,sp,-48
ffffffc05020a68a:	f422                	sd	s0,40(sp)
ffffffc05020a68c:	1800                	addi	s0,sp,48
ffffffc05020a68e:	fca43c23          	sd	a0,-40(s0)
ffffffc05020a692:	57fd                	li	a5,-1
ffffffc05020a694:	9381                	srli	a5,a5,0x20
ffffffc05020a696:	fef43423          	sd	a5,-24(s0)
ffffffc05020a69a:	fd843703          	ld	a4,-40(s0)
ffffffc05020a69e:	fe843783          	ld	a5,-24(s0)
ffffffc05020a6a2:	8ff9                	and	a5,a5,a4
ffffffc05020a6a4:	fef43023          	sd	a5,-32(s0)
ffffffc05020a6a8:	fe043783          	ld	a5,-32(s0)
ffffffc05020a6ac:	853e                	mv	a0,a5
ffffffc05020a6ae:	7422                	ld	s0,40(sp)
ffffffc05020a6b0:	6145                	addi	sp,sp,48
ffffffc05020a6b2:	8082                	ret

ffffffc05020a6b4 <call_jmptab>:
ffffffc05020a6b4:	7139                	addi	sp,sp,-64
ffffffc05020a6b6:	fc06                	sd	ra,56(sp)
ffffffc05020a6b8:	f822                	sd	s0,48(sp)
ffffffc05020a6ba:	0080                	addi	s0,sp,64
ffffffc05020a6bc:	fca43c23          	sd	a0,-40(s0)
ffffffc05020a6c0:	fcb43823          	sd	a1,-48(s0)
ffffffc05020a6c4:	fcc43423          	sd	a2,-56(s0)
ffffffc05020a6c8:	fcd43023          	sd	a3,-64(s0)
ffffffc05020a6cc:	fd843783          	ld	a5,-40(s0)
ffffffc05020a6d0:	00379713          	slli	a4,a5,0x3
ffffffc05020a6d4:	fe0297b7          	lui	a5,0xfe029
ffffffc05020a6d8:	07b6                	slli	a5,a5,0xd
ffffffc05020a6da:	f0078793          	addi	a5,a5,-256 # fffffffffe028f00 <__BSS_END__+0x3faddbf5d8>
ffffffc05020a6de:	97ba                	add	a5,a5,a4
ffffffc05020a6e0:	639c                	ld	a5,0(a5)
ffffffc05020a6e2:	fef43423          	sd	a5,-24(s0)
ffffffc05020a6e6:	fe843783          	ld	a5,-24(s0)
ffffffc05020a6ea:	fef43023          	sd	a5,-32(s0)
ffffffc05020a6ee:	fe043783          	ld	a5,-32(s0)
ffffffc05020a6f2:	fc043603          	ld	a2,-64(s0)
ffffffc05020a6f6:	fc843583          	ld	a1,-56(s0)
ffffffc05020a6fa:	fd043503          	ld	a0,-48(s0)
ffffffc05020a6fe:	9782                	jalr	a5
ffffffc05020a700:	87aa                	mv	a5,a0
ffffffc05020a702:	853e                	mv	a0,a5
ffffffc05020a704:	70e2                	ld	ra,56(sp)
ffffffc05020a706:	7442                	ld	s0,48(sp)
ffffffc05020a708:	6121                	addi	sp,sp,64
ffffffc05020a70a:	8082                	ret

ffffffc05020a70c <bios_putstr>:
ffffffc05020a70c:	1101                	addi	sp,sp,-32
ffffffc05020a70e:	ec06                	sd	ra,24(sp)
ffffffc05020a710:	e822                	sd	s0,16(sp)
ffffffc05020a712:	1000                	addi	s0,sp,32
ffffffc05020a714:	fea43423          	sd	a0,-24(s0)
ffffffc05020a718:	fe843783          	ld	a5,-24(s0)
ffffffc05020a71c:	853e                	mv	a0,a5
ffffffc05020a71e:	f6bff0ef          	jal	ra,ffffffc05020a688 <kva2pa>
ffffffc05020a722:	87aa                	mv	a5,a0
ffffffc05020a724:	4681                	li	a3,0
ffffffc05020a726:	4601                	li	a2,0
ffffffc05020a728:	85be                	mv	a1,a5
ffffffc05020a72a:	4501                	li	a0,0
ffffffc05020a72c:	f89ff0ef          	jal	ra,ffffffc05020a6b4 <call_jmptab>
ffffffc05020a730:	0001                	nop
ffffffc05020a732:	60e2                	ld	ra,24(sp)
ffffffc05020a734:	6442                	ld	s0,16(sp)
ffffffc05020a736:	6105                	addi	sp,sp,32
ffffffc05020a738:	8082                	ret

ffffffc05020a73a <bios_logging>:
ffffffc05020a73a:	1101                	addi	sp,sp,-32
ffffffc05020a73c:	ec06                	sd	ra,24(sp)
ffffffc05020a73e:	e822                	sd	s0,16(sp)
ffffffc05020a740:	1000                	addi	s0,sp,32
ffffffc05020a742:	fea43423          	sd	a0,-24(s0)
ffffffc05020a746:	fe843783          	ld	a5,-24(s0)
ffffffc05020a74a:	853e                	mv	a0,a5
ffffffc05020a74c:	f3dff0ef          	jal	ra,ffffffc05020a688 <kva2pa>
ffffffc05020a750:	87aa                	mv	a5,a0
ffffffc05020a752:	4681                	li	a3,0
ffffffc05020a754:	4601                	li	a2,0
ffffffc05020a756:	85be                	mv	a1,a5
ffffffc05020a758:	4515                	li	a0,5
ffffffc05020a75a:	f5bff0ef          	jal	ra,ffffffc05020a6b4 <call_jmptab>
ffffffc05020a75e:	0001                	nop
ffffffc05020a760:	60e2                	ld	ra,24(sp)
ffffffc05020a762:	6442                	ld	s0,16(sp)
ffffffc05020a764:	6105                	addi	sp,sp,32
ffffffc05020a766:	8082                	ret

ffffffc05020a768 <mini_strlen>:
ffffffc05020a768:	7179                	addi	sp,sp,-48
ffffffc05020a76a:	f422                	sd	s0,40(sp)
ffffffc05020a76c:	1800                	addi	s0,sp,48
ffffffc05020a76e:	fca43c23          	sd	a0,-40(s0)
ffffffc05020a772:	fe042623          	sw	zero,-20(s0)
ffffffc05020a776:	a031                	j	ffffffc05020a782 <mini_strlen+0x1a>
ffffffc05020a778:	fec42783          	lw	a5,-20(s0)
ffffffc05020a77c:	2785                	addiw	a5,a5,1
ffffffc05020a77e:	fef42623          	sw	a5,-20(s0)
ffffffc05020a782:	fec46783          	lwu	a5,-20(s0)
ffffffc05020a786:	fd843703          	ld	a4,-40(s0)
ffffffc05020a78a:	97ba                	add	a5,a5,a4
ffffffc05020a78c:	0007c783          	lbu	a5,0(a5)
ffffffc05020a790:	f7e5                	bnez	a5,ffffffc05020a778 <mini_strlen+0x10>
ffffffc05020a792:	fec42783          	lw	a5,-20(s0)
ffffffc05020a796:	853e                	mv	a0,a5
ffffffc05020a798:	7422                	ld	s0,40(sp)
ffffffc05020a79a:	6145                	addi	sp,sp,48
ffffffc05020a79c:	8082                	ret

ffffffc05020a79e <mini_itoa>:
ffffffc05020a79e:	715d                	addi	sp,sp,-80
ffffffc05020a7a0:	e4a2                	sd	s0,72(sp)
ffffffc05020a7a2:	0880                	addi	s0,sp,80
ffffffc05020a7a4:	fca43423          	sd	a0,-56(s0)
ffffffc05020a7a8:	fae43823          	sd	a4,-80(s0)
ffffffc05020a7ac:	873e                	mv	a4,a5
ffffffc05020a7ae:	87ae                	mv	a5,a1
ffffffc05020a7b0:	fcf42223          	sw	a5,-60(s0)
ffffffc05020a7b4:	87b2                	mv	a5,a2
ffffffc05020a7b6:	fcf42023          	sw	a5,-64(s0)
ffffffc05020a7ba:	87b6                	mv	a5,a3
ffffffc05020a7bc:	faf42e23          	sw	a5,-68(s0)
ffffffc05020a7c0:	87ba                	mv	a5,a4
ffffffc05020a7c2:	faf42c23          	sw	a5,-72(s0)
ffffffc05020a7c6:	fb043783          	ld	a5,-80(s0)
ffffffc05020a7ca:	fef43423          	sd	a5,-24(s0)
ffffffc05020a7ce:	fe042223          	sw	zero,-28(s0)
ffffffc05020a7d2:	fc442783          	lw	a5,-60(s0)
ffffffc05020a7d6:	0007871b          	sext.w	a4,a5
ffffffc05020a7da:	47c1                	li	a5,16
ffffffc05020a7dc:	00e7f463          	bgeu	a5,a4,ffffffc05020a7e4 <mini_itoa+0x46>
ffffffc05020a7e0:	4781                	li	a5,0
ffffffc05020a7e2:	aae9                	j	ffffffc05020a9bc <mini_itoa+0x21e>
ffffffc05020a7e4:	fc843783          	ld	a5,-56(s0)
ffffffc05020a7e8:	0007df63          	bgez	a5,ffffffc05020a806 <mini_itoa+0x68>
ffffffc05020a7ec:	fbc42783          	lw	a5,-68(s0)
ffffffc05020a7f0:	2781                	sext.w	a5,a5
ffffffc05020a7f2:	eb91                	bnez	a5,ffffffc05020a806 <mini_itoa+0x68>
ffffffc05020a7f4:	4785                	li	a5,1
ffffffc05020a7f6:	fef42223          	sw	a5,-28(s0)
ffffffc05020a7fa:	fc843783          	ld	a5,-56(s0)
ffffffc05020a7fe:	40f007b3          	neg	a5,a5
ffffffc05020a802:	fcf43423          	sd	a5,-56(s0)
ffffffc05020a806:	fc042e23          	sw	zero,-36(s0)
ffffffc05020a80a:	fbc42783          	lw	a5,-68(s0)
ffffffc05020a80e:	2781                	sext.w	a5,a5
ffffffc05020a810:	cb91                	beqz	a5,ffffffc05020a824 <mini_itoa+0x86>
ffffffc05020a812:	fc843703          	ld	a4,-56(s0)
ffffffc05020a816:	fc446783          	lwu	a5,-60(s0)
ffffffc05020a81a:	02f777b3          	remu	a5,a4,a5
ffffffc05020a81e:	fcf42e23          	sw	a5,-36(s0)
ffffffc05020a822:	a809                	j	ffffffc05020a834 <mini_itoa+0x96>
ffffffc05020a824:	fc446783          	lwu	a5,-60(s0)
ffffffc05020a828:	fc843703          	ld	a4,-56(s0)
ffffffc05020a82c:	02f767b3          	rem	a5,a4,a5
ffffffc05020a830:	fcf42e23          	sw	a5,-36(s0)
ffffffc05020a834:	fdc42783          	lw	a5,-36(s0)
ffffffc05020a838:	0007871b          	sext.w	a4,a5
ffffffc05020a83c:	47a5                	li	a5,9
ffffffc05020a83e:	00e7cb63          	blt	a5,a4,ffffffc05020a854 <mini_itoa+0xb6>
ffffffc05020a842:	fdc42783          	lw	a5,-36(s0)
ffffffc05020a846:	0ff7f793          	andi	a5,a5,255
ffffffc05020a84a:	0307879b          	addiw	a5,a5,48
ffffffc05020a84e:	0ff7f713          	andi	a4,a5,255
ffffffc05020a852:	a025                	j	ffffffc05020a87a <mini_itoa+0xdc>
ffffffc05020a854:	fc042783          	lw	a5,-64(s0)
ffffffc05020a858:	2781                	sext.w	a5,a5
ffffffc05020a85a:	c781                	beqz	a5,ffffffc05020a862 <mini_itoa+0xc4>
ffffffc05020a85c:	04100793          	li	a5,65
ffffffc05020a860:	a019                	j	ffffffc05020a866 <mini_itoa+0xc8>
ffffffc05020a862:	06100793          	li	a5,97
ffffffc05020a866:	fdc42703          	lw	a4,-36(s0)
ffffffc05020a86a:	0ff77713          	andi	a4,a4,255
ffffffc05020a86e:	9fb9                	addw	a5,a5,a4
ffffffc05020a870:	0ff7f793          	andi	a5,a5,255
ffffffc05020a874:	37d9                	addiw	a5,a5,-10
ffffffc05020a876:	0ff7f713          	andi	a4,a5,255
ffffffc05020a87a:	fe843783          	ld	a5,-24(s0)
ffffffc05020a87e:	00178693          	addi	a3,a5,1
ffffffc05020a882:	fed43423          	sd	a3,-24(s0)
ffffffc05020a886:	00e78023          	sb	a4,0(a5)
ffffffc05020a88a:	fbc42783          	lw	a5,-68(s0)
ffffffc05020a88e:	2781                	sext.w	a5,a5
ffffffc05020a890:	cb91                	beqz	a5,ffffffc05020a8a4 <mini_itoa+0x106>
ffffffc05020a892:	fc843703          	ld	a4,-56(s0)
ffffffc05020a896:	fc446783          	lwu	a5,-60(s0)
ffffffc05020a89a:	02f757b3          	divu	a5,a4,a5
ffffffc05020a89e:	fcf43423          	sd	a5,-56(s0)
ffffffc05020a8a2:	a809                	j	ffffffc05020a8b4 <mini_itoa+0x116>
ffffffc05020a8a4:	fc446783          	lwu	a5,-60(s0)
ffffffc05020a8a8:	fc843703          	ld	a4,-56(s0)
ffffffc05020a8ac:	02f747b3          	div	a5,a4,a5
ffffffc05020a8b0:	fcf43423          	sd	a5,-56(s0)
ffffffc05020a8b4:	fc843783          	ld	a5,-56(s0)
ffffffc05020a8b8:	f7b9                	bnez	a5,ffffffc05020a806 <mini_itoa+0x68>
ffffffc05020a8ba:	fe843703          	ld	a4,-24(s0)
ffffffc05020a8be:	fb043783          	ld	a5,-80(s0)
ffffffc05020a8c2:	40f707b3          	sub	a5,a4,a5
ffffffc05020a8c6:	fef42023          	sw	a5,-32(s0)
ffffffc05020a8ca:	a005                	j	ffffffc05020a8ea <mini_itoa+0x14c>
ffffffc05020a8cc:	fe843783          	ld	a5,-24(s0)
ffffffc05020a8d0:	00178713          	addi	a4,a5,1
ffffffc05020a8d4:	fee43423          	sd	a4,-24(s0)
ffffffc05020a8d8:	03000713          	li	a4,48
ffffffc05020a8dc:	00e78023          	sb	a4,0(a5)
ffffffc05020a8e0:	fe042783          	lw	a5,-32(s0)
ffffffc05020a8e4:	2785                	addiw	a5,a5,1
ffffffc05020a8e6:	fef42023          	sw	a5,-32(s0)
ffffffc05020a8ea:	fe042703          	lw	a4,-32(s0)
ffffffc05020a8ee:	fb842783          	lw	a5,-72(s0)
ffffffc05020a8f2:	2701                	sext.w	a4,a4
ffffffc05020a8f4:	2781                	sext.w	a5,a5
ffffffc05020a8f6:	fcf76be3          	bltu	a4,a5,ffffffc05020a8cc <mini_itoa+0x12e>
ffffffc05020a8fa:	fe442783          	lw	a5,-28(s0)
ffffffc05020a8fe:	2781                	sext.w	a5,a5
ffffffc05020a900:	cb99                	beqz	a5,ffffffc05020a916 <mini_itoa+0x178>
ffffffc05020a902:	fe843783          	ld	a5,-24(s0)
ffffffc05020a906:	00178713          	addi	a4,a5,1
ffffffc05020a90a:	fee43423          	sd	a4,-24(s0)
ffffffc05020a90e:	02d00713          	li	a4,45
ffffffc05020a912:	00e78023          	sb	a4,0(a5)
ffffffc05020a916:	fe843783          	ld	a5,-24(s0)
ffffffc05020a91a:	00078023          	sb	zero,0(a5)
ffffffc05020a91e:	fe843703          	ld	a4,-24(s0)
ffffffc05020a922:	fb043783          	ld	a5,-80(s0)
ffffffc05020a926:	40f707b3          	sub	a5,a4,a5
ffffffc05020a92a:	fcf42c23          	sw	a5,-40(s0)
ffffffc05020a92e:	fe042023          	sw	zero,-32(s0)
ffffffc05020a932:	a885                	j	ffffffc05020a9a2 <mini_itoa+0x204>
ffffffc05020a934:	fe046783          	lwu	a5,-32(s0)
ffffffc05020a938:	fb043703          	ld	a4,-80(s0)
ffffffc05020a93c:	97ba                	add	a5,a5,a4
ffffffc05020a93e:	0007c783          	lbu	a5,0(a5)
ffffffc05020a942:	fcf40ba3          	sb	a5,-41(s0)
ffffffc05020a946:	fd842703          	lw	a4,-40(s0)
ffffffc05020a94a:	fe042783          	lw	a5,-32(s0)
ffffffc05020a94e:	40f707bb          	subw	a5,a4,a5
ffffffc05020a952:	2781                	sext.w	a5,a5
ffffffc05020a954:	37fd                	addiw	a5,a5,-1
ffffffc05020a956:	2781                	sext.w	a5,a5
ffffffc05020a958:	1782                	slli	a5,a5,0x20
ffffffc05020a95a:	9381                	srli	a5,a5,0x20
ffffffc05020a95c:	fb043703          	ld	a4,-80(s0)
ffffffc05020a960:	973e                	add	a4,a4,a5
ffffffc05020a962:	fe046783          	lwu	a5,-32(s0)
ffffffc05020a966:	fb043683          	ld	a3,-80(s0)
ffffffc05020a96a:	97b6                	add	a5,a5,a3
ffffffc05020a96c:	00074703          	lbu	a4,0(a4)
ffffffc05020a970:	00e78023          	sb	a4,0(a5)
ffffffc05020a974:	fd842703          	lw	a4,-40(s0)
ffffffc05020a978:	fe042783          	lw	a5,-32(s0)
ffffffc05020a97c:	40f707bb          	subw	a5,a4,a5
ffffffc05020a980:	2781                	sext.w	a5,a5
ffffffc05020a982:	37fd                	addiw	a5,a5,-1
ffffffc05020a984:	2781                	sext.w	a5,a5
ffffffc05020a986:	1782                	slli	a5,a5,0x20
ffffffc05020a988:	9381                	srli	a5,a5,0x20
ffffffc05020a98a:	fb043703          	ld	a4,-80(s0)
ffffffc05020a98e:	97ba                	add	a5,a5,a4
ffffffc05020a990:	fd744703          	lbu	a4,-41(s0)
ffffffc05020a994:	00e78023          	sb	a4,0(a5)
ffffffc05020a998:	fe042783          	lw	a5,-32(s0)
ffffffc05020a99c:	2785                	addiw	a5,a5,1
ffffffc05020a99e:	fef42023          	sw	a5,-32(s0)
ffffffc05020a9a2:	fd842783          	lw	a5,-40(s0)
ffffffc05020a9a6:	0017d79b          	srliw	a5,a5,0x1
ffffffc05020a9aa:	0007871b          	sext.w	a4,a5
ffffffc05020a9ae:	fe042783          	lw	a5,-32(s0)
ffffffc05020a9b2:	2781                	sext.w	a5,a5
ffffffc05020a9b4:	f8e7e0e3          	bltu	a5,a4,ffffffc05020a934 <mini_itoa+0x196>
ffffffc05020a9b8:	fd842783          	lw	a5,-40(s0)
ffffffc05020a9bc:	853e                	mv	a0,a5
ffffffc05020a9be:	6426                	ld	s0,72(sp)
ffffffc05020a9c0:	6161                	addi	sp,sp,80
ffffffc05020a9c2:	8082                	ret

ffffffc05020a9c4 <_putc>:
ffffffc05020a9c4:	1101                	addi	sp,sp,-32
ffffffc05020a9c6:	ec22                	sd	s0,24(sp)
ffffffc05020a9c8:	1000                	addi	s0,sp,32
ffffffc05020a9ca:	87aa                	mv	a5,a0
ffffffc05020a9cc:	feb43023          	sd	a1,-32(s0)
ffffffc05020a9d0:	fef42623          	sw	a5,-20(s0)
ffffffc05020a9d4:	fe043783          	ld	a5,-32(s0)
ffffffc05020a9d8:	6798                	ld	a4,8(a5)
ffffffc05020a9da:	fe043783          	ld	a5,-32(s0)
ffffffc05020a9de:	639c                	ld	a5,0(a5)
ffffffc05020a9e0:	40f707b3          	sub	a5,a4,a5
ffffffc05020a9e4:	2781                	sext.w	a5,a5
ffffffc05020a9e6:	2785                	addiw	a5,a5,1
ffffffc05020a9e8:	0007871b          	sext.w	a4,a5
ffffffc05020a9ec:	fe043783          	ld	a5,-32(s0)
ffffffc05020a9f0:	4b9c                	lw	a5,16(a5)
ffffffc05020a9f2:	00f76463          	bltu	a4,a5,ffffffc05020a9fa <_putc+0x36>
ffffffc05020a9f6:	4781                	li	a5,0
ffffffc05020a9f8:	a02d                	j	ffffffc05020aa22 <_putc+0x5e>
ffffffc05020a9fa:	fe043783          	ld	a5,-32(s0)
ffffffc05020a9fe:	679c                	ld	a5,8(a5)
ffffffc05020aa00:	00178693          	addi	a3,a5,1
ffffffc05020aa04:	fe043703          	ld	a4,-32(s0)
ffffffc05020aa08:	e714                	sd	a3,8(a4)
ffffffc05020aa0a:	fec42703          	lw	a4,-20(s0)
ffffffc05020aa0e:	0ff77713          	andi	a4,a4,255
ffffffc05020aa12:	00e78023          	sb	a4,0(a5)
ffffffc05020aa16:	fe043783          	ld	a5,-32(s0)
ffffffc05020aa1a:	679c                	ld	a5,8(a5)
ffffffc05020aa1c:	00078023          	sb	zero,0(a5)
ffffffc05020aa20:	4785                	li	a5,1
ffffffc05020aa22:	853e                	mv	a0,a5
ffffffc05020aa24:	6462                	ld	s0,24(sp)
ffffffc05020aa26:	6105                	addi	sp,sp,32
ffffffc05020aa28:	8082                	ret

ffffffc05020aa2a <_puts>:
ffffffc05020aa2a:	7139                	addi	sp,sp,-64
ffffffc05020aa2c:	fc22                	sd	s0,56(sp)
ffffffc05020aa2e:	0080                	addi	s0,sp,64
ffffffc05020aa30:	fca43c23          	sd	a0,-40(s0)
ffffffc05020aa34:	87ae                	mv	a5,a1
ffffffc05020aa36:	fcc43423          	sd	a2,-56(s0)
ffffffc05020aa3a:	fcf42a23          	sw	a5,-44(s0)
ffffffc05020aa3e:	fc843783          	ld	a5,-56(s0)
ffffffc05020aa42:	4b9c                	lw	a5,16(a5)
ffffffc05020aa44:	02079713          	slli	a4,a5,0x20
ffffffc05020aa48:	9301                	srli	a4,a4,0x20
ffffffc05020aa4a:	fc843783          	ld	a5,-56(s0)
ffffffc05020aa4e:	6794                	ld	a3,8(a5)
ffffffc05020aa50:	fc843783          	ld	a5,-56(s0)
ffffffc05020aa54:	639c                	ld	a5,0(a5)
ffffffc05020aa56:	40f687b3          	sub	a5,a3,a5
ffffffc05020aa5a:	8f1d                	sub	a4,a4,a5
ffffffc05020aa5c:	fd446783          	lwu	a5,-44(s0)
ffffffc05020aa60:	02e7c463          	blt	a5,a4,ffffffc05020aa88 <_puts+0x5e>
ffffffc05020aa64:	fc843783          	ld	a5,-56(s0)
ffffffc05020aa68:	4b98                	lw	a4,16(a5)
ffffffc05020aa6a:	fc843783          	ld	a5,-56(s0)
ffffffc05020aa6e:	6794                	ld	a3,8(a5)
ffffffc05020aa70:	fc843783          	ld	a5,-56(s0)
ffffffc05020aa74:	639c                	ld	a5,0(a5)
ffffffc05020aa76:	40f687b3          	sub	a5,a3,a5
ffffffc05020aa7a:	2781                	sext.w	a5,a5
ffffffc05020aa7c:	40f707bb          	subw	a5,a4,a5
ffffffc05020aa80:	2781                	sext.w	a5,a5
ffffffc05020aa82:	37fd                	addiw	a5,a5,-1
ffffffc05020aa84:	fcf42a23          	sw	a5,-44(s0)
ffffffc05020aa88:	fe042623          	sw	zero,-20(s0)
ffffffc05020aa8c:	a03d                	j	ffffffc05020aaba <_puts+0x90>
ffffffc05020aa8e:	fec46783          	lwu	a5,-20(s0)
ffffffc05020aa92:	fd843703          	ld	a4,-40(s0)
ffffffc05020aa96:	973e                	add	a4,a4,a5
ffffffc05020aa98:	fc843783          	ld	a5,-56(s0)
ffffffc05020aa9c:	679c                	ld	a5,8(a5)
ffffffc05020aa9e:	00178613          	addi	a2,a5,1
ffffffc05020aaa2:	fc843683          	ld	a3,-56(s0)
ffffffc05020aaa6:	e690                	sd	a2,8(a3)
ffffffc05020aaa8:	00074703          	lbu	a4,0(a4)
ffffffc05020aaac:	00e78023          	sb	a4,0(a5)
ffffffc05020aab0:	fec42783          	lw	a5,-20(s0)
ffffffc05020aab4:	2785                	addiw	a5,a5,1
ffffffc05020aab6:	fef42623          	sw	a5,-20(s0)
ffffffc05020aaba:	fec42703          	lw	a4,-20(s0)
ffffffc05020aabe:	fd442783          	lw	a5,-44(s0)
ffffffc05020aac2:	2701                	sext.w	a4,a4
ffffffc05020aac4:	2781                	sext.w	a5,a5
ffffffc05020aac6:	fcf764e3          	bltu	a4,a5,ffffffc05020aa8e <_puts+0x64>
ffffffc05020aaca:	fc843783          	ld	a5,-56(s0)
ffffffc05020aace:	679c                	ld	a5,8(a5)
ffffffc05020aad0:	00078023          	sb	zero,0(a5)
ffffffc05020aad4:	fd442783          	lw	a5,-44(s0)
ffffffc05020aad8:	853e                	mv	a0,a5
ffffffc05020aada:	7462                	ld	s0,56(sp)
ffffffc05020aadc:	6121                	addi	sp,sp,64
ffffffc05020aade:	8082                	ret

ffffffc05020aae0 <mini_vsnprintf>:
ffffffc05020aae0:	7119                	addi	sp,sp,-128
ffffffc05020aae2:	fc86                	sd	ra,120(sp)
ffffffc05020aae4:	f8a2                	sd	s0,112(sp)
ffffffc05020aae6:	0100                	addi	s0,sp,128
ffffffc05020aae8:	f8a43c23          	sd	a0,-104(s0)
ffffffc05020aaec:	87ae                	mv	a5,a1
ffffffc05020aaee:	f8c43423          	sd	a2,-120(s0)
ffffffc05020aaf2:	f8d43023          	sd	a3,-128(s0)
ffffffc05020aaf6:	f8f42a23          	sw	a5,-108(s0)
ffffffc05020aafa:	f9843783          	ld	a5,-104(s0)
ffffffc05020aafe:	fcf43023          	sd	a5,-64(s0)
ffffffc05020ab02:	f9843783          	ld	a5,-104(s0)
ffffffc05020ab06:	fcf43423          	sd	a5,-56(s0)
ffffffc05020ab0a:	f9442783          	lw	a5,-108(s0)
ffffffc05020ab0e:	fcf42823          	sw	a5,-48(s0)
ffffffc05020ab12:	a4f9                	j	ffffffc05020ade0 <mini_vsnprintf+0x300>
ffffffc05020ab14:	fc843703          	ld	a4,-56(s0)
ffffffc05020ab18:	fc043783          	ld	a5,-64(s0)
ffffffc05020ab1c:	40f707b3          	sub	a5,a4,a5
ffffffc05020ab20:	2781                	sext.w	a5,a5
ffffffc05020ab22:	2785                	addiw	a5,a5,1
ffffffc05020ab24:	0007871b          	sext.w	a4,a5
ffffffc05020ab28:	fd042783          	lw	a5,-48(s0)
ffffffc05020ab2c:	2cf77b63          	bgeu	a4,a5,ffffffc05020ae02 <mini_vsnprintf+0x322>
ffffffc05020ab30:	fef44783          	lbu	a5,-17(s0)
ffffffc05020ab34:	0ff7f713          	andi	a4,a5,255
ffffffc05020ab38:	02500793          	li	a5,37
ffffffc05020ab3c:	00f70c63          	beq	a4,a5,ffffffc05020ab54 <mini_vsnprintf+0x74>
ffffffc05020ab40:	fef44783          	lbu	a5,-17(s0)
ffffffc05020ab44:	2781                	sext.w	a5,a5
ffffffc05020ab46:	fc040713          	addi	a4,s0,-64
ffffffc05020ab4a:	85ba                	mv	a1,a4
ffffffc05020ab4c:	853e                	mv	a0,a5
ffffffc05020ab4e:	e77ff0ef          	jal	ra,ffffffc05020a9c4 <_putc>
ffffffc05020ab52:	a479                	j	ffffffc05020ade0 <mini_vsnprintf+0x300>
ffffffc05020ab54:	fe040723          	sb	zero,-18(s0)
ffffffc05020ab58:	fe042423          	sw	zero,-24(s0)
ffffffc05020ab5c:	f8843783          	ld	a5,-120(s0)
ffffffc05020ab60:	00178713          	addi	a4,a5,1
ffffffc05020ab64:	f8e43423          	sd	a4,-120(s0)
ffffffc05020ab68:	0007c783          	lbu	a5,0(a5)
ffffffc05020ab6c:	fef407a3          	sb	a5,-17(s0)
ffffffc05020ab70:	fef44783          	lbu	a5,-17(s0)
ffffffc05020ab74:	0ff7f713          	andi	a4,a5,255
ffffffc05020ab78:	03000793          	li	a5,48
ffffffc05020ab7c:	06f71b63          	bne	a4,a5,ffffffc05020abf2 <mini_vsnprintf+0x112>
ffffffc05020ab80:	a891                	j	ffffffc05020abd4 <mini_vsnprintf+0xf4>
ffffffc05020ab82:	fef44783          	lbu	a5,-17(s0)
ffffffc05020ab86:	0ff7f793          	andi	a5,a5,255
ffffffc05020ab8a:	26078e63          	beqz	a5,ffffffc05020ae06 <mini_vsnprintf+0x326>
ffffffc05020ab8e:	fef44783          	lbu	a5,-17(s0)
ffffffc05020ab92:	0ff7f713          	andi	a4,a5,255
ffffffc05020ab96:	02f00793          	li	a5,47
ffffffc05020ab9a:	04e7fc63          	bgeu	a5,a4,ffffffc05020abf2 <mini_vsnprintf+0x112>
ffffffc05020ab9e:	fef44783          	lbu	a5,-17(s0)
ffffffc05020aba2:	0ff7f713          	andi	a4,a5,255
ffffffc05020aba6:	03900793          	li	a5,57
ffffffc05020abaa:	04e7e463          	bltu	a5,a4,ffffffc05020abf2 <mini_vsnprintf+0x112>
ffffffc05020abae:	fee44703          	lbu	a4,-18(s0)
ffffffc05020abb2:	87ba                	mv	a5,a4
ffffffc05020abb4:	0027979b          	slliw	a5,a5,0x2
ffffffc05020abb8:	9fb9                	addw	a5,a5,a4
ffffffc05020abba:	0017979b          	slliw	a5,a5,0x1
ffffffc05020abbe:	0ff7f793          	andi	a5,a5,255
ffffffc05020abc2:	fef44703          	lbu	a4,-17(s0)
ffffffc05020abc6:	9fb9                	addw	a5,a5,a4
ffffffc05020abc8:	0ff7f793          	andi	a5,a5,255
ffffffc05020abcc:	fd07879b          	addiw	a5,a5,-48
ffffffc05020abd0:	fef40723          	sb	a5,-18(s0)
ffffffc05020abd4:	f8843783          	ld	a5,-120(s0)
ffffffc05020abd8:	00178713          	addi	a4,a5,1
ffffffc05020abdc:	f8e43423          	sd	a4,-120(s0)
ffffffc05020abe0:	0007c783          	lbu	a5,0(a5)
ffffffc05020abe4:	fef407a3          	sb	a5,-17(s0)
ffffffc05020abe8:	fef44783          	lbu	a5,-17(s0)
ffffffc05020abec:	0ff7f793          	andi	a5,a5,255
ffffffc05020abf0:	fbc9                	bnez	a5,ffffffc05020ab82 <mini_vsnprintf+0xa2>
ffffffc05020abf2:	fef44783          	lbu	a5,-17(s0)
ffffffc05020abf6:	0ff7f713          	andi	a4,a5,255
ffffffc05020abfa:	06c00793          	li	a5,108
ffffffc05020abfe:	00f71f63          	bne	a4,a5,ffffffc05020ac1c <mini_vsnprintf+0x13c>
ffffffc05020ac02:	4785                	li	a5,1
ffffffc05020ac04:	fef42423          	sw	a5,-24(s0)
ffffffc05020ac08:	f8843783          	ld	a5,-120(s0)
ffffffc05020ac0c:	00178713          	addi	a4,a5,1
ffffffc05020ac10:	f8e43423          	sd	a4,-120(s0)
ffffffc05020ac14:	0007c783          	lbu	a5,0(a5)
ffffffc05020ac18:	fef407a3          	sb	a5,-17(s0)
ffffffc05020ac1c:	fef44783          	lbu	a5,-17(s0)
ffffffc05020ac20:	2781                	sext.w	a5,a5
ffffffc05020ac22:	1e078463          	beqz	a5,ffffffc05020ae0a <mini_vsnprintf+0x32a>
ffffffc05020ac26:	873e                	mv	a4,a5
ffffffc05020ac28:	1a074263          	bltz	a4,ffffffc05020adcc <mini_vsnprintf+0x2ec>
ffffffc05020ac2c:	86be                	mv	a3,a5
ffffffc05020ac2e:	07800713          	li	a4,120
ffffffc05020ac32:	18d74d63          	blt	a4,a3,ffffffc05020adcc <mini_vsnprintf+0x2ec>
ffffffc05020ac36:	86be                	mv	a3,a5
ffffffc05020ac38:	05800713          	li	a4,88
ffffffc05020ac3c:	18e6c863          	blt	a3,a4,ffffffc05020adcc <mini_vsnprintf+0x2ec>
ffffffc05020ac40:	fa87869b          	addiw	a3,a5,-88
ffffffc05020ac44:	0006871b          	sext.w	a4,a3
ffffffc05020ac48:	02000793          	li	a5,32
ffffffc05020ac4c:	18e7e063          	bltu	a5,a4,ffffffc05020adcc <mini_vsnprintf+0x2ec>
ffffffc05020ac50:	02069793          	slli	a5,a3,0x20
ffffffc05020ac54:	9381                	srli	a5,a5,0x20
ffffffc05020ac56:	00279713          	slli	a4,a5,0x2
ffffffc05020ac5a:	00001797          	auipc	a5,0x1
ffffffc05020ac5e:	f3278793          	addi	a5,a5,-206 # ffffffc05020bb8c <__FUNCTION__.1616+0x344>
ffffffc05020ac62:	97ba                	add	a5,a5,a4
ffffffc05020ac64:	439c                	lw	a5,0(a5)
ffffffc05020ac66:	0007871b          	sext.w	a4,a5
ffffffc05020ac6a:	00001797          	auipc	a5,0x1
ffffffc05020ac6e:	f2278793          	addi	a5,a5,-222 # ffffffc05020bb8c <__FUNCTION__.1616+0x344>
ffffffc05020ac72:	97ba                	add	a5,a5,a4
ffffffc05020ac74:	8782                	jr	a5
ffffffc05020ac76:	4785                	li	a5,1
ffffffc05020ac78:	fef42423          	sw	a5,-24(s0)
ffffffc05020ac7c:	a295                	j	ffffffc05020ade0 <mini_vsnprintf+0x300>
ffffffc05020ac7e:	fe842783          	lw	a5,-24(s0)
ffffffc05020ac82:	2781                	sext.w	a5,a5
ffffffc05020ac84:	ef81                	bnez	a5,ffffffc05020ac9c <mini_vsnprintf+0x1bc>
ffffffc05020ac86:	f8043783          	ld	a5,-128(s0)
ffffffc05020ac8a:	00878713          	addi	a4,a5,8
ffffffc05020ac8e:	f8e43023          	sd	a4,-128(s0)
ffffffc05020ac92:	439c                	lw	a5,0(a5)
ffffffc05020ac94:	02079513          	slli	a0,a5,0x20
ffffffc05020ac98:	9101                	srli	a0,a0,0x20
ffffffc05020ac9a:	a809                	j	ffffffc05020acac <mini_vsnprintf+0x1cc>
ffffffc05020ac9c:	f8043783          	ld	a5,-128(s0)
ffffffc05020aca0:	00878713          	addi	a4,a5,8
ffffffc05020aca4:	f8e43023          	sd	a4,-128(s0)
ffffffc05020aca8:	639c                	ld	a5,0(a5)
ffffffc05020acaa:	853e                	mv	a0,a5
ffffffc05020acac:	fef44783          	lbu	a5,-17(s0)
ffffffc05020acb0:	0007871b          	sext.w	a4,a5
ffffffc05020acb4:	07500793          	li	a5,117
ffffffc05020acb8:	40f707b3          	sub	a5,a4,a5
ffffffc05020acbc:	0017b793          	seqz	a5,a5
ffffffc05020acc0:	0ff7f793          	andi	a5,a5,255
ffffffc05020acc4:	0007869b          	sext.w	a3,a5
ffffffc05020acc8:	fee44783          	lbu	a5,-18(s0)
ffffffc05020accc:	2781                	sext.w	a5,a5
ffffffc05020acce:	fa840713          	addi	a4,s0,-88
ffffffc05020acd2:	4601                	li	a2,0
ffffffc05020acd4:	45a9                	li	a1,10
ffffffc05020acd6:	ac9ff0ef          	jal	ra,ffffffc05020a79e <mini_itoa>
ffffffc05020acda:	87aa                	mv	a5,a0
ffffffc05020acdc:	fcf42e23          	sw	a5,-36(s0)
ffffffc05020ace0:	fc040693          	addi	a3,s0,-64
ffffffc05020ace4:	fdc42703          	lw	a4,-36(s0)
ffffffc05020ace8:	fa840793          	addi	a5,s0,-88
ffffffc05020acec:	8636                	mv	a2,a3
ffffffc05020acee:	85ba                	mv	a1,a4
ffffffc05020acf0:	853e                	mv	a0,a5
ffffffc05020acf2:	d39ff0ef          	jal	ra,ffffffc05020aa2a <_puts>
ffffffc05020acf6:	fe042423          	sw	zero,-24(s0)
ffffffc05020acfa:	a0dd                	j	ffffffc05020ade0 <mini_vsnprintf+0x300>
ffffffc05020acfc:	fe842783          	lw	a5,-24(s0)
ffffffc05020ad00:	2781                	sext.w	a5,a5
ffffffc05020ad02:	ef81                	bnez	a5,ffffffc05020ad1a <mini_vsnprintf+0x23a>
ffffffc05020ad04:	f8043783          	ld	a5,-128(s0)
ffffffc05020ad08:	00878713          	addi	a4,a5,8
ffffffc05020ad0c:	f8e43023          	sd	a4,-128(s0)
ffffffc05020ad10:	439c                	lw	a5,0(a5)
ffffffc05020ad12:	02079513          	slli	a0,a5,0x20
ffffffc05020ad16:	9101                	srli	a0,a0,0x20
ffffffc05020ad18:	a809                	j	ffffffc05020ad2a <mini_vsnprintf+0x24a>
ffffffc05020ad1a:	f8043783          	ld	a5,-128(s0)
ffffffc05020ad1e:	00878713          	addi	a4,a5,8
ffffffc05020ad22:	f8e43023          	sd	a4,-128(s0)
ffffffc05020ad26:	639c                	ld	a5,0(a5)
ffffffc05020ad28:	853e                	mv	a0,a5
ffffffc05020ad2a:	fef44783          	lbu	a5,-17(s0)
ffffffc05020ad2e:	0007871b          	sext.w	a4,a5
ffffffc05020ad32:	05800793          	li	a5,88
ffffffc05020ad36:	40f707b3          	sub	a5,a4,a5
ffffffc05020ad3a:	0017b793          	seqz	a5,a5
ffffffc05020ad3e:	0ff7f793          	andi	a5,a5,255
ffffffc05020ad42:	0007861b          	sext.w	a2,a5
ffffffc05020ad46:	fee44783          	lbu	a5,-18(s0)
ffffffc05020ad4a:	2781                	sext.w	a5,a5
ffffffc05020ad4c:	fa840713          	addi	a4,s0,-88
ffffffc05020ad50:	4685                	li	a3,1
ffffffc05020ad52:	45c1                	li	a1,16
ffffffc05020ad54:	a4bff0ef          	jal	ra,ffffffc05020a79e <mini_itoa>
ffffffc05020ad58:	87aa                	mv	a5,a0
ffffffc05020ad5a:	fcf42e23          	sw	a5,-36(s0)
ffffffc05020ad5e:	fc040693          	addi	a3,s0,-64
ffffffc05020ad62:	fdc42703          	lw	a4,-36(s0)
ffffffc05020ad66:	fa840793          	addi	a5,s0,-88
ffffffc05020ad6a:	8636                	mv	a2,a3
ffffffc05020ad6c:	85ba                	mv	a1,a4
ffffffc05020ad6e:	853e                	mv	a0,a5
ffffffc05020ad70:	cbbff0ef          	jal	ra,ffffffc05020aa2a <_puts>
ffffffc05020ad74:	fe042423          	sw	zero,-24(s0)
ffffffc05020ad78:	a0a5                	j	ffffffc05020ade0 <mini_vsnprintf+0x300>
ffffffc05020ad7a:	f8043783          	ld	a5,-128(s0)
ffffffc05020ad7e:	00878713          	addi	a4,a5,8
ffffffc05020ad82:	f8e43023          	sd	a4,-128(s0)
ffffffc05020ad86:	439c                	lw	a5,0(a5)
ffffffc05020ad88:	0ff7f793          	andi	a5,a5,255
ffffffc05020ad8c:	2781                	sext.w	a5,a5
ffffffc05020ad8e:	fc040713          	addi	a4,s0,-64
ffffffc05020ad92:	85ba                	mv	a1,a4
ffffffc05020ad94:	853e                	mv	a0,a5
ffffffc05020ad96:	c2fff0ef          	jal	ra,ffffffc05020a9c4 <_putc>
ffffffc05020ad9a:	a099                	j	ffffffc05020ade0 <mini_vsnprintf+0x300>
ffffffc05020ad9c:	f8043783          	ld	a5,-128(s0)
ffffffc05020ada0:	00878713          	addi	a4,a5,8
ffffffc05020ada4:	f8e43023          	sd	a4,-128(s0)
ffffffc05020ada8:	639c                	ld	a5,0(a5)
ffffffc05020adaa:	fef43023          	sd	a5,-32(s0)
ffffffc05020adae:	fe043503          	ld	a0,-32(s0)
ffffffc05020adb2:	9b7ff0ef          	jal	ra,ffffffc05020a768 <mini_strlen>
ffffffc05020adb6:	87aa                	mv	a5,a0
ffffffc05020adb8:	2781                	sext.w	a5,a5
ffffffc05020adba:	fc040713          	addi	a4,s0,-64
ffffffc05020adbe:	863a                	mv	a2,a4
ffffffc05020adc0:	85be                	mv	a1,a5
ffffffc05020adc2:	fe043503          	ld	a0,-32(s0)
ffffffc05020adc6:	c65ff0ef          	jal	ra,ffffffc05020aa2a <_puts>
ffffffc05020adca:	a819                	j	ffffffc05020ade0 <mini_vsnprintf+0x300>
ffffffc05020adcc:	fef44783          	lbu	a5,-17(s0)
ffffffc05020add0:	2781                	sext.w	a5,a5
ffffffc05020add2:	fc040713          	addi	a4,s0,-64
ffffffc05020add6:	85ba                	mv	a1,a4
ffffffc05020add8:	853e                	mv	a0,a5
ffffffc05020adda:	bebff0ef          	jal	ra,ffffffc05020a9c4 <_putc>
ffffffc05020adde:	0001                	nop
ffffffc05020ade0:	f8843783          	ld	a5,-120(s0)
ffffffc05020ade4:	00178713          	addi	a4,a5,1
ffffffc05020ade8:	f8e43423          	sd	a4,-120(s0)
ffffffc05020adec:	0007c783          	lbu	a5,0(a5)
ffffffc05020adf0:	fef407a3          	sb	a5,-17(s0)
ffffffc05020adf4:	fef44783          	lbu	a5,-17(s0)
ffffffc05020adf8:	0ff7f793          	andi	a5,a5,255
ffffffc05020adfc:	d0079ce3          	bnez	a5,ffffffc05020ab14 <mini_vsnprintf+0x34>
ffffffc05020ae00:	a031                	j	ffffffc05020ae0c <mini_vsnprintf+0x32c>
ffffffc05020ae02:	0001                	nop
ffffffc05020ae04:	a021                	j	ffffffc05020ae0c <mini_vsnprintf+0x32c>
ffffffc05020ae06:	0001                	nop
ffffffc05020ae08:	a011                	j	ffffffc05020ae0c <mini_vsnprintf+0x32c>
ffffffc05020ae0a:	0001                	nop
ffffffc05020ae0c:	fc843703          	ld	a4,-56(s0)
ffffffc05020ae10:	fc043783          	ld	a5,-64(s0)
ffffffc05020ae14:	40f707b3          	sub	a5,a4,a5
ffffffc05020ae18:	2781                	sext.w	a5,a5
ffffffc05020ae1a:	853e                	mv	a0,a5
ffffffc05020ae1c:	70e6                	ld	ra,120(sp)
ffffffc05020ae1e:	7446                	ld	s0,112(sp)
ffffffc05020ae20:	6109                	addi	sp,sp,128
ffffffc05020ae22:	8082                	ret

ffffffc05020ae24 <_vprint>:
ffffffc05020ae24:	7129                	addi	sp,sp,-320
ffffffc05020ae26:	fe06                	sd	ra,312(sp)
ffffffc05020ae28:	fa22                	sd	s0,304(sp)
ffffffc05020ae2a:	0280                	addi	s0,sp,320
ffffffc05020ae2c:	eca43c23          	sd	a0,-296(s0)
ffffffc05020ae30:	ecb43823          	sd	a1,-304(s0)
ffffffc05020ae34:	ecc43423          	sd	a2,-312(s0)
ffffffc05020ae38:	ed043783          	ld	a5,-304(s0)
ffffffc05020ae3c:	fef43023          	sd	a5,-32(s0)
ffffffc05020ae40:	fe043703          	ld	a4,-32(s0)
ffffffc05020ae44:	ee040793          	addi	a5,s0,-288
ffffffc05020ae48:	86ba                	mv	a3,a4
ffffffc05020ae4a:	ed843603          	ld	a2,-296(s0)
ffffffc05020ae4e:	10000593          	li	a1,256
ffffffc05020ae52:	853e                	mv	a0,a5
ffffffc05020ae54:	c8dff0ef          	jal	ra,ffffffc05020aae0 <mini_vsnprintf>
ffffffc05020ae58:	87aa                	mv	a5,a0
ffffffc05020ae5a:	fef42623          	sw	a5,-20(s0)
ffffffc05020ae5e:	fec42783          	lw	a5,-20(s0)
ffffffc05020ae62:	ff040713          	addi	a4,s0,-16
ffffffc05020ae66:	97ba                	add	a5,a5,a4
ffffffc05020ae68:	ee078823          	sb	zero,-272(a5)
ffffffc05020ae6c:	ee040793          	addi	a5,s0,-288
ffffffc05020ae70:	ec843703          	ld	a4,-312(s0)
ffffffc05020ae74:	853e                	mv	a0,a5
ffffffc05020ae76:	9702                	jalr	a4
ffffffc05020ae78:	fec42783          	lw	a5,-20(s0)
ffffffc05020ae7c:	853e                	mv	a0,a5
ffffffc05020ae7e:	70f2                	ld	ra,312(sp)
ffffffc05020ae80:	7452                	ld	s0,304(sp)
ffffffc05020ae82:	6131                	addi	sp,sp,320
ffffffc05020ae84:	8082                	ret

ffffffc05020ae86 <_output_wrapper>:
ffffffc05020ae86:	1101                	addi	sp,sp,-32
ffffffc05020ae88:	ec06                	sd	ra,24(sp)
ffffffc05020ae8a:	e822                	sd	s0,16(sp)
ffffffc05020ae8c:	1000                	addi	s0,sp,32
ffffffc05020ae8e:	fea43423          	sd	a0,-24(s0)
ffffffc05020ae92:	fe843503          	ld	a0,-24(s0)
ffffffc05020ae96:	acbf80ef          	jal	ra,ffffffc050203960 <screen_write>
ffffffc05020ae9a:	b25f80ef          	jal	ra,ffffffc0502039be <screen_reflush>
ffffffc05020ae9e:	0001                	nop
ffffffc05020aea0:	60e2                	ld	ra,24(sp)
ffffffc05020aea2:	6442                	ld	s0,16(sp)
ffffffc05020aea4:	6105                	addi	sp,sp,32
ffffffc05020aea6:	8082                	ret

ffffffc05020aea8 <vprintk>:
ffffffc05020aea8:	1101                	addi	sp,sp,-32
ffffffc05020aeaa:	ec06                	sd	ra,24(sp)
ffffffc05020aeac:	e822                	sd	s0,16(sp)
ffffffc05020aeae:	1000                	addi	s0,sp,32
ffffffc05020aeb0:	fea43423          	sd	a0,-24(s0)
ffffffc05020aeb4:	feb43023          	sd	a1,-32(s0)
ffffffc05020aeb8:	00000617          	auipc	a2,0x0
ffffffc05020aebc:	fce60613          	addi	a2,a2,-50 # ffffffc05020ae86 <_output_wrapper>
ffffffc05020aec0:	fe043583          	ld	a1,-32(s0)
ffffffc05020aec4:	fe843503          	ld	a0,-24(s0)
ffffffc05020aec8:	f5dff0ef          	jal	ra,ffffffc05020ae24 <_vprint>
ffffffc05020aecc:	87aa                	mv	a5,a0
ffffffc05020aece:	853e                	mv	a0,a5
ffffffc05020aed0:	60e2                	ld	ra,24(sp)
ffffffc05020aed2:	6442                	ld	s0,16(sp)
ffffffc05020aed4:	6105                	addi	sp,sp,32
ffffffc05020aed6:	8082                	ret

ffffffc05020aed8 <printk>:
ffffffc05020aed8:	7159                	addi	sp,sp,-112
ffffffc05020aeda:	f406                	sd	ra,40(sp)
ffffffc05020aedc:	f022                	sd	s0,32(sp)
ffffffc05020aede:	1800                	addi	s0,sp,48
ffffffc05020aee0:	fca43c23          	sd	a0,-40(s0)
ffffffc05020aee4:	e40c                	sd	a1,8(s0)
ffffffc05020aee6:	e810                	sd	a2,16(s0)
ffffffc05020aee8:	ec14                	sd	a3,24(s0)
ffffffc05020aeea:	f018                	sd	a4,32(s0)
ffffffc05020aeec:	f41c                	sd	a5,40(s0)
ffffffc05020aeee:	03043823          	sd	a6,48(s0)
ffffffc05020aef2:	03143c23          	sd	a7,56(s0)
ffffffc05020aef6:	fe042623          	sw	zero,-20(s0)
ffffffc05020aefa:	04040793          	addi	a5,s0,64
ffffffc05020aefe:	fcf43823          	sd	a5,-48(s0)
ffffffc05020af02:	fd043783          	ld	a5,-48(s0)
ffffffc05020af06:	fc878793          	addi	a5,a5,-56
ffffffc05020af0a:	fef43023          	sd	a5,-32(s0)
ffffffc05020af0e:	fe043783          	ld	a5,-32(s0)
ffffffc05020af12:	85be                	mv	a1,a5
ffffffc05020af14:	fd843503          	ld	a0,-40(s0)
ffffffc05020af18:	f91ff0ef          	jal	ra,ffffffc05020aea8 <vprintk>
ffffffc05020af1c:	87aa                	mv	a5,a0
ffffffc05020af1e:	fef42623          	sw	a5,-20(s0)
ffffffc05020af22:	fec42783          	lw	a5,-20(s0)
ffffffc05020af26:	853e                	mv	a0,a5
ffffffc05020af28:	70a2                	ld	ra,40(sp)
ffffffc05020af2a:	7402                	ld	s0,32(sp)
ffffffc05020af2c:	6165                	addi	sp,sp,112
ffffffc05020af2e:	8082                	ret

ffffffc05020af30 <vprintv>:
ffffffc05020af30:	1101                	addi	sp,sp,-32
ffffffc05020af32:	ec06                	sd	ra,24(sp)
ffffffc05020af34:	e822                	sd	s0,16(sp)
ffffffc05020af36:	1000                	addi	s0,sp,32
ffffffc05020af38:	fea43423          	sd	a0,-24(s0)
ffffffc05020af3c:	feb43023          	sd	a1,-32(s0)
ffffffc05020af40:	fffff617          	auipc	a2,0xfffff
ffffffc05020af44:	7cc60613          	addi	a2,a2,1996 # ffffffc05020a70c <bios_putstr>
ffffffc05020af48:	fe043583          	ld	a1,-32(s0)
ffffffc05020af4c:	fe843503          	ld	a0,-24(s0)
ffffffc05020af50:	ed5ff0ef          	jal	ra,ffffffc05020ae24 <_vprint>
ffffffc05020af54:	87aa                	mv	a5,a0
ffffffc05020af56:	853e                	mv	a0,a5
ffffffc05020af58:	60e2                	ld	ra,24(sp)
ffffffc05020af5a:	6442                	ld	s0,16(sp)
ffffffc05020af5c:	6105                	addi	sp,sp,32
ffffffc05020af5e:	8082                	ret

ffffffc05020af60 <printv>:
ffffffc05020af60:	7159                	addi	sp,sp,-112
ffffffc05020af62:	f406                	sd	ra,40(sp)
ffffffc05020af64:	f022                	sd	s0,32(sp)
ffffffc05020af66:	1800                	addi	s0,sp,48
ffffffc05020af68:	fca43c23          	sd	a0,-40(s0)
ffffffc05020af6c:	e40c                	sd	a1,8(s0)
ffffffc05020af6e:	e810                	sd	a2,16(s0)
ffffffc05020af70:	ec14                	sd	a3,24(s0)
ffffffc05020af72:	f018                	sd	a4,32(s0)
ffffffc05020af74:	f41c                	sd	a5,40(s0)
ffffffc05020af76:	03043823          	sd	a6,48(s0)
ffffffc05020af7a:	03143c23          	sd	a7,56(s0)
ffffffc05020af7e:	fe042623          	sw	zero,-20(s0)
ffffffc05020af82:	04040793          	addi	a5,s0,64
ffffffc05020af86:	fcf43823          	sd	a5,-48(s0)
ffffffc05020af8a:	fd043783          	ld	a5,-48(s0)
ffffffc05020af8e:	fc878793          	addi	a5,a5,-56
ffffffc05020af92:	fef43023          	sd	a5,-32(s0)
ffffffc05020af96:	fe043783          	ld	a5,-32(s0)
ffffffc05020af9a:	85be                	mv	a1,a5
ffffffc05020af9c:	fd843503          	ld	a0,-40(s0)
ffffffc05020afa0:	f91ff0ef          	jal	ra,ffffffc05020af30 <vprintv>
ffffffc05020afa4:	87aa                	mv	a5,a0
ffffffc05020afa6:	fef42623          	sw	a5,-20(s0)
ffffffc05020afaa:	fec42783          	lw	a5,-20(s0)
ffffffc05020afae:	853e                	mv	a0,a5
ffffffc05020afb0:	70a2                	ld	ra,40(sp)
ffffffc05020afb2:	7402                	ld	s0,32(sp)
ffffffc05020afb4:	6165                	addi	sp,sp,112
ffffffc05020afb6:	8082                	ret

ffffffc05020afb8 <vprintl>:
ffffffc05020afb8:	1101                	addi	sp,sp,-32
ffffffc05020afba:	ec06                	sd	ra,24(sp)
ffffffc05020afbc:	e822                	sd	s0,16(sp)
ffffffc05020afbe:	1000                	addi	s0,sp,32
ffffffc05020afc0:	fea43423          	sd	a0,-24(s0)
ffffffc05020afc4:	feb43023          	sd	a1,-32(s0)
ffffffc05020afc8:	fffff617          	auipc	a2,0xfffff
ffffffc05020afcc:	77260613          	addi	a2,a2,1906 # ffffffc05020a73a <bios_logging>
ffffffc05020afd0:	fe043583          	ld	a1,-32(s0)
ffffffc05020afd4:	fe843503          	ld	a0,-24(s0)
ffffffc05020afd8:	e4dff0ef          	jal	ra,ffffffc05020ae24 <_vprint>
ffffffc05020afdc:	87aa                	mv	a5,a0
ffffffc05020afde:	853e                	mv	a0,a5
ffffffc05020afe0:	60e2                	ld	ra,24(sp)
ffffffc05020afe2:	6442                	ld	s0,16(sp)
ffffffc05020afe4:	6105                	addi	sp,sp,32
ffffffc05020afe6:	8082                	ret

ffffffc05020afe8 <printl>:
ffffffc05020afe8:	7159                	addi	sp,sp,-112
ffffffc05020afea:	f406                	sd	ra,40(sp)
ffffffc05020afec:	f022                	sd	s0,32(sp)
ffffffc05020afee:	1800                	addi	s0,sp,48
ffffffc05020aff0:	fca43c23          	sd	a0,-40(s0)
ffffffc05020aff4:	e40c                	sd	a1,8(s0)
ffffffc05020aff6:	e810                	sd	a2,16(s0)
ffffffc05020aff8:	ec14                	sd	a3,24(s0)
ffffffc05020affa:	f018                	sd	a4,32(s0)
ffffffc05020affc:	f41c                	sd	a5,40(s0)
ffffffc05020affe:	03043823          	sd	a6,48(s0)
ffffffc05020b002:	03143c23          	sd	a7,56(s0)
ffffffc05020b006:	fe042623          	sw	zero,-20(s0)
ffffffc05020b00a:	04040793          	addi	a5,s0,64
ffffffc05020b00e:	fcf43823          	sd	a5,-48(s0)
ffffffc05020b012:	fd043783          	ld	a5,-48(s0)
ffffffc05020b016:	fc878793          	addi	a5,a5,-56
ffffffc05020b01a:	fef43023          	sd	a5,-32(s0)
ffffffc05020b01e:	fe043783          	ld	a5,-32(s0)
ffffffc05020b022:	85be                	mv	a1,a5
ffffffc05020b024:	fd843503          	ld	a0,-40(s0)
ffffffc05020b028:	f91ff0ef          	jal	ra,ffffffc05020afb8 <vprintl>
ffffffc05020b02c:	87aa                	mv	a5,a0
ffffffc05020b02e:	fef42623          	sw	a5,-20(s0)
ffffffc05020b032:	fec42783          	lw	a5,-20(s0)
ffffffc05020b036:	853e                	mv	a0,a5
ffffffc05020b038:	70a2                	ld	ra,40(sp)
ffffffc05020b03a:	7402                	ld	s0,32(sp)
ffffffc05020b03c:	6165                	addi	sp,sp,112
ffffffc05020b03e:	8082                	ret

ffffffc05020b040 <memcpy>:
ffffffc05020b040:	7179                	addi	sp,sp,-48
ffffffc05020b042:	f422                	sd	s0,40(sp)
ffffffc05020b044:	1800                	addi	s0,sp,48
ffffffc05020b046:	fea43423          	sd	a0,-24(s0)
ffffffc05020b04a:	feb43023          	sd	a1,-32(s0)
ffffffc05020b04e:	87b2                	mv	a5,a2
ffffffc05020b050:	fcf42e23          	sw	a5,-36(s0)
ffffffc05020b054:	a035                	j	ffffffc05020b080 <memcpy+0x40>
ffffffc05020b056:	fe043703          	ld	a4,-32(s0)
ffffffc05020b05a:	00170793          	addi	a5,a4,1
ffffffc05020b05e:	fef43023          	sd	a5,-32(s0)
ffffffc05020b062:	fe843783          	ld	a5,-24(s0)
ffffffc05020b066:	00178693          	addi	a3,a5,1
ffffffc05020b06a:	fed43423          	sd	a3,-24(s0)
ffffffc05020b06e:	00074703          	lbu	a4,0(a4)
ffffffc05020b072:	00e78023          	sb	a4,0(a5)
ffffffc05020b076:	fdc42783          	lw	a5,-36(s0)
ffffffc05020b07a:	37fd                	addiw	a5,a5,-1
ffffffc05020b07c:	fcf42e23          	sw	a5,-36(s0)
ffffffc05020b080:	fdc42783          	lw	a5,-36(s0)
ffffffc05020b084:	2781                	sext.w	a5,a5
ffffffc05020b086:	fbe1                	bnez	a5,ffffffc05020b056 <memcpy+0x16>
ffffffc05020b088:	0001                	nop
ffffffc05020b08a:	0001                	nop
ffffffc05020b08c:	7422                	ld	s0,40(sp)
ffffffc05020b08e:	6145                	addi	sp,sp,48
ffffffc05020b090:	8082                	ret

ffffffc05020b092 <memset>:
ffffffc05020b092:	7179                	addi	sp,sp,-48
ffffffc05020b094:	f422                	sd	s0,40(sp)
ffffffc05020b096:	1800                	addi	s0,sp,48
ffffffc05020b098:	fca43c23          	sd	a0,-40(s0)
ffffffc05020b09c:	87ae                	mv	a5,a1
ffffffc05020b09e:	8732                	mv	a4,a2
ffffffc05020b0a0:	fcf40ba3          	sb	a5,-41(s0)
ffffffc05020b0a4:	87ba                	mv	a5,a4
ffffffc05020b0a6:	fcf42823          	sw	a5,-48(s0)
ffffffc05020b0aa:	fd843783          	ld	a5,-40(s0)
ffffffc05020b0ae:	fef43423          	sd	a5,-24(s0)
ffffffc05020b0b2:	a005                	j	ffffffc05020b0d2 <memset+0x40>
ffffffc05020b0b4:	fe843783          	ld	a5,-24(s0)
ffffffc05020b0b8:	00178713          	addi	a4,a5,1
ffffffc05020b0bc:	fee43423          	sd	a4,-24(s0)
ffffffc05020b0c0:	fd744703          	lbu	a4,-41(s0)
ffffffc05020b0c4:	00e78023          	sb	a4,0(a5)
ffffffc05020b0c8:	fd042783          	lw	a5,-48(s0)
ffffffc05020b0cc:	37fd                	addiw	a5,a5,-1
ffffffc05020b0ce:	fcf42823          	sw	a5,-48(s0)
ffffffc05020b0d2:	fd042783          	lw	a5,-48(s0)
ffffffc05020b0d6:	2781                	sext.w	a5,a5
ffffffc05020b0d8:	fff1                	bnez	a5,ffffffc05020b0b4 <memset+0x22>
ffffffc05020b0da:	0001                	nop
ffffffc05020b0dc:	0001                	nop
ffffffc05020b0de:	7422                	ld	s0,40(sp)
ffffffc05020b0e0:	6145                	addi	sp,sp,48
ffffffc05020b0e2:	8082                	ret

ffffffc05020b0e4 <bzero>:
ffffffc05020b0e4:	1101                	addi	sp,sp,-32
ffffffc05020b0e6:	ec06                	sd	ra,24(sp)
ffffffc05020b0e8:	e822                	sd	s0,16(sp)
ffffffc05020b0ea:	1000                	addi	s0,sp,32
ffffffc05020b0ec:	fea43423          	sd	a0,-24(s0)
ffffffc05020b0f0:	87ae                	mv	a5,a1
ffffffc05020b0f2:	fef42223          	sw	a5,-28(s0)
ffffffc05020b0f6:	fe442783          	lw	a5,-28(s0)
ffffffc05020b0fa:	863e                	mv	a2,a5
ffffffc05020b0fc:	4581                	li	a1,0
ffffffc05020b0fe:	fe843503          	ld	a0,-24(s0)
ffffffc05020b102:	f91ff0ef          	jal	ra,ffffffc05020b092 <memset>
ffffffc05020b106:	0001                	nop
ffffffc05020b108:	60e2                	ld	ra,24(sp)
ffffffc05020b10a:	6442                	ld	s0,16(sp)
ffffffc05020b10c:	6105                	addi	sp,sp,32
ffffffc05020b10e:	8082                	ret

ffffffc05020b110 <strlen>:
ffffffc05020b110:	7179                	addi	sp,sp,-48
ffffffc05020b112:	f422                	sd	s0,40(sp)
ffffffc05020b114:	1800                	addi	s0,sp,48
ffffffc05020b116:	fca43c23          	sd	a0,-40(s0)
ffffffc05020b11a:	fe042623          	sw	zero,-20(s0)
ffffffc05020b11e:	a031                	j	ffffffc05020b12a <strlen+0x1a>
ffffffc05020b120:	fec42783          	lw	a5,-20(s0)
ffffffc05020b124:	2785                	addiw	a5,a5,1
ffffffc05020b126:	fef42623          	sw	a5,-20(s0)
ffffffc05020b12a:	fec42783          	lw	a5,-20(s0)
ffffffc05020b12e:	fd843703          	ld	a4,-40(s0)
ffffffc05020b132:	97ba                	add	a5,a5,a4
ffffffc05020b134:	0007c783          	lbu	a5,0(a5)
ffffffc05020b138:	f7e5                	bnez	a5,ffffffc05020b120 <strlen+0x10>
ffffffc05020b13a:	fec42783          	lw	a5,-20(s0)
ffffffc05020b13e:	853e                	mv	a0,a5
ffffffc05020b140:	7422                	ld	s0,40(sp)
ffffffc05020b142:	6145                	addi	sp,sp,48
ffffffc05020b144:	8082                	ret

ffffffc05020b146 <strcmp>:
ffffffc05020b146:	1101                	addi	sp,sp,-32
ffffffc05020b148:	ec22                	sd	s0,24(sp)
ffffffc05020b14a:	1000                	addi	s0,sp,32
ffffffc05020b14c:	fea43423          	sd	a0,-24(s0)
ffffffc05020b150:	feb43023          	sd	a1,-32(s0)
ffffffc05020b154:	a0a1                	j	ffffffc05020b19c <strcmp+0x56>
ffffffc05020b156:	fe843783          	ld	a5,-24(s0)
ffffffc05020b15a:	0007c703          	lbu	a4,0(a5)
ffffffc05020b15e:	fe043783          	ld	a5,-32(s0)
ffffffc05020b162:	0007c783          	lbu	a5,0(a5)
ffffffc05020b166:	02f70163          	beq	a4,a5,ffffffc05020b188 <strcmp+0x42>
ffffffc05020b16a:	fe843783          	ld	a5,-24(s0)
ffffffc05020b16e:	0007c783          	lbu	a5,0(a5)
ffffffc05020b172:	0007871b          	sext.w	a4,a5
ffffffc05020b176:	fe043783          	ld	a5,-32(s0)
ffffffc05020b17a:	0007c783          	lbu	a5,0(a5)
ffffffc05020b17e:	2781                	sext.w	a5,a5
ffffffc05020b180:	40f707bb          	subw	a5,a4,a5
ffffffc05020b184:	2781                	sext.w	a5,a5
ffffffc05020b186:	a099                	j	ffffffc05020b1cc <strcmp+0x86>
ffffffc05020b188:	fe843783          	ld	a5,-24(s0)
ffffffc05020b18c:	0785                	addi	a5,a5,1
ffffffc05020b18e:	fef43423          	sd	a5,-24(s0)
ffffffc05020b192:	fe043783          	ld	a5,-32(s0)
ffffffc05020b196:	0785                	addi	a5,a5,1
ffffffc05020b198:	fef43023          	sd	a5,-32(s0)
ffffffc05020b19c:	fe843783          	ld	a5,-24(s0)
ffffffc05020b1a0:	0007c783          	lbu	a5,0(a5)
ffffffc05020b1a4:	c791                	beqz	a5,ffffffc05020b1b0 <strcmp+0x6a>
ffffffc05020b1a6:	fe043783          	ld	a5,-32(s0)
ffffffc05020b1aa:	0007c783          	lbu	a5,0(a5)
ffffffc05020b1ae:	f7c5                	bnez	a5,ffffffc05020b156 <strcmp+0x10>
ffffffc05020b1b0:	fe843783          	ld	a5,-24(s0)
ffffffc05020b1b4:	0007c783          	lbu	a5,0(a5)
ffffffc05020b1b8:	0007871b          	sext.w	a4,a5
ffffffc05020b1bc:	fe043783          	ld	a5,-32(s0)
ffffffc05020b1c0:	0007c783          	lbu	a5,0(a5)
ffffffc05020b1c4:	2781                	sext.w	a5,a5
ffffffc05020b1c6:	40f707bb          	subw	a5,a4,a5
ffffffc05020b1ca:	2781                	sext.w	a5,a5
ffffffc05020b1cc:	853e                	mv	a0,a5
ffffffc05020b1ce:	6462                	ld	s0,24(sp)
ffffffc05020b1d0:	6105                	addi	sp,sp,32
ffffffc05020b1d2:	8082                	ret

ffffffc05020b1d4 <strncmp>:
ffffffc05020b1d4:	7179                	addi	sp,sp,-48
ffffffc05020b1d6:	f422                	sd	s0,40(sp)
ffffffc05020b1d8:	1800                	addi	s0,sp,48
ffffffc05020b1da:	fea43423          	sd	a0,-24(s0)
ffffffc05020b1de:	feb43023          	sd	a1,-32(s0)
ffffffc05020b1e2:	87b2                	mv	a5,a2
ffffffc05020b1e4:	fcf42e23          	sw	a5,-36(s0)
ffffffc05020b1e8:	a0a1                	j	ffffffc05020b230 <strncmp+0x5c>
ffffffc05020b1ea:	fe843783          	ld	a5,-24(s0)
ffffffc05020b1ee:	0007c703          	lbu	a4,0(a5)
ffffffc05020b1f2:	fe043783          	ld	a5,-32(s0)
ffffffc05020b1f6:	0007c783          	lbu	a5,0(a5)
ffffffc05020b1fa:	02f70163          	beq	a4,a5,ffffffc05020b21c <strncmp+0x48>
ffffffc05020b1fe:	fe843783          	ld	a5,-24(s0)
ffffffc05020b202:	0007c783          	lbu	a5,0(a5)
ffffffc05020b206:	0007871b          	sext.w	a4,a5
ffffffc05020b20a:	fe043783          	ld	a5,-32(s0)
ffffffc05020b20e:	0007c783          	lbu	a5,0(a5)
ffffffc05020b212:	2781                	sext.w	a5,a5
ffffffc05020b214:	40f707bb          	subw	a5,a4,a5
ffffffc05020b218:	2781                	sext.w	a5,a5
ffffffc05020b21a:	a899                	j	ffffffc05020b270 <strncmp+0x9c>
ffffffc05020b21c:	fe843783          	ld	a5,-24(s0)
ffffffc05020b220:	0785                	addi	a5,a5,1
ffffffc05020b222:	fef43423          	sd	a5,-24(s0)
ffffffc05020b226:	fe043783          	ld	a5,-32(s0)
ffffffc05020b22a:	0785                	addi	a5,a5,1
ffffffc05020b22c:	fef43023          	sd	a5,-32(s0)
ffffffc05020b230:	fe843783          	ld	a5,-24(s0)
ffffffc05020b234:	0007c783          	lbu	a5,0(a5)
ffffffc05020b238:	cf91                	beqz	a5,ffffffc05020b254 <strncmp+0x80>
ffffffc05020b23a:	fe043783          	ld	a5,-32(s0)
ffffffc05020b23e:	0007c783          	lbu	a5,0(a5)
ffffffc05020b242:	cb89                	beqz	a5,ffffffc05020b254 <strncmp+0x80>
ffffffc05020b244:	fdc42783          	lw	a5,-36(s0)
ffffffc05020b248:	fff7871b          	addiw	a4,a5,-1
ffffffc05020b24c:	fce42e23          	sw	a4,-36(s0)
ffffffc05020b250:	f8f04de3          	bgtz	a5,ffffffc05020b1ea <strncmp+0x16>
ffffffc05020b254:	fe843783          	ld	a5,-24(s0)
ffffffc05020b258:	0007c783          	lbu	a5,0(a5)
ffffffc05020b25c:	0007871b          	sext.w	a4,a5
ffffffc05020b260:	fe043783          	ld	a5,-32(s0)
ffffffc05020b264:	0007c783          	lbu	a5,0(a5)
ffffffc05020b268:	2781                	sext.w	a5,a5
ffffffc05020b26a:	40f707bb          	subw	a5,a4,a5
ffffffc05020b26e:	2781                	sext.w	a5,a5
ffffffc05020b270:	853e                	mv	a0,a5
ffffffc05020b272:	7422                	ld	s0,40(sp)
ffffffc05020b274:	6145                	addi	sp,sp,48
ffffffc05020b276:	8082                	ret

ffffffc05020b278 <strcpy>:
ffffffc05020b278:	7179                	addi	sp,sp,-48
ffffffc05020b27a:	f422                	sd	s0,40(sp)
ffffffc05020b27c:	1800                	addi	s0,sp,48
ffffffc05020b27e:	fca43c23          	sd	a0,-40(s0)
ffffffc05020b282:	fcb43823          	sd	a1,-48(s0)
ffffffc05020b286:	fd843783          	ld	a5,-40(s0)
ffffffc05020b28a:	fef43423          	sd	a5,-24(s0)
ffffffc05020b28e:	a00d                	j	ffffffc05020b2b0 <strcpy+0x38>
ffffffc05020b290:	fd043703          	ld	a4,-48(s0)
ffffffc05020b294:	00170793          	addi	a5,a4,1
ffffffc05020b298:	fcf43823          	sd	a5,-48(s0)
ffffffc05020b29c:	fd843783          	ld	a5,-40(s0)
ffffffc05020b2a0:	00178693          	addi	a3,a5,1
ffffffc05020b2a4:	fcd43c23          	sd	a3,-40(s0)
ffffffc05020b2a8:	00074703          	lbu	a4,0(a4)
ffffffc05020b2ac:	00e78023          	sb	a4,0(a5)
ffffffc05020b2b0:	fd043783          	ld	a5,-48(s0)
ffffffc05020b2b4:	0007c783          	lbu	a5,0(a5)
ffffffc05020b2b8:	ffe1                	bnez	a5,ffffffc05020b290 <strcpy+0x18>
ffffffc05020b2ba:	fd843783          	ld	a5,-40(s0)
ffffffc05020b2be:	00078023          	sb	zero,0(a5)
ffffffc05020b2c2:	fe843783          	ld	a5,-24(s0)
ffffffc05020b2c6:	853e                	mv	a0,a5
ffffffc05020b2c8:	7422                	ld	s0,40(sp)
ffffffc05020b2ca:	6145                	addi	sp,sp,48
ffffffc05020b2cc:	8082                	ret

ffffffc05020b2ce <strncpy>:
ffffffc05020b2ce:	7139                	addi	sp,sp,-64
ffffffc05020b2d0:	fc22                	sd	s0,56(sp)
ffffffc05020b2d2:	0080                	addi	s0,sp,64
ffffffc05020b2d4:	fca43c23          	sd	a0,-40(s0)
ffffffc05020b2d8:	fcb43823          	sd	a1,-48(s0)
ffffffc05020b2dc:	87b2                	mv	a5,a2
ffffffc05020b2de:	fcf42623          	sw	a5,-52(s0)
ffffffc05020b2e2:	fd843783          	ld	a5,-40(s0)
ffffffc05020b2e6:	fef43423          	sd	a5,-24(s0)
ffffffc05020b2ea:	a00d                	j	ffffffc05020b30c <strncpy+0x3e>
ffffffc05020b2ec:	fd043703          	ld	a4,-48(s0)
ffffffc05020b2f0:	00170793          	addi	a5,a4,1
ffffffc05020b2f4:	fcf43823          	sd	a5,-48(s0)
ffffffc05020b2f8:	fd843783          	ld	a5,-40(s0)
ffffffc05020b2fc:	00178693          	addi	a3,a5,1
ffffffc05020b300:	fcd43c23          	sd	a3,-40(s0)
ffffffc05020b304:	00074703          	lbu	a4,0(a4)
ffffffc05020b308:	00e78023          	sb	a4,0(a5)
ffffffc05020b30c:	fd043783          	ld	a5,-48(s0)
ffffffc05020b310:	0007c783          	lbu	a5,0(a5)
ffffffc05020b314:	c395                	beqz	a5,ffffffc05020b338 <strncpy+0x6a>
ffffffc05020b316:	fcc42783          	lw	a5,-52(s0)
ffffffc05020b31a:	fff7871b          	addiw	a4,a5,-1
ffffffc05020b31e:	fce42623          	sw	a4,-52(s0)
ffffffc05020b322:	fcf045e3          	bgtz	a5,ffffffc05020b2ec <strncpy+0x1e>
ffffffc05020b326:	a809                	j	ffffffc05020b338 <strncpy+0x6a>
ffffffc05020b328:	fd843783          	ld	a5,-40(s0)
ffffffc05020b32c:	00178713          	addi	a4,a5,1
ffffffc05020b330:	fce43c23          	sd	a4,-40(s0)
ffffffc05020b334:	00078023          	sb	zero,0(a5)
ffffffc05020b338:	fcc42783          	lw	a5,-52(s0)
ffffffc05020b33c:	fff7871b          	addiw	a4,a5,-1
ffffffc05020b340:	fce42623          	sw	a4,-52(s0)
ffffffc05020b344:	fef042e3          	bgtz	a5,ffffffc05020b328 <strncpy+0x5a>
ffffffc05020b348:	fe843783          	ld	a5,-24(s0)
ffffffc05020b34c:	853e                	mv	a0,a5
ffffffc05020b34e:	7462                	ld	s0,56(sp)
ffffffc05020b350:	6121                	addi	sp,sp,64
ffffffc05020b352:	8082                	ret

ffffffc05020b354 <strcat>:
ffffffc05020b354:	7179                	addi	sp,sp,-48
ffffffc05020b356:	f422                	sd	s0,40(sp)
ffffffc05020b358:	1800                	addi	s0,sp,48
ffffffc05020b35a:	fca43c23          	sd	a0,-40(s0)
ffffffc05020b35e:	fcb43823          	sd	a1,-48(s0)
ffffffc05020b362:	fd843783          	ld	a5,-40(s0)
ffffffc05020b366:	fef43423          	sd	a5,-24(s0)
ffffffc05020b36a:	a031                	j	ffffffc05020b376 <strcat+0x22>
ffffffc05020b36c:	fd843783          	ld	a5,-40(s0)
ffffffc05020b370:	0785                	addi	a5,a5,1
ffffffc05020b372:	fcf43c23          	sd	a5,-40(s0)
ffffffc05020b376:	fd843783          	ld	a5,-40(s0)
ffffffc05020b37a:	0007c783          	lbu	a5,0(a5)
ffffffc05020b37e:	f7fd                	bnez	a5,ffffffc05020b36c <strcat+0x18>
ffffffc05020b380:	a00d                	j	ffffffc05020b3a2 <strcat+0x4e>
ffffffc05020b382:	fd043703          	ld	a4,-48(s0)
ffffffc05020b386:	00170793          	addi	a5,a4,1
ffffffc05020b38a:	fcf43823          	sd	a5,-48(s0)
ffffffc05020b38e:	fd843783          	ld	a5,-40(s0)
ffffffc05020b392:	00178693          	addi	a3,a5,1
ffffffc05020b396:	fcd43c23          	sd	a3,-40(s0)
ffffffc05020b39a:	00074703          	lbu	a4,0(a4)
ffffffc05020b39e:	00e78023          	sb	a4,0(a5)
ffffffc05020b3a2:	fd043783          	ld	a5,-48(s0)
ffffffc05020b3a6:	0007c783          	lbu	a5,0(a5)
ffffffc05020b3aa:	ffe1                	bnez	a5,ffffffc05020b382 <strcat+0x2e>
ffffffc05020b3ac:	fd843783          	ld	a5,-40(s0)
ffffffc05020b3b0:	00078023          	sb	zero,0(a5)
ffffffc05020b3b4:	fe843783          	ld	a5,-24(s0)
ffffffc05020b3b8:	853e                	mv	a0,a5
ffffffc05020b3ba:	7422                	ld	s0,40(sp)
ffffffc05020b3bc:	6145                	addi	sp,sp,48
ffffffc05020b3be:	8082                	ret
