
build/main:     file format elf64-littleriscv


Disassembly of section .text:

0000000050201000 <_start>:
    50201000:	10401073          	csrw	sie,zero
    50201004:	14401073          	csrw	sip,zero
    50201008:	f14022f3          	csrr	t0,mhartid
    5020100c:	02029563          	bnez	t0,50201036 <second_core>
    50201010:	00003297          	auipc	t0,0x3
    50201014:	3ec28293          	addi	t0,t0,1004 # 502043fc <_edata>
    50201018:	0000a317          	auipc	t1,0xa
    5020101c:	c4830313          	addi	t1,t1,-952 # 5020ac60 <__BSS_END__>
    50201020:	00000393          	li	t2,0

0000000050201024 <clbss>:
    50201024:	0072a023          	sw	t2,0(t0)
    50201028:	0291                	addi	t0,t0,4
    5020102a:	fe629de3          	bne	t0,t1,50201024 <clbss>
    5020102e:	50500137          	lui	sp,0x50500
    50201032:	010000ef          	jal	ra,50201042 <main>

0000000050201036 <second_core>:
    50201036:	50520137          	lui	sp,0x50520
    5020103a:	008000ef          	jal	ra,50201042 <main>

000000005020103e <loop>:
    5020103e:	a001                	j	5020103e <loop>
	...

0000000050201042 <main>:
    50201042:	7119                	addi	sp,sp,-128
    50201044:	f8a2                	sd	s0,112(sp)
    50201046:	f4a6                	sd	s1,104(sp)
    50201048:	f0ca                	sd	s2,96(sp)
    5020104a:	fc86                	sd	ra,120(sp)
    5020104c:	ecce                	sd	s3,88(sp)
    5020104e:	e8d2                	sd	s4,80(sp)
    50201050:	e4d6                	sd	s5,72(sp)
    50201052:	e0da                	sd	s6,64(sp)
    50201054:	fc5e                	sd	s7,56(sp)
    50201056:	f862                	sd	s8,48(sp)
    50201058:	f466                	sd	s9,40(sp)
    5020105a:	f06a                	sd	s10,32(sp)
    5020105c:	ec6e                	sd	s11,24(sp)
    5020105e:	892a                	mv	s2,a0
    50201060:	84ae                	mv	s1,a1
    50201062:	5fe000ef          	jal	ra,50201660 <get_current_cpu_id>
    50201066:	0005041b          	sext.w	s0,a0
    5020106a:	40041063          	bnez	s0,5020146a <main+0x428>
    5020106e:	3c3000ef          	jal	ra,50201c30 <init_page_valid>
    50201072:	520007b7          	lui	a5,0x52000
    50201076:	00000717          	auipc	a4,0x0
    5020107a:	64470713          	addi	a4,a4,1604 # 502016ba <port_write>
    5020107e:	4671                	li	a2,28
    50201080:	f0e7b023          	sd	a4,-256(a5) # 51ffff00 <__BSS_END__+0x1df52a0>
    50201084:	0296063b          	mulw	a2,a2,s1
    50201088:	00000717          	auipc	a4,0x0
    5020108c:	62070713          	addi	a4,a4,1568 # 502016a8 <port_write_ch>
    50201090:	f0e7b423          	sd	a4,-248(a5)
    50201094:	00000717          	auipc	a4,0x0
    50201098:	63870713          	addi	a4,a4,1592 # 502016cc <port_read_ch>
    5020109c:	f0e7b823          	sd	a4,-240(a5)
    502010a0:	00000717          	auipc	a4,0x0
    502010a4:	64a70713          	addi	a4,a4,1610 # 502016ea <sd_read>
    502010a8:	f0e7bc23          	sd	a4,-232(a5)
    502010ac:	00000717          	auipc	a4,0x0
    502010b0:	69070713          	addi	a4,a4,1680 # 5020173c <qemu_logging>
    502010b4:	f2e7b023          	sd	a4,-224(a5)
    502010b8:	00000717          	auipc	a4,0x0
    502010bc:	65c70713          	addi	a4,a4,1628 # 50201714 <set_timer>
    502010c0:	f2e7b423          	sd	a4,-216(a5)
    502010c4:	00000717          	auipc	a4,0x0
    502010c8:	66270713          	addi	a4,a4,1634 # 50201726 <read_fdt>
    502010cc:	f2e7b823          	sd	a4,-208(a5)
    502010d0:	00003717          	auipc	a4,0x3
    502010d4:	86a70713          	addi	a4,a4,-1942 # 5020393a <printk>
    502010d8:	f4e7b023          	sd	a4,-192(a5)
    502010dc:	00001717          	auipc	a4,0x1
    502010e0:	c4c70713          	addi	a4,a4,-948 # 50201d28 <do_mutex_lock_init>
    502010e4:	f4e7b823          	sd	a4,-176(a5)
    502010e8:	00000c17          	auipc	s8,0x0
    502010ec:	678c0c13          	addi	s8,s8,1656 # 50201760 <screen_move_cursor>
    502010f0:	00001717          	auipc	a4,0x1
    502010f4:	c6e70713          	addi	a4,a4,-914 # 50201d5e <do_mutex_lock_acquire>
    502010f8:	00002c97          	auipc	s9,0x2
    502010fc:	874c8c93          	addi	s9,s9,-1932 # 5020296c <do_scheduler>
    50201100:	00001b97          	auipc	s7,0x1
    50201104:	ce0b8b93          	addi	s7,s7,-800 # 50201de0 <do_mutex_lock_release>
    50201108:	520305b7          	lui	a1,0x52030
    5020110c:	f387bc23          	sd	s8,-200(a5)
    50201110:	f597b423          	sd	s9,-184(a5)
    50201114:	f4e7bc23          	sd	a4,-168(a5)
    50201118:	f777b023          	sd	s7,-160(a5)
    5020111c:	012585bb          	addw	a1,a1,s2
    50201120:	00005517          	auipc	a0,0x5
    50201124:	23050513          	addi	a0,a0,560 # 50206350 <tasks>
    50201128:	097020ef          	jal	ra,502039be <memcpy>
    5020112c:	0004879b          	sext.w	a5,s1
    50201130:	e43e                	sd	a5,8(sp)
    50201132:	14905963          	blez	s1,50201284 <main+0x242>
    50201136:	6a05                	lui	s4,0x1
    50201138:	00000997          	auipc	s3,0x0
    5020113c:	42498993          	addi	s3,s3,1060 # 5020155c <ret_from_exception>
    50201140:	00005497          	auipc	s1,0x5
    50201144:	21048493          	addi	s1,s1,528 # 50206350 <tasks>
    50201148:	00009d97          	auipc	s11,0x9
    5020114c:	ea0d8d93          	addi	s11,s11,-352 # 50209fe8 <pcb+0x88>
    50201150:	00003d17          	auipc	s10,0x3
    50201154:	110d0d13          	addi	s10,s10,272 # 50204260 <ready_queue>
    50201158:	a819                	j	5020116e <main+0x12c>
    5020115a:	8522                	mv	a0,s0
    5020115c:	247000ef          	jal	ra,50201ba2 <load_task_img>
    50201160:	67a2                	ld	a5,8(sp)
    50201162:	2405                	addiw	s0,s0,1
    50201164:	04f1                	addi	s1,s1,28
    50201166:	0b0d8d93          	addi	s11,s11,176
    5020116a:	10878d63          	beq	a5,s0,50201284 <main+0x242>
    5020116e:	00003597          	auipc	a1,0x3
    50201172:	9e258593          	addi	a1,a1,-1566 # 50203b50 <strcat+0x48>
    50201176:	8526                	mv	a0,s1
    50201178:	0bb020ef          	jal	ra,50203a32 <strcmp>
    5020117c:	fd79                	bnez	a0,5020115a <main+0x118>
    5020117e:	8522                	mv	a0,s0
    50201180:	223000ef          	jal	ra,50201ba2 <load_task_img>
    50201184:	892a                	mv	s2,a0
    50201186:	85a6                	mv	a1,s1
    50201188:	008d8513          	addi	a0,s11,8
    5020118c:	10f020ef          	jal	ra,50203a9a <strcpy>
    50201190:	01cd8593          	addi	a1,s11,28
    50201194:	4505                	li	a0,1
    50201196:	2d1000ef          	jal	ra,50201c66 <allocKernelPage>
    5020119a:	8b2a                	mv	s6,a0
    5020119c:	4a85                	li	s5,1
    5020119e:	024d8593          	addi	a1,s11,36
    502011a2:	4505                	li	a0,1
    502011a4:	015dac23          	sw	s5,24(s11)
    502011a8:	2fd000ef          	jal	ra,50201ca4 <allocUserPage>
    502011ac:	6785                	lui	a5,0x1
    502011ae:	ee078713          	addi	a4,a5,-288 # ee0 <TEXT_START-0x50200120>
    502011b2:	014505b3          	add	a1,a0,s4
    502011b6:	e7078793          	addi	a5,a5,-400
    502011ba:	00eb0633          	add	a2,s6,a4
    502011be:	f8bdb023          	sd	a1,-128(s11)
    502011c2:	035da023          	sw	s5,32(s11)
    502011c6:	9b3e                	add	s6,s6,a5
    502011c8:	02000793          	li	a5,32
    502011cc:	ea0c                	sd	a1,16(a2)
    502011ce:	01363423          	sd	s3,8(a2)
    502011d2:	11263423          	sd	s2,264(a2)
    502011d6:	10f63023          	sd	a5,256(a2)
    502011da:	85da                	mv	a1,s6
    502011dc:	00003517          	auipc	a0,0x3
    502011e0:	97c50513          	addi	a0,a0,-1668 # 50203b58 <strcat+0x50>
    502011e4:	f76dbc23          	sd	s6,-136(s11)
    502011e8:	7aa020ef          	jal	ra,50203992 <printl>
    502011ec:	00000597          	auipc	a1,0x0
    502011f0:	37058593          	addi	a1,a1,880 # 5020155c <ret_from_exception>
    502011f4:	013b3023          	sd	s3,0(s6)
    502011f8:	00003517          	auipc	a0,0x3
    502011fc:	97850513          	addi	a0,a0,-1672 # 50203b70 <strcat+0x68>
    50201200:	792020ef          	jal	ra,50203992 <printl>
    50201204:	85ca                	mv	a1,s2
    50201206:	00003517          	auipc	a0,0x3
    5020120a:	98a50513          	addi	a0,a0,-1654 # 50203b90 <strcat+0x88>
    5020120e:	784020ef          	jal	ra,50203992 <printl>
    50201212:	f78db583          	ld	a1,-136(s11)
    50201216:	00003517          	auipc	a0,0x3
    5020121a:	99a50513          	addi	a0,a0,-1638 # 50203bb0 <strcat+0xa8>
    5020121e:	00bb3423          	sd	a1,8(s6)
    50201222:	770020ef          	jal	ra,50203992 <printl>
    50201226:	fd8d8693          	addi	a3,s11,-40
    5020122a:	fa0da423          	sw	zero,-88(s11)
    5020122e:	fb5da623          	sw	s5,-84(s11)
    50201232:	0006a023          	sw	zero,0(a3)
    50201236:	0691                	addi	a3,a3,4
    50201238:	ffb69de3          	bne	a3,s11,50201232 <main+0x1f0>
    5020123c:	468d                	li	a3,3
    5020123e:	00dda023          	sw	a3,0(s11)
    50201242:	41e000ef          	jal	ra,50201660 <get_current_cpu_id>
    50201246:	008d3603          	ld	a2,8(s10)
    5020124a:	4689                	li	a3,2
    5020124c:	fadda823          	sw	a3,-80(s11)
    50201250:	00ada223          	sw	a0,4(s11)
    50201254:	fa0daa23          	sw	zero,-76(s11)
    50201258:	fa0dac23          	sw	zero,-72(s11)
    5020125c:	fc0db023          	sd	zero,-64(s11)
    50201260:	f88d8693          	addi	a3,s11,-120
    50201264:	23a60863          	beq	a2,s10,50201494 <main+0x452>
    50201268:	67a2                	ld	a5,8(sp)
    5020126a:	f8cdb423          	sd	a2,-120(s11)
    5020126e:	f9adb823          	sd	s10,-112(s11)
    50201272:	00dd3423          	sd	a3,8(s10)
    50201276:	e614                	sd	a3,8(a2)
    50201278:	2405                	addiw	s0,s0,1
    5020127a:	04f1                	addi	s1,s1,28
    5020127c:	0b0d8d93          	addi	s11,s11,176
    50201280:	ee8797e3          	bne	a5,s0,5020116e <main+0x12c>
    50201284:	00003797          	auipc	a5,0x3
    50201288:	09c78793          	addi	a5,a5,156 # 50204320 <pid0_pcb>
    5020128c:	00009717          	auipc	a4,0x9
    50201290:	ccf73223          	sd	a5,-828(a4) # 50209f50 <current_running>
    50201294:	00009717          	auipc	a4,0x9
    50201298:	ccf73223          	sd	a5,-828(a4) # 50209f58 <current_running_m>
    5020129c:	520007b7          	lui	a5,0x52000
    502012a0:	f307b783          	ld	a5,-208(a5) # 51ffff30 <__BSS_END__+0x1df52d0>
    502012a4:	4601                	li	a2,0
    502012a6:	4581                	li	a1,0
    502012a8:	4501                	li	a0,0
    502012aa:	9782                	jalr	a5
    502012ac:	85aa                	mv	a1,a0
    502012ae:	00003517          	auipc	a0,0x3
    502012b2:	88a50513          	addi	a0,a0,-1910 # 50203b38 <strcat+0x30>
    502012b6:	00003797          	auipc	a5,0x3
    502012ba:	14b7b523          	sd	a1,330(a5) # 50204400 <time_base>
    502012be:	6d4020ef          	jal	ra,50203992 <printl>
    502012c2:	249000ef          	jal	ra,50201d0a <init_locks>
    502012c6:	06b000ef          	jal	ra,50201b30 <init_exception>
    502012ca:	00009797          	auipc	a5,0x9
    502012ce:	79678793          	addi	a5,a5,1942 # 5020aa60 <syscall>
    502012d2:	00002717          	auipc	a4,0x2
    502012d6:	e4c70713          	addi	a4,a4,-436 # 5020311e <do_exec>
    502012da:	e398                	sd	a4,0(a5)
    502012dc:	00002717          	auipc	a4,0x2
    502012e0:	e6c70713          	addi	a4,a4,-404 # 50203148 <do_exit>
    502012e4:	e798                	sd	a4,8(a5)
    502012e6:	00002717          	auipc	a4,0x2
    502012ea:	abe70713          	addi	a4,a4,-1346 # 50202da4 <do_sleep>
    502012ee:	eb98                	sd	a4,16(a5)
    502012f0:	00002717          	auipc	a4,0x2
    502012f4:	f2070713          	addi	a4,a4,-224 # 50203210 <do_kill>
    502012f8:	ef98                	sd	a4,24(a5)
    502012fa:	00002717          	auipc	a4,0x2
    502012fe:	0d470713          	addi	a4,a4,212 # 502033ce <do_waitpid>
    50201302:	f398                	sd	a4,32(a5)
    50201304:	00002717          	auipc	a4,0x2
    50201308:	cb270713          	addi	a4,a4,-846 # 50202fb6 <do_process_show>
    5020130c:	f798                	sd	a4,40(a5)
    5020130e:	00002717          	auipc	a4,0x2
    50201312:	18270713          	addi	a4,a4,386 # 50203490 <do_getpid>
    50201316:	fb98                	sd	a4,48(a5)
    50201318:	00000717          	auipc	a4,0x0
    5020131c:	5a070713          	addi	a4,a4,1440 # 502018b8 <screen_write>
    50201320:	f3d8                	sd	a4,160(a5)
    50201322:	00000717          	auipc	a4,0x0
    50201326:	34470713          	addi	a4,a4,836 # 50201666 <bios_getchar>
    5020132a:	f7d8                	sd	a4,168(a5)
    5020132c:	00000717          	auipc	a4,0x0
    50201330:	45670713          	addi	a4,a4,1110 # 50201782 <screen_reflush>
    50201334:	ffd8                	sd	a4,184(a5)
    50201336:	00000717          	auipc	a4,0x0
    5020133a:	51c70713          	addi	a4,a4,1308 # 50201852 <screen_clear>
    5020133e:	e3f8                	sd	a4,192(a5)
    50201340:	00001717          	auipc	a4,0x1
    50201344:	19a70713          	addi	a4,a4,410 # 502024da <get_time_base>
    50201348:	fbf8                	sd	a4,240(a5)
    5020134a:	00001717          	auipc	a4,0x1
    5020134e:	16870713          	addi	a4,a4,360 # 502024b2 <get_ticks>
    50201352:	fff8                	sd	a4,248(a5)
    50201354:	00001717          	auipc	a4,0x1
    50201358:	9d470713          	addi	a4,a4,-1580 # 50201d28 <do_mutex_lock_init>
    5020135c:	14e7b023          	sd	a4,320(a5)
    50201360:	00001717          	auipc	a4,0x1
    50201364:	9fe70713          	addi	a4,a4,-1538 # 50201d5e <do_mutex_lock_acquire>
    50201368:	14e7b423          	sd	a4,328(a5)
    5020136c:	00001717          	auipc	a4,0x1
    50201370:	af270713          	addi	a4,a4,-1294 # 50201e5e <do_barrier_init>
    50201374:	16e7b023          	sd	a4,352(a5)
    50201378:	00001717          	auipc	a4,0x1
    5020137c:	b1a70713          	addi	a4,a4,-1254 # 50201e92 <do_barrier_wait>
    50201380:	16e7b423          	sd	a4,360(a5)
    50201384:	00001717          	auipc	a4,0x1
    50201388:	bf270713          	addi	a4,a4,-1038 # 50201f76 <do_barrier_destroy>
    5020138c:	16e7b823          	sd	a4,368(a5)
    50201390:	00001717          	auipc	a4,0x1
    50201394:	c0870713          	addi	a4,a4,-1016 # 50201f98 <do_condition_init>
    50201398:	16e7bc23          	sd	a4,376(a5)
    5020139c:	00001717          	auipc	a4,0x1
    502013a0:	c2070713          	addi	a4,a4,-992 # 50201fbc <do_condition_wait>
    502013a4:	18e7b023          	sd	a4,384(a5)
    502013a8:	00001717          	auipc	a4,0x1
    502013ac:	c7270713          	addi	a4,a4,-910 # 5020201a <do_condition_signal>
    502013b0:	18e7b423          	sd	a4,392(a5)
    502013b4:	00001717          	auipc	a4,0x1
    502013b8:	cc670713          	addi	a4,a4,-826 # 5020207a <do_condition_broadcast>
    502013bc:	18e7b823          	sd	a4,400(a5)
    502013c0:	00001717          	auipc	a4,0x1
    502013c4:	db470713          	addi	a4,a4,-588 # 50202174 <do_condition_destroy>
    502013c8:	18e7bc23          	sd	a4,408(a5)
    502013cc:	00001717          	auipc	a4,0x1
    502013d0:	e6870713          	addi	a4,a4,-408 # 50202234 <do_mbox_open>
    502013d4:	1ae7b023          	sd	a4,416(a5)
    502013d8:	00001717          	auipc	a4,0x1
    502013dc:	ec270713          	addi	a4,a4,-318 # 5020229a <do_mbox_close>
    502013e0:	1ae7b423          	sd	a4,424(a5)
    502013e4:	00001717          	auipc	a4,0x1
    502013e8:	ed870713          	addi	a4,a4,-296 # 502022bc <do_mbox_send>
    502013ec:	1ae7b823          	sd	a4,432(a5)
    502013f0:	00001717          	auipc	a4,0x1
    502013f4:	fa270713          	addi	a4,a4,-94 # 50202392 <do_mbox_recv>
    502013f8:	1ae7bc23          	sd	a4,440(a5)
    502013fc:	00002717          	auipc	a4,0x2
    50201400:	aba70713          	addi	a4,a4,-1350 # 50202eb6 <thread_create>
    50201404:	26e7b423          	sd	a4,616(a5)
    50201408:	00009717          	auipc	a4,0x9
    5020140c:	7a073823          	sd	zero,1968(a4) # 5020abb8 <syscall+0x158>
    50201410:	0397bc23          	sd	s9,56(a5)
    50201414:	0b87b823          	sd	s8,176(a5)
    50201418:	1577b823          	sd	s7,336(a5)
    5020141c:	00002717          	auipc	a4,0x2
    50201420:	08070713          	addi	a4,a4,128 # 5020349c <taskset_exec>
    50201424:	26e7b823          	sd	a4,624(a5)
    50201428:	00002717          	auipc	a4,0x2
    5020142c:	12670713          	addi	a4,a4,294 # 5020354e <taskset>
    50201430:	26e7bc23          	sd	a4,632(a5)
    50201434:	45e000ef          	jal	ra,50201892 <init_screen>
    50201438:	4785                	li	a5,1
    5020143a:	00009717          	auipc	a4,0x9
    5020143e:	acf72723          	sw	a5,-1330(a4) # 50209f08 <pid_valid>
    50201442:	00009717          	auipc	a4,0x9
    50201446:	b0670713          	addi	a4,a4,-1274 # 50209f48 <current_running_n>
    5020144a:	00009797          	auipc	a5,0x9
    5020144e:	ac278793          	addi	a5,a5,-1342 # 50209f0c <pid_valid+0x4>
    50201452:	0007a023          	sw	zero,0(a5)
    50201456:	0791                	addi	a5,a5,4
    50201458:	fef71de3          	bne	a4,a5,50201452 <main+0x410>
    5020145c:	034010ef          	jal	ra,50202490 <lock_kernel>
    50201460:	7ff000ef          	jal	ra,5020245e <wakeup_other_hart>
    50201464:	04c000ef          	jal	ra,502014b0 <enable_preempt>
    50201468:	a839                	j	50201486 <main+0x444>
    5020146a:	026010ef          	jal	ra,50202490 <lock_kernel>
    5020146e:	1d6000ef          	jal	ra,50201644 <setup_exception>
    50201472:	00003797          	auipc	a5,0x3
    50201476:	dfe78793          	addi	a5,a5,-514 # 50204270 <pidn_pcb>
    5020147a:	00009717          	auipc	a4,0x9
    5020147e:	acf73723          	sd	a5,-1330(a4) # 50209f48 <current_running_n>
    50201482:	02e000ef          	jal	ra,502014b0 <enable_preempt>
    50201486:	4e6010ef          	jal	ra,5020296c <do_scheduler>
    5020148a:	01e010ef          	jal	ra,502024a8 <unlock_kernel>
    5020148e:	002010ef          	jal	ra,50202490 <lock_kernel>
    50201492:	bfd5                	j	50201486 <main+0x444>
    50201494:	000d3583          	ld	a1,0(s10)
    50201498:	dda598e3          	bne	a1,s10,50201268 <main+0x226>
    5020149c:	00dd3023          	sd	a3,0(s10)
    502014a0:	00dd3423          	sd	a3,8(s10)
    502014a4:	f9adb423          	sd	s10,-120(s11)
    502014a8:	f9adb823          	sd	s10,-112(s11)
    502014ac:	b955                	j	50201160 <main+0x11e>
	...

00000000502014b0 <enable_preempt>:
    502014b0:	fff04293          	not	t0,zero
    502014b4:	1042a073          	csrs	sie,t0
    502014b8:	8082                	ret
    502014ba:	0001                	nop

00000000502014bc <disable_preempt>:
    502014bc:	10401073          	csrw	sie,zero
    502014c0:	8082                	ret
    502014c2:	0001                	nop

00000000502014c4 <enable_interrupt>:
    502014c4:	4289                	li	t0,2
    502014c6:	1002a073          	csrs	sstatus,t0
    502014ca:	8082                	ret

00000000502014cc <disable_interrupt>:
    502014cc:	4289                	li	t0,2
    502014ce:	1002b073          	csrc	sstatus,t0
    502014d2:	8082                	ret

00000000502014d4 <clear_sip>:
    502014d4:	14401073          	csrw	sip,zero
    502014d8:	8082                	ret
    502014da:	0001                	nop

00000000502014dc <switch_to>:
    502014dc:	00053283          	ld	t0,0(a0)
    502014e0:	0012b023          	sd	ra,0(t0)
    502014e4:	0022b423          	sd	sp,8(t0)
    502014e8:	0082b823          	sd	s0,16(t0)
    502014ec:	0092bc23          	sd	s1,24(t0)
    502014f0:	0322b023          	sd	s2,32(t0)
    502014f4:	0332b423          	sd	s3,40(t0)
    502014f8:	0342b823          	sd	s4,48(t0)
    502014fc:	0352bc23          	sd	s5,56(t0)
    50201500:	0562b023          	sd	s6,64(t0)
    50201504:	0572b423          	sd	s7,72(t0)
    50201508:	0582b823          	sd	s8,80(t0)
    5020150c:	0592bc23          	sd	s9,88(t0)
    50201510:	07a2b023          	sd	s10,96(t0)
    50201514:	07b2b423          	sd	s11,104(t0)
    50201518:	0005b283          	ld	t0,0(a1)
    5020151c:	0002b083          	ld	ra,0(t0)
    50201520:	0082b103          	ld	sp,8(t0)
    50201524:	0102b403          	ld	s0,16(t0)
    50201528:	0182b483          	ld	s1,24(t0)
    5020152c:	0202b903          	ld	s2,32(t0)
    50201530:	0282b983          	ld	s3,40(t0)
    50201534:	0302ba03          	ld	s4,48(t0)
    50201538:	0382ba83          	ld	s5,56(t0)
    5020153c:	0402bb03          	ld	s6,64(t0)
    50201540:	0482bb83          	ld	s7,72(t0)
    50201544:	0502bc03          	ld	s8,80(t0)
    50201548:	0582bc83          	ld	s9,88(t0)
    5020154c:	0602bd03          	ld	s10,96(t0)
    50201550:	0682bd83          	ld	s11,104(t0)
    50201554:	00058213          	mv	tp,a1
    50201558:	8082                	ret
    5020155a:	0001                	nop

000000005020155c <ret_from_exception>:
    5020155c:	74d000ef          	jal	ra,502024a8 <unlock_kernel>
    50201560:	00023103          	ld	sp,0(tp) # 0 <TEXT_START-0x50201000>
    50201564:	6165                	addi	sp,sp,112
    50201566:	62b2                	ld	t0,264(sp)
    50201568:	14129073          	csrw	sepc,t0
    5020156c:	6292                	ld	t0,256(sp)
    5020156e:	10029073          	csrw	sstatus,t0
    50201572:	60a2                	ld	ra,8(sp)
    50201574:	61e2                	ld	gp,24(sp)
    50201576:	72a2                	ld	t0,40(sp)
    50201578:	7342                	ld	t1,48(sp)
    5020157a:	73e2                	ld	t2,56(sp)
    5020157c:	6406                	ld	s0,64(sp)
    5020157e:	64a6                	ld	s1,72(sp)
    50201580:	6546                	ld	a0,80(sp)
    50201582:	65e6                	ld	a1,88(sp)
    50201584:	7606                	ld	a2,96(sp)
    50201586:	76a6                	ld	a3,104(sp)
    50201588:	7746                	ld	a4,112(sp)
    5020158a:	77e6                	ld	a5,120(sp)
    5020158c:	680a                	ld	a6,128(sp)
    5020158e:	68aa                	ld	a7,136(sp)
    50201590:	694a                	ld	s2,144(sp)
    50201592:	69ea                	ld	s3,152(sp)
    50201594:	7a0a                	ld	s4,160(sp)
    50201596:	7aaa                	ld	s5,168(sp)
    50201598:	7b4a                	ld	s6,176(sp)
    5020159a:	7bea                	ld	s7,184(sp)
    5020159c:	6c0e                	ld	s8,192(sp)
    5020159e:	6cae                	ld	s9,200(sp)
    502015a0:	6d4e                	ld	s10,208(sp)
    502015a2:	6dee                	ld	s11,216(sp)
    502015a4:	7e0e                	ld	t3,224(sp)
    502015a6:	7eae                	ld	t4,232(sp)
    502015a8:	7f4e                	ld	t5,240(sp)
    502015aa:	7fee                	ld	t6,248(sp)
    502015ac:	6142                	ld	sp,16(sp)
    502015ae:	10200073          	sret
    502015b2:	0001                	nop

00000000502015b4 <exception_handler_entry>:
    502015b4:	00223423          	sd	sp,8(tp) # 8 <TEXT_START-0x50200ff8>
    502015b8:	00023103          	ld	sp,0(tp) # 0 <TEXT_START-0x50201000>
    502015bc:	6165                	addi	sp,sp,112
    502015be:	e002                	sd	zero,0(sp)
    502015c0:	e406                	sd	ra,8(sp)
    502015c2:	ec0e                	sd	gp,24(sp)
    502015c4:	f416                	sd	t0,40(sp)
    502015c6:	f81a                	sd	t1,48(sp)
    502015c8:	fc1e                	sd	t2,56(sp)
    502015ca:	e0a2                	sd	s0,64(sp)
    502015cc:	e4a6                	sd	s1,72(sp)
    502015ce:	e8aa                	sd	a0,80(sp)
    502015d0:	ecae                	sd	a1,88(sp)
    502015d2:	f0b2                	sd	a2,96(sp)
    502015d4:	f4b6                	sd	a3,104(sp)
    502015d6:	f8ba                	sd	a4,112(sp)
    502015d8:	fcbe                	sd	a5,120(sp)
    502015da:	e142                	sd	a6,128(sp)
    502015dc:	e546                	sd	a7,136(sp)
    502015de:	e94a                	sd	s2,144(sp)
    502015e0:	ed4e                	sd	s3,152(sp)
    502015e2:	f152                	sd	s4,160(sp)
    502015e4:	f556                	sd	s5,168(sp)
    502015e6:	f95a                	sd	s6,176(sp)
    502015e8:	fd5e                	sd	s7,184(sp)
    502015ea:	e1e2                	sd	s8,192(sp)
    502015ec:	e5e6                	sd	s9,200(sp)
    502015ee:	e9ea                	sd	s10,208(sp)
    502015f0:	edee                	sd	s11,216(sp)
    502015f2:	f1f2                	sd	t3,224(sp)
    502015f4:	f5f6                	sd	t4,232(sp)
    502015f6:	f9fa                	sd	t5,240(sp)
    502015f8:	fdfe                	sd	t6,248(sp)
    502015fa:	00823283          	ld	t0,8(tp) # 8 <TEXT_START-0x50200ff8>
    502015fe:	e816                	sd	t0,16(sp)
    50201600:	000462b7          	lui	t0,0x46
    50201604:	1002b073          	csrc	sstatus,t0
    50201608:	100022f3          	csrr	t0,sstatus
    5020160c:	e216                	sd	t0,256(sp)
    5020160e:	141022f3          	csrr	t0,sepc
    50201612:	e616                	sd	t0,264(sp)
    50201614:	143022f3          	csrr	t0,stval
    50201618:	ea16                	sd	t0,272(sp)
    5020161a:	142022f3          	csrr	t0,scause
    5020161e:	ee16                	sd	t0,280(sp)
    50201620:	00823103          	ld	sp,8(tp) # 8 <TEXT_START-0x50200ff8>
    50201624:	00023283          	ld	t0,0(tp) # 0 <TEXT_START-0x50201000>
    50201628:	07028513          	addi	a0,t0,112 # 46070 <TEXT_START-0x501baf90>
    5020162c:	143025f3          	csrr	a1,stval
    50201630:	14202673          	csrr	a2,scause
    50201634:	48a000ef          	jal	ra,50201abe <interrupt_helper>
    50201638:	00000097          	auipc	ra,0x0
    5020163c:	f2408093          	addi	ra,ra,-220 # 5020155c <ret_from_exception>
    50201640:	8082                	ret
	...

0000000050201644 <setup_exception>:
    50201644:	00000297          	auipc	t0,0x0
    50201648:	f7028293          	addi	t0,t0,-144 # 502015b4 <exception_handler_entry>
    5020164c:	10529073          	csrw	stvec,t0
    50201650:	00008313          	mv	t1,ra
    50201654:	e71ff0ef          	jal	ra,502014c4 <enable_interrupt>
    50201658:	00030093          	mv	ra,t1
    5020165c:	8082                	ret
	...

0000000050201660 <get_current_cpu_id>:
    50201660:	f1402573          	csrr	a0,mhartid
    50201664:	8082                	ret

0000000050201666 <bios_getchar>:
    50201666:	520007b7          	lui	a5,0x52000
    5020166a:	f107b783          	ld	a5,-240(a5) # 51ffff10 <__BSS_END__+0x1df52b0>
    5020166e:	1141                	addi	sp,sp,-16
    50201670:	e406                	sd	ra,8(sp)
    50201672:	4601                	li	a2,0
    50201674:	4581                	li	a1,0
    50201676:	4501                	li	a0,0
    50201678:	9782                	jalr	a5
    5020167a:	60a2                	ld	ra,8(sp)
    5020167c:	2501                	sext.w	a0,a0
    5020167e:	0141                	addi	sp,sp,16
    50201680:	8082                	ret

0000000050201682 <init_pid_valid>:
    50201682:	4785                	li	a5,1
    50201684:	00009717          	auipc	a4,0x9
    50201688:	88f72223          	sw	a5,-1916(a4) # 50209f08 <pid_valid>
    5020168c:	00009717          	auipc	a4,0x9
    50201690:	8bc70713          	addi	a4,a4,-1860 # 50209f48 <current_running_n>
    50201694:	00009797          	auipc	a5,0x9
    50201698:	87878793          	addi	a5,a5,-1928 # 50209f0c <pid_valid+0x4>
    5020169c:	0007a023          	sw	zero,0(a5)
    502016a0:	0791                	addi	a5,a5,4
    502016a2:	fee79de3          	bne	a5,a4,5020169c <init_pid_valid+0x1a>
    502016a6:	8082                	ret

00000000502016a8 <port_write_ch>:
    502016a8:	85aa                	mv	a1,a0
    502016aa:	4781                	li	a5,0
    502016ac:	4701                	li	a4,0
    502016ae:	4681                	li	a3,0
    502016b0:	4601                	li	a2,0
    502016b2:	4505                	li	a0,1
    502016b4:	50150337          	lui	t1,0x50150
    502016b8:	8302                	jr	t1

00000000502016ba <port_write>:
    502016ba:	85aa                	mv	a1,a0
    502016bc:	4781                	li	a5,0
    502016be:	4701                	li	a4,0
    502016c0:	4681                	li	a3,0
    502016c2:	4601                	li	a2,0
    502016c4:	4525                	li	a0,9
    502016c6:	50150337          	lui	t1,0x50150
    502016ca:	8302                	jr	t1

00000000502016cc <port_read_ch>:
    502016cc:	1141                	addi	sp,sp,-16
    502016ce:	e406                	sd	ra,8(sp)
    502016d0:	4781                	li	a5,0
    502016d2:	4701                	li	a4,0
    502016d4:	4681                	li	a3,0
    502016d6:	4601                	li	a2,0
    502016d8:	4581                	li	a1,0
    502016da:	4509                	li	a0,2
    502016dc:	50150837          	lui	a6,0x50150
    502016e0:	9802                	jalr	a6
    502016e2:	60a2                	ld	ra,8(sp)
    502016e4:	2501                	sext.w	a0,a0
    502016e6:	0141                	addi	sp,sp,16
    502016e8:	8082                	ret

00000000502016ea <sd_read>:
    502016ea:	1141                	addi	sp,sp,-16
    502016ec:	02061693          	slli	a3,a2,0x20
    502016f0:	02059613          	slli	a2,a1,0x20
    502016f4:	02051593          	slli	a1,a0,0x20
    502016f8:	e406                	sd	ra,8(sp)
    502016fa:	4781                	li	a5,0
    502016fc:	4701                	li	a4,0
    502016fe:	9281                	srli	a3,a3,0x20
    50201700:	9201                	srli	a2,a2,0x20
    50201702:	9181                	srli	a1,a1,0x20
    50201704:	452d                	li	a0,11
    50201706:	50150837          	lui	a6,0x50150
    5020170a:	9802                	jalr	a6
    5020170c:	60a2                	ld	ra,8(sp)
    5020170e:	2501                	sext.w	a0,a0
    50201710:	0141                	addi	sp,sp,16
    50201712:	8082                	ret

0000000050201714 <set_timer>:
    50201714:	85aa                	mv	a1,a0
    50201716:	4781                	li	a5,0
    50201718:	4701                	li	a4,0
    5020171a:	4681                	li	a3,0
    5020171c:	4601                	li	a2,0
    5020171e:	4501                	li	a0,0
    50201720:	50150337          	lui	t1,0x50150
    50201724:	8302                	jr	t1

0000000050201726 <read_fdt>:
    50201726:	02051593          	slli	a1,a0,0x20
    5020172a:	4781                	li	a5,0
    5020172c:	4701                	li	a4,0
    5020172e:	4681                	li	a3,0
    50201730:	4601                	li	a2,0
    50201732:	9181                	srli	a1,a1,0x20
    50201734:	4531                	li	a0,12
    50201736:	50150337          	lui	t1,0x50150
    5020173a:	8302                	jr	t1

000000005020173c <qemu_logging>:
    5020173c:	85aa                	mv	a1,a0
    5020173e:	4781                	li	a5,0
    50201740:	4701                	li	a4,0
    50201742:	4681                	li	a3,0
    50201744:	4601                	li	a2,0
    50201746:	4539                	li	a0,14
    50201748:	50150337          	lui	t1,0x50150
    5020174c:	8302                	jr	t1

000000005020174e <send_ipi>:
    5020174e:	85aa                	mv	a1,a0
    50201750:	4781                	li	a5,0
    50201752:	4701                	li	a4,0
    50201754:	4681                	li	a3,0
    50201756:	4601                	li	a2,0
    50201758:	4511                	li	a0,4
    5020175a:	50150337          	lui	t1,0x50150
    5020175e:	8302                	jr	t1

0000000050201760 <screen_move_cursor>:
    50201760:	00008797          	auipc	a5,0x8
    50201764:	7f078793          	addi	a5,a5,2032 # 50209f50 <current_running>
    50201768:	6398                	ld	a4,0(a5)
    5020176a:	639c                	ld	a5,0(a5)
    5020176c:	86aa                	mv	a3,a0
    5020176e:	df48                	sw	a0,60(a4)
    50201770:	862e                	mv	a2,a1
    50201772:	c3ac                	sw	a1,64(a5)
    50201774:	00002517          	auipc	a0,0x2
    50201778:	45c50513          	addi	a0,a0,1116 # 50203bd0 <strcat+0xc8>
    5020177c:	45ed                	li	a1,27
    5020177e:	1e80206f          	j	50203966 <printv>

0000000050201782 <screen_reflush>:
    50201782:	711d                	addi	sp,sp,-96
    50201784:	f05a                	sd	s6,32(sp)
    50201786:	00003b17          	auipc	s6,0x3
    5020178a:	c8ab0b13          	addi	s6,s6,-886 # 50204410 <old_screen>
    5020178e:	e0ca                	sd	s2,64(sp)
    50201790:	fc4e                	sd	s3,56(sp)
    50201792:	f456                	sd	s5,40(sp)
    50201794:	ec5e                	sd	s7,24(sp)
    50201796:	e862                	sd	s8,16(sp)
    50201798:	e466                	sd	s9,8(sp)
    5020179a:	ec86                	sd	ra,88(sp)
    5020179c:	e8a2                	sd	s0,80(sp)
    5020179e:	e4a6                	sd	s1,72(sp)
    502017a0:	f852                	sd	s4,48(sp)
    502017a2:	00003997          	auipc	s3,0x3
    502017a6:	cbe98993          	addi	s3,s3,-834 # 50204460 <old_screen+0x50>
    502017aa:	00004b97          	auipc	s7,0x4
    502017ae:	c06b8b93          	addi	s7,s7,-1018 # 502053b0 <new_screen>
    502017b2:	41600b3b          	negw	s6,s6
    502017b6:	4901                	li	s2,0
    502017b8:	00002c97          	auipc	s9,0x2
    502017bc:	418c8c93          	addi	s9,s9,1048 # 50203bd0 <strcat+0xc8>
    502017c0:	52000ab7          	lui	s5,0x52000
    502017c4:	03200c13          	li	s8,50
    502017c8:	2905                	addiw	s2,s2,1
    502017ca:	fb098413          	addi	s0,s3,-80
    502017ce:	84de                	mv	s1,s7
    502017d0:	001b0a1b          	addiw	s4,s6,1
    502017d4:	0004c703          	lbu	a4,0(s1)
    502017d8:	00044783          	lbu	a5,0(s0)
    502017dc:	864a                	mv	a2,s2
    502017de:	45ed                	li	a1,27
    502017e0:	8566                	mv	a0,s9
    502017e2:	008a06bb          	addw	a3,s4,s0
    502017e6:	00f70f63          	beq	a4,a5,50201804 <screen_reflush+0x82>
    502017ea:	17c020ef          	jal	ra,50203966 <printv>
    502017ee:	f08ab783          	ld	a5,-248(s5) # 51ffff08 <__BSS_END__+0x1df52a8>
    502017f2:	0004c503          	lbu	a0,0(s1)
    502017f6:	4601                	li	a2,0
    502017f8:	4581                	li	a1,0
    502017fa:	9782                	jalr	a5
    502017fc:	0004c783          	lbu	a5,0(s1)
    50201800:	00f40023          	sb	a5,0(s0)
    50201804:	0405                	addi	s0,s0,1
    50201806:	0485                	addi	s1,s1,1
    50201808:	fd3416e3          	bne	s0,s3,502017d4 <screen_reflush+0x52>
    5020180c:	05040993          	addi	s3,s0,80
    50201810:	050b8b93          	addi	s7,s7,80
    50201814:	fb0b0b1b          	addiw	s6,s6,-80
    50201818:	fb8918e3          	bne	s2,s8,502017c8 <screen_reflush+0x46>
    5020181c:	00008797          	auipc	a5,0x8
    50201820:	73478793          	addi	a5,a5,1844 # 50209f50 <current_running>
    50201824:	6398                	ld	a4,0(a5)
    50201826:	639c                	ld	a5,0(a5)
    50201828:	6446                	ld	s0,80(sp)
    5020182a:	60e6                	ld	ra,88(sp)
    5020182c:	64a6                	ld	s1,72(sp)
    5020182e:	6906                	ld	s2,64(sp)
    50201830:	79e2                	ld	s3,56(sp)
    50201832:	7a42                	ld	s4,48(sp)
    50201834:	7aa2                	ld	s5,40(sp)
    50201836:	7b02                	ld	s6,32(sp)
    50201838:	6be2                	ld	s7,24(sp)
    5020183a:	6c42                	ld	s8,16(sp)
    5020183c:	6ca2                	ld	s9,8(sp)
    5020183e:	5f54                	lw	a3,60(a4)
    50201840:	43b0                	lw	a2,64(a5)
    50201842:	45ed                	li	a1,27
    50201844:	00002517          	auipc	a0,0x2
    50201848:	38c50513          	addi	a0,a0,908 # 50203bd0 <strcat+0xc8>
    5020184c:	6125                	addi	sp,sp,96
    5020184e:	1180206f          	j	50203966 <printv>

0000000050201852 <screen_clear>:
    50201852:	00004717          	auipc	a4,0x4
    50201856:	bae70713          	addi	a4,a4,-1106 # 50205400 <new_screen+0x50>
    5020185a:	00005617          	auipc	a2,0x5
    5020185e:	b4660613          	addi	a2,a2,-1210 # 502063a0 <tasks+0x50>
    50201862:	02000693          	li	a3,32
    50201866:	fb070793          	addi	a5,a4,-80
    5020186a:	00d78023          	sb	a3,0(a5)
    5020186e:	0785                	addi	a5,a5,1
    50201870:	fee79de3          	bne	a5,a4,5020186a <screen_clear+0x18>
    50201874:	05078713          	addi	a4,a5,80
    50201878:	fec717e3          	bne	a4,a2,50201866 <screen_clear+0x14>
    5020187c:	00008797          	auipc	a5,0x8
    50201880:	6d478793          	addi	a5,a5,1748 # 50209f50 <current_running>
    50201884:	6398                	ld	a4,0(a5)
    50201886:	639c                	ld	a5,0(a5)
    50201888:	02072e23          	sw	zero,60(a4)
    5020188c:	0407a023          	sw	zero,64(a5)
    50201890:	bdcd                	j	50201782 <screen_reflush>

0000000050201892 <init_screen>:
    50201892:	1141                	addi	sp,sp,-16
    50201894:	45ed                	li	a1,27
    50201896:	00002517          	auipc	a0,0x2
    5020189a:	34a50513          	addi	a0,a0,842 # 50203be0 <strcat+0xd8>
    5020189e:	e406                	sd	ra,8(sp)
    502018a0:	0c6020ef          	jal	ra,50203966 <printv>
    502018a4:	45ed                	li	a1,27
    502018a6:	00002517          	auipc	a0,0x2
    502018aa:	34250513          	addi	a0,a0,834 # 50203be8 <strcat+0xe0>
    502018ae:	0b8020ef          	jal	ra,50203966 <printv>
    502018b2:	60a2                	ld	ra,8(sp)
    502018b4:	0141                	addi	sp,sp,16
    502018b6:	bf71                	j	50201852 <screen_clear>

00000000502018b8 <screen_write>:
    502018b8:	715d                	addi	sp,sp,-80
    502018ba:	e0a2                	sd	s0,64(sp)
    502018bc:	e486                	sd	ra,72(sp)
    502018be:	fc26                	sd	s1,56(sp)
    502018c0:	f84a                	sd	s2,48(sp)
    502018c2:	f44e                	sd	s3,40(sp)
    502018c4:	f052                	sd	s4,32(sp)
    502018c6:	ec56                	sd	s5,24(sp)
    502018c8:	e85a                	sd	s6,16(sp)
    502018ca:	e45e                	sd	s7,8(sp)
    502018cc:	842a                	mv	s0,a0
    502018ce:	144020ef          	jal	ra,50203a12 <strlen>
    502018d2:	08a05663          	blez	a0,5020195e <screen_write+0xa6>
    502018d6:	357d                	addiw	a0,a0,-1
    502018d8:	1502                	slli	a0,a0,0x20
    502018da:	00140493          	addi	s1,s0,1
    502018de:	9101                	srli	a0,a0,0x20
    502018e0:	94aa                	add	s1,s1,a0
    502018e2:	00008b97          	auipc	s7,0x8
    502018e6:	66eb8b93          	addi	s7,s7,1646 # 50209f50 <current_running>
    502018ea:	4929                	li	s2,10
    502018ec:	49a1                	li	s3,8
    502018ee:	00004a17          	auipc	s4,0x4
    502018f2:	ac2a0a13          	addi	s4,s4,-1342 # 502053b0 <new_screen>
    502018f6:	02000b13          	li	s6,32
    502018fa:	07f00a93          	li	s5,127
    502018fe:	a835                	j	5020193a <screen_write+0x82>
    50201900:	07378a63          	beq	a5,s3,50201974 <screen_write+0xbc>
    50201904:	07578863          	beq	a5,s5,50201974 <screen_write+0xbc>
    50201908:	000bb603          	ld	a2,0(s7)
    5020190c:	000bb703          	ld	a4,0(s7)
    50201910:	000bb683          	ld	a3,0(s7)
    50201914:	4230                	lw	a2,64(a2)
    50201916:	5f4c                	lw	a1,60(a4)
    50201918:	0026171b          	slliw	a4,a2,0x2
    5020191c:	9f31                	addw	a4,a4,a2
    5020191e:	0047171b          	slliw	a4,a4,0x4
    50201922:	9f2d                	addw	a4,a4,a1
    50201924:	9752                	add	a4,a4,s4
    50201926:	00f70023          	sb	a5,0(a4)
    5020192a:	5edc                	lw	a5,60(a3)
    5020192c:	2785                	addiw	a5,a5,1
    5020192e:	dedc                	sw	a5,60(a3)
    50201930:	0405                	addi	s0,s0,1
    50201932:	e51ff0ef          	jal	ra,50201782 <screen_reflush>
    50201936:	02940463          	beq	s0,s1,5020195e <screen_write+0xa6>
    5020193a:	00044783          	lbu	a5,0(s0)
    5020193e:	fd2791e3          	bne	a5,s2,50201900 <screen_write+0x48>
    50201942:	000bb783          	ld	a5,0(s7)
    50201946:	000bb703          	ld	a4,0(s7)
    5020194a:	0405                	addi	s0,s0,1
    5020194c:	0207ae23          	sw	zero,60(a5)
    50201950:	433c                	lw	a5,64(a4)
    50201952:	2785                	addiw	a5,a5,1
    50201954:	c33c                	sw	a5,64(a4)
    50201956:	e2dff0ef          	jal	ra,50201782 <screen_reflush>
    5020195a:	fe9410e3          	bne	s0,s1,5020193a <screen_write+0x82>
    5020195e:	60a6                	ld	ra,72(sp)
    50201960:	6406                	ld	s0,64(sp)
    50201962:	74e2                	ld	s1,56(sp)
    50201964:	7942                	ld	s2,48(sp)
    50201966:	79a2                	ld	s3,40(sp)
    50201968:	7a02                	ld	s4,32(sp)
    5020196a:	6ae2                	ld	s5,24(sp)
    5020196c:	6b42                	ld	s6,16(sp)
    5020196e:	6ba2                	ld	s7,8(sp)
    50201970:	6161                	addi	sp,sp,80
    50201972:	8082                	ret
    50201974:	000bb783          	ld	a5,0(s7)
    50201978:	000bb683          	ld	a3,0(s7)
    5020197c:	000bb603          	ld	a2,0(s7)
    50201980:	5fd8                	lw	a4,60(a5)
    50201982:	42b4                	lw	a3,64(a3)
    50201984:	377d                	addiw	a4,a4,-1
    50201986:	dfd8                	sw	a4,60(a5)
    50201988:	5e58                	lw	a4,60(a2)
    5020198a:	0026979b          	slliw	a5,a3,0x2
    5020198e:	9fb5                	addw	a5,a5,a3
    50201990:	0047979b          	slliw	a5,a5,0x4
    50201994:	9fb9                	addw	a5,a5,a4
    50201996:	97d2                	add	a5,a5,s4
    50201998:	01678023          	sb	s6,0(a5)
    5020199c:	bf51                	j	50201930 <screen_write+0x78>

000000005020199e <handle_irq_timer>:
    5020199e:	1141                	addi	sp,sp,-16
    502019a0:	e406                	sd	ra,8(sp)
    502019a2:	311000ef          	jal	ra,502024b2 <get_ticks>
    502019a6:	520007b7          	lui	a5,0x52000
    502019aa:	f287b703          	ld	a4,-216(a5) # 51ffff28 <__BSS_END__+0x1df52c8>
    502019ae:	67b1                	lui	a5,0xc
    502019b0:	35078793          	addi	a5,a5,848 # c350 <TEXT_START-0x501f4cb0>
    502019b4:	4601                	li	a2,0
    502019b6:	4581                	li	a1,0
    502019b8:	953e                	add	a0,a0,a5
    502019ba:	9702                	jalr	a4
    502019bc:	60a2                	ld	ra,8(sp)
    502019be:	0141                	addi	sp,sp,16
    502019c0:	7ad0006f          	j	5020296c <do_scheduler>

00000000502019c4 <handle_other>:
    502019c4:	7149                	addi	sp,sp,-368
    502019c6:	e2d2                	sd	s4,320(sp)
    502019c8:	ea6a                	sd	s10,272(sp)
    502019ca:	e66e                	sd	s11,264(sp)
    502019cc:	f686                	sd	ra,360(sp)
    502019ce:	f2a2                	sd	s0,352(sp)
    502019d0:	eea6                	sd	s1,344(sp)
    502019d2:	eaca                	sd	s2,336(sp)
    502019d4:	e6ce                	sd	s3,328(sp)
    502019d6:	fe56                	sd	s5,312(sp)
    502019d8:	fa5a                	sd	s6,304(sp)
    502019da:	f65e                	sd	s7,296(sp)
    502019dc:	f262                	sd	s8,288(sp)
    502019de:	ee66                	sd	s9,280(sp)
    502019e0:	8a2a                	mv	s4,a0
    502019e2:	8d2e                	mv	s10,a1
    502019e4:	8db2                	mv	s11,a2
    502019e6:	00002797          	auipc	a5,0x2
    502019ea:	3f278793          	addi	a5,a5,1010 # 50203dd8 <strcat+0x2d0>
    502019ee:	870a                	mv	a4,sp
    502019f0:	00002817          	auipc	a6,0x2
    502019f4:	4e880813          	addi	a6,a6,1256 # 50203ed8 <__FUNCTION__.1368>
    502019f8:	6388                	ld	a0,0(a5)
    502019fa:	678c                	ld	a1,8(a5)
    502019fc:	6b90                	ld	a2,16(a5)
    502019fe:	6f94                	ld	a3,24(a5)
    50201a00:	e308                	sd	a0,0(a4)
    50201a02:	e70c                	sd	a1,8(a4)
    50201a04:	eb10                	sd	a2,16(a4)
    50201a06:	ef14                	sd	a3,24(a4)
    50201a08:	02078793          	addi	a5,a5,32
    50201a0c:	02070713          	addi	a4,a4,32
    50201a10:	ff0794e3          	bne	a5,a6,502019f8 <handle_other+0x34>
    50201a14:	4a81                	li	s5,0
    50201a16:	490d                	li	s2,3
    50201a18:	4981                	li	s3,0
    50201a1a:	4bfd                	li	s7,31
    50201a1c:	00002b17          	auipc	s6,0x2
    50201a20:	2d4b0b13          	addi	s6,s6,724 # 50203cf0 <strcat+0x1e8>
    50201a24:	00002c97          	auipc	s9,0x2
    50201a28:	2dcc8c93          	addi	s9,s9,732 # 50203d00 <strcat+0x1f8>
    50201a2c:	02100c13          	li	s8,33
    50201a30:	0009849b          	sext.w	s1,s3
    50201a34:	8456                	mv	s0,s5
    50201a36:	008a0733          	add	a4,s4,s0
    50201a3a:	008107b3          	add	a5,sp,s0
    50201a3e:	855a                	mv	a0,s6
    50201a40:	009bca63          	blt	s7,s1,50201a54 <handle_other+0x90>
    50201a44:	6310                	ld	a2,0(a4)
    50201a46:	638c                	ld	a1,0(a5)
    50201a48:	2485                	addiw	s1,s1,1
    50201a4a:	0421                	addi	s0,s0,8
    50201a4c:	6ef010ef          	jal	ra,5020393a <printk>
    50201a50:	ff2493e3          	bne	s1,s2,50201a36 <handle_other+0x72>
    50201a54:	8566                	mv	a0,s9
    50201a56:	298d                	addiw	s3,s3,3
    50201a58:	6e3010ef          	jal	ra,5020393a <printk>
    50201a5c:	290d                	addiw	s2,s2,3
    50201a5e:	0ae1                	addi	s5,s5,24
    50201a60:	fd8998e3          	bne	s3,s8,50201a30 <handle_other+0x6c>
    50201a64:	118a3683          	ld	a3,280(s4)
    50201a68:	110a3603          	ld	a2,272(s4)
    50201a6c:	100a3583          	ld	a1,256(s4)
    50201a70:	00002517          	auipc	a0,0x2
    50201a74:	29850513          	addi	a0,a0,664 # 50203d08 <strcat+0x200>
    50201a78:	6c3010ef          	jal	ra,5020393a <printk>
    50201a7c:	108a3583          	ld	a1,264(s4)
    50201a80:	00002517          	auipc	a0,0x2
    50201a84:	2b850513          	addi	a0,a0,696 # 50203d38 <strcat+0x230>
    50201a88:	6b3010ef          	jal	ra,5020393a <printk>
    50201a8c:	866e                	mv	a2,s11
    50201a8e:	85ea                	mv	a1,s10
    50201a90:	00002517          	auipc	a0,0x2
    50201a94:	2b850513          	addi	a0,a0,696 # 50203d48 <strcat+0x240>
    50201a98:	6a3010ef          	jal	ra,5020393a <printk>
    50201a9c:	09300693          	li	a3,147
    50201aa0:	00002617          	auipc	a2,0x2
    50201aa4:	2c860613          	addi	a2,a2,712 # 50203d68 <strcat+0x260>
    50201aa8:	00002597          	auipc	a1,0x2
    50201aac:	43058593          	addi	a1,a1,1072 # 50203ed8 <__FUNCTION__.1368>
    50201ab0:	00002517          	auipc	a0,0x2
    50201ab4:	2d050513          	addi	a0,a0,720 # 50203d80 <strcat+0x278>
    50201ab8:	683010ef          	jal	ra,5020393a <printk>
    50201abc:	a001                	j	50201abc <handle_other+0xf8>

0000000050201abe <interrupt_helper>:
    50201abe:	1101                	addi	sp,sp,-32
    50201ac0:	ec06                	sd	ra,24(sp)
    50201ac2:	e822                	sd	s0,16(sp)
    50201ac4:	e426                	sd	s1,8(sp)
    50201ac6:	e04a                	sd	s2,0(sp)
    50201ac8:	84aa                	mv	s1,a0
    50201aca:	892e                	mv	s2,a1
    50201acc:	8432                	mv	s0,a2
    50201ace:	1c3000ef          	jal	ra,50202490 <lock_kernel>
    50201ad2:	b8fff0ef          	jal	ra,50201660 <get_current_cpu_id>
    50201ad6:	2501                	sext.w	a0,a0
    50201ad8:	e139                	bnez	a0,50201b1e <interrupt_helper+0x60>
    50201ada:	00008797          	auipc	a5,0x8
    50201ade:	47e7b783          	ld	a5,1150(a5) # 50209f58 <current_running_m>
    50201ae2:	00008717          	auipc	a4,0x8
    50201ae6:	46f73723          	sd	a5,1134(a4) # 50209f50 <current_running>
    50201aea:	00141793          	slli	a5,s0,0x1
    50201aee:	8385                	srli	a5,a5,0x1
    50201af0:	078e                	slli	a5,a5,0x3
    50201af2:	00005717          	auipc	a4,0x5
    50201af6:	a9e70713          	addi	a4,a4,-1378 # 50206590 <irq_table>
    50201afa:	00044663          	bltz	s0,50201b06 <interrupt_helper+0x48>
    50201afe:	00005717          	auipc	a4,0x5
    50201b02:	a1270713          	addi	a4,a4,-1518 # 50206510 <exc_table>
    50201b06:	97ba                	add	a5,a5,a4
    50201b08:	8622                	mv	a2,s0
    50201b0a:	6442                	ld	s0,16(sp)
    50201b0c:	60e2                	ld	ra,24(sp)
    50201b0e:	0007b303          	ld	t1,0(a5)
    50201b12:	85ca                	mv	a1,s2
    50201b14:	8526                	mv	a0,s1
    50201b16:	6902                	ld	s2,0(sp)
    50201b18:	64a2                	ld	s1,8(sp)
    50201b1a:	6105                	addi	sp,sp,32
    50201b1c:	8302                	jr	t1
    50201b1e:	00008797          	auipc	a5,0x8
    50201b22:	42a7b783          	ld	a5,1066(a5) # 50209f48 <current_running_n>
    50201b26:	00008717          	auipc	a4,0x8
    50201b2a:	42f73523          	sd	a5,1066(a4) # 50209f50 <current_running>
    50201b2e:	bf75                	j	50201aea <interrupt_helper+0x2c>

0000000050201b30 <init_exception>:
    50201b30:	1141                	addi	sp,sp,-16
    50201b32:	e406                	sd	ra,8(sp)
    50201b34:	e022                	sd	s0,0(sp)
    50201b36:	00005797          	auipc	a5,0x5
    50201b3a:	9da78793          	addi	a5,a5,-1574 # 50206510 <exc_table>
    50201b3e:	00000417          	auipc	s0,0x0
    50201b42:	e8640413          	addi	s0,s0,-378 # 502019c4 <handle_other>
    50201b46:	00002717          	auipc	a4,0x2
    50201b4a:	a2a70713          	addi	a4,a4,-1494 # 50203570 <handle_syscall>
    50201b4e:	00002517          	auipc	a0,0x2
    50201b52:	25a50513          	addi	a0,a0,602 # 50203da8 <strcat+0x2a0>
    50201b56:	e3b8                	sd	a4,64(a5)
    50201b58:	e380                	sd	s0,0(a5)
    50201b5a:	e780                	sd	s0,8(a5)
    50201b5c:	ef80                	sd	s0,24(a5)
    50201b5e:	f780                	sd	s0,40(a5)
    50201b60:	ff80                	sd	s0,56(a5)
    50201b62:	f3a0                	sd	s0,96(a5)
    50201b64:	f7a0                	sd	s0,104(a5)
    50201b66:	62d010ef          	jal	ra,50203992 <printl>
    50201b6a:	00005797          	auipc	a5,0x5
    50201b6e:	a2678793          	addi	a5,a5,-1498 # 50206590 <irq_table>
    50201b72:	00000717          	auipc	a4,0x0
    50201b76:	e2c70713          	addi	a4,a4,-468 # 5020199e <handle_irq_timer>
    50201b7a:	e380                	sd	s0,0(a5)
    50201b7c:	e780                	sd	s0,8(a5)
    50201b7e:	ef80                	sd	s0,24(a5)
    50201b80:	f380                	sd	s0,32(a5)
    50201b82:	ff80                	sd	s0,56(a5)
    50201b84:	e3a0                	sd	s0,64(a5)
    50201b86:	e7a0                	sd	s0,72(a5)
    50201b88:	efa0                	sd	s0,88(a5)
    50201b8a:	f798                	sd	a4,40(a5)
    50201b8c:	ab9ff0ef          	jal	ra,50201644 <setup_exception>
    50201b90:	6402                	ld	s0,0(sp)
    50201b92:	60a2                	ld	ra,8(sp)
    50201b94:	00002517          	auipc	a0,0x2
    50201b98:	22c50513          	addi	a0,a0,556 # 50203dc0 <strcat+0x2b8>
    50201b9c:	0141                	addi	sp,sp,16
    50201b9e:	5f50106f          	j	50203992 <printl>

0000000050201ba2 <load_task_img>:
    50201ba2:	00351793          	slli	a5,a0,0x3
    50201ba6:	8f89                	sub	a5,a5,a0
    50201ba8:	00004717          	auipc	a4,0x4
    50201bac:	7a870713          	addi	a4,a4,1960 # 50206350 <tasks>
    50201bb0:	078a                	slli	a5,a5,0x2
    50201bb2:	97ba                	add	a5,a5,a4
    50201bb4:	4bd0                	lw	a2,20(a5)
    50201bb6:	4f9c                	lw	a5,24(a5)
    50201bb8:	1141                	addi	sp,sp,-16
    50201bba:	41f6569b          	sraiw	a3,a2,0x1f
    50201bbe:	00c7873b          	addw	a4,a5,a2
    50201bc2:	41f7579b          	sraiw	a5,a4,0x1f
    50201bc6:	e022                	sd	s0,0(sp)
    50201bc8:	0176d69b          	srliw	a3,a3,0x17
    50201bcc:	0177d79b          	srliw	a5,a5,0x17
    50201bd0:	6415                	lui	s0,0x5
    50201bd2:	9e35                	addw	a2,a2,a3
    50201bd4:	1ff77593          	andi	a1,a4,511
    50201bd8:	9fb9                	addw	a5,a5,a4
    50201bda:	2004041b          	addiw	s0,s0,512
    50201bde:	1ff67713          	andi	a4,a2,511
    50201be2:	9d21                	addw	a0,a0,s0
    50201be4:	4097d79b          	sraiw	a5,a5,0x9
    50201be8:	00b035b3          	snez	a1,a1
    50201bec:	0105141b          	slliw	s0,a0,0x10
    50201bf0:	4096561b          	sraiw	a2,a2,0x9
    50201bf4:	9dbd                	addw	a1,a1,a5
    50201bf6:	40d7053b          	subw	a0,a4,a3
    50201bfa:	520007b7          	lui	a5,0x52000
    50201bfe:	9d91                	subw	a1,a1,a2
    50201c00:	40a40533          	sub	a0,s0,a0
    50201c04:	f187b783          	ld	a5,-232(a5) # 51ffff18 <__BSS_END__+0x1df52b8>
    50201c08:	1602                	slli	a2,a2,0x20
    50201c0a:	1582                	slli	a1,a1,0x20
    50201c0c:	1502                	slli	a0,a0,0x20
    50201c0e:	e406                	sd	ra,8(sp)
    50201c10:	9201                	srli	a2,a2,0x20
    50201c12:	9181                	srli	a1,a1,0x20
    50201c14:	9101                	srli	a0,a0,0x20
    50201c16:	9782                	jalr	a5
    50201c18:	60a2                	ld	ra,8(sp)
    50201c1a:	8522                	mv	a0,s0
    50201c1c:	6402                	ld	s0,0(sp)
    50201c1e:	0141                	addi	sp,sp,16
    50201c20:	8082                	ret

0000000050201c22 <load_task_img_j>:
    50201c22:	6795                	lui	a5,0x5
    50201c24:	2007879b          	addiw	a5,a5,512
    50201c28:	9d3d                	addw	a0,a0,a5
    50201c2a:	0105151b          	slliw	a0,a0,0x10
    50201c2e:	8082                	ret

0000000050201c30 <init_page_valid>:
    50201c30:	00005797          	auipc	a5,0x5
    50201c34:	a8878793          	addi	a5,a5,-1400 # 502066b8 <kernel_page_valid>
    50201c38:	00005717          	auipc	a4,0x5
    50201c3c:	b4870713          	addi	a4,a4,-1208 # 50206780 <mailboxs>
    50201c40:	0007a023          	sw	zero,0(a5)
    50201c44:	0791                	addi	a5,a5,4
    50201c46:	fee79de3          	bne	a5,a4,50201c40 <init_page_valid+0x10>
    50201c4a:	00005797          	auipc	a5,0x5
    50201c4e:	9a678793          	addi	a5,a5,-1626 # 502065f0 <user_page_valid>
    50201c52:	00005717          	auipc	a4,0x5
    50201c56:	a6670713          	addi	a4,a4,-1434 # 502066b8 <kernel_page_valid>
    50201c5a:	0007a023          	sw	zero,0(a5)
    50201c5e:	0791                	addi	a5,a5,4
    50201c60:	fee79de3          	bne	a5,a4,50201c5a <init_page_valid+0x2a>
    50201c64:	8082                	ret

0000000050201c66 <allocKernelPage>:
    50201c66:	00005517          	auipc	a0,0x5
    50201c6a:	a5250513          	addi	a0,a0,-1454 # 502066b8 <kernel_page_valid>
    50201c6e:	87aa                	mv	a5,a0
    50201c70:	4701                	li	a4,0
    50201c72:	03200613          	li	a2,50
    50201c76:	a021                	j	50201c7e <allocKernelPage+0x18>
    50201c78:	2705                	addiw	a4,a4,1
    50201c7a:	00c70b63          	beq	a4,a2,50201c90 <allocKernelPage+0x2a>
    50201c7e:	4394                	lw	a3,0(a5)
    50201c80:	0791                	addi	a5,a5,4
    50201c82:	fafd                	bnez	a3,50201c78 <allocKernelPage+0x12>
    50201c84:	00271793          	slli	a5,a4,0x2
    50201c88:	953e                	add	a0,a0,a5
    50201c8a:	c198                	sw	a4,0(a1)
    50201c8c:	4785                	li	a5,1
    50201c8e:	c11c                	sw	a5,0(a0)
    50201c90:	419c                	lw	a5,0(a1)
    50201c92:	50522537          	lui	a0,0x50522
    50201c96:	157d                	addi	a0,a0,-1
    50201c98:	00c7979b          	slliw	a5,a5,0xc
    50201c9c:	97aa                	add	a5,a5,a0
    50201c9e:	757d                	lui	a0,0xfffff
    50201ca0:	8d7d                	and	a0,a0,a5
    50201ca2:	8082                	ret

0000000050201ca4 <allocUserPage>:
    50201ca4:	00005517          	auipc	a0,0x5
    50201ca8:	94c50513          	addi	a0,a0,-1716 # 502065f0 <user_page_valid>
    50201cac:	87aa                	mv	a5,a0
    50201cae:	4701                	li	a4,0
    50201cb0:	03200613          	li	a2,50
    50201cb4:	a021                	j	50201cbc <allocUserPage+0x18>
    50201cb6:	2705                	addiw	a4,a4,1
    50201cb8:	00c70b63          	beq	a4,a2,50201cce <allocUserPage+0x2a>
    50201cbc:	4394                	lw	a3,0(a5)
    50201cbe:	0791                	addi	a5,a5,4
    50201cc0:	fafd                	bnez	a3,50201cb6 <allocUserPage+0x12>
    50201cc2:	00271793          	slli	a5,a4,0x2
    50201cc6:	953e                	add	a0,a0,a5
    50201cc8:	c198                	sw	a4,0(a1)
    50201cca:	4785                	li	a5,1
    50201ccc:	c11c                	sw	a5,0(a0)
    50201cce:	419c                	lw	a5,0(a1)
    50201cd0:	52501537          	lui	a0,0x52501
    50201cd4:	157d                	addi	a0,a0,-1
    50201cd6:	00c7979b          	slliw	a5,a5,0xc
    50201cda:	97aa                	add	a5,a5,a0
    50201cdc:	757d                	lui	a0,0xfffff
    50201cde:	8d7d                	and	a0,a0,a5
    50201ce0:	8082                	ret

0000000050201ce2 <recovKernelPage>:
    50201ce2:	00259793          	slli	a5,a1,0x2
    50201ce6:	00005597          	auipc	a1,0x5
    50201cea:	9d258593          	addi	a1,a1,-1582 # 502066b8 <kernel_page_valid>
    50201cee:	95be                	add	a1,a1,a5
    50201cf0:	0005a023          	sw	zero,0(a1)
    50201cf4:	8082                	ret

0000000050201cf6 <recovUserpage>:
    50201cf6:	00259793          	slli	a5,a1,0x2
    50201cfa:	00005597          	auipc	a1,0x5
    50201cfe:	8f658593          	addi	a1,a1,-1802 # 502065f0 <user_page_valid>
    50201d02:	95be                	add	a1,a1,a5
    50201d04:	0005a023          	sw	zero,0(a1)
    50201d08:	8082                	ret

0000000050201d0a <init_locks>:
    50201d0a:	8082                	ret

0000000050201d0c <spin_lock_init>:
    50201d0c:	00052023          	sw	zero,0(a0) # fffffffffffff000 <__BSS_END__+0xffffffffafdf43a0>
    50201d10:	8082                	ret

0000000050201d12 <spin_lock_try_acquire>:
    50201d12:	4108                	lw	a0,0(a0)
    50201d14:	2501                	sext.w	a0,a0
    50201d16:	00153513          	seqz	a0,a0
    50201d1a:	8082                	ret

0000000050201d1c <spin_lock_acquire>:
    50201d1c:	4785                	li	a5,1
    50201d1e:	c11c                	sw	a5,0(a0)
    50201d20:	8082                	ret

0000000050201d22 <spin_lock_release>:
    50201d22:	00052023          	sw	zero,0(a0)
    50201d26:	8082                	ret

0000000050201d28 <do_mutex_lock_init>:
    50201d28:	872a                	mv	a4,a0
    50201d2a:	41f5551b          	sraiw	a0,a0,0x1f
    50201d2e:	01a5551b          	srliw	a0,a0,0x1a
    50201d32:	00e507bb          	addw	a5,a0,a4
    50201d36:	03f7f793          	andi	a5,a5,63
    50201d3a:	40a7853b          	subw	a0,a5,a0
    50201d3e:	00551793          	slli	a5,a0,0x5
    50201d42:	00007617          	auipc	a2,0x7
    50201d46:	e3e60613          	addi	a2,a2,-450 # 50208b80 <mlocks>
    50201d4a:	00878693          	addi	a3,a5,8
    50201d4e:	96b2                	add	a3,a3,a2
    50201d50:	97b2                	add	a5,a5,a2
    50201d52:	cf98                	sw	a4,24(a5)
    50201d54:	eb94                	sd	a3,16(a5)
    50201d56:	e794                	sd	a3,8(a5)
    50201d58:	0007a023          	sw	zero,0(a5)
    50201d5c:	8082                	ret

0000000050201d5e <do_mutex_lock_acquire>:
    50201d5e:	7139                	addi	sp,sp,-64
    50201d60:	e852                	sd	s4,16(sp)
    50201d62:	e456                	sd	s5,8(sp)
    50201d64:	00551a13          	slli	s4,a0,0x5
    50201d68:	00007a97          	auipc	s5,0x7
    50201d6c:	e18a8a93          	addi	s5,s5,-488 # 50208b80 <mlocks>
    50201d70:	f426                	sd	s1,40(sp)
    50201d72:	014a84b3          	add	s1,s5,s4
    50201d76:	409c                	lw	a5,0(s1)
    50201d78:	f822                	sd	s0,48(sp)
    50201d7a:	f04a                	sd	s2,32(sp)
    50201d7c:	ec4e                	sd	s3,24(sp)
    50201d7e:	fc06                	sd	ra,56(sp)
    50201d80:	008a0993          	addi	s3,s4,8
    50201d84:	2781                	sext.w	a5,a5
    50201d86:	892a                	mv	s2,a0
    50201d88:	99d6                	add	s3,s3,s5
    50201d8a:	00008417          	auipc	s0,0x8
    50201d8e:	1c640413          	addi	s0,s0,454 # 50209f50 <current_running>
    50201d92:	cb89                	beqz	a5,50201da4 <do_mutex_lock_acquire+0x46>
    50201d94:	6008                	ld	a0,0(s0)
    50201d96:	85ce                	mv	a1,s3
    50201d98:	0541                	addi	a0,a0,16
    50201d9a:	078010ef          	jal	ra,50202e12 <do_block>
    50201d9e:	409c                	lw	a5,0(s1)
    50201da0:	2781                	sext.w	a5,a5
    50201da2:	fbed                	bnez	a5,50201d94 <do_mutex_lock_acquire+0x36>
    50201da4:	4785                	li	a5,1
    50201da6:	9a56                	add	s4,s4,s5
    50201da8:	00fa2023          	sw	a5,0(s4)
    50201dac:	4629                	li	a2,10
    50201dae:	4781                	li	a5,0
    50201db0:	6014                	ld	a3,0(s0)
    50201db2:	01878713          	addi	a4,a5,24
    50201db6:	070a                	slli	a4,a4,0x2
    50201db8:	96ba                	add	a3,a3,a4
    50201dba:	4294                	lw	a3,0(a3)
    50201dbc:	2785                	addiw	a5,a5,1
    50201dbe:	ce81                	beqz	a3,50201dd6 <do_mutex_lock_acquire+0x78>
    50201dc0:	fec798e3          	bne	a5,a2,50201db0 <do_mutex_lock_acquire+0x52>
    50201dc4:	70e2                	ld	ra,56(sp)
    50201dc6:	7442                	ld	s0,48(sp)
    50201dc8:	74a2                	ld	s1,40(sp)
    50201dca:	7902                	ld	s2,32(sp)
    50201dcc:	69e2                	ld	s3,24(sp)
    50201dce:	6a42                	ld	s4,16(sp)
    50201dd0:	6aa2                	ld	s5,8(sp)
    50201dd2:	6121                	addi	sp,sp,64
    50201dd4:	8082                	ret
    50201dd6:	601c                	ld	a5,0(s0)
    50201dd8:	973e                	add	a4,a4,a5
    50201dda:	01272023          	sw	s2,0(a4)
    50201dde:	b7dd                	j	50201dc4 <do_mutex_lock_acquire+0x66>

0000000050201de0 <do_mutex_lock_release>:
    50201de0:	4781                	li	a5,0
    50201de2:	00008617          	auipc	a2,0x8
    50201de6:	16e60613          	addi	a2,a2,366 # 50209f50 <current_running>
    50201dea:	45a9                	li	a1,10
    50201dec:	6214                	ld	a3,0(a2)
    50201dee:	01878713          	addi	a4,a5,24
    50201df2:	070a                	slli	a4,a4,0x2
    50201df4:	96ba                	add	a3,a3,a4
    50201df6:	4294                	lw	a3,0(a3)
    50201df8:	2785                	addiw	a5,a5,1
    50201dfa:	02a68263          	beq	a3,a0,50201e1e <do_mutex_lock_release+0x3e>
    50201dfe:	feb797e3          	bne	a5,a1,50201dec <do_mutex_lock_release+0xc>
    50201e02:	00551793          	slli	a5,a0,0x5
    50201e06:	00007717          	auipc	a4,0x7
    50201e0a:	d7a70713          	addi	a4,a4,-646 # 50208b80 <mlocks>
    50201e0e:	00878513          	addi	a0,a5,8
    50201e12:	97ba                	add	a5,a5,a4
    50201e14:	953a                	add	a0,a0,a4
    50201e16:	0007a023          	sw	zero,0(a5)
    50201e1a:	01c0106f          	j	50202e36 <do_unblock>
    50201e1e:	621c                	ld	a5,0(a2)
    50201e20:	973e                	add	a4,a4,a5
    50201e22:	00072023          	sw	zero,0(a4)
    50201e26:	00551793          	slli	a5,a0,0x5
    50201e2a:	00007717          	auipc	a4,0x7
    50201e2e:	d5670713          	addi	a4,a4,-682 # 50208b80 <mlocks>
    50201e32:	00878513          	addi	a0,a5,8
    50201e36:	97ba                	add	a5,a5,a4
    50201e38:	953a                	add	a0,a0,a4
    50201e3a:	0007a023          	sw	zero,0(a5)
    50201e3e:	7f90006f          	j	50202e36 <do_unblock>

0000000050201e42 <kill_process_lock_release>:
    50201e42:	00551793          	slli	a5,a0,0x5
    50201e46:	00007717          	auipc	a4,0x7
    50201e4a:	d3a70713          	addi	a4,a4,-710 # 50208b80 <mlocks>
    50201e4e:	00878513          	addi	a0,a5,8
    50201e52:	97ba                	add	a5,a5,a4
    50201e54:	953a                	add	a0,a0,a4
    50201e56:	0007a023          	sw	zero,0(a5)
    50201e5a:	7dd0006f          	j	50202e36 <do_unblock>

0000000050201e5e <do_barrier_init>:
    50201e5e:	41f5579b          	sraiw	a5,a0,0x1f
    50201e62:	01a7d79b          	srliw	a5,a5,0x1a
    50201e66:	9d3d                	addw	a0,a0,a5
    50201e68:	03f57513          	andi	a0,a0,63
    50201e6c:	9d1d                	subw	a0,a0,a5
    50201e6e:	00151793          	slli	a5,a0,0x1
    50201e72:	97aa                	add	a5,a5,a0
    50201e74:	078e                	slli	a5,a5,0x3
    50201e76:	00007697          	auipc	a3,0x7
    50201e7a:	50a68693          	addi	a3,a3,1290 # 50209380 <barriers>
    50201e7e:	00878713          	addi	a4,a5,8
    50201e82:	9736                	add	a4,a4,a3
    50201e84:	97b6                	add	a5,a5,a3
    50201e86:	c3cc                	sw	a1,4(a5)
    50201e88:	0007a023          	sw	zero,0(a5)
    50201e8c:	eb98                	sd	a4,16(a5)
    50201e8e:	e798                	sd	a4,8(a5)
    50201e90:	8082                	ret

0000000050201e92 <do_barrier_wait>:
    50201e92:	00151593          	slli	a1,a0,0x1
    50201e96:	00a58733          	add	a4,a1,a0
    50201e9a:	00007817          	auipc	a6,0x7
    50201e9e:	4e680813          	addi	a6,a6,1254 # 50209380 <barriers>
    50201ea2:	070e                	slli	a4,a4,0x3
    50201ea4:	00e807b3          	add	a5,a6,a4
    50201ea8:	4394                	lw	a3,0(a5)
    50201eaa:	0047a883          	lw	a7,4(a5)
    50201eae:	0721                	addi	a4,a4,8
    50201eb0:	0016861b          	addiw	a2,a3,1
    50201eb4:	c390                	sw	a2,0(a5)
    50201eb6:	9742                	add	a4,a4,a6
    50201eb8:	02c88b63          	beq	a7,a2,50201eee <do_barrier_wait+0x5c>
    50201ebc:	00008617          	auipc	a2,0x8
    50201ec0:	09460613          	addi	a2,a2,148 # 50209f50 <current_running>
    50201ec4:	00063883          	ld	a7,0(a2)
    50201ec8:	6b94                	ld	a3,16(a5)
    50201eca:	6210                	ld	a2,0(a2)
    50201ecc:	0208ac23          	sw	zero,56(a7)
    50201ed0:	01060893          	addi	a7,a2,16
    50201ed4:	06e68963          	beq	a3,a4,50201f46 <do_barrier_wait+0xb4>
    50201ed8:	95aa                	add	a1,a1,a0
    50201eda:	058e                	slli	a1,a1,0x3
    50201edc:	95c2                	add	a1,a1,a6
    50201ede:	0115b823          	sd	a7,16(a1)
    50201ee2:	ea14                	sd	a3,16(a2)
    50201ee4:	ee18                	sd	a4,24(a2)
    50201ee6:	0116b423          	sd	a7,8(a3)
    50201eea:	2830006f          	j	5020296c <do_scheduler>
    50201eee:	4309                	li	t1,2
    50201ef0:	00002897          	auipc	a7,0x2
    50201ef4:	37088893          	addi	a7,a7,880 # 50204260 <ready_queue>
    50201ef8:	a801                	j	50201f08 <do_barrier_wait+0x76>
    50201efa:	02d60463          	beq	a2,a3,50201f22 <do_barrier_wait+0x90>
    50201efe:	6690                	ld	a2,8(a3)
    50201f00:	e218                	sd	a4,0(a2)
    50201f02:	e790                	sd	a2,8(a5)
    50201f04:	5690                	lw	a2,40(a3)
    50201f06:	c21d                	beqz	a2,50201f2c <do_barrier_wait+0x9a>
    50201f08:	6b90                	ld	a2,16(a5)
    50201f0a:	6794                	ld	a3,8(a5)
    50201f0c:	fee617e3          	bne	a2,a4,50201efa <do_barrier_wait+0x68>
    50201f10:	fed717e3          	bne	a4,a3,50201efe <do_barrier_wait+0x6c>
    50201f14:	00a587b3          	add	a5,a1,a0
    50201f18:	078e                	slli	a5,a5,0x3
    50201f1a:	97c2                	add	a5,a5,a6
    50201f1c:	0007a023          	sw	zero,0(a5)
    50201f20:	8082                	ret
    50201f22:	e798                	sd	a4,8(a5)
    50201f24:	eb98                	sd	a4,16(a5)
    50201f26:	d6fd                	beqz	a3,50201f14 <do_barrier_wait+0x82>
    50201f28:	5690                	lw	a2,40(a3)
    50201f2a:	fe79                	bnez	a2,50201f08 <do_barrier_wait+0x76>
    50201f2c:	0088b603          	ld	a2,8(a7)
    50201f30:	0266a423          	sw	t1,40(a3)
    50201f34:	03160463          	beq	a2,a7,50201f5c <do_barrier_wait+0xca>
    50201f38:	00d8b423          	sd	a3,8(a7)
    50201f3c:	e290                	sd	a2,0(a3)
    50201f3e:	0116b423          	sd	a7,8(a3)
    50201f42:	e614                	sd	a3,8(a2)
    50201f44:	b7d1                	j	50201f08 <do_barrier_wait+0x76>
    50201f46:	0087b303          	ld	t1,8(a5)
    50201f4a:	f86697e3          	bne	a3,t1,50201ed8 <do_barrier_wait+0x46>
    50201f4e:	0117b423          	sd	a7,8(a5)
    50201f52:	0117b823          	sd	a7,16(a5)
    50201f56:	ea14                	sd	a3,16(a2)
    50201f58:	ee14                	sd	a3,24(a2)
    50201f5a:	bf41                	j	50201eea <do_barrier_wait+0x58>
    50201f5c:	0008be03          	ld	t3,0(a7)
    50201f60:	fd1e1ce3          	bne	t3,a7,50201f38 <do_barrier_wait+0xa6>
    50201f64:	00d8b423          	sd	a3,8(a7)
    50201f68:	00d8b023          	sd	a3,0(a7)
    50201f6c:	0116b023          	sd	a7,0(a3)
    50201f70:	0116b423          	sd	a7,8(a3)
    50201f74:	bf51                	j	50201f08 <do_barrier_wait+0x76>

0000000050201f76 <do_barrier_destroy>:
    50201f76:	00151793          	slli	a5,a0,0x1
    50201f7a:	953e                	add	a0,a0,a5
    50201f7c:	050e                	slli	a0,a0,0x3
    50201f7e:	00007717          	auipc	a4,0x7
    50201f82:	40270713          	addi	a4,a4,1026 # 50209380 <barriers>
    50201f86:	00850793          	addi	a5,a0,8
    50201f8a:	97ba                	add	a5,a5,a4
    50201f8c:	953a                	add	a0,a0,a4
    50201f8e:	00053023          	sd	zero,0(a0)
    50201f92:	e91c                	sd	a5,16(a0)
    50201f94:	e51c                	sd	a5,8(a0)
    50201f96:	8082                	ret

0000000050201f98 <do_condition_init>:
    50201f98:	41f5579b          	sraiw	a5,a0,0x1f
    50201f9c:	01a7d79b          	srliw	a5,a5,0x1a
    50201fa0:	9d3d                	addw	a0,a0,a5
    50201fa2:	03f57513          	andi	a0,a0,63
    50201fa6:	9d1d                	subw	a0,a0,a5
    50201fa8:	00451793          	slli	a5,a0,0x4
    50201fac:	00006717          	auipc	a4,0x6
    50201fb0:	7d470713          	addi	a4,a4,2004 # 50208780 <conditions>
    50201fb4:	97ba                	add	a5,a5,a4
    50201fb6:	e79c                	sd	a5,8(a5)
    50201fb8:	e39c                	sd	a5,0(a5)
    50201fba:	8082                	ret

0000000050201fbc <do_condition_wait>:
    50201fbc:	1141                	addi	sp,sp,-16
    50201fbe:	e022                	sd	s0,0(sp)
    50201fc0:	842a                	mv	s0,a0
    50201fc2:	852e                	mv	a0,a1
    50201fc4:	e406                	sd	ra,8(sp)
    50201fc6:	e1bff0ef          	jal	ra,50201de0 <do_mutex_lock_release>
    50201fca:	00008697          	auipc	a3,0x8
    50201fce:	f8668693          	addi	a3,a3,-122 # 50209f50 <current_running>
    50201fd2:	00441513          	slli	a0,s0,0x4
    50201fd6:	00006717          	auipc	a4,0x6
    50201fda:	7aa70713          	addi	a4,a4,1962 # 50208780 <conditions>
    50201fde:	628c                	ld	a1,0(a3)
    50201fe0:	00a707b3          	add	a5,a4,a0
    50201fe4:	6294                	ld	a3,0(a3)
    50201fe6:	6790                	ld	a2,8(a5)
    50201fe8:	0205ac23          	sw	zero,56(a1)
    50201fec:	01068593          	addi	a1,a3,16
    50201ff0:	00c78c63          	beq	a5,a2,50202008 <do_condition_wait+0x4c>
    50201ff4:	953a                	add	a0,a0,a4
    50201ff6:	e50c                	sd	a1,8(a0)
    50201ff8:	ea90                	sd	a2,16(a3)
    50201ffa:	ee9c                	sd	a5,24(a3)
    50201ffc:	e60c                	sd	a1,8(a2)
    50201ffe:	6402                	ld	s0,0(sp)
    50202000:	60a2                	ld	ra,8(sp)
    50202002:	0141                	addi	sp,sp,16
    50202004:	1690006f          	j	5020296c <do_scheduler>
    50202008:	0007b803          	ld	a6,0(a5)
    5020200c:	ff0794e3          	bne	a5,a6,50201ff4 <do_condition_wait+0x38>
    50202010:	e38c                	sd	a1,0(a5)
    50202012:	e78c                	sd	a1,8(a5)
    50202014:	ea9c                	sd	a5,16(a3)
    50202016:	ee9c                	sd	a5,24(a3)
    50202018:	b7dd                	j	50201ffe <do_condition_wait+0x42>

000000005020201a <do_condition_signal>:
    5020201a:	0512                	slli	a0,a0,0x4
    5020201c:	00006697          	auipc	a3,0x6
    50202020:	76468693          	addi	a3,a3,1892 # 50208780 <conditions>
    50202024:	00a687b3          	add	a5,a3,a0
    50202028:	6790                	ld	a2,8(a5)
    5020202a:	6398                	ld	a4,0(a5)
    5020202c:	02c78c63          	beq	a5,a2,50202064 <do_condition_signal+0x4a>
    50202030:	02e60663          	beq	a2,a4,5020205c <do_condition_signal+0x42>
    50202034:	6710                	ld	a2,8(a4)
    50202036:	9536                	add	a0,a0,a3
    50202038:	e21c                	sd	a5,0(a2)
    5020203a:	e110                	sd	a2,0(a0)
    5020203c:	571c                	lw	a5,40(a4)
    5020203e:	ef91                	bnez	a5,5020205a <do_condition_signal+0x40>
    50202040:	00002797          	auipc	a5,0x2
    50202044:	22078793          	addi	a5,a5,544 # 50204260 <ready_queue>
    50202048:	6794                	ld	a3,8(a5)
    5020204a:	4609                	li	a2,2
    5020204c:	d710                	sw	a2,40(a4)
    5020204e:	00f68e63          	beq	a3,a5,5020206a <do_condition_signal+0x50>
    50202052:	e798                	sd	a4,8(a5)
    50202054:	e314                	sd	a3,0(a4)
    50202056:	e71c                	sd	a5,8(a4)
    50202058:	e698                	sd	a4,8(a3)
    5020205a:	8082                	ret
    5020205c:	e39c                	sd	a5,0(a5)
    5020205e:	e79c                	sd	a5,8(a5)
    50202060:	ff71                	bnez	a4,5020203c <do_condition_signal+0x22>
    50202062:	8082                	ret
    50202064:	fce798e3          	bne	a5,a4,50202034 <do_condition_signal+0x1a>
    50202068:	8082                	ret
    5020206a:	6290                	ld	a2,0(a3)
    5020206c:	fed613e3          	bne	a2,a3,50202052 <do_condition_signal+0x38>
    50202070:	e618                	sd	a4,8(a2)
    50202072:	e218                	sd	a4,0(a2)
    50202074:	e310                	sd	a2,0(a4)
    50202076:	e710                	sd	a2,8(a4)
    50202078:	8082                	ret

000000005020207a <do_condition_broadcast>:
    5020207a:	0512                	slli	a0,a0,0x4
    5020207c:	00006697          	auipc	a3,0x6
    50202080:	70468693          	addi	a3,a3,1796 # 50208780 <conditions>
    50202084:	96aa                	add	a3,a3,a0
    50202086:	8736                	mv	a4,a3
    50202088:	4509                	li	a0,2
    5020208a:	00002597          	auipc	a1,0x2
    5020208e:	1d658593          	addi	a1,a1,470 # 50204260 <ready_queue>
    50202092:	a801                	j	502020a2 <do_condition_broadcast+0x28>
    50202094:	00f60e63          	beq	a2,a5,502020b0 <do_condition_broadcast+0x36>
    50202098:	6790                	ld	a2,8(a5)
    5020209a:	e214                	sd	a3,0(a2)
    5020209c:	e310                	sd	a2,0(a4)
    5020209e:	5790                	lw	a2,40(a5)
    502020a0:	ce01                	beqz	a2,502020b8 <do_condition_broadcast+0x3e>
    502020a2:	6710                	ld	a2,8(a4)
    502020a4:	631c                	ld	a5,0(a4)
    502020a6:	fec697e3          	bne	a3,a2,50202094 <do_condition_broadcast+0x1a>
    502020aa:	fef697e3          	bne	a3,a5,50202098 <do_condition_broadcast+0x1e>
    502020ae:	8082                	ret
    502020b0:	e314                	sd	a3,0(a4)
    502020b2:	e714                	sd	a3,8(a4)
    502020b4:	f7ed                	bnez	a5,5020209e <do_condition_broadcast+0x24>
    502020b6:	8082                	ret
    502020b8:	6590                	ld	a2,8(a1)
    502020ba:	d788                	sw	a0,40(a5)
    502020bc:	00b60763          	beq	a2,a1,502020ca <do_condition_broadcast+0x50>
    502020c0:	e59c                	sd	a5,8(a1)
    502020c2:	e390                	sd	a2,0(a5)
    502020c4:	e78c                	sd	a1,8(a5)
    502020c6:	e61c                	sd	a5,8(a2)
    502020c8:	bfe9                	j	502020a2 <do_condition_broadcast+0x28>
    502020ca:	0005b803          	ld	a6,0(a1)
    502020ce:	feb819e3          	bne	a6,a1,502020c0 <do_condition_broadcast+0x46>
    502020d2:	e59c                	sd	a5,8(a1)
    502020d4:	e19c                	sd	a5,0(a1)
    502020d6:	e38c                	sd	a1,0(a5)
    502020d8:	e78c                	sd	a1,8(a5)
    502020da:	b7e1                	j	502020a2 <do_condition_broadcast+0x28>

00000000502020dc <Hash>:
    502020dc:	1101                	addi	sp,sp,-32
    502020de:	e822                	sd	s0,16(sp)
    502020e0:	e426                	sd	s1,8(sp)
    502020e2:	ec06                	sd	ra,24(sp)
    502020e4:	842a                	mv	s0,a0
    502020e6:	84ae                	mv	s1,a1
    502020e8:	12b010ef          	jal	ra,50203a12 <strlen>
    502020ec:	08a05063          	blez	a0,5020216c <Hash+0x90>
    502020f0:	357d                	addiw	a0,a0,-1
    502020f2:	1502                	slli	a0,a0,0x20
    502020f4:	00140613          	addi	a2,s0,1
    502020f8:	9101                	srli	a0,a0,0x20
    502020fa:	87a2                	mv	a5,s0
    502020fc:	962a                	add	a2,a2,a0
    502020fe:	4701                	li	a4,0
    50202100:	0007c683          	lbu	a3,0(a5)
    50202104:	0785                	addi	a5,a5,1
    50202106:	9f35                	addw	a4,a4,a3
    50202108:	fef61ce3          	bne	a2,a5,50202100 <Hash+0x24>
    5020210c:	0297673b          	remw	a4,a4,s1
    50202110:	00004597          	auipc	a1,0x4
    50202114:	67058593          	addi	a1,a1,1648 # 50206780 <mailboxs>
    50202118:	419c                	lw	a5,0(a1)
    5020211a:	853a                	mv	a0,a4
    5020211c:	4685                	li	a3,1
    5020211e:	03e00813          	li	a6,62
    50202122:	00751613          	slli	a2,a0,0x7
    50202126:	962e                	add	a2,a2,a1
    50202128:	4210                	lw	a2,0(a2)
    5020212a:	02d61663          	bne	a2,a3,50202156 <Hash+0x7a>
    5020212e:	00a85a63          	bge	a6,a0,50202142 <Hash+0x66>
    50202132:	02d79763          	bne	a5,a3,50202160 <Hash+0x84>
    50202136:	00f70963          	beq	a4,a5,50202148 <Hash+0x6c>
    5020213a:	0805a503          	lw	a0,128(a1)
    5020213e:	02f51963          	bne	a0,a5,50202170 <Hash+0x94>
    50202142:	2505                	addiw	a0,a0,1
    50202144:	fca71fe3          	bne	a4,a0,50202122 <Hash+0x46>
    50202148:	00002517          	auipc	a0,0x2
    5020214c:	da050513          	addi	a0,a0,-608 # 50203ee8 <__FUNCTION__.1368+0x10>
    50202150:	7ea010ef          	jal	ra,5020393a <printk>
    50202154:	557d                	li	a0,-1
    50202156:	60e2                	ld	ra,24(sp)
    50202158:	6442                	ld	s0,16(sp)
    5020215a:	64a2                	ld	s1,8(sp)
    5020215c:	6105                	addi	sp,sp,32
    5020215e:	8082                	ret
    50202160:	60e2                	ld	ra,24(sp)
    50202162:	6442                	ld	s0,16(sp)
    50202164:	64a2                	ld	s1,8(sp)
    50202166:	4501                	li	a0,0
    50202168:	6105                	addi	sp,sp,32
    5020216a:	8082                	ret
    5020216c:	4701                	li	a4,0
    5020216e:	b74d                	j	50202110 <Hash+0x34>
    50202170:	4505                	li	a0,1
    50202172:	b7d5                	j	50202156 <Hash+0x7a>

0000000050202174 <do_condition_destroy>:
    50202174:	0512                	slli	a0,a0,0x4
    50202176:	00006797          	auipc	a5,0x6
    5020217a:	60a78793          	addi	a5,a5,1546 # 50208780 <conditions>
    5020217e:	953e                	add	a0,a0,a5
    50202180:	e508                	sd	a0,8(a0)
    50202182:	e108                	sd	a0,0(a0)
    50202184:	8082                	ret

0000000050202186 <init_mbox>:
    50202186:	1101                	addi	sp,sp,-32
    50202188:	e822                	sd	s0,16(sp)
    5020218a:	00759413          	slli	s0,a1,0x7
    5020218e:	e426                	sd	s1,8(sp)
    50202190:	00004797          	auipc	a5,0x4
    50202194:	5f078793          	addi	a5,a5,1520 # 50206780 <mailboxs>
    50202198:	84ae                	mv	s1,a1
    5020219a:	85aa                	mv	a1,a0
    5020219c:	00440513          	addi	a0,s0,4
    502021a0:	ec06                	sd	ra,24(sp)
    502021a2:	943e                	add	s0,s0,a5
    502021a4:	953e                	add	a0,a0,a5
    502021a6:	4785                	li	a5,1
    502021a8:	c01c                	sw	a5,0(s0)
    502021aa:	0f1010ef          	jal	ra,50203a9a <strcpy>
    502021ae:	0014871b          	addiw	a4,s1,1
    502021b2:	41f4d61b          	sraiw	a2,s1,0x1f
    502021b6:	41f7579b          	sraiw	a5,a4,0x1f
    502021ba:	01a6559b          	srliw	a1,a2,0x1a
    502021be:	01a7d69b          	srliw	a3,a5,0x1a
    502021c2:	0095863b          	addw	a2,a1,s1
    502021c6:	00d707bb          	addw	a5,a4,a3
    502021ca:	03f67613          	andi	a2,a2,63
    502021ce:	03f7f793          	andi	a5,a5,63
    502021d2:	40b6073b          	subw	a4,a2,a1
    502021d6:	40d786bb          	subw	a3,a5,a3
    502021da:	863a                	mv	a2,a4
    502021dc:	00571513          	slli	a0,a4,0x5
    502021e0:	87b6                	mv	a5,a3
    502021e2:	00006817          	auipc	a6,0x6
    502021e6:	59e80813          	addi	a6,a6,1438 # 50208780 <conditions>
    502021ea:	0712                	slli	a4,a4,0x4
    502021ec:	60e2                	ld	ra,24(sp)
    502021ee:	00007897          	auipc	a7,0x7
    502021f2:	99288893          	addi	a7,a7,-1646 # 50208b80 <mlocks>
    502021f6:	9742                	add	a4,a4,a6
    502021f8:	00850593          	addi	a1,a0,8
    502021fc:	06042223          	sw	zero,100(s0)
    50202200:	06042423          	sw	zero,104(s0)
    50202204:	06042623          	sw	zero,108(s0)
    50202208:	06042823          	sw	zero,112(s0)
    5020220c:	d870                	sw	a2,116(s0)
    5020220e:	dc30                	sw	a2,120(s0)
    50202210:	dc7c                	sw	a5,124(s0)
    50202212:	0692                	slli	a3,a3,0x4
    50202214:	6442                	ld	s0,16(sp)
    50202216:	9546                	add	a0,a0,a7
    50202218:	95c6                	add	a1,a1,a7
    5020221a:	96c2                	add	a3,a3,a6
    5020221c:	e718                	sd	a4,8(a4)
    5020221e:	e318                	sd	a4,0(a4)
    50202220:	cd04                	sw	s1,24(a0)
    50202222:	e90c                	sd	a1,16(a0)
    50202224:	e50c                	sd	a1,8(a0)
    50202226:	00052023          	sw	zero,0(a0)
    5020222a:	e694                	sd	a3,8(a3)
    5020222c:	e294                	sd	a3,0(a3)
    5020222e:	64a2                	ld	s1,8(sp)
    50202230:	6105                	addi	sp,sp,32
    50202232:	8082                	ret

0000000050202234 <do_mbox_open>:
    50202234:	7179                	addi	sp,sp,-48
    50202236:	f022                	sd	s0,32(sp)
    50202238:	ec26                	sd	s1,24(sp)
    5020223a:	e84a                	sd	s2,16(sp)
    5020223c:	e44e                	sd	s3,8(sp)
    5020223e:	f406                	sd	ra,40(sp)
    50202240:	892a                	mv	s2,a0
    50202242:	00004497          	auipc	s1,0x4
    50202246:	54248493          	addi	s1,s1,1346 # 50206784 <mailboxs+0x4>
    5020224a:	4401                	li	s0,0
    5020224c:	04000993          	li	s3,64
    50202250:	a031                	j	5020225c <do_mbox_open+0x28>
    50202252:	2405                	addiw	s0,s0,1
    50202254:	08048493          	addi	s1,s1,128
    50202258:	01340f63          	beq	s0,s3,50202276 <do_mbox_open+0x42>
    5020225c:	8526                	mv	a0,s1
    5020225e:	85ca                	mv	a1,s2
    50202260:	7d2010ef          	jal	ra,50203a32 <strcmp>
    50202264:	f57d                	bnez	a0,50202252 <do_mbox_open+0x1e>
    50202266:	70a2                	ld	ra,40(sp)
    50202268:	8522                	mv	a0,s0
    5020226a:	7402                	ld	s0,32(sp)
    5020226c:	64e2                	ld	s1,24(sp)
    5020226e:	6942                	ld	s2,16(sp)
    50202270:	69a2                	ld	s3,8(sp)
    50202272:	6145                	addi	sp,sp,48
    50202274:	8082                	ret
    50202276:	04000593          	li	a1,64
    5020227a:	854a                	mv	a0,s2
    5020227c:	e61ff0ef          	jal	ra,502020dc <Hash>
    50202280:	842a                	mv	s0,a0
    50202282:	85aa                	mv	a1,a0
    50202284:	854a                	mv	a0,s2
    50202286:	f01ff0ef          	jal	ra,50202186 <init_mbox>
    5020228a:	70a2                	ld	ra,40(sp)
    5020228c:	8522                	mv	a0,s0
    5020228e:	7402                	ld	s0,32(sp)
    50202290:	64e2                	ld	s1,24(sp)
    50202292:	6942                	ld	s2,16(sp)
    50202294:	69a2                	ld	s3,8(sp)
    50202296:	6145                	addi	sp,sp,48
    50202298:	8082                	ret

000000005020229a <do_mbox_close>:
    5020229a:	00751793          	slli	a5,a0,0x7
    5020229e:	00004517          	auipc	a0,0x4
    502022a2:	4e250513          	addi	a0,a0,1250 # 50206780 <mailboxs>
    502022a6:	953e                	add	a0,a0,a5
    502022a8:	517c                	lw	a5,100(a0)
    502022aa:	00f05863          	blez	a5,502022ba <do_mbox_close+0x20>
    502022ae:	fff7871b          	addiw	a4,a5,-1
    502022b2:	d178                	sw	a4,100(a0)
    502022b4:	e319                	bnez	a4,502022ba <do_mbox_close+0x20>
    502022b6:	00052023          	sw	zero,0(a0)
    502022ba:	8082                	ret

00000000502022bc <do_mbox_send>:
    502022bc:	7139                	addi	sp,sp,-64
    502022be:	f822                	sd	s0,48(sp)
    502022c0:	f04a                	sd	s2,32(sp)
    502022c2:	00004417          	auipc	s0,0x4
    502022c6:	4be40413          	addi	s0,s0,1214 # 50206780 <mailboxs>
    502022ca:	00751913          	slli	s2,a0,0x7
    502022ce:	ec4e                	sd	s3,24(sp)
    502022d0:	012409b3          	add	s3,s0,s2
    502022d4:	0749a503          	lw	a0,116(s3)
    502022d8:	f426                	sd	s1,40(sp)
    502022da:	e852                	sd	s4,16(sp)
    502022dc:	fc06                	sd	ra,56(sp)
    502022de:	8a32                	mv	s4,a2
    502022e0:	e456                	sd	s5,8(sp)
    502022e2:	84ae                	mv	s1,a1
    502022e4:	a7bff0ef          	jal	ra,50201d5e <do_mutex_lock_acquire>
    502022e8:	0689a783          	lw	a5,104(s3)
    502022ec:	04000713          	li	a4,64
    502022f0:	014787bb          	addw	a5,a5,s4
    502022f4:	02f75063          	bge	a4,a5,50202314 <do_mbox_send+0x58>
    502022f8:	04000a93          	li	s5,64
    502022fc:	0749a583          	lw	a1,116(s3)
    50202300:	0789a503          	lw	a0,120(s3)
    50202304:	cb9ff0ef          	jal	ra,50201fbc <do_condition_wait>
    50202308:	0689a783          	lw	a5,104(s3)
    5020230c:	014787bb          	addw	a5,a5,s4
    50202310:	fefac6e3          	blt	s5,a5,502022fc <do_mbox_send+0x40>
    50202314:	012405b3          	add	a1,s0,s2
    50202318:	d5bc                	sw	a5,104(a1)
    5020231a:	02490513          	addi	a0,s2,36
    5020231e:	03405a63          	blez	s4,50202352 <do_mbox_send+0x96>
    50202322:	4701                	li	a4,0
    50202324:	59bc                	lw	a5,112(a1)
    50202326:	00e486b3          	add	a3,s1,a4
    5020232a:	0006c603          	lbu	a2,0(a3)
    5020232e:	9fb9                	addw	a5,a5,a4
    50202330:	41f7d69b          	sraiw	a3,a5,0x1f
    50202334:	01a6d69b          	srliw	a3,a3,0x1a
    50202338:	9fb5                	addw	a5,a5,a3
    5020233a:	03f7f793          	andi	a5,a5,63
    5020233e:	9f95                	subw	a5,a5,a3
    50202340:	97aa                	add	a5,a5,a0
    50202342:	97a2                	add	a5,a5,s0
    50202344:	0705                	addi	a4,a4,1
    50202346:	00c78023          	sb	a2,0(a5)
    5020234a:	0007079b          	sext.w	a5,a4
    5020234e:	fd47cbe3          	blt	a5,s4,50202324 <do_mbox_send+0x68>
    50202352:	944a                	add	s0,s0,s2
    50202354:	5830                	lw	a2,112(s0)
    50202356:	5c68                	lw	a0,124(s0)
    50202358:	01460a3b          	addw	s4,a2,s4
    5020235c:	41fa579b          	sraiw	a5,s4,0x1f
    50202360:	01a7d79b          	srliw	a5,a5,0x1a
    50202364:	00fa0a3b          	addw	s4,s4,a5
    50202368:	03fa7a13          	andi	s4,s4,63
    5020236c:	40fa0a3b          	subw	s4,s4,a5
    50202370:	07442823          	sw	s4,112(s0)
    50202374:	d07ff0ef          	jal	ra,5020207a <do_condition_broadcast>
    50202378:	5868                	lw	a0,116(s0)
    5020237a:	a67ff0ef          	jal	ra,50201de0 <do_mutex_lock_release>
    5020237e:	70e2                	ld	ra,56(sp)
    50202380:	7442                	ld	s0,48(sp)
    50202382:	74a2                	ld	s1,40(sp)
    50202384:	7902                	ld	s2,32(sp)
    50202386:	69e2                	ld	s3,24(sp)
    50202388:	6a42                	ld	s4,16(sp)
    5020238a:	6aa2                	ld	s5,8(sp)
    5020238c:	4501                	li	a0,0
    5020238e:	6121                	addi	sp,sp,64
    50202390:	8082                	ret

0000000050202392 <do_mbox_recv>:
    50202392:	7179                	addi	sp,sp,-48
    50202394:	f022                	sd	s0,32(sp)
    50202396:	e84a                	sd	s2,16(sp)
    50202398:	00004417          	auipc	s0,0x4
    5020239c:	3e840413          	addi	s0,s0,1000 # 50206780 <mailboxs>
    502023a0:	00751913          	slli	s2,a0,0x7
    502023a4:	e44e                	sd	s3,8(sp)
    502023a6:	012409b3          	add	s3,s0,s2
    502023aa:	0749a503          	lw	a0,116(s3)
    502023ae:	ec26                	sd	s1,24(sp)
    502023b0:	e052                	sd	s4,0(sp)
    502023b2:	f406                	sd	ra,40(sp)
    502023b4:	8a32                	mv	s4,a2
    502023b6:	84ae                	mv	s1,a1
    502023b8:	9a7ff0ef          	jal	ra,50201d5e <do_mutex_lock_acquire>
    502023bc:	0689a783          	lw	a5,104(s3)
    502023c0:	414787bb          	subw	a5,a5,s4
    502023c4:	0007de63          	bgez	a5,502023e0 <do_mbox_recv+0x4e>
    502023c8:	0749a583          	lw	a1,116(s3)
    502023cc:	07c9a503          	lw	a0,124(s3)
    502023d0:	bedff0ef          	jal	ra,50201fbc <do_condition_wait>
    502023d4:	0689a783          	lw	a5,104(s3)
    502023d8:	414787bb          	subw	a5,a5,s4
    502023dc:	fe07c6e3          	bltz	a5,502023c8 <do_mbox_recv+0x36>
    502023e0:	012405b3          	add	a1,s0,s2
    502023e4:	d5bc                	sw	a5,104(a1)
    502023e6:	02490513          	addi	a0,s2,36
    502023ea:	03405a63          	blez	s4,5020241e <do_mbox_recv+0x8c>
    502023ee:	4701                	li	a4,0
    502023f0:	55fc                	lw	a5,108(a1)
    502023f2:	00e48633          	add	a2,s1,a4
    502023f6:	9fb9                	addw	a5,a5,a4
    502023f8:	41f7d69b          	sraiw	a3,a5,0x1f
    502023fc:	01a6d69b          	srliw	a3,a3,0x1a
    50202400:	9fb5                	addw	a5,a5,a3
    50202402:	03f7f793          	andi	a5,a5,63
    50202406:	9f95                	subw	a5,a5,a3
    50202408:	97aa                	add	a5,a5,a0
    5020240a:	97a2                	add	a5,a5,s0
    5020240c:	0007c683          	lbu	a3,0(a5)
    50202410:	0705                	addi	a4,a4,1
    50202412:	0007079b          	sext.w	a5,a4
    50202416:	00d60023          	sb	a3,0(a2)
    5020241a:	fd47cbe3          	blt	a5,s4,502023f0 <do_mbox_recv+0x5e>
    5020241e:	944a                	add	s0,s0,s2
    50202420:	5470                	lw	a2,108(s0)
    50202422:	5c28                	lw	a0,120(s0)
    50202424:	01460a3b          	addw	s4,a2,s4
    50202428:	41fa579b          	sraiw	a5,s4,0x1f
    5020242c:	01a7d79b          	srliw	a5,a5,0x1a
    50202430:	00fa0a3b          	addw	s4,s4,a5
    50202434:	03fa7a13          	andi	s4,s4,63
    50202438:	40fa0a3b          	subw	s4,s4,a5
    5020243c:	07442623          	sw	s4,108(s0)
    50202440:	c3bff0ef          	jal	ra,5020207a <do_condition_broadcast>
    50202444:	5868                	lw	a0,116(s0)
    50202446:	99bff0ef          	jal	ra,50201de0 <do_mutex_lock_release>
    5020244a:	70a2                	ld	ra,40(sp)
    5020244c:	7402                	ld	s0,32(sp)
    5020244e:	64e2                	ld	s1,24(sp)
    50202450:	6942                	ld	s2,16(sp)
    50202452:	69a2                	ld	s3,8(sp)
    50202454:	6a02                	ld	s4,0(sp)
    50202456:	4501                	li	a0,0
    50202458:	6145                	addi	sp,sp,48
    5020245a:	8082                	ret

000000005020245c <smp_init>:
    5020245c:	8082                	ret

000000005020245e <wakeup_other_hart>:
    5020245e:	1141                	addi	sp,sp,-16
    50202460:	e406                	sd	ra,8(sp)
    50202462:	86aff0ef          	jal	ra,502014cc <disable_interrupt>
    50202466:	00002517          	auipc	a0,0x2
    5020246a:	aa250513          	addi	a0,a0,-1374 # 50203f08 <__FUNCTION__.1368+0x30>
    5020246e:	524010ef          	jal	ra,50203992 <printl>
    50202472:	4501                	li	a0,0
    50202474:	adaff0ef          	jal	ra,5020174e <send_ipi>
    50202478:	00002517          	auipc	a0,0x2
    5020247c:	aa850513          	addi	a0,a0,-1368 # 50203f20 <__FUNCTION__.1368+0x48>
    50202480:	512010ef          	jal	ra,50203992 <printl>
    50202484:	850ff0ef          	jal	ra,502014d4 <clear_sip>
    50202488:	60a2                	ld	ra,8(sp)
    5020248a:	0141                	addi	sp,sp,16
    5020248c:	838ff06f          	j	502014c4 <enable_interrupt>

0000000050202490 <lock_kernel>:
    50202490:	00007717          	auipc	a4,0x7
    50202494:	4f070713          	addi	a4,a4,1264 # 50209980 <core_lock>
    50202498:	4685                	li	a3,1
    5020249a:	4605                	li	a2,1
    5020249c:	0ed727af          	amoswap.w.aqrl	a5,a3,(a4)
    502024a0:	2781                	sext.w	a5,a5
    502024a2:	fec78de3          	beq	a5,a2,5020249c <lock_kernel+0xc>
    502024a6:	8082                	ret

00000000502024a8 <unlock_kernel>:
    502024a8:	00007797          	auipc	a5,0x7
    502024ac:	4c07ac23          	sw	zero,1240(a5) # 50209980 <core_lock>
    502024b0:	8082                	ret

00000000502024b2 <get_ticks>:
    502024b2:	c0102573          	rdtime	a0
    502024b6:	00002797          	auipc	a5,0x2
    502024ba:	f4a7b923          	sd	a0,-174(a5) # 50204408 <time_elapsed>
    502024be:	8082                	ret

00000000502024c0 <get_timer>:
    502024c0:	c01027f3          	rdtime	a5
    502024c4:	00002517          	auipc	a0,0x2
    502024c8:	f3c53503          	ld	a0,-196(a0) # 50204400 <time_base>
    502024cc:	02a7d533          	divu	a0,a5,a0
    502024d0:	00002717          	auipc	a4,0x2
    502024d4:	f2f73c23          	sd	a5,-200(a4) # 50204408 <time_elapsed>
    502024d8:	8082                	ret

00000000502024da <get_time_base>:
    502024da:	00002517          	auipc	a0,0x2
    502024de:	f2653503          	ld	a0,-218(a0) # 50204400 <time_base>
    502024e2:	8082                	ret

00000000502024e4 <latency>:
    502024e4:	c01026f3          	rdtime	a3
    502024e8:	00002617          	auipc	a2,0x2
    502024ec:	f1860613          	addi	a2,a2,-232 # 50204400 <time_base>
    502024f0:	621c                	ld	a5,0(a2)
    502024f2:	00002597          	auipc	a1,0x2
    502024f6:	f1658593          	addi	a1,a1,-234 # 50204408 <time_elapsed>
    502024fa:	02f6d6b3          	divu	a3,a3,a5
    502024fe:	c01027f3          	rdtime	a5
    50202502:	6218                	ld	a4,0(a2)
    50202504:	e19c                	sd	a5,0(a1)
    50202506:	02e7d7b3          	divu	a5,a5,a4
    5020250a:	8f95                	sub	a5,a5,a3
    5020250c:	fea7e9e3          	bltu	a5,a0,502024fe <latency+0x1a>
    50202510:	8082                	ret

0000000050202512 <check_sleeping>:
    50202512:	00002797          	auipc	a5,0x2
    50202516:	ebe78793          	addi	a5,a5,-322 # 502043d0 <sleep_queue>
    5020251a:	0087b883          	ld	a7,8(a5)
    5020251e:	6398                	ld	a4,0(a5)
    50202520:	00002e17          	auipc	t3,0x2
    50202524:	ee8e0e13          	addi	t3,t3,-280 # 50204408 <time_elapsed>
    50202528:	86c6                	mv	a3,a7
    5020252a:	00002317          	auipc	t1,0x2
    5020252e:	ed630313          	addi	t1,t1,-298 # 50204400 <time_base>
    50202532:	4e89                	li	t4,2
    50202534:	00002817          	auipc	a6,0x2
    50202538:	d2c80813          	addi	a6,a6,-724 # 50204260 <ready_queue>
    5020253c:	04f68a63          	beq	a3,a5,50202590 <check_sleeping+0x7e>
    50202540:	06e68563          	beq	a3,a4,502025aa <check_sleeping+0x98>
    50202544:	6714                	ld	a3,8(a4)
    50202546:	e29c                	sd	a5,0(a3)
    50202548:	e394                	sd	a3,0(a5)
    5020254a:	ff070613          	addi	a2,a4,-16
    5020254e:	c01026f3          	rdtime	a3
    50202552:	00033503          	ld	a0,0(t1)
    50202556:	00de3023          	sd	a3,0(t3)
    5020255a:	662c                	ld	a1,72(a2)
    5020255c:	02a6d6b3          	divu	a3,a3,a0
    50202560:	02b6eb63          	bltu	a3,a1,50202596 <check_sleeping+0x84>
    50202564:	5e14                	lw	a3,56(a2)
    50202566:	ee99                	bnez	a3,50202584 <check_sleeping+0x72>
    50202568:	00883683          	ld	a3,8(a6)
    5020256c:	03d62c23          	sw	t4,56(a2)
    50202570:	04063423          	sd	zero,72(a2)
    50202574:	05068663          	beq	a3,a6,502025c0 <check_sleeping+0xae>
    50202578:	00e83423          	sd	a4,8(a6)
    5020257c:	e314                	sd	a3,0(a4)
    5020257e:	01073423          	sd	a6,8(a4)
    50202582:	e698                	sd	a4,8(a3)
    50202584:	02e88263          	beq	a7,a4,502025a8 <check_sleeping+0x96>
    50202588:	6794                	ld	a3,8(a5)
    5020258a:	6398                	ld	a4,0(a5)
    5020258c:	faf69ae3          	bne	a3,a5,50202540 <check_sleeping+0x2e>
    50202590:	faf71ae3          	bne	a4,a5,50202544 <check_sleeping+0x32>
    50202594:	8082                	ret
    50202596:	6794                	ld	a3,8(a5)
    50202598:	00f68c63          	beq	a3,a5,502025b0 <check_sleeping+0x9e>
    5020259c:	e798                	sd	a4,8(a5)
    5020259e:	e314                	sd	a3,0(a4)
    502025a0:	e71c                	sd	a5,8(a4)
    502025a2:	e698                	sd	a4,8(a3)
    502025a4:	fee892e3          	bne	a7,a4,50202588 <check_sleeping+0x76>
    502025a8:	8082                	ret
    502025aa:	e39c                	sd	a5,0(a5)
    502025ac:	e79c                	sd	a5,8(a5)
    502025ae:	bf71                	j	5020254a <check_sleeping+0x38>
    502025b0:	6390                	ld	a2,0(a5)
    502025b2:	fef615e3          	bne	a2,a5,5020259c <check_sleeping+0x8a>
    502025b6:	e798                	sd	a4,8(a5)
    502025b8:	e398                	sd	a4,0(a5)
    502025ba:	e31c                	sd	a5,0(a4)
    502025bc:	e71c                	sd	a5,8(a4)
    502025be:	b7d9                	j	50202584 <check_sleeping+0x72>
    502025c0:	00083603          	ld	a2,0(a6)
    502025c4:	fb061ae3          	bne	a2,a6,50202578 <check_sleeping+0x66>
    502025c8:	00e83423          	sd	a4,8(a6)
    502025cc:	00e83023          	sd	a4,0(a6)
    502025d0:	01073023          	sd	a6,0(a4)
    502025d4:	01073423          	sd	a6,8(a4)
    502025d8:	b775                	j	50202584 <check_sleeping+0x72>

00000000502025da <alloc_pid>:
    502025da:	00008617          	auipc	a2,0x8
    502025de:	92e60613          	addi	a2,a2,-1746 # 50209f08 <pid_valid>
    502025e2:	87b2                	mv	a5,a2
    502025e4:	4501                	li	a0,0
    502025e6:	46c1                	li	a3,16
    502025e8:	4398                	lw	a4,0(a5)
    502025ea:	0791                	addi	a5,a5,4
    502025ec:	c711                	beqz	a4,502025f8 <alloc_pid+0x1e>
    502025ee:	2505                	addiw	a0,a0,1
    502025f0:	fed51ce3          	bne	a0,a3,502025e8 <alloc_pid+0xe>
    502025f4:	4501                	li	a0,0
    502025f6:	8082                	ret
    502025f8:	00251793          	slli	a5,a0,0x2
    502025fc:	963e                	add	a2,a2,a5
    502025fe:	4785                	li	a5,1
    50202600:	c21c                	sw	a5,0(a2)
    50202602:	8082                	ret

0000000050202604 <recover_pid>:
    50202604:	fff5071b          	addiw	a4,a0,-1
    50202608:	47b9                	li	a5,14
    5020260a:	00e7eb63          	bltu	a5,a4,50202620 <recover_pid+0x1c>
    5020260e:	050a                	slli	a0,a0,0x2
    50202610:	00008797          	auipc	a5,0x8
    50202614:	8f878793          	addi	a5,a5,-1800 # 50209f08 <pid_valid>
    50202618:	953e                	add	a0,a0,a5
    5020261a:	00052023          	sw	zero,0(a0)
    5020261e:	8082                	ret
    50202620:	00002517          	auipc	a0,0x2
    50202624:	91050513          	addi	a0,a0,-1776 # 50203f30 <__FUNCTION__.1368+0x58>
    50202628:	3120106f          	j	5020393a <printk>

000000005020262c <add_pcb_stack>:
    5020262c:	7175                	addi	sp,sp,-144
    5020262e:	e68c                	sd	a1,8(a3)
    50202630:	f4ce                	sd	s3,104(sp)
    50202632:	89aa                	mv	s3,a0
    50202634:	00002517          	auipc	a0,0x2
    50202638:	91450513          	addi	a0,a0,-1772 # 50203f48 <__FUNCTION__.1368+0x70>
    5020263c:	e506                	sd	ra,136(sp)
    5020263e:	e122                	sd	s0,128(sp)
    50202640:	fca6                	sd	s1,120(sp)
    50202642:	f8ca                	sd	s2,112(sp)
    50202644:	84b6                	mv	s1,a3
    50202646:	893a                	mv	s2,a4
    50202648:	f0d2                	sd	s4,96(sp)
    5020264a:	ec32                	sd	a2,24(sp)
    5020264c:	8a2e                	mv	s4,a1
    5020264e:	843e                	mv	s0,a5
    50202650:	ecd6                	sd	s5,88(sp)
    50202652:	e8da                	sd	s6,80(sp)
    50202654:	e4de                	sd	s7,72(sp)
    50202656:	e0e2                	sd	s8,64(sp)
    50202658:	fc66                	sd	s9,56(sp)
    5020265a:	f86a                	sd	s10,48(sp)
    5020265c:	f46e                	sd	s11,40(sp)
    5020265e:	e82e                	sd	a1,16(sp)
    50202660:	332010ef          	jal	ra,50203992 <printl>
    50202664:	6498                	ld	a4,8(s1)
    50202666:	00391593          	slli	a1,s2,0x3
    5020266a:	40ba0a33          	sub	s4,s4,a1
    5020266e:	8f0d                	sub	a4,a4,a1
    50202670:	e498                	sd	a4,8(s1)
    50202672:	00002517          	auipc	a0,0x2
    50202676:	8fe50513          	addi	a0,a0,-1794 # 50203f70 <__FUNCTION__.1368+0x98>
    5020267a:	e452                	sd	s4,8(sp)
    5020267c:	316010ef          	jal	ra,50203992 <printl>
    50202680:	85d2                	mv	a1,s4
    50202682:	00002517          	auipc	a0,0x2
    50202686:	90650513          	addi	a0,a0,-1786 # 50203f88 <__FUNCTION__.1368+0xb0>
    5020268a:	308010ef          	jal	ra,50203992 <printl>
    5020268e:	85ca                	mv	a1,s2
    50202690:	00002517          	auipc	a0,0x2
    50202694:	91850513          	addi	a0,a0,-1768 # 50203fa8 <__FUNCTION__.1368+0xd0>
    50202698:	2fa010ef          	jal	ra,50203992 <printl>
    5020269c:	09205063          	blez	s2,5020271c <add_pcb_stack+0xf0>
    502026a0:	4d01                	li	s10,0
    502026a2:	408a0cb3          	sub	s9,s4,s0
    502026a6:	00002c17          	auipc	s8,0x2
    502026aa:	912c0c13          	addi	s8,s8,-1774 # 50203fb8 <__FUNCTION__.1368+0xe0>
    502026ae:	00002b97          	auipc	s7,0x2
    502026b2:	92ab8b93          	addi	s7,s7,-1750 # 50203fd8 <__FUNCTION__.1368+0x100>
    502026b6:	00002b17          	auipc	s6,0x2
    502026ba:	932b0b13          	addi	s6,s6,-1742 # 50203fe8 <__FUNCTION__.1368+0x110>
    502026be:	00002a97          	auipc	s5,0x2
    502026c2:	93aa8a93          	addi	s5,s5,-1734 # 50203ff8 <__FUNCTION__.1368+0x120>
    502026c6:	008c8db3          	add	s11,s9,s0
    502026ca:	866e                	mv	a2,s11
    502026cc:	85ea                	mv	a1,s10
    502026ce:	8562                	mv	a0,s8
    502026d0:	2c2010ef          	jal	ra,50203992 <printl>
    502026d4:	6008                	ld	a0,0(s0)
    502026d6:	0421                	addi	s0,s0,8
    502026d8:	33a010ef          	jal	ra,50203a12 <strlen>
    502026dc:	8a2a                	mv	s4,a0
    502026de:	85aa                	mv	a1,a0
    502026e0:	855e                	mv	a0,s7
    502026e2:	2b0010ef          	jal	ra,50203992 <printl>
    502026e6:	649c                	ld	a5,8(s1)
    502026e8:	ff843583          	ld	a1,-8(s0)
    502026ec:	001a071b          	addiw	a4,s4,1
    502026f0:	40e78a33          	sub	s4,a5,a4
    502026f4:	0144b423          	sd	s4,8(s1)
    502026f8:	8552                	mv	a0,s4
    502026fa:	3a0010ef          	jal	ra,50203a9a <strcpy>
    502026fe:	85d2                	mv	a1,s4
    50202700:	014db023          	sd	s4,0(s11)
    50202704:	855a                	mv	a0,s6
    50202706:	28c010ef          	jal	ra,50203992 <printl>
    5020270a:	000db603          	ld	a2,0(s11)
    5020270e:	85ea                	mv	a1,s10
    50202710:	8556                	mv	a0,s5
    50202712:	2d05                	addiw	s10,s10,1
    50202714:	27e010ef          	jal	ra,50203992 <printl>
    50202718:	fba917e3          	bne	s2,s10,502026c6 <add_pcb_stack+0x9a>
    5020271c:	67c2                	ld	a5,16(sp)
    5020271e:	648c                	ld	a1,8(s1)
    50202720:	00002517          	auipc	a0,0x2
    50202724:	8f850513          	addi	a0,a0,-1800 # 50204018 <__FUNCTION__.1368+0x140>
    50202728:	40b785b3          	sub	a1,a5,a1
    5020272c:	819d                	srli	a1,a1,0x7
    5020272e:	2585                	addiw	a1,a1,1
    50202730:	0075959b          	slliw	a1,a1,0x7
    50202734:	40b785b3          	sub	a1,a5,a1
    50202738:	e48c                	sd	a1,8(s1)
    5020273a:	258010ef          	jal	ra,50203992 <printl>
    5020273e:	649c                	ld	a5,8(s1)
    50202740:	fffff717          	auipc	a4,0xfffff
    50202744:	e1c70713          	addi	a4,a4,-484 # 5020155c <ret_from_exception>
    50202748:	f329b823          	sd	s2,-208(s3)
    5020274c:	eef9b823          	sd	a5,-272(s3)
    50202750:	67a2                	ld	a5,8(sp)
    50202752:	eee9b423          	sd	a4,-280(s3)
    50202756:	e6e9b823          	sd	a4,-400(s3)
    5020275a:	f2f9bc23          	sd	a5,-200(s3)
    5020275e:	67e2                	ld	a5,24(sp)
    50202760:	60aa                	ld	ra,136(sp)
    50202762:	640a                	ld	s0,128(sp)
    50202764:	fef9b423          	sd	a5,-24(s3)
    50202768:	02000793          	li	a5,32
    5020276c:	fef9b023          	sd	a5,-32(s3)
    50202770:	e7098793          	addi	a5,s3,-400
    50202774:	e09c                	sd	a5,0(s1)
    50202776:	e79c                	sd	a5,8(a5)
    50202778:	74e6                	ld	s1,120(sp)
    5020277a:	7946                	ld	s2,112(sp)
    5020277c:	79a6                	ld	s3,104(sp)
    5020277e:	7a06                	ld	s4,96(sp)
    50202780:	6ae6                	ld	s5,88(sp)
    50202782:	6b46                	ld	s6,80(sp)
    50202784:	6ba6                	ld	s7,72(sp)
    50202786:	6c06                	ld	s8,64(sp)
    50202788:	7ce2                	ld	s9,56(sp)
    5020278a:	7d42                	ld	s10,48(sp)
    5020278c:	7da2                	ld	s11,40(sp)
    5020278e:	6149                	addi	sp,sp,144
    50202790:	8082                	ret

0000000050202792 <add_pcb>:
    50202792:	7175                	addi	sp,sp,-144
    50202794:	fca6                	sd	s1,120(sp)
    50202796:	f8ca                	sd	s2,112(sp)
    50202798:	f4ce                	sd	s3,104(sp)
    5020279a:	f0d2                	sd	s4,96(sp)
    5020279c:	ecd6                	sd	s5,88(sp)
    5020279e:	e8da                	sd	s6,80(sp)
    502027a0:	e4de                	sd	s7,72(sp)
    502027a2:	e506                	sd	ra,136(sp)
    502027a4:	e122                	sd	s0,128(sp)
    502027a6:	e0e2                	sd	s8,64(sp)
    502027a8:	fc66                	sd	s9,56(sp)
    502027aa:	f86a                	sd	s10,48(sp)
    502027ac:	f46e                	sd	s11,40(sp)
    502027ae:	89aa                	mv	s3,a0
    502027b0:	8a2e                	mv	s4,a1
    502027b2:	8ab2                	mv	s5,a2
    502027b4:	8b36                	mv	s6,a3
    502027b6:	00004497          	auipc	s1,0x4
    502027ba:	b9a48493          	addi	s1,s1,-1126 # 50206350 <tasks>
    502027be:	4901                	li	s2,0
    502027c0:	4bc1                	li	s7,16
    502027c2:	8526                	mv	a0,s1
    502027c4:	85ce                	mv	a1,s3
    502027c6:	26c010ef          	jal	ra,50203a32 <strcmp>
    502027ca:	842a                	mv	s0,a0
    502027cc:	c515                	beqz	a0,502027f8 <add_pcb+0x66>
    502027ce:	2905                	addiw	s2,s2,1
    502027d0:	04f1                	addi	s1,s1,28
    502027d2:	ff7918e3          	bne	s2,s7,502027c2 <add_pcb+0x30>
    502027d6:	4401                	li	s0,0
    502027d8:	60aa                	ld	ra,136(sp)
    502027da:	8522                	mv	a0,s0
    502027dc:	640a                	ld	s0,128(sp)
    502027de:	74e6                	ld	s1,120(sp)
    502027e0:	7946                	ld	s2,112(sp)
    502027e2:	79a6                	ld	s3,104(sp)
    502027e4:	7a06                	ld	s4,96(sp)
    502027e6:	6ae6                	ld	s5,88(sp)
    502027e8:	6b46                	ld	s6,80(sp)
    502027ea:	6ba6                	ld	s7,72(sp)
    502027ec:	6c06                	ld	s8,64(sp)
    502027ee:	7ce2                	ld	s9,56(sp)
    502027f0:	7d42                	ld	s10,48(sp)
    502027f2:	7da2                	ld	s11,40(sp)
    502027f4:	6149                	addi	sp,sp,144
    502027f6:	8082                	ret
    502027f8:	00007597          	auipc	a1,0x7
    502027fc:	71058593          	addi	a1,a1,1808 # 50209f08 <pid_valid>
    50202800:	872e                	mv	a4,a1
    50202802:	4781                	li	a5,0
    50202804:	4641                	li	a2,16
    50202806:	4314                	lw	a3,0(a4)
    50202808:	0711                	addi	a4,a4,4
    5020280a:	10068d63          	beqz	a3,50202924 <add_pcb+0x192>
    5020280e:	2785                	addiw	a5,a5,1
    50202810:	fec79be3          	bne	a5,a2,50202806 <add_pcb+0x74>
    50202814:	00007997          	auipc	s3,0x7
    50202818:	74c98993          	addi	s3,s3,1868 # 50209f60 <pcb>
    5020281c:	4cc1                	li	s9,16
    5020281e:	0ac00813          	li	a6,172
    50202822:	0a400893          	li	a7,164
    50202826:	02000613          	li	a2,32
    5020282a:	09000d13          	li	s10,144
    5020282e:	86ce                	mv	a3,s3
    50202830:	0b000713          	li	a4,176
    50202834:	02e405b3          	mul	a1,s0,a4
    50202838:	00c98733          	add	a4,s3,a2
    5020283c:	4505                	li	a0,1
    5020283e:	00b98633          	add	a2,s3,a1
    50202842:	06058793          	addi	a5,a1,96
    50202846:	f618                	sd	a4,40(a2)
    50202848:	f218                	sd	a4,32(a2)
    5020284a:	00007717          	auipc	a4,0x7
    5020284e:	79e70713          	addi	a4,a4,1950 # 50209fe8 <pcb+0x88>
    50202852:	da48                	sw	a0,52(a2)
    50202854:	97ce                	add	a5,a5,s3
    50202856:	972e                	add	a4,a4,a1
    50202858:	0007a023          	sw	zero,0(a5)
    5020285c:	0791                	addi	a5,a5,4
    5020285e:	fee79de3          	bne	a5,a4,50202858 <add_pcb+0xc6>
    50202862:	0b000c13          	li	s8,176
    50202866:	03840c33          	mul	s8,s0,s8
    5020286a:	e436                	sd	a3,8(sp)
    5020286c:	ec42                	sd	a6,24(sp)
    5020286e:	e846                	sd	a7,16(sp)
    50202870:	9d4e                	add	s10,s10,s3
    50202872:	4d85                	li	s11,1
    50202874:	01898bb3          	add	s7,s3,s8
    50202878:	096ba423          	sw	s6,136(s7)
    5020287c:	de5fe0ef          	jal	ra,50201660 <get_current_cpu_id>
    50202880:	87aa                	mv	a5,a0
    50202882:	08fba623          	sw	a5,140(s7)
    50202886:	854a                	mv	a0,s2
    50202888:	b9aff0ef          	jal	ra,50201c22 <load_task_img_j>
    5020288c:	85a6                	mv	a1,s1
    5020288e:	8b2a                	mv	s6,a0
    50202890:	856a                	mv	a0,s10
    50202892:	208010ef          	jal	ra,50203a9a <strcpy>
    50202896:	866a                	mv	a2,s10
    50202898:	85ca                	mv	a1,s2
    5020289a:	00001517          	auipc	a0,0x1
    5020289e:	7a650513          	addi	a0,a0,1958 # 50204040 <__FUNCTION__.1368+0x168>
    502028a2:	0f0010ef          	jal	ra,50203992 <printl>
    502028a6:	68c2                	ld	a7,16(sp)
    502028a8:	4505                	li	a0,1
    502028aa:	011985b3          	add	a1,s3,a7
    502028ae:	bb8ff0ef          	jal	ra,50201c66 <allocKernelPage>
    502028b2:	6862                	ld	a6,24(sp)
    502028b4:	84aa                	mv	s1,a0
    502028b6:	0bbba023          	sw	s11,160(s7)
    502028ba:	010985b3          	add	a1,s3,a6
    502028be:	4505                	li	a0,1
    502028c0:	be4ff0ef          	jal	ra,50201ca4 <allocUserPage>
    502028c4:	66a2                	ld	a3,8(sp)
    502028c6:	6805                	lui	a6,0x1
    502028c8:	87d6                	mv	a5,s5
    502028ca:	8752                	mv	a4,s4
    502028cc:	010505b3          	add	a1,a0,a6
    502028d0:	865a                	mv	a2,s6
    502028d2:	01048533          	add	a0,s1,a6
    502028d6:	0bbba423          	sw	s11,168(s7)
    502028da:	d53ff0ef          	jal	ra,5020262c <add_pcb_stack>
    502028de:	00007797          	auipc	a5,0x7
    502028e2:	6b278793          	addi	a5,a5,1714 # 50209f90 <pcb+0x30>
    502028e6:	00002717          	auipc	a4,0x2
    502028ea:	97a70713          	addi	a4,a4,-1670 # 50204260 <ready_queue>
    502028ee:	9c3e                	add	s8,s8,a5
    502028f0:	6714                	ld	a3,8(a4)
    502028f2:	4789                	li	a5,2
    502028f4:	028ba823          	sw	s0,48(s7)
    502028f8:	040ba023          	sw	zero,64(s7)
    502028fc:	00fc3423          	sd	a5,8(s8)
    50202900:	040bb423          	sd	zero,72(s7)
    50202904:	019987b3          	add	a5,s3,s9
    50202908:	04e68863          	beq	a3,a4,50202958 <add_pcb+0x1c6>
    5020290c:	0b000613          	li	a2,176
    50202910:	02c40633          	mul	a2,s0,a2
    50202914:	e71c                	sd	a5,8(a4)
    50202916:	99b2                	add	s3,s3,a2
    50202918:	00d9b823          	sd	a3,16(s3)
    5020291c:	00e9bc23          	sd	a4,24(s3)
    50202920:	e69c                	sd	a5,8(a3)
    50202922:	bd5d                	j	502027d8 <add_pcb+0x46>
    50202924:	0b000c93          	li	s9,176
    50202928:	03978cb3          	mul	s9,a5,s9
    5020292c:	00279713          	slli	a4,a5,0x2
    50202930:	95ba                	add	a1,a1,a4
    50202932:	00007997          	auipc	s3,0x7
    50202936:	62e98993          	addi	s3,s3,1582 # 50209f60 <pcb>
    5020293a:	4705                	li	a4,1
    5020293c:	c198                	sw	a4,0(a1)
    5020293e:	843e                	mv	s0,a5
    50202940:	019986b3          	add	a3,s3,s9
    50202944:	090c8d13          	addi	s10,s9,144
    50202948:	020c8613          	addi	a2,s9,32
    5020294c:	0a4c8893          	addi	a7,s9,164
    50202950:	0acc8813          	addi	a6,s9,172
    50202954:	0cc1                	addi	s9,s9,16
    50202956:	bde9                	j	50202830 <add_pcb+0x9e>
    50202958:	6290                	ld	a2,0(a3)
    5020295a:	fad619e3          	bne	a2,a3,5020290c <add_pcb+0x17a>
    5020295e:	e21c                	sd	a5,0(a2)
    50202960:	e61c                	sd	a5,8(a2)
    50202962:	00cbb823          	sd	a2,16(s7)
    50202966:	00cbbc23          	sd	a2,24(s7)
    5020296a:	b5bd                	j	502027d8 <add_pcb+0x46>

000000005020296c <do_scheduler>:
    5020296c:	7119                	addi	sp,sp,-128
    5020296e:	f06a                	sd	s10,32(sp)
    50202970:	6d31                	lui	s10,0xc
    50202972:	350d0793          	addi	a5,s10,848 # c350 <TEXT_START-0x501f4cb0>
    50202976:	f8a2                	sd	s0,112(sp)
    50202978:	ecce                	sd	s3,88(sp)
    5020297a:	e8d2                	sd	s4,80(sp)
    5020297c:	e0da                	sd	s6,64(sp)
    5020297e:	fc5e                	sd	s7,56(sp)
    50202980:	f862                	sd	s8,48(sp)
    50202982:	f466                	sd	s9,40(sp)
    50202984:	ec6e                	sd	s11,24(sp)
    50202986:	fc86                	sd	ra,120(sp)
    50202988:	f4a6                	sd	s1,104(sp)
    5020298a:	f0ca                	sd	s2,96(sp)
    5020298c:	e4d6                	sd	s5,72(sp)
    5020298e:	00007d97          	auipc	s11,0x7
    50202992:	5c2d8d93          	addi	s11,s11,1474 # 50209f50 <current_running>
    50202996:	00002417          	auipc	s0,0x2
    5020299a:	8ca40413          	addi	s0,s0,-1846 # 50204260 <ready_queue>
    5020299e:	00002997          	auipc	s3,0x2
    502029a2:	98298993          	addi	s3,s3,-1662 # 50204320 <pid0_pcb>
    502029a6:	00007c17          	auipc	s8,0x7
    502029aa:	5a2c0c13          	addi	s8,s8,1442 # 50209f48 <current_running_n>
    502029ae:	00007b97          	auipc	s7,0x7
    502029b2:	5aab8b93          	addi	s7,s7,1450 # 50209f58 <current_running_m>
    502029b6:	4a05                	li	s4,1
    502029b8:	00002c97          	auipc	s9,0x2
    502029bc:	a40c8c93          	addi	s9,s9,-1472 # 502043f8 <if_first_do_sche>
    502029c0:	e43e                	sd	a5,8(sp)
    502029c2:	00002b17          	auipc	s6,0x2
    502029c6:	8aeb0b13          	addi	s6,s6,-1874 # 50204270 <pidn_pcb>
    502029ca:	a095                	j	50202a2e <do_scheduler+0xc2>
    502029cc:	000bb783          	ld	a5,0(s7)
    502029d0:	00fdb023          	sd	a5,0(s11)
    502029d4:	b3fff0ef          	jal	ra,50202512 <check_sleeping>
    502029d8:	000db783          	ld	a5,0(s11)
    502029dc:	5f9c                	lw	a5,56(a5)
    502029de:	01479663          	bne	a5,s4,502029ea <do_scheduler+0x7e>
    502029e2:	000db783          	ld	a5,0(s11)
    502029e6:	4709                	li	a4,2
    502029e8:	df98                	sw	a4,56(a5)
    502029ea:	641c                	ld	a5,8(s0)
    502029ec:	000dbd03          	ld	s10,0(s11)
    502029f0:	00043903          	ld	s2,0(s0)
    502029f4:	08878463          	beq	a5,s0,50202a7c <do_scheduler+0x110>
    502029f8:	0f278b63          	beq	a5,s2,50202aee <do_scheduler+0x182>
    502029fc:	00893783          	ld	a5,8(s2)
    50202a00:	e380                	sd	s0,0(a5)
    50202a02:	e01c                	sd	a5,0(s0)
    50202a04:	07892783          	lw	a5,120(s2)
    50202a08:	468d                	li	a3,3
    50202a0a:	00d78563          	beq	a5,a3,50202a14 <do_scheduler+0xa8>
    50202a0e:	37fd                	addiw	a5,a5,-1
    50202a10:	14979263          	bne	a5,s1,50202b54 <do_scheduler+0x1e8>
    50202a14:	000db783          	ld	a5,0(s11)
    50202a18:	03378563          	beq	a5,s3,50202a42 <do_scheduler+0xd6>
    50202a1c:	000db783          	ld	a5,0(s11)
    50202a20:	03678163          	beq	a5,s6,50202a42 <do_scheduler+0xd6>
    50202a24:	02892683          	lw	a3,40(s2)
    50202a28:	478d                	li	a5,3
    50202a2a:	02f69e63          	bne	a3,a5,50202a66 <do_scheduler+0xfa>
    50202a2e:	c33fe0ef          	jal	ra,50201660 <get_current_cpu_id>
    50202a32:	84aa                	mv	s1,a0
    50202a34:	8aaa                	mv	s5,a0
    50202a36:	d959                	beqz	a0,502029cc <do_scheduler+0x60>
    50202a38:	000c3783          	ld	a5,0(s8)
    50202a3c:	00fdb023          	sd	a5,0(s11)
    50202a40:	bf51                	j	502029d4 <do_scheduler+0x68>
    50202a42:	000ca783          	lw	a5,0(s9)
    50202a46:	dff9                	beqz	a5,50202a24 <do_scheduler+0xb8>
    50202a48:	a6bff0ef          	jal	ra,502024b2 <get_ticks>
    50202a4c:	67a2                	ld	a5,8(sp)
    50202a4e:	953e                	add	a0,a0,a5
    50202a50:	cc5fe0ef          	jal	ra,50201714 <set_timer>
    50202a54:	02892683          	lw	a3,40(s2)
    50202a58:	00002797          	auipc	a5,0x2
    50202a5c:	9a07a023          	sw	zero,-1632(a5) # 502043f8 <if_first_do_sche>
    50202a60:	478d                	li	a5,3
    50202a62:	fcf686e3          	beq	a3,a5,50202a2e <do_scheduler+0xc2>
    50202a66:	ff090593          	addi	a1,s2,-16
    50202a6a:	000db783          	ld	a5,0(s11)
    50202a6e:	05378363          	beq	a5,s3,50202ab4 <do_scheduler+0x148>
    50202a72:	00001797          	auipc	a5,0x1
    50202a76:	7fe78793          	addi	a5,a5,2046 # 50204270 <pidn_pcb>
    50202a7a:	a01d                	j	50202aa0 <do_scheduler+0x134>
    50202a7c:	f88910e3          	bne	s2,s0,502029fc <do_scheduler+0x90>
    50202a80:	000db683          	ld	a3,0(s11)
    50202a84:	4785                	li	a5,1
    50202a86:	5e94                	lw	a3,56(a3)
    50202a88:	0af68e63          	beq	a3,a5,50202b44 <do_scheduler+0x1d8>
    50202a8c:	cca5                	beqz	s1,50202b04 <do_scheduler+0x198>
    50202a8e:	000db683          	ld	a3,0(s11)
    50202a92:	00001597          	auipc	a1,0x1
    50202a96:	7de58593          	addi	a1,a1,2014 # 50204270 <pidn_pcb>
    50202a9a:	87ae                	mv	a5,a1
    50202a9c:	11368263          	beq	a3,s3,50202ba0 <do_scheduler+0x234>
    50202aa0:	000db683          	ld	a3,0(s11)
    50202aa4:	00f68863          	beq	a3,a5,50202ab4 <do_scheduler+0x148>
    50202aa8:	000db683          	ld	a3,0(s11)
    50202aac:	4789                	li	a5,2
    50202aae:	5e94                	lw	a3,56(a3)
    50202ab0:	0cf68c63          	beq	a3,a5,50202b88 <do_scheduler+0x21c>
    50202ab4:	4785                	li	a5,1
    50202ab6:	dd9c                	sw	a5,56(a1)
    50202ab8:	00bdb023          	sd	a1,0(s11)
    50202abc:	060a8f63          	beqz	s5,50202b3a <do_scheduler+0x1ce>
    50202ac0:	00007797          	auipc	a5,0x7
    50202ac4:	48b7b423          	sd	a1,1160(a5) # 50209f48 <current_running_n>
    50202ac8:	7446                	ld	s0,112(sp)
    50202aca:	70e6                	ld	ra,120(sp)
    50202acc:	7906                	ld	s2,96(sp)
    50202ace:	69e6                	ld	s3,88(sp)
    50202ad0:	6a46                	ld	s4,80(sp)
    50202ad2:	6aa6                	ld	s5,72(sp)
    50202ad4:	6b06                	ld	s6,64(sp)
    50202ad6:	7be2                	ld	s7,56(sp)
    50202ad8:	7c42                	ld	s8,48(sp)
    50202ada:	7ca2                	ld	s9,40(sp)
    50202adc:	6de2                	ld	s11,24(sp)
    50202ade:	0895a623          	sw	s1,140(a1)
    50202ae2:	856a                	mv	a0,s10
    50202ae4:	74a6                	ld	s1,104(sp)
    50202ae6:	7d02                	ld	s10,32(sp)
    50202ae8:	6109                	addi	sp,sp,128
    50202aea:	9f3fe06f          	j	502014dc <switch_to>
    50202aee:	e000                	sd	s0,0(s0)
    50202af0:	e400                	sd	s0,8(s0)
    50202af2:	f00919e3          	bnez	s2,50202a04 <do_scheduler+0x98>
    50202af6:	000db683          	ld	a3,0(s11)
    50202afa:	4785                	li	a5,1
    50202afc:	5e94                	lw	a3,56(a3)
    50202afe:	f8f697e3          	bne	a3,a5,50202a8c <do_scheduler+0x120>
    50202b02:	a089                	j	50202b44 <do_scheduler+0x1d8>
    50202b04:	000db583          	ld	a1,0(s11)
    50202b08:	0b358163          	beq	a1,s3,50202baa <do_scheduler+0x23e>
    50202b0c:	000db683          	ld	a3,0(s11)
    50202b10:	00001797          	auipc	a5,0x1
    50202b14:	76078793          	addi	a5,a5,1888 # 50204270 <pidn_pcb>
    50202b18:	00f68863          	beq	a3,a5,50202b28 <do_scheduler+0x1bc>
    50202b1c:	000db683          	ld	a3,0(s11)
    50202b20:	4789                	li	a5,2
    50202b22:	5e94                	lw	a3,56(a3)
    50202b24:	04f68d63          	beq	a3,a5,50202b7e <do_scheduler+0x212>
    50202b28:	4785                	li	a5,1
    50202b2a:	0ef42c23          	sw	a5,248(s0)
    50202b2e:	013db023          	sd	s3,0(s11)
    50202b32:	00001597          	auipc	a1,0x1
    50202b36:	7ee58593          	addi	a1,a1,2030 # 50204320 <pid0_pcb>
    50202b3a:	00007797          	auipc	a5,0x7
    50202b3e:	40b7bf23          	sd	a1,1054(a5) # 50209f58 <current_running_m>
    50202b42:	b759                	j	50202ac8 <do_scheduler+0x15c>
    50202b44:	000db583          	ld	a1,0(s11)
    50202b48:	856a                	mv	a0,s10
    50202b4a:	e42e                	sd	a1,8(sp)
    50202b4c:	991fe0ef          	jal	ra,502014dc <switch_to>
    50202b50:	65a2                	ld	a1,8(sp)
    50202b52:	bf21                	j	50202a6a <do_scheduler+0xfe>
    50202b54:	08090593          	addi	a1,s2,128
    50202b58:	00001517          	auipc	a0,0x1
    50202b5c:	50050513          	addi	a0,a0,1280 # 50204058 <__FUNCTION__.1368+0x180>
    50202b60:	633000ef          	jal	ra,50203992 <printl>
    50202b64:	641c                	ld	a5,8(s0)
    50202b66:	04878863          	beq	a5,s0,50202bb6 <do_scheduler+0x24a>
    50202b6a:	01243423          	sd	s2,8(s0)
    50202b6e:	00f93023          	sd	a5,0(s2)
    50202b72:	00893423          	sd	s0,8(s2)
    50202b76:	0127b423          	sd	s2,8(a5)
    50202b7a:	d4c9                	beqz	s1,50202b04 <do_scheduler+0x198>
    50202b7c:	bf09                	j	50202a8e <do_scheduler+0x122>
    50202b7e:	00001597          	auipc	a1,0x1
    50202b82:	7a258593          	addi	a1,a1,1954 # 50204320 <pid0_pcb>
    50202b86:	4a81                	li	s5,0
    50202b88:	641c                	ld	a5,8(s0)
    50202b8a:	010d0693          	addi	a3,s10,16
    50202b8e:	04878163          	beq	a5,s0,50202bd0 <do_scheduler+0x264>
    50202b92:	e414                	sd	a3,8(s0)
    50202b94:	00fd3823          	sd	a5,16(s10)
    50202b98:	008d3c23          	sd	s0,24(s10)
    50202b9c:	e794                	sd	a3,8(a5)
    50202b9e:	bf19                	j	50202ab4 <do_scheduler+0x148>
    50202ba0:	4785                	li	a5,1
    50202ba2:	c43c                	sw	a5,72(s0)
    50202ba4:	00bdb023          	sd	a1,0(s11)
    50202ba8:	bf21                	j	50202ac0 <do_scheduler+0x154>
    50202baa:	4785                	li	a5,1
    50202bac:	0ef42c23          	sw	a5,248(s0)
    50202bb0:	013db023          	sd	s3,0(s11)
    50202bb4:	b759                	j	50202b3a <do_scheduler+0x1ce>
    50202bb6:	6014                	ld	a3,0(s0)
    50202bb8:	fa8699e3          	bne	a3,s0,50202b6a <do_scheduler+0x1fe>
    50202bbc:	01243423          	sd	s2,8(s0)
    50202bc0:	01243023          	sd	s2,0(s0)
    50202bc4:	00893023          	sd	s0,0(s2)
    50202bc8:	00893423          	sd	s0,8(s2)
    50202bcc:	dc85                	beqz	s1,50202b04 <do_scheduler+0x198>
    50202bce:	b5c1                	j	50202a8e <do_scheduler+0x122>
    50202bd0:	6008                	ld	a0,0(s0)
    50202bd2:	fc8510e3          	bne	a0,s0,50202b92 <do_scheduler+0x226>
    50202bd6:	e014                	sd	a3,0(s0)
    50202bd8:	e414                	sd	a3,8(s0)
    50202bda:	008d3823          	sd	s0,16(s10)
    50202bde:	008d3c23          	sd	s0,24(s10)
    50202be2:	bdc9                	j	50202ab4 <do_scheduler+0x148>

0000000050202be4 <do_scheduler_m>:
    50202be4:	7179                	addi	sp,sp,-48
    50202be6:	f022                	sd	s0,32(sp)
    50202be8:	f406                	sd	ra,40(sp)
    50202bea:	00001417          	auipc	s0,0x1
    50202bee:	67640413          	addi	s0,s0,1654 # 50204260 <ready_queue>
    50202bf2:	ec26                	sd	s1,24(sp)
    50202bf4:	e84a                	sd	s2,16(sp)
    50202bf6:	91dff0ef          	jal	ra,50202512 <check_sleeping>
    50202bfa:	641c                	ld	a5,8(s0)
    50202bfc:	600c                	ld	a1,0(s0)
    50202bfe:	08878d63          	beq	a5,s0,50202c98 <do_scheduler_m+0xb4>
    50202c02:	04b78963          	beq	a5,a1,50202c54 <do_scheduler_m+0x70>
    50202c06:	659c                	ld	a5,8(a1)
    50202c08:	e380                	sd	s0,0(a5)
    50202c0a:	e01c                	sd	a5,0(s0)
    50202c0c:	00007497          	auipc	s1,0x7
    50202c10:	34c48493          	addi	s1,s1,844 # 50209f58 <current_running_m>
    50202c14:	609c                	ld	a5,0(s1)
    50202c16:	00001917          	auipc	s2,0x1
    50202c1a:	70a90913          	addi	s2,s2,1802 # 50204320 <pid0_pcb>
    50202c1e:	15c1                	addi	a1,a1,-16
    50202c20:	09278763          	beq	a5,s2,50202cae <do_scheduler_m+0xca>
    50202c24:	5d98                	lw	a4,56(a1)
    50202c26:	4789                	li	a5,2
    50202c28:	00f71463          	bne	a4,a5,50202c30 <do_scheduler_m+0x4c>
    50202c2c:	4785                	li	a5,1
    50202c2e:	dd9c                	sw	a5,56(a1)
    50202c30:	6088                	ld	a0,0(s1)
    50202c32:	4705                	li	a4,1
    50202c34:	5d1c                	lw	a5,56(a0)
    50202c36:	02e78c63          	beq	a5,a4,50202c6e <do_scheduler_m+0x8a>
    50202c3a:	01250563          	beq	a0,s2,50202c44 <do_scheduler_m+0x60>
    50202c3e:	4709                	li	a4,2
    50202c40:	02e78b63          	beq	a5,a4,50202c76 <do_scheduler_m+0x92>
    50202c44:	7402                	ld	s0,32(sp)
    50202c46:	70a2                	ld	ra,40(sp)
    50202c48:	6942                	ld	s2,16(sp)
    50202c4a:	e08c                	sd	a1,0(s1)
    50202c4c:	64e2                	ld	s1,24(sp)
    50202c4e:	6145                	addi	sp,sp,48
    50202c50:	88dfe06f          	j	502014dc <switch_to>
    50202c54:	e000                	sd	s0,0(s0)
    50202c56:	e400                	sd	s0,8(s0)
    50202c58:	f9d5                	bnez	a1,50202c0c <do_scheduler_m+0x28>
    50202c5a:	00001917          	auipc	s2,0x1
    50202c5e:	6c690913          	addi	s2,s2,1734 # 50204320 <pid0_pcb>
    50202c62:	85ca                	mv	a1,s2
    50202c64:	00007497          	auipc	s1,0x7
    50202c68:	2f448493          	addi	s1,s1,756 # 50209f58 <current_running_m>
    50202c6c:	bf65                	j	50202c24 <do_scheduler_m+0x40>
    50202c6e:	4789                	li	a5,2
    50202c70:	dd1c                	sw	a5,56(a0)
    50202c72:	fd2509e3          	beq	a0,s2,50202c44 <do_scheduler_m+0x60>
    50202c76:	641c                	ld	a5,8(s0)
    50202c78:	01050713          	addi	a4,a0,16
    50202c7c:	02878163          	beq	a5,s0,50202c9e <do_scheduler_m+0xba>
    50202c80:	e418                	sd	a4,8(s0)
    50202c82:	ed00                	sd	s0,24(a0)
    50202c84:	7402                	ld	s0,32(sp)
    50202c86:	70a2                	ld	ra,40(sp)
    50202c88:	6942                	ld	s2,16(sp)
    50202c8a:	e91c                	sd	a5,16(a0)
    50202c8c:	e08c                	sd	a1,0(s1)
    50202c8e:	64e2                	ld	s1,24(sp)
    50202c90:	e798                	sd	a4,8(a5)
    50202c92:	6145                	addi	sp,sp,48
    50202c94:	849fe06f          	j	502014dc <switch_to>
    50202c98:	f68597e3          	bne	a1,s0,50202c06 <do_scheduler_m+0x22>
    50202c9c:	bf7d                	j	50202c5a <do_scheduler_m+0x76>
    50202c9e:	6014                	ld	a3,0(s0)
    50202ca0:	fe8690e3          	bne	a3,s0,50202c80 <do_scheduler_m+0x9c>
    50202ca4:	e018                	sd	a4,0(s0)
    50202ca6:	e418                	sd	a4,8(s0)
    50202ca8:	e900                	sd	s0,16(a0)
    50202caa:	ed00                	sd	s0,24(a0)
    50202cac:	bf61                	j	50202c44 <do_scheduler_m+0x60>
    50202cae:	e42e                	sd	a1,8(sp)
    50202cb0:	803ff0ef          	jal	ra,502024b2 <get_ticks>
    50202cb4:	67b1                	lui	a5,0xc
    50202cb6:	35078793          	addi	a5,a5,848 # c350 <TEXT_START-0x501f4cb0>
    50202cba:	953e                	add	a0,a0,a5
    50202cbc:	a59fe0ef          	jal	ra,50201714 <set_timer>
    50202cc0:	65a2                	ld	a1,8(sp)
    50202cc2:	b78d                	j	50202c24 <do_scheduler_m+0x40>

0000000050202cc4 <do_scheduler_n>:
    50202cc4:	7179                	addi	sp,sp,-48
    50202cc6:	f022                	sd	s0,32(sp)
    50202cc8:	f406                	sd	ra,40(sp)
    50202cca:	00001417          	auipc	s0,0x1
    50202cce:	59640413          	addi	s0,s0,1430 # 50204260 <ready_queue>
    50202cd2:	ec26                	sd	s1,24(sp)
    50202cd4:	e84a                	sd	s2,16(sp)
    50202cd6:	83dff0ef          	jal	ra,50202512 <check_sleeping>
    50202cda:	641c                	ld	a5,8(s0)
    50202cdc:	600c                	ld	a1,0(s0)
    50202cde:	08878d63          	beq	a5,s0,50202d78 <do_scheduler_n+0xb4>
    50202ce2:	04b78963          	beq	a5,a1,50202d34 <do_scheduler_n+0x70>
    50202ce6:	659c                	ld	a5,8(a1)
    50202ce8:	e380                	sd	s0,0(a5)
    50202cea:	e01c                	sd	a5,0(s0)
    50202cec:	00007497          	auipc	s1,0x7
    50202cf0:	25c48493          	addi	s1,s1,604 # 50209f48 <current_running_n>
    50202cf4:	609c                	ld	a5,0(s1)
    50202cf6:	00001917          	auipc	s2,0x1
    50202cfa:	57a90913          	addi	s2,s2,1402 # 50204270 <pidn_pcb>
    50202cfe:	15c1                	addi	a1,a1,-16
    50202d00:	09278763          	beq	a5,s2,50202d8e <do_scheduler_n+0xca>
    50202d04:	5d98                	lw	a4,56(a1)
    50202d06:	4789                	li	a5,2
    50202d08:	00f71463          	bne	a4,a5,50202d10 <do_scheduler_n+0x4c>
    50202d0c:	4785                	li	a5,1
    50202d0e:	dd9c                	sw	a5,56(a1)
    50202d10:	6088                	ld	a0,0(s1)
    50202d12:	4705                	li	a4,1
    50202d14:	5d1c                	lw	a5,56(a0)
    50202d16:	02e78c63          	beq	a5,a4,50202d4e <do_scheduler_n+0x8a>
    50202d1a:	01250563          	beq	a0,s2,50202d24 <do_scheduler_n+0x60>
    50202d1e:	4709                	li	a4,2
    50202d20:	02e78b63          	beq	a5,a4,50202d56 <do_scheduler_n+0x92>
    50202d24:	7402                	ld	s0,32(sp)
    50202d26:	70a2                	ld	ra,40(sp)
    50202d28:	6942                	ld	s2,16(sp)
    50202d2a:	e08c                	sd	a1,0(s1)
    50202d2c:	64e2                	ld	s1,24(sp)
    50202d2e:	6145                	addi	sp,sp,48
    50202d30:	facfe06f          	j	502014dc <switch_to>
    50202d34:	e000                	sd	s0,0(s0)
    50202d36:	e400                	sd	s0,8(s0)
    50202d38:	f9d5                	bnez	a1,50202cec <do_scheduler_n+0x28>
    50202d3a:	00001917          	auipc	s2,0x1
    50202d3e:	53690913          	addi	s2,s2,1334 # 50204270 <pidn_pcb>
    50202d42:	85ca                	mv	a1,s2
    50202d44:	00007497          	auipc	s1,0x7
    50202d48:	20448493          	addi	s1,s1,516 # 50209f48 <current_running_n>
    50202d4c:	bf65                	j	50202d04 <do_scheduler_n+0x40>
    50202d4e:	4789                	li	a5,2
    50202d50:	dd1c                	sw	a5,56(a0)
    50202d52:	fd2509e3          	beq	a0,s2,50202d24 <do_scheduler_n+0x60>
    50202d56:	641c                	ld	a5,8(s0)
    50202d58:	01050713          	addi	a4,a0,16
    50202d5c:	02878163          	beq	a5,s0,50202d7e <do_scheduler_n+0xba>
    50202d60:	e418                	sd	a4,8(s0)
    50202d62:	ed00                	sd	s0,24(a0)
    50202d64:	7402                	ld	s0,32(sp)
    50202d66:	70a2                	ld	ra,40(sp)
    50202d68:	6942                	ld	s2,16(sp)
    50202d6a:	e91c                	sd	a5,16(a0)
    50202d6c:	e08c                	sd	a1,0(s1)
    50202d6e:	64e2                	ld	s1,24(sp)
    50202d70:	e798                	sd	a4,8(a5)
    50202d72:	6145                	addi	sp,sp,48
    50202d74:	f68fe06f          	j	502014dc <switch_to>
    50202d78:	f68597e3          	bne	a1,s0,50202ce6 <do_scheduler_n+0x22>
    50202d7c:	bf7d                	j	50202d3a <do_scheduler_n+0x76>
    50202d7e:	6014                	ld	a3,0(s0)
    50202d80:	fe8690e3          	bne	a3,s0,50202d60 <do_scheduler_n+0x9c>
    50202d84:	e018                	sd	a4,0(s0)
    50202d86:	e418                	sd	a4,8(s0)
    50202d88:	e900                	sd	s0,16(a0)
    50202d8a:	ed00                	sd	s0,24(a0)
    50202d8c:	bf61                	j	50202d24 <do_scheduler_n+0x60>
    50202d8e:	e42e                	sd	a1,8(sp)
    50202d90:	f22ff0ef          	jal	ra,502024b2 <get_ticks>
    50202d94:	67b1                	lui	a5,0xc
    50202d96:	35078793          	addi	a5,a5,848 # c350 <TEXT_START-0x501f4cb0>
    50202d9a:	953e                	add	a0,a0,a5
    50202d9c:	979fe0ef          	jal	ra,50201714 <set_timer>
    50202da0:	65a2                	ld	a1,8(sp)
    50202da2:	b78d                	j	50202d04 <do_scheduler_n+0x40>

0000000050202da4 <do_sleep>:
    50202da4:	1101                	addi	sp,sp,-32
    50202da6:	e426                	sd	s1,8(sp)
    50202da8:	00007497          	auipc	s1,0x7
    50202dac:	1a848493          	addi	s1,s1,424 # 50209f50 <current_running>
    50202db0:	609c                	ld	a5,0(s1)
    50202db2:	e822                	sd	s0,16(sp)
    50202db4:	ec06                	sd	ra,24(sp)
    50202db6:	0207ac23          	sw	zero,56(a5)
    50202dba:	842a                	mv	s0,a0
    50202dbc:	f04ff0ef          	jal	ra,502024c0 <get_timer>
    50202dc0:	6090                	ld	a2,0(s1)
    50202dc2:	00001697          	auipc	a3,0x1
    50202dc6:	49e68693          	addi	a3,a3,1182 # 50204260 <ready_queue>
    50202dca:	1402                	slli	s0,s0,0x20
    50202dcc:	6098                	ld	a4,0(s1)
    50202dce:	9001                	srli	s0,s0,0x20
    50202dd0:	1786b783          	ld	a5,376(a3)
    50202dd4:	942a                	add	s0,s0,a0
    50202dd6:	e620                	sd	s0,72(a2)
    50202dd8:	00001597          	auipc	a1,0x1
    50202ddc:	5f858593          	addi	a1,a1,1528 # 502043d0 <sleep_queue>
    50202de0:	01070613          	addi	a2,a4,16
    50202de4:	00b78c63          	beq	a5,a1,50202dfc <do_sleep+0x58>
    50202de8:	16c6bc23          	sd	a2,376(a3)
    50202dec:	eb1c                	sd	a5,16(a4)
    50202dee:	ef0c                	sd	a1,24(a4)
    50202df0:	e790                	sd	a2,8(a5)
    50202df2:	6442                	ld	s0,16(sp)
    50202df4:	60e2                	ld	ra,24(sp)
    50202df6:	64a2                	ld	s1,8(sp)
    50202df8:	6105                	addi	sp,sp,32
    50202dfa:	be8d                	j	5020296c <do_scheduler>
    50202dfc:	1706b503          	ld	a0,368(a3)
    50202e00:	fef514e3          	bne	a0,a5,50202de8 <do_sleep+0x44>
    50202e04:	16c6b823          	sd	a2,368(a3)
    50202e08:	16c6bc23          	sd	a2,376(a3)
    50202e0c:	eb08                	sd	a0,16(a4)
    50202e0e:	ef08                	sd	a0,24(a4)
    50202e10:	b7cd                	j	50202df2 <do_sleep+0x4e>

0000000050202e12 <do_block>:
    50202e12:	659c                	ld	a5,8(a1)
    50202e14:	02052423          	sw	zero,40(a0)
    50202e18:	00f58763          	beq	a1,a5,50202e26 <do_block+0x14>
    50202e1c:	e588                	sd	a0,8(a1)
    50202e1e:	e11c                	sd	a5,0(a0)
    50202e20:	e50c                	sd	a1,8(a0)
    50202e22:	e788                	sd	a0,8(a5)
    50202e24:	b6a1                	j	5020296c <do_scheduler>
    50202e26:	6198                	ld	a4,0(a1)
    50202e28:	fee59ae3          	bne	a1,a4,50202e1c <do_block+0xa>
    50202e2c:	e188                	sd	a0,0(a1)
    50202e2e:	e588                	sd	a0,8(a1)
    50202e30:	e10c                	sd	a1,0(a0)
    50202e32:	e50c                	sd	a1,8(a0)
    50202e34:	bfc5                	j	50202e24 <do_block+0x12>

0000000050202e36 <do_unblock>:
    50202e36:	6518                	ld	a4,8(a0)
    50202e38:	611c                	ld	a5,0(a0)
    50202e3a:	06e50b63          	beq	a0,a4,50202eb0 <do_unblock+0x7a>
    50202e3e:	06f70563          	beq	a4,a5,50202ea8 <do_unblock+0x72>
    50202e42:	6798                	ld	a4,8(a5)
    50202e44:	e308                	sd	a0,0(a4)
    50202e46:	e118                	sd	a4,0(a0)
    50202e48:	4589                	li	a1,2
    50202e4a:	00001697          	auipc	a3,0x1
    50202e4e:	41668693          	addi	a3,a3,1046 # 50204260 <ready_queue>
    50202e52:	5798                	lw	a4,40(a5)
    50202e54:	eb09                	bnez	a4,50202e66 <do_unblock+0x30>
    50202e56:	6698                	ld	a4,8(a3)
    50202e58:	d78c                	sw	a1,40(a5)
    50202e5a:	02d70563          	beq	a4,a3,50202e84 <do_unblock+0x4e>
    50202e5e:	e69c                	sd	a5,8(a3)
    50202e60:	e794                	sd	a3,8(a5)
    50202e62:	e398                	sd	a4,0(a5)
    50202e64:	e71c                	sd	a5,8(a4)
    50202e66:	6518                	ld	a4,8(a0)
    50202e68:	611c                	ld	a5,0(a0)
    50202e6a:	02e50863          	beq	a0,a4,50202e9a <do_unblock+0x64>
    50202e6e:	02f70963          	beq	a4,a5,50202ea0 <do_unblock+0x6a>
    50202e72:	6798                	ld	a4,8(a5)
    50202e74:	e308                	sd	a0,0(a4)
    50202e76:	e118                	sd	a4,0(a0)
    50202e78:	5798                	lw	a4,40(a5)
    50202e7a:	f775                	bnez	a4,50202e66 <do_unblock+0x30>
    50202e7c:	6698                	ld	a4,8(a3)
    50202e7e:	d78c                	sw	a1,40(a5)
    50202e80:	fcd71fe3          	bne	a4,a3,50202e5e <do_unblock+0x28>
    50202e84:	6290                	ld	a2,0(a3)
    50202e86:	fcd61ce3          	bne	a2,a3,50202e5e <do_unblock+0x28>
    50202e8a:	e69c                	sd	a5,8(a3)
    50202e8c:	e794                	sd	a3,8(a5)
    50202e8e:	6518                	ld	a4,8(a0)
    50202e90:	e29c                	sd	a5,0(a3)
    50202e92:	e394                	sd	a3,0(a5)
    50202e94:	611c                	ld	a5,0(a0)
    50202e96:	fce51ce3          	bne	a0,a4,50202e6e <do_unblock+0x38>
    50202e9a:	fcf51ce3          	bne	a0,a5,50202e72 <do_unblock+0x3c>
    50202e9e:	8082                	ret
    50202ea0:	e108                	sd	a0,0(a0)
    50202ea2:	e508                	sd	a0,8(a0)
    50202ea4:	f7dd                	bnez	a5,50202e52 <do_unblock+0x1c>
    50202ea6:	8082                	ret
    50202ea8:	e108                	sd	a0,0(a0)
    50202eaa:	e508                	sd	a0,8(a0)
    50202eac:	ffd1                	bnez	a5,50202e48 <do_unblock+0x12>
    50202eae:	8082                	ret
    50202eb0:	f8f519e3          	bne	a0,a5,50202e42 <do_unblock+0xc>
    50202eb4:	8082                	ret

0000000050202eb6 <thread_create>:
    50202eb6:	7139                	addi	sp,sp,-64
    50202eb8:	f822                	sd	s0,48(sp)
    50202eba:	e05a                	sd	s6,0(sp)
    50202ebc:	0b000413          	li	s0,176
    50202ec0:	fff58b1b          	addiw	s6,a1,-1
    50202ec4:	028b0433          	mul	s0,s6,s0
    50202ec8:	f04a                	sd	s2,32(sp)
    50202eca:	ec4e                	sd	s3,24(sp)
    50202ecc:	00007917          	auipc	s2,0x7
    50202ed0:	abc90913          	addi	s2,s2,-1348 # 50209988 <tcb>
    50202ed4:	e456                	sd	s5,8(sp)
    50202ed6:	89ae                	mv	s3,a1
    50202ed8:	00007a97          	auipc	s5,0x7
    50202edc:	088a8a93          	addi	s5,s5,136 # 50209f60 <pcb>
    50202ee0:	e852                	sd	s4,16(sp)
    50202ee2:	8a2a                	mv	s4,a0
    50202ee4:	4505                	li	a0,1
    50202ee6:	0a440593          	addi	a1,s0,164
    50202eea:	9aa2                	add	s5,s5,s0
    50202eec:	95ca                	add	a1,a1,s2
    50202eee:	fc06                	sd	ra,56(sp)
    50202ef0:	f426                	sd	s1,40(sp)
    50202ef2:	d75fe0ef          	jal	ra,50201c66 <allocKernelPage>
    50202ef6:	0a0aa483          	lw	s1,160(s5)
    50202efa:	0a840593          	addi	a1,s0,168
    50202efe:	87aa                	mv	a5,a0
    50202f00:	95ca                	add	a1,a1,s2
    50202f02:	00c4949b          	slliw	s1,s1,0xc
    50202f06:	4505                	li	a0,1
    50202f08:	94be                	add	s1,s1,a5
    50202f0a:	d9bfe0ef          	jal	ra,50201ca4 <allocUserPage>
    50202f0e:	0a8aa703          	lw	a4,168(s5)
    50202f12:	008907b3          	add	a5,s2,s0
    50202f16:	4685                	li	a3,1
    50202f18:	00c7171b          	slliw	a4,a4,0xc
    50202f1c:	0ad7a023          	sw	a3,160(a5)
    50202f20:	0ad7a423          	sw	a3,168(a5)
    50202f24:	972a                	add	a4,a4,a0
    50202f26:	02000693          	li	a3,32
    50202f2a:	eee4b823          	sd	a4,-272(s1)
    50202f2e:	fed4b023          	sd	a3,-32(s1)
    50202f32:	ef44b423          	sd	s4,-280(s1)
    50202f36:	ff44b423          	sd	s4,-24(s1)
    50202f3a:	e7048693          	addi	a3,s1,-400
    50202f3e:	e394                	sd	a3,0(a5)
    50202f40:	e798                	sd	a4,8(a5)
    50202f42:	ffffe717          	auipc	a4,0xffffe
    50202f46:	61a70713          	addi	a4,a4,1562 # 5020155c <ret_from_exception>
    50202f4a:	e6e4b823          	sd	a4,-400(s1)
    50202f4e:	e694                	sd	a3,8(a3)
    50202f50:	00001717          	auipc	a4,0x1
    50202f54:	31070713          	addi	a4,a4,784 # 50204260 <ready_queue>
    50202f58:	00007617          	auipc	a2,0x7
    50202f5c:	a6060613          	addi	a2,a2,-1440 # 502099b8 <tcb+0x30>
    50202f60:	9622                	add	a2,a2,s0
    50202f62:	6714                	ld	a3,8(a4)
    50202f64:	0337a823          	sw	s3,48(a5)
    50202f68:	4589                	li	a1,2
    50202f6a:	e60c                	sd	a1,8(a2)
    50202f6c:	0441                	addi	s0,s0,16
    50202f6e:	0407a023          	sw	zero,64(a5)
    50202f72:	0407b423          	sd	zero,72(a5)
    50202f76:	944a                	add	s0,s0,s2
    50202f78:	02e68763          	beq	a3,a4,50202fa6 <thread_create+0xf0>
    50202f7c:	0b000793          	li	a5,176
    50202f80:	02fb0b33          	mul	s6,s6,a5
    50202f84:	e700                	sd	s0,8(a4)
    50202f86:	995a                	add	s2,s2,s6
    50202f88:	00d93823          	sd	a3,16(s2)
    50202f8c:	00e93c23          	sd	a4,24(s2)
    50202f90:	e680                	sd	s0,8(a3)
    50202f92:	70e2                	ld	ra,56(sp)
    50202f94:	7442                	ld	s0,48(sp)
    50202f96:	74a2                	ld	s1,40(sp)
    50202f98:	7902                	ld	s2,32(sp)
    50202f9a:	69e2                	ld	s3,24(sp)
    50202f9c:	6a42                	ld	s4,16(sp)
    50202f9e:	6aa2                	ld	s5,8(sp)
    50202fa0:	6b02                	ld	s6,0(sp)
    50202fa2:	6121                	addi	sp,sp,64
    50202fa4:	8082                	ret
    50202fa6:	6290                	ld	a2,0(a3)
    50202fa8:	fcd61ae3          	bne	a2,a3,50202f7c <thread_create+0xc6>
    50202fac:	e200                	sd	s0,0(a2)
    50202fae:	e600                	sd	s0,8(a2)
    50202fb0:	eb90                	sd	a2,16(a5)
    50202fb2:	ef90                	sd	a2,24(a5)
    50202fb4:	bff9                	j	50202f92 <thread_create+0xdc>

0000000050202fb6 <do_process_show>:
    50202fb6:	00001797          	auipc	a5,0x1
    50202fba:	1fa78793          	addi	a5,a5,506 # 502041b0 <__FUNCTION__.1368+0x2d8>
    50202fbe:	0007be83          	ld	t4,0(a5)
    50202fc2:	0107de03          	lhu	t3,16(a5)
    50202fc6:	0127d303          	lhu	t1,18(a5)
    50202fca:	0147d883          	lhu	a7,20(a5)
    50202fce:	0167d803          	lhu	a6,22(a5)
    50202fd2:	0227d603          	lhu	a2,34(a5)
    50202fd6:	0247d683          	lhu	a3,36(a5)
    50202fda:	0267d703          	lhu	a4,38(a5)
    50202fde:	0207d583          	lhu	a1,32(a5)
    50202fe2:	444147b7          	lui	a5,0x44414
    50202fe6:	7135                	addi	sp,sp,-160
    50202fe8:	55278793          	addi	a5,a5,1362 # 44414552 <TEXT_START-0xbdecaae>
    50202fec:	ce3e                	sw	a5,28(sp)
    50202fee:	05900793          	li	a5,89
    50202ff2:	ed06                	sd	ra,152(sp)
    50202ff4:	e922                	sd	s0,144(sp)
    50202ff6:	e526                	sd	s1,136(sp)
    50202ff8:	e14a                	sd	s2,128(sp)
    50202ffa:	fcce                	sd	s3,120(sp)
    50202ffc:	f8d2                	sd	s4,112(sp)
    50202ffe:	f4d6                	sd	s5,104(sp)
    50203000:	f0da                	sd	s6,96(sp)
    50203002:	ecde                	sd	s7,88(sp)
    50203004:	e8e2                	sd	s8,80(sp)
    50203006:	e4e6                	sd	s9,72(sp)
    50203008:	e476                	sd	t4,8(sp)
    5020300a:	01c11923          	sh	t3,18(sp) # 50520012 <__BSS_END__+0x3153b2>
    5020300e:	00611a23          	sh	t1,20(sp)
    50203012:	01111b23          	sh	a7,22(sp)
    50203016:	01011c23          	sh	a6,24(sp)
    5020301a:	d03e                	sw	a5,32(sp)
    5020301c:	00001517          	auipc	a0,0x1
    50203020:	06450513          	addi	a0,a0,100 # 50204080 <__FUNCTION__.1368+0x1a8>
    50203024:	f802                	sd	zero,48(sp)
    50203026:	02011c23          	sh	zero,56(sp)
    5020302a:	00011823          	sh	zero,16(sp)
    5020302e:	00011d23          	sh	zero,26(sp)
    50203032:	02011223          	sh	zero,36(sp)
    50203036:	02b11323          	sh	a1,38(sp)
    5020303a:	00007417          	auipc	s0,0x7
    5020303e:	f5640413          	addi	s0,s0,-170 # 50209f90 <pcb+0x30>
    50203042:	02c11423          	sh	a2,40(sp)
    50203046:	02d11523          	sh	a3,42(sp)
    5020304a:	02e11623          	sh	a4,44(sp)
    5020304e:	02011723          	sh	zero,46(sp)
    50203052:	00008c97          	auipc	s9,0x8
    50203056:	a3ec8c93          	addi	s9,s9,-1474 # 5020aa90 <syscall+0x30>
    5020305a:	0e1000ef          	jal	ra,5020393a <printk>
    5020305e:	4b81                	li	s7,0
    50203060:	4c05                	li	s8,1
    50203062:	448d                	li	s1,3
    50203064:	49a1                	li	s3,8
    50203066:	4a25                	li	s4,9
    50203068:	00001917          	auipc	s2,0x1
    5020306c:	0b090913          	addi	s2,s2,176 # 50204118 <__FUNCTION__.1368+0x240>
    50203070:	00001b17          	auipc	s6,0x1
    50203074:	068b0b13          	addi	s6,s6,104 # 502040d8 <__FUNCTION__.1368+0x200>
    50203078:	00001a97          	auipc	s5,0x1
    5020307c:	020a8a93          	addi	s5,s5,32 # 50204098 <__FUNCTION__.1368+0x1c0>
    50203080:	a029                	j	5020308a <do_process_show+0xd4>
    50203082:	0b040413          	addi	s0,s0,176
    50203086:	048c8663          	beq	s9,s0,502030d2 <do_process_show+0x11c>
    5020308a:	405c                	lw	a5,4(s0)
    5020308c:	ff879be3          	bne	a5,s8,50203082 <do_process_show+0xcc>
    50203090:	441c                	lw	a5,8(s0)
    50203092:	06040893          	addi	a7,s0,96
    50203096:	02079713          	slli	a4,a5,0x20
    5020309a:	9301                	srli	a4,a4,0x20
    5020309c:	00271693          	slli	a3,a4,0x2
    502030a0:	96ba                	add	a3,a3,a4
    502030a2:	0686                	slli	a3,a3,0x1
    502030a4:	fc978fe3          	beq	a5,s1,50203082 <do_process_show+0xcc>
    502030a8:	85de                	mv	a1,s7
    502030aa:	8746                	mv	a4,a7
    502030ac:	854a                	mv	a0,s2
    502030ae:	0379df63          	bge	s3,s7,502030ec <do_process_show+0x136>
    502030b2:	00810313          	addi	t1,sp,8
    502030b6:	4010                	lw	a2,0(s0)
    502030b8:	4c3c                	lw	a5,88(s0)
    502030ba:	05c42803          	lw	a6,92(s0)
    502030be:	969a                	add	a3,a3,t1
    502030c0:	054b8863          	beq	s7,s4,50203110 <do_process_show+0x15a>
    502030c4:	077000ef          	jal	ra,5020393a <printk>
    502030c8:	2b85                	addiw	s7,s7,1
    502030ca:	0b040413          	addi	s0,s0,176
    502030ce:	fa8c9ee3          	bne	s9,s0,5020308a <do_process_show+0xd4>
    502030d2:	60ea                	ld	ra,152(sp)
    502030d4:	644a                	ld	s0,144(sp)
    502030d6:	64aa                	ld	s1,136(sp)
    502030d8:	690a                	ld	s2,128(sp)
    502030da:	79e6                	ld	s3,120(sp)
    502030dc:	7a46                	ld	s4,112(sp)
    502030de:	7aa6                	ld	s5,104(sp)
    502030e0:	7b06                	ld	s6,96(sp)
    502030e2:	6be6                	ld	s7,88(sp)
    502030e4:	6c46                	ld	s8,80(sp)
    502030e6:	6ca6                	ld	s9,72(sp)
    502030e8:	610d                	addi	sp,sp,160
    502030ea:	8082                	ret
    502030ec:	1782                	slli	a5,a5,0x20
    502030ee:	9381                	srli	a5,a5,0x20
    502030f0:	00279693          	slli	a3,a5,0x2
    502030f4:	96be                	add	a3,a3,a5
    502030f6:	05c42803          	lw	a6,92(s0)
    502030fa:	4c3c                	lw	a5,88(s0)
    502030fc:	4010                	lw	a2,0(s0)
    502030fe:	002c                	addi	a1,sp,8
    50203100:	0686                	slli	a3,a3,0x1
    50203102:	96ae                	add	a3,a3,a1
    50203104:	8556                	mv	a0,s5
    50203106:	85de                	mv	a1,s7
    50203108:	033000ef          	jal	ra,5020393a <printk>
    5020310c:	2b85                	addiw	s7,s7,1
    5020310e:	bf75                	j	502030ca <do_process_show+0x114>
    50203110:	45a5                	li	a1,9
    50203112:	855a                	mv	a0,s6
    50203114:	027000ef          	jal	ra,5020393a <printk>
    50203118:	2b85                	addiw	s7,s7,1
    5020311a:	bf45                	j	502030ca <do_process_show+0x114>

000000005020311c <do_clear>:
    5020311c:	8082                	ret

000000005020311e <do_exec>:
    5020311e:	00007797          	auipc	a5,0x7
    50203122:	e327b783          	ld	a5,-462(a5) # 50209f50 <current_running>
    50203126:	0887a683          	lw	a3,136(a5)
    5020312a:	1101                	addi	sp,sp,-32
    5020312c:	ec06                	sd	ra,24(sp)
    5020312e:	e64ff0ef          	jal	ra,50202792 <add_pcb>
    50203132:	e501                	bnez	a0,5020313a <do_exec+0x1c>
    50203134:	60e2                	ld	ra,24(sp)
    50203136:	6105                	addi	sp,sp,32
    50203138:	8082                	ret
    5020313a:	e42a                	sd	a0,8(sp)
    5020313c:	831ff0ef          	jal	ra,5020296c <do_scheduler>
    50203140:	60e2                	ld	ra,24(sp)
    50203142:	6522                	ld	a0,8(sp)
    50203144:	6105                	addi	sp,sp,32
    50203146:	8082                	ret

0000000050203148 <do_exit>:
    50203148:	1141                	addi	sp,sp,-16
    5020314a:	e022                	sd	s0,0(sp)
    5020314c:	00007417          	auipc	s0,0x7
    50203150:	e0440413          	addi	s0,s0,-508 # 50209f50 <current_running>
    50203154:	6018                	ld	a4,0(s0)
    50203156:	601c                	ld	a5,0(s0)
    50203158:	468d                	li	a3,3
    5020315a:	e406                	sd	ra,8(sp)
    5020315c:	5b9c                	lw	a5,48(a5)
    5020315e:	df14                	sw	a3,56(a4)
    50203160:	4739                	li	a4,14
    50203162:	fff7869b          	addiw	a3,a5,-1
    50203166:	08d76663          	bltu	a4,a3,502031f2 <do_exit+0xaa>
    5020316a:	078a                	slli	a5,a5,0x2
    5020316c:	00007717          	auipc	a4,0x7
    50203170:	d9c70713          	addi	a4,a4,-612 # 50209f08 <pid_valid>
    50203174:	97ba                	add	a5,a5,a4
    50203176:	0007a023          	sw	zero,0(a5)
    5020317a:	6018                	ld	a4,0(s0)
    5020317c:	601c                	ld	a5,0(s0)
    5020317e:	0a072503          	lw	a0,160(a4)
    50203182:	0a47a583          	lw	a1,164(a5)
    50203186:	b5dfe0ef          	jal	ra,50201ce2 <recovKernelPage>
    5020318a:	6018                	ld	a4,0(s0)
    5020318c:	601c                	ld	a5,0(s0)
    5020318e:	0a872503          	lw	a0,168(a4)
    50203192:	0ac7a583          	lw	a1,172(a5)
    50203196:	b61fe0ef          	jal	ra,50201cf6 <recovUserpage>
    5020319a:	601c                	ld	a5,0(s0)
    5020319c:	4509                	li	a0,2
    5020319e:	00001597          	auipc	a1,0x1
    502031a2:	0c258593          	addi	a1,a1,194 # 50204260 <ready_queue>
    502031a6:	0207aa23          	sw	zero,52(a5)
    502031aa:	a801                	j	502031ba <do_exit+0x72>
    502031ac:	02e60563          	beq	a2,a4,502031d6 <do_exit+0x8e>
    502031b0:	6710                	ld	a2,8(a4)
    502031b2:	e214                	sd	a3,0(a2)
    502031b4:	f390                	sd	a2,32(a5)
    502031b6:	571c                	lw	a5,40(a4)
    502031b8:	c785                	beqz	a5,502031e0 <do_exit+0x98>
    502031ba:	601c                	ld	a5,0(s0)
    502031bc:	7790                	ld	a2,40(a5)
    502031be:	02078693          	addi	a3,a5,32
    502031c2:	7398                	ld	a4,32(a5)
    502031c4:	fec694e3          	bne	a3,a2,502031ac <do_exit+0x64>
    502031c8:	fee694e3          	bne	a3,a4,502031b0 <do_exit+0x68>
    502031cc:	6402                	ld	s0,0(sp)
    502031ce:	60a2                	ld	ra,8(sp)
    502031d0:	0141                	addi	sp,sp,16
    502031d2:	f9aff06f          	j	5020296c <do_scheduler>
    502031d6:	f394                	sd	a3,32(a5)
    502031d8:	f794                	sd	a3,40(a5)
    502031da:	db6d                	beqz	a4,502031cc <do_exit+0x84>
    502031dc:	571c                	lw	a5,40(a4)
    502031de:	fff1                	bnez	a5,502031ba <do_exit+0x72>
    502031e0:	659c                	ld	a5,8(a1)
    502031e2:	d708                	sw	a0,40(a4)
    502031e4:	00b78e63          	beq	a5,a1,50203200 <do_exit+0xb8>
    502031e8:	e598                	sd	a4,8(a1)
    502031ea:	e31c                	sd	a5,0(a4)
    502031ec:	e70c                	sd	a1,8(a4)
    502031ee:	e798                	sd	a4,8(a5)
    502031f0:	b7e9                	j	502031ba <do_exit+0x72>
    502031f2:	00001517          	auipc	a0,0x1
    502031f6:	d3e50513          	addi	a0,a0,-706 # 50203f30 <__FUNCTION__.1368+0x58>
    502031fa:	740000ef          	jal	ra,5020393a <printk>
    502031fe:	bfb5                	j	5020317a <do_exit+0x32>
    50203200:	6194                	ld	a3,0(a1)
    50203202:	feb693e3          	bne	a3,a1,502031e8 <do_exit+0xa0>
    50203206:	e598                	sd	a4,8(a1)
    50203208:	e198                	sd	a4,0(a1)
    5020320a:	e30c                	sd	a1,0(a4)
    5020320c:	e70c                	sd	a1,8(a4)
    5020320e:	b775                	j	502031ba <do_exit+0x72>

0000000050203210 <do_kill>:
    50203210:	7159                	addi	sp,sp,-112
    50203212:	f0a2                	sd	s0,96(sp)
    50203214:	f486                	sd	ra,104(sp)
    50203216:	eca6                	sd	s1,88(sp)
    50203218:	e8ca                	sd	s2,80(sp)
    5020321a:	e4ce                	sd	s3,72(sp)
    5020321c:	e0d2                	sd	s4,64(sp)
    5020321e:	fc56                	sd	s5,56(sp)
    50203220:	f85a                	sd	s6,48(sp)
    50203222:	f45e                	sd	s7,40(sp)
    50203224:	f062                	sd	s8,32(sp)
    50203226:	ec66                	sd	s9,24(sp)
    50203228:	e86a                	sd	s10,16(sp)
    5020322a:	e46e                	sd	s11,8(sp)
    5020322c:	00007797          	auipc	a5,0x7
    50203230:	d6478793          	addi	a5,a5,-668 # 50209f90 <pcb+0x30>
    50203234:	4401                	li	s0,0
    50203236:	46c1                	li	a3,16
    50203238:	4398                	lw	a4,0(a5)
    5020323a:	0b078793          	addi	a5,a5,176
    5020323e:	02a70563          	beq	a4,a0,50203268 <do_kill+0x58>
    50203242:	2405                	addiw	s0,s0,1
    50203244:	fed41ae3          	bne	s0,a3,50203238 <do_kill+0x28>
    50203248:	4501                	li	a0,0
    5020324a:	70a6                	ld	ra,104(sp)
    5020324c:	7406                	ld	s0,96(sp)
    5020324e:	64e6                	ld	s1,88(sp)
    50203250:	6946                	ld	s2,80(sp)
    50203252:	69a6                	ld	s3,72(sp)
    50203254:	6a06                	ld	s4,64(sp)
    50203256:	7ae2                	ld	s5,56(sp)
    50203258:	7b42                	ld	s6,48(sp)
    5020325a:	7ba2                	ld	s7,40(sp)
    5020325c:	7c02                	ld	s8,32(sp)
    5020325e:	6ce2                	ld	s9,24(sp)
    50203260:	6d42                	ld	s10,16(sp)
    50203262:	6da2                	ld	s11,8(sp)
    50203264:	6165                	addi	sp,sp,112
    50203266:	8082                	ret
    50203268:	0b000793          	li	a5,176
    5020326c:	02f407b3          	mul	a5,s0,a5
    50203270:	00007a97          	auipc	s5,0x7
    50203274:	cf0a8a93          	addi	s5,s5,-784 # 50209f60 <pcb>
    50203278:	460d                	li	a2,3
    5020327a:	fff5071b          	addiw	a4,a0,-1
    5020327e:	46b9                	li	a3,14
    50203280:	97d6                	add	a5,a5,s5
    50203282:	df90                	sw	a2,56(a5)
    50203284:	12e6ee63          	bltu	a3,a4,502033c0 <do_kill+0x1b0>
    50203288:	050a                	slli	a0,a0,0x2
    5020328a:	00007797          	auipc	a5,0x7
    5020328e:	c7e78793          	addi	a5,a5,-898 # 50209f08 <pid_valid>
    50203292:	953e                	add	a0,a0,a5
    50203294:	00052023          	sw	zero,0(a0)
    50203298:	0b000a13          	li	s4,176
    5020329c:	03440a33          	mul	s4,s0,s4
    502032a0:	00001d17          	auipc	s10,0x1
    502032a4:	ec8d0d13          	addi	s10,s10,-312 # 50204168 <__FUNCTION__.1368+0x290>
    502032a8:	00001b97          	auipc	s7,0x1
    502032ac:	ec8b8b93          	addi	s7,s7,-312 # 50204170 <__FUNCTION__.1368+0x298>
    502032b0:	00001c97          	auipc	s9,0x1
    502032b4:	ec8c8c93          	addi	s9,s9,-312 # 50204178 <__FUNCTION__.1368+0x2a0>
    502032b8:	00001d97          	auipc	s11,0x1
    502032bc:	ea0d8d93          	addi	s11,s11,-352 # 50204158 <__FUNCTION__.1368+0x280>
    502032c0:	4c09                	li	s8,2
    502032c2:	00001997          	auipc	s3,0x1
    502032c6:	f9e98993          	addi	s3,s3,-98 # 50204260 <ready_queue>
    502032ca:	014a8433          	add	s0,s5,s4
    502032ce:	0a442583          	lw	a1,164(s0)
    502032d2:	0a042503          	lw	a0,160(s0)
    502032d6:	020a0913          	addi	s2,s4,32
    502032da:	8b22                	mv	s6,s0
    502032dc:	a07fe0ef          	jal	ra,50201ce2 <recovKernelPage>
    502032e0:	0ac42583          	lw	a1,172(s0)
    502032e4:	0a842503          	lw	a0,168(s0)
    502032e8:	9956                	add	s2,s2,s5
    502032ea:	a0dfe0ef          	jal	ra,50201cf6 <recovUserpage>
    502032ee:	02042a23          	sw	zero,52(s0)
    502032f2:	028b3403          	ld	s0,40(s6)
    502032f6:	020b3483          	ld	s1,32(s6)
    502032fa:	04890863          	beq	s2,s0,5020334a <do_kill+0x13a>
    502032fe:	08940563          	beq	s0,s1,50203388 <do_kill+0x178>
    50203302:	649c                	ld	a5,8(s1)
    50203304:	0127b023          	sd	s2,0(a5)
    50203308:	02fb3023          	sd	a5,32(s6)
    5020330c:	856a                	mv	a0,s10
    5020330e:	684000ef          	jal	ra,50203992 <printl>
    50203312:	85a2                	mv	a1,s0
    50203314:	855e                	mv	a0,s7
    50203316:	67c000ef          	jal	ra,50203992 <printl>
    5020331a:	6000                	ld	s0,0(s0)
    5020331c:	fe891be3          	bne	s2,s0,50203312 <do_kill+0x102>
    50203320:	8566                	mv	a0,s9
    50203322:	670000ef          	jal	ra,50203992 <printl>
    50203326:	0089b783          	ld	a5,8(s3)
    5020332a:	0384a423          	sw	s8,40(s1)
    5020332e:	05378063          	beq	a5,s3,5020336e <do_kill+0x15e>
    50203332:	0099b423          	sd	s1,8(s3)
    50203336:	0134b423          	sd	s3,8(s1)
    5020333a:	e09c                	sd	a5,0(s1)
    5020333c:	e784                	sd	s1,8(a5)
    5020333e:	028b3403          	ld	s0,40(s6)
    50203342:	020b3483          	ld	s1,32(s6)
    50203346:	fa891ce3          	bne	s2,s0,502032fe <do_kill+0xee>
    5020334a:	04990463          	beq	s2,s1,50203392 <do_kill+0x182>
    5020334e:	649c                	ld	a5,8(s1)
    50203350:	0127b023          	sd	s2,0(a5)
    50203354:	02fb3023          	sd	a5,32(s6)
    50203358:	faf91ae3          	bne	s2,a5,5020330c <do_kill+0xfc>
    5020335c:	856e                	mv	a0,s11
    5020335e:	634000ef          	jal	ra,50203992 <printl>
    50203362:	0089b783          	ld	a5,8(s3)
    50203366:	0384a423          	sw	s8,40(s1)
    5020336a:	fd3794e3          	bne	a5,s3,50203332 <do_kill+0x122>
    5020336e:	0009b703          	ld	a4,0(s3)
    50203372:	fd3710e3          	bne	a4,s3,50203332 <do_kill+0x122>
    50203376:	0099b423          	sd	s1,8(s3)
    5020337a:	0099b023          	sd	s1,0(s3)
    5020337e:	0134b023          	sd	s3,0(s1)
    50203382:	0134b423          	sd	s3,8(s1)
    50203386:	b7b5                	j	502032f2 <do_kill+0xe2>
    50203388:	032b3023          	sd	s2,32(s6)
    5020338c:	032b3423          	sd	s2,40(s6)
    50203390:	f4f1                	bnez	s1,5020335c <do_kill+0x14c>
    50203392:	060a0493          	addi	s1,s4,96
    50203396:	00007417          	auipc	s0,0x7
    5020339a:	c5240413          	addi	s0,s0,-942 # 50209fe8 <pcb+0x88>
    5020339e:	94d6                	add	s1,s1,s5
    502033a0:	9452                	add	s0,s0,s4
    502033a2:	a021                	j	502033aa <do_kill+0x19a>
    502033a4:	0491                	addi	s1,s1,4
    502033a6:	00848b63          	beq	s1,s0,502033bc <do_kill+0x1ac>
    502033aa:	4088                	lw	a0,0(s1)
    502033ac:	dd65                	beqz	a0,502033a4 <do_kill+0x194>
    502033ae:	a95fe0ef          	jal	ra,50201e42 <kill_process_lock_release>
    502033b2:	0491                	addi	s1,s1,4
    502033b4:	fe04ae23          	sw	zero,-4(s1)
    502033b8:	fe8499e3          	bne	s1,s0,502033aa <do_kill+0x19a>
    502033bc:	4505                	li	a0,1
    502033be:	b571                	j	5020324a <do_kill+0x3a>
    502033c0:	00001517          	auipc	a0,0x1
    502033c4:	b7050513          	addi	a0,a0,-1168 # 50203f30 <__FUNCTION__.1368+0x58>
    502033c8:	572000ef          	jal	ra,5020393a <printk>
    502033cc:	b5f1                	j	50203298 <do_kill+0x88>

00000000502033ce <do_waitpid>:
    502033ce:	1101                	addi	sp,sp,-32
    502033d0:	e822                	sd	s0,16(sp)
    502033d2:	e426                	sd	s1,8(sp)
    502033d4:	ec06                	sd	ra,24(sp)
    502033d6:	e04a                	sd	s2,0(sp)
    502033d8:	84aa                	mv	s1,a0
    502033da:	00007797          	auipc	a5,0x7
    502033de:	bb678793          	addi	a5,a5,-1098 # 50209f90 <pcb+0x30>
    502033e2:	4401                	li	s0,0
    502033e4:	460d                	li	a2,3
    502033e6:	46c1                	li	a3,16
    502033e8:	a031                	j	502033f4 <do_waitpid+0x26>
    502033ea:	2405                	addiw	s0,s0,1
    502033ec:	0b078793          	addi	a5,a5,176
    502033f0:	08d40063          	beq	s0,a3,50203470 <do_waitpid+0xa2>
    502033f4:	4398                	lw	a4,0(a5)
    502033f6:	fe971ae3          	bne	a4,s1,502033ea <do_waitpid+0x1c>
    502033fa:	4798                	lw	a4,8(a5)
    502033fc:	fec707e3          	beq	a4,a2,502033ea <do_waitpid+0x1c>
    50203400:	00007917          	auipc	s2,0x7
    50203404:	b5090913          	addi	s2,s2,-1200 # 50209f50 <current_running>
    50203408:	00093783          	ld	a5,0(s2)
    5020340c:	00093583          	ld	a1,0(s2)
    50203410:	00001517          	auipc	a0,0x1
    50203414:	d7050513          	addi	a0,a0,-656 # 50204180 <__FUNCTION__.1368+0x2a8>
    50203418:	0207ac23          	sw	zero,56(a5)
    5020341c:	09058593          	addi	a1,a1,144
    50203420:	572000ef          	jal	ra,50203992 <printl>
    50203424:	0b000793          	li	a5,176
    50203428:	02f407b3          	mul	a5,s0,a5
    5020342c:	00007717          	auipc	a4,0x7
    50203430:	b3470713          	addi	a4,a4,-1228 # 50209f60 <pcb>
    50203434:	00093683          	ld	a3,0(s2)
    50203438:	01068593          	addi	a1,a3,16
    5020343c:	00f70533          	add	a0,a4,a5
    50203440:	7510                	ld	a2,40(a0)
    50203442:	02078793          	addi	a5,a5,32
    50203446:	97ba                	add	a5,a5,a4
    50203448:	02c78b63          	beq	a5,a2,5020347e <do_waitpid+0xb0>
    5020344c:	0b000513          	li	a0,176
    50203450:	02a40433          	mul	s0,s0,a0
    50203454:	943a                	add	s0,s0,a4
    50203456:	f40c                	sd	a1,40(s0)
    50203458:	ea90                	sd	a2,16(a3)
    5020345a:	ee9c                	sd	a5,24(a3)
    5020345c:	e60c                	sd	a1,8(a2)
    5020345e:	d0eff0ef          	jal	ra,5020296c <do_scheduler>
    50203462:	60e2                	ld	ra,24(sp)
    50203464:	6442                	ld	s0,16(sp)
    50203466:	6902                	ld	s2,0(sp)
    50203468:	8526                	mv	a0,s1
    5020346a:	64a2                	ld	s1,8(sp)
    5020346c:	6105                	addi	sp,sp,32
    5020346e:	8082                	ret
    50203470:	60e2                	ld	ra,24(sp)
    50203472:	6442                	ld	s0,16(sp)
    50203474:	64a2                	ld	s1,8(sp)
    50203476:	6902                	ld	s2,0(sp)
    50203478:	4501                	li	a0,0
    5020347a:	6105                	addi	sp,sp,32
    5020347c:	8082                	ret
    5020347e:	02053803          	ld	a6,32(a0)
    50203482:	fd0795e3          	bne	a5,a6,5020344c <do_waitpid+0x7e>
    50203486:	f10c                	sd	a1,32(a0)
    50203488:	f50c                	sd	a1,40(a0)
    5020348a:	ea9c                	sd	a5,16(a3)
    5020348c:	ee9c                	sd	a5,24(a3)
    5020348e:	bfc1                	j	5020345e <do_waitpid+0x90>

0000000050203490 <do_getpid>:
    50203490:	00007797          	auipc	a5,0x7
    50203494:	ac07b783          	ld	a5,-1344(a5) # 50209f50 <current_running>
    50203498:	5b88                	lw	a0,48(a5)
    5020349a:	8082                	ret

000000005020349c <taskset_exec>:
    5020349c:	1101                	addi	sp,sp,-32
    5020349e:	e426                	sd	s1,8(sp)
    502034a0:	84ae                	mv	s1,a1
    502034a2:	658c                	ld	a1,8(a1)
    502034a4:	ec06                	sd	ra,24(sp)
    502034a6:	e822                	sd	s0,16(sp)
    502034a8:	e04a                	sd	s2,0(sp)
    502034aa:	c9c1                	beqz	a1,5020353a <taskset_exec+0x9e>
    502034ac:	892a                	mv	s2,a0
    502034ae:	00001517          	auipc	a0,0x1
    502034b2:	cfa50513          	addi	a0,a0,-774 # 502041a8 <__FUNCTION__.1368+0x2d0>
    502034b6:	57c000ef          	jal	ra,50203a32 <strcmp>
    502034ba:	ed39                	bnez	a0,50203518 <taskset_exec+0x7c>
    502034bc:	689c                	ld	a5,16(s1)
    502034be:	6c98                	ld	a4,24(s1)
    502034c0:	4401                	li	s0,0
    502034c2:	0027c583          	lbu	a1,2(a5)
    502034c6:	00074683          	lbu	a3,0(a4)
    502034ca:	fd05859b          	addiw	a1,a1,-48
    502034ce:	ce99                	beqz	a3,502034ec <taskset_exec+0x50>
    502034d0:	0705                	addi	a4,a4,1
    502034d2:	0705                	addi	a4,a4,1
    502034d4:	0024179b          	slliw	a5,s0,0x2
    502034d8:	fd06861b          	addiw	a2,a3,-48
    502034dc:	fff74683          	lbu	a3,-1(a4)
    502034e0:	9fa1                	addw	a5,a5,s0
    502034e2:	0017979b          	slliw	a5,a5,0x1
    502034e6:	00f6043b          	addw	s0,a2,a5
    502034ea:	f6e5                	bnez	a3,502034d2 <taskset_exec+0x36>
    502034ec:	00007797          	auipc	a5,0x7
    502034f0:	aa478793          	addi	a5,a5,-1372 # 50209f90 <pcb+0x30>
    502034f4:	00007697          	auipc	a3,0x7
    502034f8:	59c68693          	addi	a3,a3,1436 # 5020aa90 <syscall+0x30>
    502034fc:	4398                	lw	a4,0(a5)
    502034fe:	00871363          	bne	a4,s0,50203504 <taskset_exec+0x68>
    50203502:	cfac                	sw	a1,88(a5)
    50203504:	0b078793          	addi	a5,a5,176
    50203508:	fef69ae3          	bne	a3,a5,502034fc <taskset_exec+0x60>
    5020350c:	60e2                	ld	ra,24(sp)
    5020350e:	6442                	ld	s0,16(sp)
    50203510:	64a2                	ld	s1,8(sp)
    50203512:	6902                	ld	s2,0(sp)
    50203514:	6105                	addi	sp,sp,32
    50203516:	8082                	ret
    50203518:	649c                	ld	a5,8(s1)
    5020351a:	6442                	ld	s0,16(sp)
    5020351c:	6888                	ld	a0,16(s1)
    5020351e:	0027c683          	lbu	a3,2(a5)
    50203522:	60e2                	ld	ra,24(sp)
    50203524:	01048613          	addi	a2,s1,16
    50203528:	ffe9059b          	addiw	a1,s2,-2
    5020352c:	64a2                	ld	s1,8(sp)
    5020352e:	6902                	ld	s2,0(sp)
    50203530:	fd06869b          	addiw	a3,a3,-48
    50203534:	6105                	addi	sp,sp,32
    50203536:	a5cff06f          	j	50202792 <add_pcb>
    5020353a:	6442                	ld	s0,16(sp)
    5020353c:	60e2                	ld	ra,24(sp)
    5020353e:	64a2                	ld	s1,8(sp)
    50203540:	6902                	ld	s2,0(sp)
    50203542:	00001517          	auipc	a0,0x1
    50203546:	c5650513          	addi	a0,a0,-938 # 50204198 <__FUNCTION__.1368+0x2c0>
    5020354a:	6105                	addi	sp,sp,32
    5020354c:	a6fd                	j	5020393a <printk>

000000005020354e <taskset>:
    5020354e:	00007797          	auipc	a5,0x7
    50203552:	a4278793          	addi	a5,a5,-1470 # 50209f90 <pcb+0x30>
    50203556:	00007697          	auipc	a3,0x7
    5020355a:	53a68693          	addi	a3,a3,1338 # 5020aa90 <syscall+0x30>
    5020355e:	4398                	lw	a4,0(a5)
    50203560:	00b71363          	bne	a4,a1,50203566 <taskset+0x18>
    50203564:	cfa8                	sw	a0,88(a5)
    50203566:	0b078793          	addi	a5,a5,176
    5020356a:	fed79ae3          	bne	a5,a3,5020355e <taskset+0x10>
    5020356e:	8082                	ret

0000000050203570 <handle_syscall>:
    50203570:	08852783          	lw	a5,136(a0)
    50203574:	1141                	addi	sp,sp,-16
    50203576:	e022                	sd	s0,0(sp)
    50203578:	00379693          	slli	a3,a5,0x3
    5020357c:	00007797          	auipc	a5,0x7
    50203580:	4e478793          	addi	a5,a5,1252 # 5020aa60 <syscall>
    50203584:	97b6                	add	a5,a5,a3
    50203586:	842a                	mv	s0,a0
    50203588:	5938                	lw	a4,112(a0)
    5020358a:	639c                	ld	a5,0(a5)
    5020358c:	5534                	lw	a3,104(a0)
    5020358e:	5130                	lw	a2,96(a0)
    50203590:	4d2c                	lw	a1,88(a0)
    50203592:	4928                	lw	a0,80(a0)
    50203594:	e406                	sd	ra,8(sp)
    50203596:	9782                	jalr	a5
    50203598:	10843783          	ld	a5,264(s0)
    5020359c:	60a2                	ld	ra,8(sp)
    5020359e:	e828                	sd	a0,80(s0)
    502035a0:	0791                	addi	a5,a5,4
    502035a2:	10f43423          	sd	a5,264(s0)
    502035a6:	6402                	ld	s0,0(sp)
    502035a8:	0141                	addi	sp,sp,16
    502035aa:	8082                	ret

00000000502035ac <bios_putstr>:
    502035ac:	520007b7          	lui	a5,0x52000
    502035b0:	f007b303          	ld	t1,-256(a5) # 51ffff00 <__BSS_END__+0x1df52a0>
    502035b4:	4601                	li	a2,0
    502035b6:	4581                	li	a1,0
    502035b8:	8302                	jr	t1

00000000502035ba <bios_logging>:
    502035ba:	520007b7          	lui	a5,0x52000
    502035be:	f207b303          	ld	t1,-224(a5) # 51ffff20 <__BSS_END__+0x1df52c0>
    502035c2:	4601                	li	a2,0
    502035c4:	4581                	li	a1,0
    502035c6:	8302                	jr	t1

00000000502035c8 <_output_wrapper>:
    502035c8:	1141                	addi	sp,sp,-16
    502035ca:	e406                	sd	ra,8(sp)
    502035cc:	aecfe0ef          	jal	ra,502018b8 <screen_write>
    502035d0:	60a2                	ld	ra,8(sp)
    502035d2:	0141                	addi	sp,sp,16
    502035d4:	9aefe06f          	j	50201782 <screen_reflush>

00000000502035d8 <mini_itoa.part.0>:
    502035d8:	4e81                	li	t4,0
    502035da:	0c054163          	bltz	a0,5020369c <mini_itoa.part.0+0xc4>
    502035de:	06100893          	li	a7,97
    502035e2:	c219                	beqz	a2,502035e8 <mini_itoa.part.0+0x10>
    502035e4:	04100893          	li	a7,65
    502035e8:	02059813          	slli	a6,a1,0x20
    502035ec:	02085813          	srli	a6,a6,0x20
    502035f0:	86ba                	mv	a3,a4
    502035f2:	4e25                	li	t3,9
    502035f4:	38d9                	addiw	a7,a7,-10
    502035f6:	030565b3          	rem	a1,a0,a6
    502035fa:	0ff5f613          	andi	a2,a1,255
    502035fe:	0306031b          	addiw	t1,a2,48
    50203602:	00c8863b          	addw	a2,a7,a2
    50203606:	0ff67613          	andi	a2,a2,255
    5020360a:	00be4463          	blt	t3,a1,50203612 <mini_itoa.part.0+0x3a>
    5020360e:	0ff37613          	andi	a2,t1,255
    50203612:	03054533          	div	a0,a0,a6
    50203616:	00c68023          	sb	a2,0(a3)
    5020361a:	0685                	addi	a3,a3,1
    5020361c:	fca04de3          	bgtz	a0,502035f6 <mini_itoa.part.0+0x1e>
    50203620:	40e6863b          	subw	a2,a3,a4
    50203624:	08f67163          	bgeu	a2,a5,502036a6 <mini_itoa.part.0+0xce>
    50203628:	37fd                	addiw	a5,a5,-1
    5020362a:	9f91                	subw	a5,a5,a2
    5020362c:	1782                	slli	a5,a5,0x20
    5020362e:	9381                	srli	a5,a5,0x20
    50203630:	0785                	addi	a5,a5,1
    50203632:	97b6                	add	a5,a5,a3
    50203634:	03000613          	li	a2,48
    50203638:	0685                	addi	a3,a3,1
    5020363a:	fec68fa3          	sb	a2,-1(a3)
    5020363e:	fef69de3          	bne	a3,a5,50203638 <mini_itoa.part.0+0x60>
    50203642:	000e8763          	beqz	t4,50203650 <mini_itoa.part.0+0x78>
    50203646:	02d00693          	li	a3,45
    5020364a:	00d78023          	sb	a3,0(a5)
    5020364e:	0785                	addi	a5,a5,1
    50203650:	40e7853b          	subw	a0,a5,a4
    50203654:	00078023          	sb	zero,0(a5)
    50203658:	0015579b          	srliw	a5,a0,0x1
    5020365c:	0015589b          	srliw	a7,a0,0x1
    50203660:	cf8d                	beqz	a5,5020369a <mini_itoa.part.0+0xc2>
    50203662:	fff8879b          	addiw	a5,a7,-1
    50203666:	1782                	slli	a5,a5,0x20
    50203668:	00170893          	addi	a7,a4,1
    5020366c:	9381                	srli	a5,a5,0x20
    5020366e:	fff7081b          	addiw	a6,a4,-1
    50203672:	98be                	add	a7,a7,a5
    50203674:	86ba                	mv	a3,a4
    50203676:	00a8083b          	addw	a6,a6,a0
    5020367a:	40d807bb          	subw	a5,a6,a3
    5020367e:	1782                	slli	a5,a5,0x20
    50203680:	9381                	srli	a5,a5,0x20
    50203682:	97ba                	add	a5,a5,a4
    50203684:	0007c583          	lbu	a1,0(a5)
    50203688:	0006c603          	lbu	a2,0(a3)
    5020368c:	0685                	addi	a3,a3,1
    5020368e:	feb68fa3          	sb	a1,-1(a3)
    50203692:	00c78023          	sb	a2,0(a5)
    50203696:	fed892e3          	bne	a7,a3,5020367a <mini_itoa.part.0+0xa2>
    5020369a:	8082                	ret
    5020369c:	f2a9                	bnez	a3,502035de <mini_itoa.part.0+0x6>
    5020369e:	40a00533          	neg	a0,a0
    502036a2:	4e85                	li	t4,1
    502036a4:	bf2d                	j	502035de <mini_itoa.part.0+0x6>
    502036a6:	87b6                	mv	a5,a3
    502036a8:	bf69                	j	50203642 <mini_itoa.part.0+0x6a>

00000000502036aa <_vprint>:
    502036aa:	7125                	addi	sp,sp,-416
    502036ac:	e34a                	sd	s2,384(sp)
    502036ae:	fece                	sd	s3,376(sp)
    502036b0:	e2ea                	sd	s10,320(sp)
    502036b2:	ef06                	sd	ra,408(sp)
    502036b4:	eb22                	sd	s0,400(sp)
    502036b6:	e726                	sd	s1,392(sp)
    502036b8:	fad2                	sd	s4,368(sp)
    502036ba:	f6d6                	sd	s5,360(sp)
    502036bc:	f2da                	sd	s6,352(sp)
    502036be:	eede                	sd	s7,344(sp)
    502036c0:	eae2                	sd	s8,336(sp)
    502036c2:	e6e6                	sd	s9,328(sp)
    502036c4:	fe6e                	sd	s11,312(sp)
    502036c6:	00054783          	lbu	a5,0(a0)
    502036ca:	89b2                	mv	s3,a2
    502036cc:	4d01                	li	s10,0
    502036ce:	03010913          	addi	s2,sp,48
    502036d2:	cbc1                	beqz	a5,50203762 <_vprint+0xb8>
    502036d4:	03010913          	addi	s2,sp,48
    502036d8:	02500c93          	li	s9,37
    502036dc:	00150693          	addi	a3,a0,1
    502036e0:	4d01                	li	s10,0
    502036e2:	4d81                	li	s11,0
    502036e4:	844a                	mv	s0,s2
    502036e6:	03000c13          	li	s8,48
    502036ea:	06c00b93          	li	s7,108
    502036ee:	02000b13          	li	s6,32
    502036f2:	00001a17          	auipc	s4,0x1
    502036f6:	aeaa0a13          	addi	s4,s4,-1302 # 502041dc <__FUNCTION__.1368+0x304>
    502036fa:	10000a93          	li	s5,256
    502036fe:	03978a63          	beq	a5,s9,50203732 <_vprint+0x88>
    50203702:	00f40023          	sb	a5,0(s0)
    50203706:	000400a3          	sb	zero,1(s0)
    5020370a:	84b6                	mv	s1,a3
    5020370c:	0405                	addi	s0,s0,1
    5020370e:	0004c783          	lbu	a5,0(s1)
    50203712:	00148693          	addi	a3,s1,1
    50203716:	41240db3          	sub	s11,s0,s2
    5020371a:	c3b1                	beqz	a5,5020375e <_vprint+0xb4>
    5020371c:	001d871b          	addiw	a4,s11,1
    50203720:	0ff00613          	li	a2,255
    50203724:	000d8d1b          	sext.w	s10,s11
    50203728:	02e66d63          	bltu	a2,a4,50203762 <_vprint+0xb8>
    5020372c:	8526                	mv	a0,s1
    5020372e:	fd979ae3          	bne	a5,s9,50203702 <_vprint+0x58>
    50203732:	00154683          	lbu	a3,1(a0)
    50203736:	00250493          	addi	s1,a0,2
    5020373a:	4781                	li	a5,0
    5020373c:	1b868163          	beq	a3,s8,502038de <_vprint+0x234>
    50203740:	4601                	li	a2,0
    50203742:	05768663          	beq	a3,s7,5020378e <_vprint+0xe4>
    50203746:	caa9                	beqz	a3,50203798 <_vprint+0xee>
    50203748:	fa86871b          	addiw	a4,a3,-88
    5020374c:	0ff77713          	andi	a4,a4,255
    50203750:	18eb6163          	bltu	s6,a4,502038d2 <_vprint+0x228>
    50203754:	070a                	slli	a4,a4,0x2
    50203756:	9752                	add	a4,a4,s4
    50203758:	4318                	lw	a4,0(a4)
    5020375a:	9752                	add	a4,a4,s4
    5020375c:	8702                	jr	a4
    5020375e:	000d8d1b          	sext.w	s10,s11
    50203762:	1a1c                	addi	a5,sp,304
    50203764:	97ea                	add	a5,a5,s10
    50203766:	854a                	mv	a0,s2
    50203768:	f0078023          	sb	zero,-256(a5)
    5020376c:	9982                	jalr	s3
    5020376e:	60fa                	ld	ra,408(sp)
    50203770:	645a                	ld	s0,400(sp)
    50203772:	64ba                	ld	s1,392(sp)
    50203774:	691a                	ld	s2,384(sp)
    50203776:	79f6                	ld	s3,376(sp)
    50203778:	7a56                	ld	s4,368(sp)
    5020377a:	7ab6                	ld	s5,360(sp)
    5020377c:	7b16                	ld	s6,352(sp)
    5020377e:	6bf6                	ld	s7,344(sp)
    50203780:	6c56                	ld	s8,336(sp)
    50203782:	6cb6                	ld	s9,328(sp)
    50203784:	7df2                	ld	s11,312(sp)
    50203786:	856a                	mv	a0,s10
    50203788:	6d16                	ld	s10,320(sp)
    5020378a:	611d                	addi	sp,sp,416
    5020378c:	8082                	ret
    5020378e:	0004c683          	lbu	a3,0(s1)
    50203792:	4605                	li	a2,1
    50203794:	0485                	addi	s1,s1,1
    50203796:	facd                	bnez	a3,50203748 <_vprint+0x9e>
    50203798:	41240d3b          	subw	s10,s0,s2
    5020379c:	b7d9                	j	50203762 <_vprint+0xb8>
    5020379e:	6190                	ld	a2,0(a1)
    502037a0:	41ba8db3          	sub	s11,s5,s11
    502037a4:	05a1                	addi	a1,a1,8
    502037a6:	00064683          	lbu	a3,0(a2)
    502037aa:	18068563          	beqz	a3,50203934 <_vprint+0x28a>
    502037ae:	4781                	li	a5,0
    502037b0:	2785                	addiw	a5,a5,1
    502037b2:	02079713          	slli	a4,a5,0x20
    502037b6:	9301                	srli	a4,a4,0x20
    502037b8:	00e60533          	add	a0,a2,a4
    502037bc:	00054503          	lbu	a0,0(a0)
    502037c0:	f965                	bnez	a0,502037b0 <_vprint+0x106>
    502037c2:	17b74063          	blt	a4,s11,50203922 <_vprint+0x278>
    502037c6:	0ff00793          	li	a5,255
    502037ca:	41a787bb          	subw	a5,a5,s10
    502037ce:	4701                	li	a4,0
    502037d0:	a029                	j	502037da <_vprint+0x130>
    502037d2:	00e606b3          	add	a3,a2,a4
    502037d6:	0006c683          	lbu	a3,0(a3)
    502037da:	00e40533          	add	a0,s0,a4
    502037de:	0705                	addi	a4,a4,1
    502037e0:	00d50023          	sb	a3,0(a0)
    502037e4:	0007069b          	sext.w	a3,a4
    502037e8:	fef6e5e3          	bltu	a3,a5,502037d2 <_vprint+0x128>
    502037ec:	4705                	li	a4,1
    502037ee:	c791                	beqz	a5,502037fa <_vprint+0x150>
    502037f0:	37fd                	addiw	a5,a5,-1
    502037f2:	1782                	slli	a5,a5,0x20
    502037f4:	9381                	srli	a5,a5,0x20
    502037f6:	00178713          	addi	a4,a5,1
    502037fa:	943a                	add	s0,s0,a4
    502037fc:	00040023          	sb	zero,0(s0)
    50203800:	b739                	j	5020370e <_vprint+0x64>
    50203802:	00858813          	addi	a6,a1,8
    50203806:	10060b63          	beqz	a2,5020391c <_vprint+0x272>
    5020380a:	6188                	ld	a0,0(a1)
    5020380c:	f8b68693          	addi	a3,a3,-117
    50203810:	0838                	addi	a4,sp,24
    50203812:	0016b693          	seqz	a3,a3
    50203816:	4601                	li	a2,0
    50203818:	45a9                	li	a1,10
    5020381a:	e442                	sd	a6,8(sp)
    5020381c:	dbdff0ef          	jal	ra,502035d8 <mini_itoa.part.0>
    50203820:	02051793          	slli	a5,a0,0x20
    50203824:	41ba8db3          	sub	s11,s5,s11
    50203828:	9381                	srli	a5,a5,0x20
    5020382a:	6822                	ld	a6,8(sp)
    5020382c:	2501                	sext.w	a0,a0
    5020382e:	11b7c163          	blt	a5,s11,50203930 <_vprint+0x286>
    50203832:	0ff00513          	li	a0,255
    50203836:	41a5053b          	subw	a0,a0,s10
    5020383a:	0838                	addi	a4,sp,24
    5020383c:	4781                	li	a5,0
    5020383e:	00074603          	lbu	a2,0(a4)
    50203842:	00f406b3          	add	a3,s0,a5
    50203846:	0785                	addi	a5,a5,1
    50203848:	00c68023          	sb	a2,0(a3)
    5020384c:	0007869b          	sext.w	a3,a5
    50203850:	0705                	addi	a4,a4,1
    50203852:	fea6e6e3          	bltu	a3,a0,5020383e <_vprint+0x194>
    50203856:	4785                	li	a5,1
    50203858:	c511                	beqz	a0,50203864 <_vprint+0x1ba>
    5020385a:	357d                	addiw	a0,a0,-1
    5020385c:	1502                	slli	a0,a0,0x20
    5020385e:	9101                	srli	a0,a0,0x20
    50203860:	00150793          	addi	a5,a0,1
    50203864:	943e                	add	s0,s0,a5
    50203866:	00040023          	sb	zero,0(s0)
    5020386a:	85c2                	mv	a1,a6
    5020386c:	b54d                	j	5020370e <_vprint+0x64>
    5020386e:	419c                	lw	a5,0(a1)
    50203870:	0405                	addi	s0,s0,1
    50203872:	05a1                	addi	a1,a1,8
    50203874:	00040023          	sb	zero,0(s0)
    50203878:	fef40fa3          	sb	a5,-1(s0)
    5020387c:	bd49                	j	5020370e <_vprint+0x64>
    5020387e:	00858813          	addi	a6,a1,8
    50203882:	ca51                	beqz	a2,50203916 <_vprint+0x26c>
    50203884:	6188                	ld	a0,0(a1)
    50203886:	fa868613          	addi	a2,a3,-88
    5020388a:	0838                	addi	a4,sp,24
    5020388c:	4685                	li	a3,1
    5020388e:	00163613          	seqz	a2,a2
    50203892:	45c1                	li	a1,16
    50203894:	e442                	sd	a6,8(sp)
    50203896:	d43ff0ef          	jal	ra,502035d8 <mini_itoa.part.0>
    5020389a:	02051793          	slli	a5,a0,0x20
    5020389e:	41ba8db3          	sub	s11,s5,s11
    502038a2:	9381                	srli	a5,a5,0x20
    502038a4:	6822                	ld	a6,8(sp)
    502038a6:	2501                	sext.w	a0,a0
    502038a8:	09b7c263          	blt	a5,s11,5020392c <_vprint+0x282>
    502038ac:	0ff00513          	li	a0,255
    502038b0:	41a5053b          	subw	a0,a0,s10
    502038b4:	0838                	addi	a4,sp,24
    502038b6:	4781                	li	a5,0
    502038b8:	00074603          	lbu	a2,0(a4)
    502038bc:	00f406b3          	add	a3,s0,a5
    502038c0:	0785                	addi	a5,a5,1
    502038c2:	00c68023          	sb	a2,0(a3)
    502038c6:	0007869b          	sext.w	a3,a5
    502038ca:	0705                	addi	a4,a4,1
    502038cc:	fea6e6e3          	bltu	a3,a0,502038b8 <_vprint+0x20e>
    502038d0:	b759                	j	50203856 <_vprint+0x1ac>
    502038d2:	00d40023          	sb	a3,0(s0)
    502038d6:	000400a3          	sb	zero,1(s0)
    502038da:	0405                	addi	s0,s0,1
    502038dc:	bd0d                	j	5020370e <_vprint+0x64>
    502038de:	00254683          	lbu	a3,2(a0)
    502038e2:	00350493          	addi	s1,a0,3
    502038e6:	ea0689e3          	beqz	a3,50203798 <_vprint+0xee>
    502038ea:	4625                	li	a2,9
    502038ec:	fd06871b          	addiw	a4,a3,-48
    502038f0:	0ff77713          	andi	a4,a4,255
    502038f4:	e4e666e3          	bltu	a2,a4,50203740 <_vprint+0x96>
    502038f8:	0027969b          	slliw	a3,a5,0x2
    502038fc:	9fb5                	addw	a5,a5,a3
    502038fe:	0004c683          	lbu	a3,0(s1)
    50203902:	0017979b          	slliw	a5,a5,0x1
    50203906:	973e                	add	a4,a4,a5
    50203908:	0485                	addi	s1,s1,1
    5020390a:	0ff77793          	andi	a5,a4,255
    5020390e:	fef9                	bnez	a3,502038ec <_vprint+0x242>
    50203910:	41240d3b          	subw	s10,s0,s2
    50203914:	b5b9                	j	50203762 <_vprint+0xb8>
    50203916:	0005e503          	lwu	a0,0(a1)
    5020391a:	b7b5                	j	50203886 <_vprint+0x1dc>
    5020391c:	0005e503          	lwu	a0,0(a1)
    50203920:	b5f5                	j	5020380c <_vprint+0x162>
    50203922:	ea0796e3          	bnez	a5,502037ce <_vprint+0x124>
    50203926:	00040023          	sb	zero,0(s0)
    5020392a:	b3d5                	j	5020370e <_vprint+0x64>
    5020392c:	f541                	bnez	a0,502038b4 <_vprint+0x20a>
    5020392e:	bf25                	j	50203866 <_vprint+0x1bc>
    50203930:	f509                	bnez	a0,5020383a <_vprint+0x190>
    50203932:	bf15                	j	50203866 <_vprint+0x1bc>
    50203934:	e9b059e3          	blez	s11,502037c6 <_vprint+0x11c>
    50203938:	b5d1                	j	502037fc <_vprint+0x152>

000000005020393a <printk>:
    5020393a:	711d                	addi	sp,sp,-96
    5020393c:	02810313          	addi	t1,sp,40
    50203940:	f42e                	sd	a1,40(sp)
    50203942:	f832                	sd	a2,48(sp)
    50203944:	859a                	mv	a1,t1
    50203946:	00000617          	auipc	a2,0x0
    5020394a:	c8260613          	addi	a2,a2,-894 # 502035c8 <_output_wrapper>
    5020394e:	ec06                	sd	ra,24(sp)
    50203950:	fc36                	sd	a3,56(sp)
    50203952:	e0ba                	sd	a4,64(sp)
    50203954:	e4be                	sd	a5,72(sp)
    50203956:	e8c2                	sd	a6,80(sp)
    50203958:	ecc6                	sd	a7,88(sp)
    5020395a:	e41a                	sd	t1,8(sp)
    5020395c:	d4fff0ef          	jal	ra,502036aa <_vprint>
    50203960:	60e2                	ld	ra,24(sp)
    50203962:	6125                	addi	sp,sp,96
    50203964:	8082                	ret

0000000050203966 <printv>:
    50203966:	711d                	addi	sp,sp,-96
    50203968:	02810313          	addi	t1,sp,40
    5020396c:	f42e                	sd	a1,40(sp)
    5020396e:	f832                	sd	a2,48(sp)
    50203970:	859a                	mv	a1,t1
    50203972:	00000617          	auipc	a2,0x0
    50203976:	c3a60613          	addi	a2,a2,-966 # 502035ac <bios_putstr>
    5020397a:	ec06                	sd	ra,24(sp)
    5020397c:	fc36                	sd	a3,56(sp)
    5020397e:	e0ba                	sd	a4,64(sp)
    50203980:	e4be                	sd	a5,72(sp)
    50203982:	e8c2                	sd	a6,80(sp)
    50203984:	ecc6                	sd	a7,88(sp)
    50203986:	e41a                	sd	t1,8(sp)
    50203988:	d23ff0ef          	jal	ra,502036aa <_vprint>
    5020398c:	60e2                	ld	ra,24(sp)
    5020398e:	6125                	addi	sp,sp,96
    50203990:	8082                	ret

0000000050203992 <printl>:
    50203992:	711d                	addi	sp,sp,-96
    50203994:	02810313          	addi	t1,sp,40
    50203998:	f42e                	sd	a1,40(sp)
    5020399a:	f832                	sd	a2,48(sp)
    5020399c:	859a                	mv	a1,t1
    5020399e:	00000617          	auipc	a2,0x0
    502039a2:	c1c60613          	addi	a2,a2,-996 # 502035ba <bios_logging>
    502039a6:	ec06                	sd	ra,24(sp)
    502039a8:	fc36                	sd	a3,56(sp)
    502039aa:	e0ba                	sd	a4,64(sp)
    502039ac:	e4be                	sd	a5,72(sp)
    502039ae:	e8c2                	sd	a6,80(sp)
    502039b0:	ecc6                	sd	a7,88(sp)
    502039b2:	e41a                	sd	t1,8(sp)
    502039b4:	cf7ff0ef          	jal	ra,502036aa <_vprint>
    502039b8:	60e2                	ld	ra,24(sp)
    502039ba:	6125                	addi	sp,sp,96
    502039bc:	8082                	ret

00000000502039be <memcpy>:
    502039be:	ce19                	beqz	a2,502039dc <memcpy+0x1e>
    502039c0:	fff6079b          	addiw	a5,a2,-1
    502039c4:	1782                	slli	a5,a5,0x20
    502039c6:	9381                	srli	a5,a5,0x20
    502039c8:	0785                	addi	a5,a5,1
    502039ca:	97aa                	add	a5,a5,a0
    502039cc:	0005c703          	lbu	a4,0(a1)
    502039d0:	0505                	addi	a0,a0,1
    502039d2:	0585                	addi	a1,a1,1
    502039d4:	fee50fa3          	sb	a4,-1(a0)
    502039d8:	fea79ae3          	bne	a5,a0,502039cc <memcpy+0xe>
    502039dc:	8082                	ret

00000000502039de <memset>:
    502039de:	ce01                	beqz	a2,502039f6 <memset+0x18>
    502039e0:	fff6079b          	addiw	a5,a2,-1
    502039e4:	1782                	slli	a5,a5,0x20
    502039e6:	9381                	srli	a5,a5,0x20
    502039e8:	0785                	addi	a5,a5,1
    502039ea:	97aa                	add	a5,a5,a0
    502039ec:	0505                	addi	a0,a0,1
    502039ee:	feb50fa3          	sb	a1,-1(a0)
    502039f2:	fef51de3          	bne	a0,a5,502039ec <memset+0xe>
    502039f6:	8082                	ret

00000000502039f8 <bzero>:
    502039f8:	cd81                	beqz	a1,50203a10 <bzero+0x18>
    502039fa:	fff5879b          	addiw	a5,a1,-1
    502039fe:	1782                	slli	a5,a5,0x20
    50203a00:	9381                	srli	a5,a5,0x20
    50203a02:	0785                	addi	a5,a5,1
    50203a04:	97aa                	add	a5,a5,a0
    50203a06:	0505                	addi	a0,a0,1
    50203a08:	fe050fa3          	sb	zero,-1(a0)
    50203a0c:	fef51de3          	bne	a0,a5,50203a06 <bzero+0xe>
    50203a10:	8082                	ret

0000000050203a12 <strlen>:
    50203a12:	00054783          	lbu	a5,0(a0)
    50203a16:	cf81                	beqz	a5,50203a2e <strlen+0x1c>
    50203a18:	00150793          	addi	a5,a0,1
    50203a1c:	40a006bb          	negw	a3,a0
    50203a20:	0007c703          	lbu	a4,0(a5)
    50203a24:	00f6853b          	addw	a0,a3,a5
    50203a28:	0785                	addi	a5,a5,1
    50203a2a:	fb7d                	bnez	a4,50203a20 <strlen+0xe>
    50203a2c:	8082                	ret
    50203a2e:	4501                	li	a0,0
    50203a30:	8082                	ret

0000000050203a32 <strcmp>:
    50203a32:	a031                	j	50203a3e <strcmp+0xc>
    50203a34:	0505                	addi	a0,a0,1
    50203a36:	0585                	addi	a1,a1,1
    50203a38:	cb99                	beqz	a5,50203a4e <strcmp+0x1c>
    50203a3a:	00f71e63          	bne	a4,a5,50203a56 <strcmp+0x24>
    50203a3e:	00054703          	lbu	a4,0(a0)
    50203a42:	0005c783          	lbu	a5,0(a1)
    50203a46:	f77d                	bnez	a4,50203a34 <strcmp+0x2>
    50203a48:	4501                	li	a0,0
    50203a4a:	9d1d                	subw	a0,a0,a5
    50203a4c:	8082                	ret
    50203a4e:	0007051b          	sext.w	a0,a4
    50203a52:	9d1d                	subw	a0,a0,a5
    50203a54:	8082                	ret
    50203a56:	40f7053b          	subw	a0,a4,a5
    50203a5a:	8082                	ret

0000000050203a5c <strncmp>:
    50203a5c:	00054703          	lbu	a4,0(a0)
    50203a60:	0005c783          	lbu	a5,0(a1)
    50203a64:	9e29                	addw	a2,a2,a0
    50203a66:	eb19                	bnez	a4,50203a7c <strncmp+0x20>
    50203a68:	a01d                	j	50203a8e <strncmp+0x32>
    50203a6a:	00d05e63          	blez	a3,50203a86 <strncmp+0x2a>
    50203a6e:	02f71363          	bne	a4,a5,50203a94 <strncmp+0x38>
    50203a72:	00054703          	lbu	a4,0(a0)
    50203a76:	0005c783          	lbu	a5,0(a1)
    50203a7a:	cb11                	beqz	a4,50203a8e <strncmp+0x32>
    50203a7c:	40a606bb          	subw	a3,a2,a0
    50203a80:	0585                	addi	a1,a1,1
    50203a82:	0505                	addi	a0,a0,1
    50203a84:	f3fd                	bnez	a5,50203a6a <strncmp+0xe>
    50203a86:	0007051b          	sext.w	a0,a4
    50203a8a:	9d1d                	subw	a0,a0,a5
    50203a8c:	8082                	ret
    50203a8e:	4501                	li	a0,0
    50203a90:	9d1d                	subw	a0,a0,a5
    50203a92:	8082                	ret
    50203a94:	40f7053b          	subw	a0,a4,a5
    50203a98:	8082                	ret

0000000050203a9a <strcpy>:
    50203a9a:	0005c783          	lbu	a5,0(a1)
    50203a9e:	872a                	mv	a4,a0
    50203aa0:	cb81                	beqz	a5,50203ab0 <strcpy+0x16>
    50203aa2:	00f70023          	sb	a5,0(a4)
    50203aa6:	0015c783          	lbu	a5,1(a1)
    50203aaa:	0585                	addi	a1,a1,1
    50203aac:	0705                	addi	a4,a4,1
    50203aae:	fbf5                	bnez	a5,50203aa2 <strcpy+0x8>
    50203ab0:	00070023          	sb	zero,0(a4)
    50203ab4:	8082                	ret

0000000050203ab6 <strncpy>:
    50203ab6:	0005c783          	lbu	a5,0(a1)
    50203aba:	fff6071b          	addiw	a4,a2,-1
    50203abe:	86aa                	mv	a3,a0
    50203ac0:	c385                	beqz	a5,50203ae0 <strncpy+0x2a>
    50203ac2:	587d                	li	a6,-1
    50203ac4:	00c04563          	bgtz	a2,50203ace <strncpy+0x18>
    50203ac8:	a81d                	j	50203afe <strncpy+0x48>
    50203aca:	03070963          	beq	a4,a6,50203afc <strncpy+0x46>
    50203ace:	00f68023          	sb	a5,0(a3)
    50203ad2:	0015c783          	lbu	a5,1(a1)
    50203ad6:	863a                	mv	a2,a4
    50203ad8:	0585                	addi	a1,a1,1
    50203ada:	0685                	addi	a3,a3,1
    50203adc:	377d                	addiw	a4,a4,-1
    50203ade:	f7f5                	bnez	a5,50203aca <strncpy+0x14>
    50203ae0:	85b6                	mv	a1,a3
    50203ae2:	4805                	li	a6,1
    50203ae4:	00c05b63          	blez	a2,50203afa <strncpy+0x44>
    50203ae8:	0585                	addi	a1,a1,1
    50203aea:	40b807bb          	subw	a5,a6,a1
    50203aee:	9fb5                	addw	a5,a5,a3
    50203af0:	9fb9                	addw	a5,a5,a4
    50203af2:	fe058fa3          	sb	zero,-1(a1)
    50203af6:	fef049e3          	bgtz	a5,50203ae8 <strncpy+0x32>
    50203afa:	8082                	ret
    50203afc:	8082                	ret
    50203afe:	ffe6079b          	addiw	a5,a2,-2
    50203b02:	863a                	mv	a2,a4
    50203b04:	873e                	mv	a4,a5
    50203b06:	bfe9                	j	50203ae0 <strncpy+0x2a>

0000000050203b08 <strcat>:
    50203b08:	00054783          	lbu	a5,0(a0)
    50203b0c:	c39d                	beqz	a5,50203b32 <strcat+0x2a>
    50203b0e:	87aa                	mv	a5,a0
    50203b10:	0017c703          	lbu	a4,1(a5)
    50203b14:	0785                	addi	a5,a5,1
    50203b16:	ff6d                	bnez	a4,50203b10 <strcat+0x8>
    50203b18:	0005c703          	lbu	a4,0(a1)
    50203b1c:	cb01                	beqz	a4,50203b2c <strcat+0x24>
    50203b1e:	00e78023          	sb	a4,0(a5)
    50203b22:	0015c703          	lbu	a4,1(a1)
    50203b26:	0585                	addi	a1,a1,1
    50203b28:	0785                	addi	a5,a5,1
    50203b2a:	fb75                	bnez	a4,50203b1e <strcat+0x16>
    50203b2c:	00078023          	sb	zero,0(a5)
    50203b30:	8082                	ret
    50203b32:	87aa                	mv	a5,a0
    50203b34:	b7d5                	j	50203b18 <strcat+0x10>
