
build/mbox_client:     file format elf64-littleriscv


Disassembly of section .text:

0000000052010000 <_start>:
    52010000:	1121                	addi	sp,sp,-24
    52010002:	e02a                	sd	a0,0(sp)
    52010004:	e42e                	sd	a1,8(sp)
    52010006:	00001517          	auipc	a0,0x1
    5201000a:	c1650513          	addi	a0,a0,-1002 # 52010c1c <_edata>
    5201000e:	00001597          	auipc	a1,0x1
    52010012:	c1258593          	addi	a1,a1,-1006 # 52010c20 <__BSS_END__>

0000000052010016 <clbss>:
    52010016:	00052023          	sw	zero,0(a0)
    5201001a:	0511                	addi	a0,a0,4
    5201001c:	feb54de3          	blt	a0,a1,52010016 <clbss>
    52010020:	e806                	sd	ra,16(sp)
    52010022:	6502                	ld	a0,0(sp)
    52010024:	65a2                	ld	a1,8(sp)
    52010026:	010000ef          	jal	ra,52010036 <main>
    5201002a:	60c2                	ld	ra,16(sp)
    5201002c:	0161                	addi	sp,sp,24
    5201002e:	2ac000ef          	jal	ra,520102da <sys_exit>

0000000052010032 <loop>:
    52010032:	a001                	j	52010032 <loop>
	...

0000000052010036 <main>:
    52010036:	7119                	addi	sp,sp,-128
    52010038:	00001517          	auipc	a0,0x1
    5201003c:	a7850513          	addi	a0,a0,-1416 # 52010ab0 <strrev+0x44>
    52010040:	fc86                	sd	ra,120(sp)
    52010042:	f8a2                	sd	s0,112(sp)
    52010044:	f4a6                	sd	s1,104(sp)
    52010046:	f0ca                	sd	s2,96(sp)
    52010048:	e8d2                	sd	s4,80(sp)
    5201004a:	e4d6                	sd	s5,72(sp)
    5201004c:	e0da                	sd	s6,64(sp)
    5201004e:	ecce                	sd	s3,88(sp)
    52010050:	3fe000ef          	jal	ra,5201044e <sys_mbox_open>
    52010054:	8a2a                	mv	s4,a0
    52010056:	00001517          	auipc	a0,0x1
    5201005a:	a7250513          	addi	a0,a0,-1422 # 52010ac8 <strrev+0x5c>
    5201005e:	3f0000ef          	jal	ra,5201044e <sys_mbox_open>
    52010062:	842a                	mv	s0,a0
    52010064:	4639                	li	a2,14
    52010066:	00001597          	auipc	a1,0x1
    5201006a:	aba58593          	addi	a1,a1,-1350 # 52010b20 <initReq>
    5201006e:	8552                	mv	a0,s4
    52010070:	07e000ef          	jal	ra,520100ee <clientSendMsg>
    52010074:	4611                	li	a2,4
    52010076:	004c                	addi	a1,sp,4
    52010078:	8522                	mv	a0,s0
    5201007a:	c202                	sw	zero,4(sp)
    5201007c:	426000ef          	jal	ra,520104a2 <sys_mbox_recv>
    52010080:	4592                	lw	a1,4(sp)
    52010082:	4501                	li	a0,0
    52010084:	4901                	li	s2,0
    52010086:	106000ef          	jal	ra,5201018c <sys_move_cursor>
    5201008a:	00001517          	auipc	a0,0x1
    5201008e:	a5650513          	addi	a0,a0,-1450 # 52010ae0 <strrev+0x74>
    52010092:	03f000ef          	jal	ra,520108d0 <printf>
    52010096:	4505                	li	a0,1
    52010098:	1be000ef          	jal	ra,52010256 <sys_sleep>
    5201009c:	4481                	li	s1,0
    5201009e:	4b69                	li	s6,26
    520100a0:	00001a97          	auipc	s5,0x1
    520100a4:	a58a8a93          	addi	s5,s5,-1448 # 52010af8 <strrev+0x8c>
    520100a8:	4ba000ef          	jal	ra,52010562 <rand>
    520100ac:	036577b3          	remu	a5,a0,s6
    520100b0:	0028                	addi	a0,sp,8
    520100b2:	00178993          	addi	s3,a5,1
    520100b6:	85ce                	mv	a1,s3
    520100b8:	0017841b          	addiw	s0,a5,1
    520100bc:	436000ef          	jal	ra,520104f2 <generateRandomString>
    520100c0:	864e                	mv	a2,s3
    520100c2:	002c                	addi	a1,sp,8
    520100c4:	8552                	mv	a0,s4
    520100c6:	028000ef          	jal	ra,520100ee <clientSendMsg>
    520100ca:	4592                	lw	a1,4(sp)
    520100cc:	02041793          	slli	a5,s0,0x20
    520100d0:	9381                	srli	a5,a5,0x20
    520100d2:	9ca9                	addw	s1,s1,a0
    520100d4:	4501                	li	a0,0
    520100d6:	993e                	add	s2,s2,a5
    520100d8:	0b4000ef          	jal	ra,5201018c <sys_move_cursor>
    520100dc:	8626                	mv	a2,s1
    520100de:	85ca                	mv	a1,s2
    520100e0:	8556                	mv	a0,s5
    520100e2:	7ee000ef          	jal	ra,520108d0 <printf>
    520100e6:	4505                	li	a0,1
    520100e8:	16e000ef          	jal	ra,52010256 <sys_sleep>
    520100ec:	bf75                	j	520100a8 <main+0x72>

00000000520100ee <clientSendMsg>:
    520100ee:	711d                	addi	sp,sp,-96
    520100f0:	e8a2                	sd	s0,80(sp)
    520100f2:	842e                	mv	s0,a1
    520100f4:	e0ca                	sd	s2,64(sp)
    520100f6:	85b2                	mv	a1,a2
    520100f8:	e002                	sd	zero,0(sp)
    520100fa:	892a                	mv	s2,a0
    520100fc:	8522                	mv	a0,s0
    520100fe:	c032                	sw	a2,0(sp)
    52010100:	ec86                	sd	ra,88(sp)
    52010102:	e4a6                	sd	s1,72(sp)
    52010104:	e402                	sd	zero,8(sp)
    52010106:	84b2                	mv	s1,a2
    52010108:	e802                	sd	zero,16(sp)
    5201010a:	ec02                	sd	zero,24(sp)
    5201010c:	f002                	sd	zero,32(sp)
    5201010e:	f402                	sd	zero,40(sp)
    52010110:	f802                	sd	zero,48(sp)
    52010112:	fc02                	sd	zero,56(sp)
    52010114:	3aa000ef          	jal	ra,520104be <adler32>
    52010118:	c22a                	sw	a0,4(sp)
    5201011a:	228000ef          	jal	ra,52010342 <sys_getpid>
    5201011e:	fff4869b          	addiw	a3,s1,-1
    52010122:	1682                	slli	a3,a3,0x20
    52010124:	00140813          	addi	a6,s0,1
    52010128:	9281                	srli	a3,a3,0x20
    5201012a:	87a2                	mv	a5,s0
    5201012c:	c42a                	sw	a0,8(sp)
    5201012e:	0078                	addi	a4,sp,12
    52010130:	0004861b          	sext.w	a2,s1
    52010134:	9836                	add	a6,a6,a3
    52010136:	0007c683          	lbu	a3,0(a5)
    5201013a:	0785                	addi	a5,a5,1
    5201013c:	0705                	addi	a4,a4,1
    5201013e:	fed70fa3          	sb	a3,-1(a4)
    52010142:	ff079ae3          	bne	a5,a6,52010136 <clientSendMsg+0x48>
    52010146:	858a                	mv	a1,sp
    52010148:	854a                	mv	a0,s2
    5201014a:	2631                	addiw	a2,a2,12
    5201014c:	33a000ef          	jal	ra,52010486 <sys_mbox_send>
    52010150:	60e6                	ld	ra,88(sp)
    52010152:	6446                	ld	s0,80(sp)
    52010154:	64a6                	ld	s1,72(sp)
    52010156:	6906                	ld	s2,64(sp)
    52010158:	6125                	addi	sp,sp,96
    5201015a:	8082                	ret

000000005201015c <sys_clear>:
    5201015c:	4781                	li	a5,0
    5201015e:	4761                	li	a4,24
    52010160:	88ba                	mv	a7,a4
    52010162:	853e                	mv	a0,a5
    52010164:	85be                	mv	a1,a5
    52010166:	863e                	mv	a2,a5
    52010168:	86be                	mv	a3,a5
    5201016a:	873e                	mv	a4,a5
    5201016c:	00000073          	ecall
    52010170:	87aa                	mv	a5,a0
    52010172:	8082                	ret

0000000052010174 <sys_yield>:
    52010174:	4781                	li	a5,0
    52010176:	471d                	li	a4,7
    52010178:	88ba                	mv	a7,a4
    5201017a:	853e                	mv	a0,a5
    5201017c:	85be                	mv	a1,a5
    5201017e:	863e                	mv	a2,a5
    52010180:	86be                	mv	a3,a5
    52010182:	873e                	mv	a4,a5
    52010184:	00000073          	ecall
    52010188:	87aa                	mv	a5,a0
    5201018a:	8082                	ret

000000005201018c <sys_move_cursor>:
    5201018c:	4781                	li	a5,0
    5201018e:	4759                	li	a4,22
    52010190:	88ba                	mv	a7,a4
    52010192:	852a                	mv	a0,a0
    52010194:	85ae                	mv	a1,a1
    52010196:	863e                	mv	a2,a5
    52010198:	86be                	mv	a3,a5
    5201019a:	873e                	mv	a4,a5
    5201019c:	00000073          	ecall
    520101a0:	87aa                	mv	a5,a0
    520101a2:	8082                	ret

00000000520101a4 <sys_write>:
    520101a4:	4781                	li	a5,0
    520101a6:	4751                	li	a4,20
    520101a8:	88ba                	mv	a7,a4
    520101aa:	852a                	mv	a0,a0
    520101ac:	85be                	mv	a1,a5
    520101ae:	863e                	mv	a2,a5
    520101b0:	86be                	mv	a3,a5
    520101b2:	873e                	mv	a4,a5
    520101b4:	00000073          	ecall
    520101b8:	87aa                	mv	a5,a0
    520101ba:	8082                	ret

00000000520101bc <sys_reflush>:
    520101bc:	4781                	li	a5,0
    520101be:	475d                	li	a4,23
    520101c0:	88ba                	mv	a7,a4
    520101c2:	853e                	mv	a0,a5
    520101c4:	85be                	mv	a1,a5
    520101c6:	863e                	mv	a2,a5
    520101c8:	86be                	mv	a3,a5
    520101ca:	873e                	mv	a4,a5
    520101cc:	00000073          	ecall
    520101d0:	87aa                	mv	a5,a0
    520101d2:	8082                	ret

00000000520101d4 <sys_mutex_init>:
    520101d4:	4781                	li	a5,0
    520101d6:	02800713          	li	a4,40
    520101da:	88ba                	mv	a7,a4
    520101dc:	852a                	mv	a0,a0
    520101de:	85be                	mv	a1,a5
    520101e0:	863e                	mv	a2,a5
    520101e2:	86be                	mv	a3,a5
    520101e4:	873e                	mv	a4,a5
    520101e6:	00000073          	ecall
    520101ea:	87aa                	mv	a5,a0
    520101ec:	0007851b          	sext.w	a0,a5
    520101f0:	8082                	ret

00000000520101f2 <sys_mutex_acquire>:
    520101f2:	4781                	li	a5,0
    520101f4:	02900713          	li	a4,41
    520101f8:	88ba                	mv	a7,a4
    520101fa:	852a                	mv	a0,a0
    520101fc:	85be                	mv	a1,a5
    520101fe:	863e                	mv	a2,a5
    52010200:	86be                	mv	a3,a5
    52010202:	873e                	mv	a4,a5
    52010204:	00000073          	ecall
    52010208:	87aa                	mv	a5,a0
    5201020a:	8082                	ret

000000005201020c <sys_mutex_release>:
    5201020c:	4781                	li	a5,0
    5201020e:	02a00713          	li	a4,42
    52010212:	88ba                	mv	a7,a4
    52010214:	852a                	mv	a0,a0
    52010216:	85be                	mv	a1,a5
    52010218:	863e                	mv	a2,a5
    5201021a:	86be                	mv	a3,a5
    5201021c:	873e                	mv	a4,a5
    5201021e:	00000073          	ecall
    52010222:	87aa                	mv	a5,a0
    52010224:	8082                	ret

0000000052010226 <sys_get_timebase>:
    52010226:	4501                	li	a0,0
    52010228:	47f9                	li	a5,30
    5201022a:	88be                	mv	a7,a5
    5201022c:	852a                	mv	a0,a0
    5201022e:	85aa                	mv	a1,a0
    52010230:	862a                	mv	a2,a0
    52010232:	86aa                	mv	a3,a0
    52010234:	872a                	mv	a4,a0
    52010236:	00000073          	ecall
    5201023a:	852a                	mv	a0,a0
    5201023c:	8082                	ret

000000005201023e <sys_get_tick>:
    5201023e:	4501                	li	a0,0
    52010240:	47fd                	li	a5,31
    52010242:	88be                	mv	a7,a5
    52010244:	852a                	mv	a0,a0
    52010246:	85aa                	mv	a1,a0
    52010248:	862a                	mv	a2,a0
    5201024a:	86aa                	mv	a3,a0
    5201024c:	872a                	mv	a4,a0
    5201024e:	00000073          	ecall
    52010252:	852a                	mv	a0,a0
    52010254:	8082                	ret

0000000052010256 <sys_sleep>:
    52010256:	1502                	slli	a0,a0,0x20
    52010258:	9101                	srli	a0,a0,0x20
    5201025a:	4781                	li	a5,0
    5201025c:	4709                	li	a4,2
    5201025e:	88ba                	mv	a7,a4
    52010260:	852a                	mv	a0,a0
    52010262:	85be                	mv	a1,a5
    52010264:	863e                	mv	a2,a5
    52010266:	86be                	mv	a3,a5
    52010268:	873e                	mv	a4,a5
    5201026a:	00000073          	ecall
    5201026e:	87aa                	mv	a5,a0
    52010270:	8082                	ret

0000000052010272 <sys_thread_create>:
    52010272:	4781                	li	a5,0
    52010274:	04d00713          	li	a4,77
    52010278:	88ba                	mv	a7,a4
    5201027a:	852a                	mv	a0,a0
    5201027c:	85ae                	mv	a1,a1
    5201027e:	863e                	mv	a2,a5
    52010280:	86be                	mv	a3,a5
    52010282:	873e                	mv	a4,a5
    52010284:	00000073          	ecall
    52010288:	87aa                	mv	a5,a0
    5201028a:	8082                	ret

000000005201028c <sys_taskset_exec>:
    5201028c:	4781                	li	a5,0
    5201028e:	04e00713          	li	a4,78
    52010292:	88ba                	mv	a7,a4
    52010294:	852a                	mv	a0,a0
    52010296:	85ae                	mv	a1,a1
    52010298:	863e                	mv	a2,a5
    5201029a:	86be                	mv	a3,a5
    5201029c:	873e                	mv	a4,a5
    5201029e:	00000073          	ecall
    520102a2:	87aa                	mv	a5,a0
    520102a4:	8082                	ret

00000000520102a6 <sys_taskset>:
    520102a6:	4781                	li	a5,0
    520102a8:	04f00713          	li	a4,79
    520102ac:	88ba                	mv	a7,a4
    520102ae:	852a                	mv	a0,a0
    520102b0:	85ae                	mv	a1,a1
    520102b2:	863e                	mv	a2,a5
    520102b4:	86be                	mv	a3,a5
    520102b6:	873e                	mv	a4,a5
    520102b8:	00000073          	ecall
    520102bc:	87aa                	mv	a5,a0
    520102be:	8082                	ret

00000000520102c0 <sys_exec>:
    520102c0:	4781                	li	a5,0
    520102c2:	88be                	mv	a7,a5
    520102c4:	852a                	mv	a0,a0
    520102c6:	85ae                	mv	a1,a1
    520102c8:	8632                	mv	a2,a2
    520102ca:	86be                	mv	a3,a5
    520102cc:	873e                	mv	a4,a5
    520102ce:	00000073          	ecall
    520102d2:	87aa                	mv	a5,a0
    520102d4:	0007851b          	sext.w	a0,a5
    520102d8:	8082                	ret

00000000520102da <sys_exit>:
    520102da:	4781                	li	a5,0
    520102dc:	4705                	li	a4,1
    520102de:	88ba                	mv	a7,a4
    520102e0:	853e                	mv	a0,a5
    520102e2:	85be                	mv	a1,a5
    520102e4:	863e                	mv	a2,a5
    520102e6:	86be                	mv	a3,a5
    520102e8:	873e                	mv	a4,a5
    520102ea:	00000073          	ecall
    520102ee:	87aa                	mv	a5,a0
    520102f0:	8082                	ret

00000000520102f2 <sys_kill>:
    520102f2:	4781                	li	a5,0
    520102f4:	470d                	li	a4,3
    520102f6:	88ba                	mv	a7,a4
    520102f8:	852a                	mv	a0,a0
    520102fa:	85be                	mv	a1,a5
    520102fc:	863e                	mv	a2,a5
    520102fe:	86be                	mv	a3,a5
    52010300:	873e                	mv	a4,a5
    52010302:	00000073          	ecall
    52010306:	87aa                	mv	a5,a0
    52010308:	0007851b          	sext.w	a0,a5
    5201030c:	8082                	ret

000000005201030e <sys_waitpid>:
    5201030e:	4781                	li	a5,0
    52010310:	4711                	li	a4,4
    52010312:	88ba                	mv	a7,a4
    52010314:	852a                	mv	a0,a0
    52010316:	85be                	mv	a1,a5
    52010318:	863e                	mv	a2,a5
    5201031a:	86be                	mv	a3,a5
    5201031c:	873e                	mv	a4,a5
    5201031e:	00000073          	ecall
    52010322:	87aa                	mv	a5,a0
    52010324:	0007851b          	sext.w	a0,a5
    52010328:	8082                	ret

000000005201032a <sys_ps>:
    5201032a:	4781                	li	a5,0
    5201032c:	4715                	li	a4,5
    5201032e:	88ba                	mv	a7,a4
    52010330:	853e                	mv	a0,a5
    52010332:	85be                	mv	a1,a5
    52010334:	863e                	mv	a2,a5
    52010336:	86be                	mv	a3,a5
    52010338:	873e                	mv	a4,a5
    5201033a:	00000073          	ecall
    5201033e:	87aa                	mv	a5,a0
    52010340:	8082                	ret

0000000052010342 <sys_getpid>:
    52010342:	4501                	li	a0,0
    52010344:	4799                	li	a5,6
    52010346:	88be                	mv	a7,a5
    52010348:	852a                	mv	a0,a0
    5201034a:	85aa                	mv	a1,a0
    5201034c:	862a                	mv	a2,a0
    5201034e:	86aa                	mv	a3,a0
    52010350:	872a                	mv	a4,a0
    52010352:	00000073          	ecall
    52010356:	852a                	mv	a0,a0
    52010358:	2501                	sext.w	a0,a0
    5201035a:	8082                	ret

000000005201035c <sys_getchar>:
    5201035c:	4501                	li	a0,0
    5201035e:	47d5                	li	a5,21
    52010360:	88be                	mv	a7,a5
    52010362:	852a                	mv	a0,a0
    52010364:	85aa                	mv	a1,a0
    52010366:	862a                	mv	a2,a0
    52010368:	86aa                	mv	a3,a0
    5201036a:	872a                	mv	a4,a0
    5201036c:	00000073          	ecall
    52010370:	852a                	mv	a0,a0
    52010372:	2501                	sext.w	a0,a0
    52010374:	8082                	ret

0000000052010376 <sys_barrier_init>:
    52010376:	4781                	li	a5,0
    52010378:	02c00713          	li	a4,44
    5201037c:	88ba                	mv	a7,a4
    5201037e:	852a                	mv	a0,a0
    52010380:	85ae                	mv	a1,a1
    52010382:	863e                	mv	a2,a5
    52010384:	86be                	mv	a3,a5
    52010386:	873e                	mv	a4,a5
    52010388:	00000073          	ecall
    5201038c:	87aa                	mv	a5,a0
    5201038e:	0007851b          	sext.w	a0,a5
    52010392:	8082                	ret

0000000052010394 <sys_barrier_wait>:
    52010394:	4781                	li	a5,0
    52010396:	02d00713          	li	a4,45
    5201039a:	88ba                	mv	a7,a4
    5201039c:	852a                	mv	a0,a0
    5201039e:	85be                	mv	a1,a5
    520103a0:	863e                	mv	a2,a5
    520103a2:	86be                	mv	a3,a5
    520103a4:	873e                	mv	a4,a5
    520103a6:	00000073          	ecall
    520103aa:	87aa                	mv	a5,a0
    520103ac:	8082                	ret

00000000520103ae <sys_barrier_destroy>:
    520103ae:	4781                	li	a5,0
    520103b0:	02e00713          	li	a4,46
    520103b4:	88ba                	mv	a7,a4
    520103b6:	852a                	mv	a0,a0
    520103b8:	85be                	mv	a1,a5
    520103ba:	863e                	mv	a2,a5
    520103bc:	86be                	mv	a3,a5
    520103be:	873e                	mv	a4,a5
    520103c0:	00000073          	ecall
    520103c4:	87aa                	mv	a5,a0
    520103c6:	8082                	ret

00000000520103c8 <sys_condition_init>:
    520103c8:	4781                	li	a5,0
    520103ca:	02f00713          	li	a4,47
    520103ce:	88ba                	mv	a7,a4
    520103d0:	852a                	mv	a0,a0
    520103d2:	85be                	mv	a1,a5
    520103d4:	863e                	mv	a2,a5
    520103d6:	86be                	mv	a3,a5
    520103d8:	873e                	mv	a4,a5
    520103da:	00000073          	ecall
    520103de:	87aa                	mv	a5,a0
    520103e0:	0007851b          	sext.w	a0,a5
    520103e4:	8082                	ret

00000000520103e6 <sys_condition_wait>:
    520103e6:	4781                	li	a5,0
    520103e8:	03000713          	li	a4,48
    520103ec:	88ba                	mv	a7,a4
    520103ee:	852a                	mv	a0,a0
    520103f0:	85ae                	mv	a1,a1
    520103f2:	863e                	mv	a2,a5
    520103f4:	86be                	mv	a3,a5
    520103f6:	873e                	mv	a4,a5
    520103f8:	00000073          	ecall
    520103fc:	87aa                	mv	a5,a0
    520103fe:	8082                	ret

0000000052010400 <sys_condition_signal>:
    52010400:	4781                	li	a5,0
    52010402:	03100713          	li	a4,49
    52010406:	88ba                	mv	a7,a4
    52010408:	852a                	mv	a0,a0
    5201040a:	85be                	mv	a1,a5
    5201040c:	863e                	mv	a2,a5
    5201040e:	86be                	mv	a3,a5
    52010410:	873e                	mv	a4,a5
    52010412:	00000073          	ecall
    52010416:	87aa                	mv	a5,a0
    52010418:	8082                	ret

000000005201041a <sys_condition_broadcast>:
    5201041a:	4781                	li	a5,0
    5201041c:	03200713          	li	a4,50
    52010420:	88ba                	mv	a7,a4
    52010422:	852a                	mv	a0,a0
    52010424:	85be                	mv	a1,a5
    52010426:	863e                	mv	a2,a5
    52010428:	86be                	mv	a3,a5
    5201042a:	873e                	mv	a4,a5
    5201042c:	00000073          	ecall
    52010430:	87aa                	mv	a5,a0
    52010432:	8082                	ret

0000000052010434 <sys_condition_destroy>:
    52010434:	4781                	li	a5,0
    52010436:	03300713          	li	a4,51
    5201043a:	88ba                	mv	a7,a4
    5201043c:	852a                	mv	a0,a0
    5201043e:	85be                	mv	a1,a5
    52010440:	863e                	mv	a2,a5
    52010442:	86be                	mv	a3,a5
    52010444:	873e                	mv	a4,a5
    52010446:	00000073          	ecall
    5201044a:	87aa                	mv	a5,a0
    5201044c:	8082                	ret

000000005201044e <sys_mbox_open>:
    5201044e:	4781                	li	a5,0
    52010450:	03400713          	li	a4,52
    52010454:	88ba                	mv	a7,a4
    52010456:	852a                	mv	a0,a0
    52010458:	85be                	mv	a1,a5
    5201045a:	863e                	mv	a2,a5
    5201045c:	86be                	mv	a3,a5
    5201045e:	873e                	mv	a4,a5
    52010460:	00000073          	ecall
    52010464:	87aa                	mv	a5,a0
    52010466:	0007851b          	sext.w	a0,a5
    5201046a:	8082                	ret

000000005201046c <sys_mbox_close>:
    5201046c:	4781                	li	a5,0
    5201046e:	03500713          	li	a4,53
    52010472:	88ba                	mv	a7,a4
    52010474:	852a                	mv	a0,a0
    52010476:	85be                	mv	a1,a5
    52010478:	863e                	mv	a2,a5
    5201047a:	86be                	mv	a3,a5
    5201047c:	873e                	mv	a4,a5
    5201047e:	00000073          	ecall
    52010482:	87aa                	mv	a5,a0
    52010484:	8082                	ret

0000000052010486 <sys_mbox_send>:
    52010486:	4781                	li	a5,0
    52010488:	03600713          	li	a4,54
    5201048c:	88ba                	mv	a7,a4
    5201048e:	852a                	mv	a0,a0
    52010490:	85ae                	mv	a1,a1
    52010492:	8632                	mv	a2,a2
    52010494:	86be                	mv	a3,a5
    52010496:	873e                	mv	a4,a5
    52010498:	00000073          	ecall
    5201049c:	852a                	mv	a0,a0
    5201049e:	2501                	sext.w	a0,a0
    520104a0:	8082                	ret

00000000520104a2 <sys_mbox_recv>:
    520104a2:	4781                	li	a5,0
    520104a4:	03700713          	li	a4,55
    520104a8:	88ba                	mv	a7,a4
    520104aa:	852a                	mv	a0,a0
    520104ac:	85ae                	mv	a1,a1
    520104ae:	8632                	mv	a2,a2
    520104b0:	86be                	mv	a3,a5
    520104b2:	873e                	mv	a4,a5
    520104b4:	00000073          	ecall
    520104b8:	852a                	mv	a0,a0
    520104ba:	2501                	sext.w	a0,a0
    520104bc:	8082                	ret

00000000520104be <adler32>:
    520104be:	c985                	beqz	a1,520104ee <adler32+0x30>
    520104c0:	6641                	lui	a2,0x10
    520104c2:	95aa                	add	a1,a1,a0
    520104c4:	4701                	li	a4,0
    520104c6:	4685                	li	a3,1
    520104c8:	3645                	addiw	a2,a2,-15
    520104ca:	00054783          	lbu	a5,0(a0)
    520104ce:	0505                	addi	a0,a0,1
    520104d0:	9fb5                	addw	a5,a5,a3
    520104d2:	02c7f6bb          	remuw	a3,a5,a2
    520104d6:	9f35                	addw	a4,a4,a3
    520104d8:	02c7773b          	remuw	a4,a4,a2
    520104dc:	fea597e3          	bne	a1,a0,520104ca <adler32+0xc>
    520104e0:	0107171b          	slliw	a4,a4,0x10
    520104e4:	00e6e7b3          	or	a5,a3,a4
    520104e8:	0007851b          	sext.w	a0,a5
    520104ec:	8082                	ret
    520104ee:	4505                	li	a0,1
    520104f0:	8082                	ret

00000000520104f2 <generateRandomString>:
    520104f2:	00b50733          	add	a4,a0,a1
    520104f6:	ffe5879b          	addiw	a5,a1,-2
    520104fa:	fe070fa3          	sb	zero,-1(a4)
    520104fe:	02079713          	slli	a4,a5,0x20
    52010502:	04074a63          	bltz	a4,52010556 <generateRandomString+0x64>
    52010506:	7179                	addi	sp,sp,-48
    52010508:	f022                	sd	s0,32(sp)
    5201050a:	ec26                	sd	s1,24(sp)
    5201050c:	0007841b          	sext.w	s0,a5
    52010510:	ffd50493          	addi	s1,a0,-3
    52010514:	1782                	slli	a5,a5,0x20
    52010516:	94ae                	add	s1,s1,a1
    52010518:	9381                	srli	a5,a5,0x20
    5201051a:	e84a                	sd	s2,16(sp)
    5201051c:	e44e                	sd	s3,8(sp)
    5201051e:	f406                	sd	ra,40(sp)
    52010520:	942a                	add	s0,s0,a0
    52010522:	8c9d                	sub	s1,s1,a5
    52010524:	00000997          	auipc	s3,0x0
    52010528:	60c98993          	addi	s3,s3,1548 # 52010b30 <alpha.1097>
    5201052c:	05500913          	li	s2,85
    52010530:	032000ef          	jal	ra,52010562 <rand>
    52010534:	0325653b          	remw	a0,a0,s2
    52010538:	147d                	addi	s0,s0,-1
    5201053a:	954e                	add	a0,a0,s3
    5201053c:	00054783          	lbu	a5,0(a0)
    52010540:	00f400a3          	sb	a5,1(s0)
    52010544:	fe9416e3          	bne	s0,s1,52010530 <generateRandomString+0x3e>
    52010548:	70a2                	ld	ra,40(sp)
    5201054a:	7402                	ld	s0,32(sp)
    5201054c:	64e2                	ld	s1,24(sp)
    5201054e:	6942                	ld	s2,16(sp)
    52010550:	69a2                	ld	s3,8(sp)
    52010552:	6145                	addi	sp,sp,48
    52010554:	8082                	ret
    52010556:	8082                	ret

0000000052010558 <srand>:
    52010558:	00000797          	auipc	a5,0x0
    5201055c:	6ca7a223          	sw	a0,1732(a5) # 52010c1c <_edata>
    52010560:	8082                	ret

0000000052010562 <rand>:
    52010562:	00000797          	auipc	a5,0x0
    52010566:	6ba78793          	addi	a5,a5,1722 # 52010c1c <_edata>
    5201056a:	4388                	lw	a0,0(a5)
    5201056c:	00000717          	auipc	a4,0x0
    52010570:	6a473703          	ld	a4,1700(a4) # 52010c10 <__SDATA_BEGIN__>
    52010574:	02e50533          	mul	a0,a0,a4
    52010578:	052d                	addi	a0,a0,11
    5201057a:	1506                	slli	a0,a0,0x21
    5201057c:	9105                	srli	a0,a0,0x21
    5201057e:	c388                	sw	a0,0(a5)
    52010580:	8082                	ret

0000000052010582 <mini_itoa.part.0>:
    52010582:	4e81                	li	t4,0
    52010584:	0c054163          	bltz	a0,52010646 <mini_itoa.part.0+0xc4>
    52010588:	06100893          	li	a7,97
    5201058c:	c219                	beqz	a2,52010592 <mini_itoa.part.0+0x10>
    5201058e:	04100893          	li	a7,65
    52010592:	02059813          	slli	a6,a1,0x20
    52010596:	02085813          	srli	a6,a6,0x20
    5201059a:	86ba                	mv	a3,a4
    5201059c:	4e25                	li	t3,9
    5201059e:	38d9                	addiw	a7,a7,-10
    520105a0:	030565b3          	rem	a1,a0,a6
    520105a4:	0ff5f613          	andi	a2,a1,255
    520105a8:	0306031b          	addiw	t1,a2,48
    520105ac:	00c8863b          	addw	a2,a7,a2
    520105b0:	0ff67613          	andi	a2,a2,255
    520105b4:	00be4463          	blt	t3,a1,520105bc <mini_itoa.part.0+0x3a>
    520105b8:	0ff37613          	andi	a2,t1,255
    520105bc:	03054533          	div	a0,a0,a6
    520105c0:	00c68023          	sb	a2,0(a3)
    520105c4:	0685                	addi	a3,a3,1
    520105c6:	fca04de3          	bgtz	a0,520105a0 <mini_itoa.part.0+0x1e>
    520105ca:	40e6863b          	subw	a2,a3,a4
    520105ce:	08f67163          	bgeu	a2,a5,52010650 <mini_itoa.part.0+0xce>
    520105d2:	37fd                	addiw	a5,a5,-1
    520105d4:	9f91                	subw	a5,a5,a2
    520105d6:	1782                	slli	a5,a5,0x20
    520105d8:	9381                	srli	a5,a5,0x20
    520105da:	0785                	addi	a5,a5,1
    520105dc:	97b6                	add	a5,a5,a3
    520105de:	03000613          	li	a2,48
    520105e2:	0685                	addi	a3,a3,1
    520105e4:	fec68fa3          	sb	a2,-1(a3)
    520105e8:	fef69de3          	bne	a3,a5,520105e2 <mini_itoa.part.0+0x60>
    520105ec:	000e8763          	beqz	t4,520105fa <mini_itoa.part.0+0x78>
    520105f0:	02d00693          	li	a3,45
    520105f4:	00d78023          	sb	a3,0(a5)
    520105f8:	0785                	addi	a5,a5,1
    520105fa:	40e7853b          	subw	a0,a5,a4
    520105fe:	00078023          	sb	zero,0(a5)
    52010602:	0015579b          	srliw	a5,a0,0x1
    52010606:	0015589b          	srliw	a7,a0,0x1
    5201060a:	cf8d                	beqz	a5,52010644 <mini_itoa.part.0+0xc2>
    5201060c:	fff8879b          	addiw	a5,a7,-1
    52010610:	1782                	slli	a5,a5,0x20
    52010612:	00170893          	addi	a7,a4,1
    52010616:	9381                	srli	a5,a5,0x20
    52010618:	fff7081b          	addiw	a6,a4,-1
    5201061c:	98be                	add	a7,a7,a5
    5201061e:	86ba                	mv	a3,a4
    52010620:	00a8083b          	addw	a6,a6,a0
    52010624:	40d807bb          	subw	a5,a6,a3
    52010628:	1782                	slli	a5,a5,0x20
    5201062a:	9381                	srli	a5,a5,0x20
    5201062c:	97ba                	add	a5,a5,a4
    5201062e:	0007c583          	lbu	a1,0(a5)
    52010632:	0006c603          	lbu	a2,0(a3)
    52010636:	0685                	addi	a3,a3,1
    52010638:	feb68fa3          	sb	a1,-1(a3)
    5201063c:	00c78023          	sb	a2,0(a5)
    52010640:	fed892e3          	bne	a7,a3,52010624 <mini_itoa.part.0+0xa2>
    52010644:	8082                	ret
    52010646:	f2a9                	bnez	a3,52010588 <mini_itoa.part.0+0x6>
    52010648:	40a00533          	neg	a0,a0
    5201064c:	4e85                	li	t4,1
    5201064e:	bf2d                	j	52010588 <mini_itoa.part.0+0x6>
    52010650:	87b6                	mv	a5,a3
    52010652:	bf69                	j	520105ec <mini_itoa.part.0+0x6a>

0000000052010654 <vprintf>:
    52010654:	7125                	addi	sp,sp,-416
    52010656:	eae2                	sd	s8,336(sp)
    52010658:	e6e6                	sd	s9,328(sp)
    5201065a:	ef06                	sd	ra,408(sp)
    5201065c:	eb22                	sd	s0,400(sp)
    5201065e:	e726                	sd	s1,392(sp)
    52010660:	e34a                	sd	s2,384(sp)
    52010662:	fece                	sd	s3,376(sp)
    52010664:	fad2                	sd	s4,368(sp)
    52010666:	f6d6                	sd	s5,360(sp)
    52010668:	f2da                	sd	s6,352(sp)
    5201066a:	eede                	sd	s7,344(sp)
    5201066c:	e2ea                	sd	s10,320(sp)
    5201066e:	fe6e                	sd	s11,312(sp)
    52010670:	00054783          	lbu	a5,0(a0)
    52010674:	4c01                	li	s8,0
    52010676:	03010c93          	addi	s9,sp,48
    5201067a:	cbc1                	beqz	a5,5201070a <vprintf+0xb6>
    5201067c:	03010c93          	addi	s9,sp,48
    52010680:	02500b13          	li	s6,37
    52010684:	00150693          	addi	a3,a0,1
    52010688:	4c01                	li	s8,0
    5201068a:	4b81                	li	s7,0
    5201068c:	8466                	mv	s0,s9
    5201068e:	03000a93          	li	s5,48
    52010692:	06c00a13          	li	s4,108
    52010696:	02000993          	li	s3,32
    5201069a:	00000d17          	auipc	s10,0x0
    5201069e:	4eed0d13          	addi	s10,s10,1262 # 52010b88 <alpha.1097+0x58>
    520106a2:	10000913          	li	s2,256
    520106a6:	03678a63          	beq	a5,s6,520106da <vprintf+0x86>
    520106aa:	00f40023          	sb	a5,0(s0)
    520106ae:	000400a3          	sb	zero,1(s0)
    520106b2:	84b6                	mv	s1,a3
    520106b4:	0405                	addi	s0,s0,1
    520106b6:	0004c783          	lbu	a5,0(s1)
    520106ba:	00148693          	addi	a3,s1,1
    520106be:	41940bb3          	sub	s7,s0,s9
    520106c2:	c3b1                	beqz	a5,52010706 <vprintf+0xb2>
    520106c4:	001b871b          	addiw	a4,s7,1
    520106c8:	0ff00613          	li	a2,255
    520106cc:	000b8c1b          	sext.w	s8,s7
    520106d0:	02e66d63          	bltu	a2,a4,5201070a <vprintf+0xb6>
    520106d4:	8526                	mv	a0,s1
    520106d6:	fd679ae3          	bne	a5,s6,520106aa <vprintf+0x56>
    520106da:	00154683          	lbu	a3,1(a0)
    520106de:	00250493          	addi	s1,a0,2
    520106e2:	4781                	li	a5,0
    520106e4:	19568b63          	beq	a3,s5,5201087a <vprintf+0x226>
    520106e8:	4601                	li	a2,0
    520106ea:	05468963          	beq	a3,s4,5201073c <vprintf+0xe8>
    520106ee:	cea1                	beqz	a3,52010746 <vprintf+0xf2>
    520106f0:	fa86871b          	addiw	a4,a3,-88
    520106f4:	0ff77713          	andi	a4,a4,255
    520106f8:	16e9eb63          	bltu	s3,a4,5201086e <vprintf+0x21a>
    520106fc:	070a                	slli	a4,a4,0x2
    520106fe:	976a                	add	a4,a4,s10
    52010700:	4318                	lw	a4,0(a4)
    52010702:	976a                	add	a4,a4,s10
    52010704:	8702                	jr	a4
    52010706:	000b8c1b          	sext.w	s8,s7
    5201070a:	1a1c                	addi	a5,sp,304
    5201070c:	8566                	mv	a0,s9
    5201070e:	97e2                	add	a5,a5,s8
    52010710:	f0078023          	sb	zero,-256(a5)
    52010714:	a91ff0ef          	jal	ra,520101a4 <sys_write>
    52010718:	aa5ff0ef          	jal	ra,520101bc <sys_reflush>
    5201071c:	60fa                	ld	ra,408(sp)
    5201071e:	645a                	ld	s0,400(sp)
    52010720:	64ba                	ld	s1,392(sp)
    52010722:	691a                	ld	s2,384(sp)
    52010724:	79f6                	ld	s3,376(sp)
    52010726:	7a56                	ld	s4,368(sp)
    52010728:	7ab6                	ld	s5,360(sp)
    5201072a:	7b16                	ld	s6,352(sp)
    5201072c:	6bf6                	ld	s7,344(sp)
    5201072e:	6cb6                	ld	s9,328(sp)
    52010730:	6d16                	ld	s10,320(sp)
    52010732:	7df2                	ld	s11,312(sp)
    52010734:	8562                	mv	a0,s8
    52010736:	6c56                	ld	s8,336(sp)
    52010738:	611d                	addi	sp,sp,416
    5201073a:	8082                	ret
    5201073c:	0004c683          	lbu	a3,0(s1)
    52010740:	4605                	li	a2,1
    52010742:	0485                	addi	s1,s1,1
    52010744:	f6d5                	bnez	a3,520106f0 <vprintf+0x9c>
    52010746:	41940c3b          	subw	s8,s0,s9
    5201074a:	b7c1                	j	5201070a <vprintf+0xb6>
    5201074c:	0005bd83          	ld	s11,0(a1)
    52010750:	05a1                	addi	a1,a1,8
    52010752:	e42e                	sd	a1,8(sp)
    52010754:	856e                	mv	a0,s11
    52010756:	1f2000ef          	jal	ra,52010948 <strlen>
    5201075a:	02051793          	slli	a5,a0,0x20
    5201075e:	41790bb3          	sub	s7,s2,s7
    52010762:	9381                	srli	a5,a5,0x20
    52010764:	65a2                	ld	a1,8(sp)
    52010766:	2501                	sext.w	a0,a0
    52010768:	1577cb63          	blt	a5,s7,520108be <vprintf+0x26a>
    5201076c:	0ff00513          	li	a0,255
    52010770:	4185053b          	subw	a0,a0,s8
    52010774:	4781                	li	a5,0
    52010776:	00fd8733          	add	a4,s11,a5
    5201077a:	00074683          	lbu	a3,0(a4)
    5201077e:	00f40733          	add	a4,s0,a5
    52010782:	0785                	addi	a5,a5,1
    52010784:	00d70023          	sb	a3,0(a4)
    52010788:	0007871b          	sext.w	a4,a5
    5201078c:	fea765e3          	bltu	a4,a0,52010776 <vprintf+0x122>
    52010790:	4785                	li	a5,1
    52010792:	c511                	beqz	a0,5201079e <vprintf+0x14a>
    52010794:	357d                	addiw	a0,a0,-1
    52010796:	1502                	slli	a0,a0,0x20
    52010798:	9101                	srli	a0,a0,0x20
    5201079a:	00150793          	addi	a5,a0,1
    5201079e:	943e                	add	s0,s0,a5
    520107a0:	00040023          	sb	zero,0(s0)
    520107a4:	bf09                	j	520106b6 <vprintf+0x62>
    520107a6:	00858d93          	addi	s11,a1,8
    520107aa:	10060763          	beqz	a2,520108b8 <vprintf+0x264>
    520107ae:	6188                	ld	a0,0(a1)
    520107b0:	f8b68693          	addi	a3,a3,-117
    520107b4:	0838                	addi	a4,sp,24
    520107b6:	0016b693          	seqz	a3,a3
    520107ba:	4601                	li	a2,0
    520107bc:	45a9                	li	a1,10
    520107be:	dc5ff0ef          	jal	ra,52010582 <mini_itoa.part.0>
    520107c2:	02051793          	slli	a5,a0,0x20
    520107c6:	41790bb3          	sub	s7,s2,s7
    520107ca:	9381                	srli	a5,a5,0x20
    520107cc:	2501                	sext.w	a0,a0
    520107ce:	0f77cf63          	blt	a5,s7,520108cc <vprintf+0x278>
    520107d2:	0ff00513          	li	a0,255
    520107d6:	4185053b          	subw	a0,a0,s8
    520107da:	0838                	addi	a4,sp,24
    520107dc:	4781                	li	a5,0
    520107de:	00074603          	lbu	a2,0(a4)
    520107e2:	00f406b3          	add	a3,s0,a5
    520107e6:	0785                	addi	a5,a5,1
    520107e8:	00c68023          	sb	a2,0(a3)
    520107ec:	0007869b          	sext.w	a3,a5
    520107f0:	0705                	addi	a4,a4,1
    520107f2:	fea6e6e3          	bltu	a3,a0,520107de <vprintf+0x18a>
    520107f6:	4785                	li	a5,1
    520107f8:	c511                	beqz	a0,52010804 <vprintf+0x1b0>
    520107fa:	357d                	addiw	a0,a0,-1
    520107fc:	1502                	slli	a0,a0,0x20
    520107fe:	9101                	srli	a0,a0,0x20
    52010800:	00150793          	addi	a5,a0,1
    52010804:	943e                	add	s0,s0,a5
    52010806:	00040023          	sb	zero,0(s0)
    5201080a:	85ee                	mv	a1,s11
    5201080c:	b56d                	j	520106b6 <vprintf+0x62>
    5201080e:	419c                	lw	a5,0(a1)
    52010810:	0405                	addi	s0,s0,1
    52010812:	05a1                	addi	a1,a1,8
    52010814:	00040023          	sb	zero,0(s0)
    52010818:	fef40fa3          	sb	a5,-1(s0)
    5201081c:	bd69                	j	520106b6 <vprintf+0x62>
    5201081e:	00858d93          	addi	s11,a1,8
    52010822:	ca41                	beqz	a2,520108b2 <vprintf+0x25e>
    52010824:	6188                	ld	a0,0(a1)
    52010826:	fa868613          	addi	a2,a3,-88
    5201082a:	0838                	addi	a4,sp,24
    5201082c:	4685                	li	a3,1
    5201082e:	00163613          	seqz	a2,a2
    52010832:	45c1                	li	a1,16
    52010834:	d4fff0ef          	jal	ra,52010582 <mini_itoa.part.0>
    52010838:	02051793          	slli	a5,a0,0x20
    5201083c:	41790bb3          	sub	s7,s2,s7
    52010840:	9381                	srli	a5,a5,0x20
    52010842:	2501                	sext.w	a0,a0
    52010844:	0977c263          	blt	a5,s7,520108c8 <vprintf+0x274>
    52010848:	0ff00513          	li	a0,255
    5201084c:	4185053b          	subw	a0,a0,s8
    52010850:	0838                	addi	a4,sp,24
    52010852:	4781                	li	a5,0
    52010854:	00074603          	lbu	a2,0(a4)
    52010858:	00f406b3          	add	a3,s0,a5
    5201085c:	0785                	addi	a5,a5,1
    5201085e:	00c68023          	sb	a2,0(a3)
    52010862:	0007869b          	sext.w	a3,a5
    52010866:	0705                	addi	a4,a4,1
    52010868:	fea6e6e3          	bltu	a3,a0,52010854 <vprintf+0x200>
    5201086c:	b769                	j	520107f6 <vprintf+0x1a2>
    5201086e:	00d40023          	sb	a3,0(s0)
    52010872:	000400a3          	sb	zero,1(s0)
    52010876:	0405                	addi	s0,s0,1
    52010878:	bd3d                	j	520106b6 <vprintf+0x62>
    5201087a:	00254683          	lbu	a3,2(a0)
    5201087e:	00350493          	addi	s1,a0,3
    52010882:	ec0682e3          	beqz	a3,52010746 <vprintf+0xf2>
    52010886:	4625                	li	a2,9
    52010888:	fd06871b          	addiw	a4,a3,-48
    5201088c:	0ff77713          	andi	a4,a4,255
    52010890:	e4e66ce3          	bltu	a2,a4,520106e8 <vprintf+0x94>
    52010894:	0027969b          	slliw	a3,a5,0x2
    52010898:	9fb5                	addw	a5,a5,a3
    5201089a:	0004c683          	lbu	a3,0(s1)
    5201089e:	0017979b          	slliw	a5,a5,0x1
    520108a2:	973e                	add	a4,a4,a5
    520108a4:	0485                	addi	s1,s1,1
    520108a6:	0ff77793          	andi	a5,a4,255
    520108aa:	fef9                	bnez	a3,52010888 <vprintf+0x234>
    520108ac:	41940c3b          	subw	s8,s0,s9
    520108b0:	bda9                	j	5201070a <vprintf+0xb6>
    520108b2:	0005e503          	lwu	a0,0(a1)
    520108b6:	bf85                	j	52010826 <vprintf+0x1d2>
    520108b8:	0005e503          	lwu	a0,0(a1)
    520108bc:	bdd5                	j	520107b0 <vprintf+0x15c>
    520108be:	ea051be3          	bnez	a0,52010774 <vprintf+0x120>
    520108c2:	00040023          	sb	zero,0(s0)
    520108c6:	bbc5                	j	520106b6 <vprintf+0x62>
    520108c8:	f541                	bnez	a0,52010850 <vprintf+0x1fc>
    520108ca:	bf35                	j	52010806 <vprintf+0x1b2>
    520108cc:	f519                	bnez	a0,520107da <vprintf+0x186>
    520108ce:	bf25                	j	52010806 <vprintf+0x1b2>

00000000520108d0 <printf>:
    520108d0:	711d                	addi	sp,sp,-96
    520108d2:	02810313          	addi	t1,sp,40
    520108d6:	f42e                	sd	a1,40(sp)
    520108d8:	859a                	mv	a1,t1
    520108da:	ec06                	sd	ra,24(sp)
    520108dc:	f832                	sd	a2,48(sp)
    520108de:	fc36                	sd	a3,56(sp)
    520108e0:	e0ba                	sd	a4,64(sp)
    520108e2:	e4be                	sd	a5,72(sp)
    520108e4:	e8c2                	sd	a6,80(sp)
    520108e6:	ecc6                	sd	a7,88(sp)
    520108e8:	e41a                	sd	t1,8(sp)
    520108ea:	d6bff0ef          	jal	ra,52010654 <vprintf>
    520108ee:	60e2                	ld	ra,24(sp)
    520108f0:	6125                	addi	sp,sp,96
    520108f2:	8082                	ret

00000000520108f4 <memcpy>:
    520108f4:	ce19                	beqz	a2,52010912 <memcpy+0x1e>
    520108f6:	fff6079b          	addiw	a5,a2,-1
    520108fa:	1782                	slli	a5,a5,0x20
    520108fc:	9381                	srli	a5,a5,0x20
    520108fe:	0785                	addi	a5,a5,1
    52010900:	97aa                	add	a5,a5,a0
    52010902:	0005c703          	lbu	a4,0(a1)
    52010906:	0505                	addi	a0,a0,1
    52010908:	0585                	addi	a1,a1,1
    5201090a:	fee50fa3          	sb	a4,-1(a0)
    5201090e:	fea79ae3          	bne	a5,a0,52010902 <memcpy+0xe>
    52010912:	8082                	ret

0000000052010914 <memset>:
    52010914:	ce01                	beqz	a2,5201092c <memset+0x18>
    52010916:	fff6079b          	addiw	a5,a2,-1
    5201091a:	1782                	slli	a5,a5,0x20
    5201091c:	9381                	srli	a5,a5,0x20
    5201091e:	0785                	addi	a5,a5,1
    52010920:	97aa                	add	a5,a5,a0
    52010922:	0505                	addi	a0,a0,1
    52010924:	feb50fa3          	sb	a1,-1(a0)
    52010928:	fef51de3          	bne	a0,a5,52010922 <memset+0xe>
    5201092c:	8082                	ret

000000005201092e <bzero>:
    5201092e:	cd81                	beqz	a1,52010946 <bzero+0x18>
    52010930:	fff5879b          	addiw	a5,a1,-1
    52010934:	1782                	slli	a5,a5,0x20
    52010936:	9381                	srli	a5,a5,0x20
    52010938:	0785                	addi	a5,a5,1
    5201093a:	97aa                	add	a5,a5,a0
    5201093c:	0505                	addi	a0,a0,1
    5201093e:	fe050fa3          	sb	zero,-1(a0)
    52010942:	fef51de3          	bne	a0,a5,5201093c <bzero+0xe>
    52010946:	8082                	ret

0000000052010948 <strlen>:
    52010948:	00054783          	lbu	a5,0(a0)
    5201094c:	cf81                	beqz	a5,52010964 <strlen+0x1c>
    5201094e:	00150793          	addi	a5,a0,1
    52010952:	40a006bb          	negw	a3,a0
    52010956:	0007c703          	lbu	a4,0(a5)
    5201095a:	00f6853b          	addw	a0,a3,a5
    5201095e:	0785                	addi	a5,a5,1
    52010960:	fb7d                	bnez	a4,52010956 <strlen+0xe>
    52010962:	8082                	ret
    52010964:	4501                	li	a0,0
    52010966:	8082                	ret

0000000052010968 <strcmp>:
    52010968:	a031                	j	52010974 <strcmp+0xc>
    5201096a:	0505                	addi	a0,a0,1
    5201096c:	0585                	addi	a1,a1,1
    5201096e:	cb99                	beqz	a5,52010984 <strcmp+0x1c>
    52010970:	00f71e63          	bne	a4,a5,5201098c <strcmp+0x24>
    52010974:	00054703          	lbu	a4,0(a0)
    52010978:	0005c783          	lbu	a5,0(a1)
    5201097c:	f77d                	bnez	a4,5201096a <strcmp+0x2>
    5201097e:	4501                	li	a0,0
    52010980:	9d1d                	subw	a0,a0,a5
    52010982:	8082                	ret
    52010984:	0007051b          	sext.w	a0,a4
    52010988:	9d1d                	subw	a0,a0,a5
    5201098a:	8082                	ret
    5201098c:	40f7053b          	subw	a0,a4,a5
    52010990:	8082                	ret

0000000052010992 <strncmp>:
    52010992:	00054703          	lbu	a4,0(a0)
    52010996:	0005c783          	lbu	a5,0(a1)
    5201099a:	9e29                	addw	a2,a2,a0
    5201099c:	eb19                	bnez	a4,520109b2 <strncmp+0x20>
    5201099e:	a01d                	j	520109c4 <strncmp+0x32>
    520109a0:	00d05e63          	blez	a3,520109bc <strncmp+0x2a>
    520109a4:	02f71363          	bne	a4,a5,520109ca <strncmp+0x38>
    520109a8:	00054703          	lbu	a4,0(a0)
    520109ac:	0005c783          	lbu	a5,0(a1)
    520109b0:	cb11                	beqz	a4,520109c4 <strncmp+0x32>
    520109b2:	40a606bb          	subw	a3,a2,a0
    520109b6:	0585                	addi	a1,a1,1
    520109b8:	0505                	addi	a0,a0,1
    520109ba:	f3fd                	bnez	a5,520109a0 <strncmp+0xe>
    520109bc:	0007051b          	sext.w	a0,a4
    520109c0:	9d1d                	subw	a0,a0,a5
    520109c2:	8082                	ret
    520109c4:	4501                	li	a0,0
    520109c6:	9d1d                	subw	a0,a0,a5
    520109c8:	8082                	ret
    520109ca:	40f7053b          	subw	a0,a4,a5
    520109ce:	8082                	ret

00000000520109d0 <strcpy>:
    520109d0:	0005c783          	lbu	a5,0(a1)
    520109d4:	872a                	mv	a4,a0
    520109d6:	cb81                	beqz	a5,520109e6 <strcpy+0x16>
    520109d8:	00f70023          	sb	a5,0(a4)
    520109dc:	0015c783          	lbu	a5,1(a1)
    520109e0:	0585                	addi	a1,a1,1
    520109e2:	0705                	addi	a4,a4,1
    520109e4:	fbf5                	bnez	a5,520109d8 <strcpy+0x8>
    520109e6:	00070023          	sb	zero,0(a4)
    520109ea:	8082                	ret

00000000520109ec <strncpy>:
    520109ec:	0005c783          	lbu	a5,0(a1)
    520109f0:	fff6071b          	addiw	a4,a2,-1
    520109f4:	86aa                	mv	a3,a0
    520109f6:	c385                	beqz	a5,52010a16 <strncpy+0x2a>
    520109f8:	587d                	li	a6,-1
    520109fa:	00c04563          	bgtz	a2,52010a04 <strncpy+0x18>
    520109fe:	a81d                	j	52010a34 <strncpy+0x48>
    52010a00:	03070963          	beq	a4,a6,52010a32 <strncpy+0x46>
    52010a04:	00f68023          	sb	a5,0(a3)
    52010a08:	0015c783          	lbu	a5,1(a1)
    52010a0c:	863a                	mv	a2,a4
    52010a0e:	0585                	addi	a1,a1,1
    52010a10:	0685                	addi	a3,a3,1
    52010a12:	377d                	addiw	a4,a4,-1
    52010a14:	f7f5                	bnez	a5,52010a00 <strncpy+0x14>
    52010a16:	85b6                	mv	a1,a3
    52010a18:	4805                	li	a6,1
    52010a1a:	00c05b63          	blez	a2,52010a30 <strncpy+0x44>
    52010a1e:	0585                	addi	a1,a1,1
    52010a20:	40b807bb          	subw	a5,a6,a1
    52010a24:	9fb5                	addw	a5,a5,a3
    52010a26:	9fb9                	addw	a5,a5,a4
    52010a28:	fe058fa3          	sb	zero,-1(a1)
    52010a2c:	fef049e3          	bgtz	a5,52010a1e <strncpy+0x32>
    52010a30:	8082                	ret
    52010a32:	8082                	ret
    52010a34:	ffe6079b          	addiw	a5,a2,-2
    52010a38:	863a                	mv	a2,a4
    52010a3a:	873e                	mv	a4,a5
    52010a3c:	bfe9                	j	52010a16 <strncpy+0x2a>

0000000052010a3e <strcat>:
    52010a3e:	00054783          	lbu	a5,0(a0)
    52010a42:	c39d                	beqz	a5,52010a68 <strcat+0x2a>
    52010a44:	87aa                	mv	a5,a0
    52010a46:	0017c703          	lbu	a4,1(a5)
    52010a4a:	0785                	addi	a5,a5,1
    52010a4c:	ff6d                	bnez	a4,52010a46 <strcat+0x8>
    52010a4e:	0005c703          	lbu	a4,0(a1)
    52010a52:	cb01                	beqz	a4,52010a62 <strcat+0x24>
    52010a54:	00e78023          	sb	a4,0(a5)
    52010a58:	0015c703          	lbu	a4,1(a1)
    52010a5c:	0585                	addi	a1,a1,1
    52010a5e:	0785                	addi	a5,a5,1
    52010a60:	fb75                	bnez	a4,52010a54 <strcat+0x16>
    52010a62:	00078023          	sb	zero,0(a5)
    52010a66:	8082                	ret
    52010a68:	87aa                	mv	a5,a0
    52010a6a:	b7d5                	j	52010a4e <strcat+0x10>

0000000052010a6c <strrev>:
    52010a6c:	00054583          	lbu	a1,0(a0)
    52010a70:	cd95                	beqz	a1,52010aac <strrev+0x40>
    52010a72:	00150793          	addi	a5,a0,1
    52010a76:	4701                	li	a4,0
    52010a78:	0007c603          	lbu	a2,0(a5)
    52010a7c:	86ba                	mv	a3,a4
    52010a7e:	0785                	addi	a5,a5,1
    52010a80:	2705                	addiw	a4,a4,1
    52010a82:	fa7d                	bnez	a2,52010a78 <strrev+0xc>
    52010a84:	c685                	beqz	a3,52010aac <strrev+0x40>
    52010a86:	00d50733          	add	a4,a0,a3
    52010a8a:	8636                	mv	a2,a3
    52010a8c:	a019                	j	52010a92 <strrev+0x26>
    52010a8e:	00054583          	lbu	a1,0(a0)
    52010a92:	00074803          	lbu	a6,0(a4)
    52010a96:	367d                	addiw	a2,a2,-1
    52010a98:	40c687bb          	subw	a5,a3,a2
    52010a9c:	01050023          	sb	a6,0(a0)
    52010aa0:	00b70023          	sb	a1,0(a4)
    52010aa4:	0505                	addi	a0,a0,1
    52010aa6:	177d                	addi	a4,a4,-1
    52010aa8:	fec7c3e3          	blt	a5,a2,52010a8e <strrev+0x22>
    52010aac:	8082                	ret
