
build/main:     file format elf64-littleriscv


Disassembly of section .text:

ffffffc050202000 <_boot>:
ffffffc050202000:	10401073          	csrw	sie,zero
ffffffc050202004:	14401073          	csrw	sip,zero
ffffffc050202008:	50202137          	lui	sp,0x50202
ffffffc05020200c:	f1402573          	csrr	a0,mhartid
ffffffc050202010:	5b2000ef          	jal	ra,ffffffc0502025c2 <boot_kernel>

ffffffc050202014 <loop>:
ffffffc050202014:	10500073          	wfi
ffffffc050202018:	bff5                	j	ffffffc050202014 <loop>
	...

ffffffc05020201c <enable_ext>:
ffffffc05020201c:	20000293          	li	t0,512
ffffffc050202020:	1042a073          	csrs	sie,t0
ffffffc050202024:	8082                	ret
ffffffc050202026:	0001                	nop

ffffffc050202028 <enable_preempt>:
ffffffc050202028:	001003b3          	add	t2,zero,ra
ffffffc05020202c:	fff04293          	not	t0,zero
ffffffc050202030:	537d                	li	t1,-1
ffffffc050202032:	0062f2b3          	and	t0,t0,t1
ffffffc050202036:	1042a073          	csrs	sie,t0
ffffffc05020203a:	8382                	jr	t2

ffffffc05020203c <disable_preempt>:
ffffffc05020203c:	10401073          	csrw	sie,zero
ffffffc050202040:	8082                	ret
ffffffc050202042:	0001                	nop

ffffffc050202044 <enable_interrupt>:
ffffffc050202044:	4289                	li	t0,2
ffffffc050202046:	1002a073          	csrs	sstatus,t0
ffffffc05020204a:	8082                	ret

ffffffc05020204c <disable_interrupt>:
ffffffc05020204c:	4289                	li	t0,2
ffffffc05020204e:	1002b073          	csrc	sstatus,t0
ffffffc050202052:	8082                	ret

ffffffc050202054 <switch_to>:
ffffffc050202054:	00053303          	ld	t1,0(a0)
ffffffc050202058:	00133023          	sd	ra,0(t1)
ffffffc05020205c:	00233423          	sd	sp,8(t1)
ffffffc050202060:	00833823          	sd	s0,16(t1)
ffffffc050202064:	00933c23          	sd	s1,24(t1)
ffffffc050202068:	03233023          	sd	s2,32(t1)
ffffffc05020206c:	03333423          	sd	s3,40(t1)
ffffffc050202070:	03433823          	sd	s4,48(t1)
ffffffc050202074:	03533c23          	sd	s5,56(t1)
ffffffc050202078:	05633023          	sd	s6,64(t1)
ffffffc05020207c:	05733423          	sd	s7,72(t1)
ffffffc050202080:	05833823          	sd	s8,80(t1)
ffffffc050202084:	05933c23          	sd	s9,88(t1)
ffffffc050202088:	07a33023          	sd	s10,96(t1)
ffffffc05020208c:	07b33423          	sd	s11,104(t1)
ffffffc050202090:	0005b303          	ld	t1,0(a1)
ffffffc050202094:	00033083          	ld	ra,0(t1)
ffffffc050202098:	00833103          	ld	sp,8(t1)
ffffffc05020209c:	01033403          	ld	s0,16(t1)
ffffffc0502020a0:	01833483          	ld	s1,24(t1)
ffffffc0502020a4:	02033903          	ld	s2,32(t1)
ffffffc0502020a8:	02833983          	ld	s3,40(t1)
ffffffc0502020ac:	03033a03          	ld	s4,48(t1)
ffffffc0502020b0:	03833a83          	ld	s5,56(t1)
ffffffc0502020b4:	04033b03          	ld	s6,64(t1)
ffffffc0502020b8:	04833b83          	ld	s7,72(t1)
ffffffc0502020bc:	05033c03          	ld	s8,80(t1)
ffffffc0502020c0:	05833c83          	ld	s9,88(t1)
ffffffc0502020c4:	06033d03          	ld	s10,96(t1)
ffffffc0502020c8:	06833d83          	ld	s11,104(t1)
ffffffc0502020cc:	00058213          	mv	tp,a1
ffffffc0502020d0:	8082                	ret
ffffffc0502020d2:	0001                	nop

ffffffc0502020d4 <ret_from_exception>:
ffffffc0502020d4:	42e050ef          	jal	ra,ffffffc050207502 <unlock_kernel>
ffffffc0502020d8:	00023103          	ld	sp,0(tp) # 0 <boot_stack_top_base-0x50202000>
ffffffc0502020dc:	6165                	addi	sp,sp,112
ffffffc0502020de:	62b2                	ld	t0,264(sp)
ffffffc0502020e0:	14129073          	csrw	sepc,t0
ffffffc0502020e4:	6292                	ld	t0,256(sp)
ffffffc0502020e6:	10029073          	csrw	sstatus,t0
ffffffc0502020ea:	6546                	ld	a0,80(sp)
ffffffc0502020ec:	65e6                	ld	a1,88(sp)
ffffffc0502020ee:	7606                	ld	a2,96(sp)
ffffffc0502020f0:	76a6                	ld	a3,104(sp)
ffffffc0502020f2:	7746                	ld	a4,112(sp)
ffffffc0502020f4:	77e6                	ld	a5,120(sp)
ffffffc0502020f6:	680a                	ld	a6,128(sp)
ffffffc0502020f8:	68aa                	ld	a7,136(sp)
ffffffc0502020fa:	6406                	ld	s0,64(sp)
ffffffc0502020fc:	64a6                	ld	s1,72(sp)
ffffffc0502020fe:	694a                	ld	s2,144(sp)
ffffffc050202100:	69ea                	ld	s3,152(sp)
ffffffc050202102:	7a0a                	ld	s4,160(sp)
ffffffc050202104:	7aaa                	ld	s5,168(sp)
ffffffc050202106:	7b4a                	ld	s6,176(sp)
ffffffc050202108:	7bea                	ld	s7,184(sp)
ffffffc05020210a:	6c0e                	ld	s8,192(sp)
ffffffc05020210c:	6cae                	ld	s9,200(sp)
ffffffc05020210e:	6d4e                	ld	s10,208(sp)
ffffffc050202110:	6dee                	ld	s11,216(sp)
ffffffc050202112:	72a2                	ld	t0,40(sp)
ffffffc050202114:	7342                	ld	t1,48(sp)
ffffffc050202116:	73e2                	ld	t2,56(sp)
ffffffc050202118:	7e0e                	ld	t3,224(sp)
ffffffc05020211a:	7eae                	ld	t4,232(sp)
ffffffc05020211c:	7f4e                	ld	t5,240(sp)
ffffffc05020211e:	7fee                	ld	t6,248(sp)
ffffffc050202120:	00013003          	ld	zero,0(sp) # 50202000 <boot_stack_top_base>
ffffffc050202124:	60a2                	ld	ra,8(sp)
ffffffc050202126:	61e2                	ld	gp,24(sp)
ffffffc050202128:	7202                	ld	tp,32(sp)
ffffffc05020212a:	6142                	ld	sp,16(sp)
ffffffc05020212c:	10200073          	sret

ffffffc050202130 <exception_handler_entry>:
ffffffc050202130:	00223423          	sd	sp,8(tp) # 8 <boot_stack_top_base-0x50201ff8>
ffffffc050202134:	00023103          	ld	sp,0(tp) # 0 <boot_stack_top_base-0x50202000>
ffffffc050202138:	6165                	addi	sp,sp,112
ffffffc05020213a:	e8aa                	sd	a0,80(sp)
ffffffc05020213c:	ecae                	sd	a1,88(sp)
ffffffc05020213e:	f0b2                	sd	a2,96(sp)
ffffffc050202140:	f4b6                	sd	a3,104(sp)
ffffffc050202142:	f8ba                	sd	a4,112(sp)
ffffffc050202144:	fcbe                	sd	a5,120(sp)
ffffffc050202146:	e142                	sd	a6,128(sp)
ffffffc050202148:	e546                	sd	a7,136(sp)
ffffffc05020214a:	e0a2                	sd	s0,64(sp)
ffffffc05020214c:	e4a6                	sd	s1,72(sp)
ffffffc05020214e:	e94a                	sd	s2,144(sp)
ffffffc050202150:	ed4e                	sd	s3,152(sp)
ffffffc050202152:	f152                	sd	s4,160(sp)
ffffffc050202154:	f556                	sd	s5,168(sp)
ffffffc050202156:	f95a                	sd	s6,176(sp)
ffffffc050202158:	fd5e                	sd	s7,184(sp)
ffffffc05020215a:	e1e2                	sd	s8,192(sp)
ffffffc05020215c:	e5e6                	sd	s9,200(sp)
ffffffc05020215e:	e9ea                	sd	s10,208(sp)
ffffffc050202160:	edee                	sd	s11,216(sp)
ffffffc050202162:	f416                	sd	t0,40(sp)
ffffffc050202164:	f81a                	sd	t1,48(sp)
ffffffc050202166:	fc1e                	sd	t2,56(sp)
ffffffc050202168:	f1f2                	sd	t3,224(sp)
ffffffc05020216a:	f5f6                	sd	t4,232(sp)
ffffffc05020216c:	f9fa                	sd	t5,240(sp)
ffffffc05020216e:	fdfe                	sd	t6,248(sp)
ffffffc050202170:	e002                	sd	zero,0(sp)
ffffffc050202172:	e406                	sd	ra,8(sp)
ffffffc050202174:	ec0e                	sd	gp,24(sp)
ffffffc050202176:	f012                	sd	tp,32(sp)
ffffffc050202178:	00823283          	ld	t0,8(tp) # 8 <boot_stack_top_base-0x50201ff8>
ffffffc05020217c:	e816                	sd	t0,16(sp)
ffffffc05020217e:	000462b7          	lui	t0,0x46
ffffffc050202182:	10029073          	csrw	sstatus,t0
ffffffc050202186:	10002373          	csrr	t1,sstatus
ffffffc05020218a:	e21a                	sd	t1,256(sp)
ffffffc05020218c:	14102373          	csrr	t1,sepc
ffffffc050202190:	e61a                	sd	t1,264(sp)
ffffffc050202192:	14302373          	csrr	t1,stval
ffffffc050202196:	ea1a                	sd	t1,272(sp)
ffffffc050202198:	14202373          	csrr	t1,scause
ffffffc05020219c:	ee1a                	sd	t1,280(sp)
ffffffc05020219e:	7159                	addi	sp,sp,-112
ffffffc0502021a0:	328050ef          	jal	ra,ffffffc0502074c8 <lock_kernel>
ffffffc0502021a4:	000402b7          	lui	t0,0x40
ffffffc0502021a8:	1002a073          	csrs	sstatus,t0
ffffffc0502021ac:	00023283          	ld	t0,0(tp) # 0 <boot_stack_top_base-0x50202000>
ffffffc0502021b0:	07028513          	addi	a0,t0,112 # 40070 <boot_stack_top_base-0x501c1f90>
ffffffc0502021b4:	143025f3          	csrr	a1,stval
ffffffc0502021b8:	14202673          	csrr	a2,scause
ffffffc0502021bc:	7dc020ef          	jal	ra,ffffffc050204998 <interrupt_helper>
ffffffc0502021c0:	00000097          	auipc	ra,0x0
ffffffc0502021c4:	f1408093          	addi	ra,ra,-236 # ffffffc0502020d4 <ret_from_exception>
ffffffc0502021c8:	8082                	ret
ffffffc0502021ca:	0001                	nop

ffffffc0502021cc <disable_sip>:
ffffffc0502021cc:	14401073          	csrw	sip,zero
ffffffc0502021d0:	8082                	ret
	...

ffffffc0502021d4 <setup_exception>:
ffffffc0502021d4:	00000297          	auipc	t0,0x0
ffffffc0502021d8:	f5c28293          	addi	t0,t0,-164 # ffffffc050202130 <exception_handler_entry>
ffffffc0502021dc:	10529073          	csrw	stvec,t0
ffffffc0502021e0:	00008593          	mv	a1,ra
ffffffc0502021e4:	00058093          	mv	ra,a1
ffffffc0502021e8:	8082                	ret
	...

ffffffc0502021ec <get_current_cpu_id>:
ffffffc0502021ec:	f1402573          	csrr	a0,mhartid
ffffffc0502021f0:	8082                	ret
	...

ffffffc0502021f4 <_start>:
ffffffc0502021f4:	10401073          	csrw	sie,zero
ffffffc0502021f8:	14401073          	csrw	sip,zero
ffffffc0502021fc:	000402b7          	lui	t0,0x40
ffffffc050202200:	1002a073          	csrs	sstatus,t0
ffffffc050202204:	f14022f3          	csrr	t0,mhartid
ffffffc050202208:	02029863          	bnez	t0,ffffffc050202238 <second_core>
ffffffc05020220c:	0000b917          	auipc	s2,0xb
ffffffc050202210:	40090913          	addi	s2,s2,1024 # ffffffc05020d60c <_edata>
ffffffc050202214:	0005d997          	auipc	s3,0x5d
ffffffc050202218:	8c498993          	addi	s3,s3,-1852 # ffffffc05025ead8 <__BSS_END__>
ffffffc05020221c:	4a01                	li	s4,0

ffffffc05020221e <T0>:
ffffffc05020221e:	01492023          	sw	s4,0(s2)
ffffffc050202222:	0911                	addi	s2,s2,4
ffffffc050202224:	ff391de3          	bne	s2,s3,ffffffc05020221e <T0>
ffffffc050202228:	fc053137          	lui	sp,0xfc053
ffffffc05020222c:	6011011b          	addiw	sp,sp,1537
ffffffc050202230:	00c11113          	slli	sp,sp,0xc
ffffffc050202234:	653000ef          	jal	ra,ffffffc050203086 <main>

ffffffc050202238 <second_core>:
ffffffc050202238:	fc054137          	lui	sp,0xfc054
ffffffc05020223c:	6011011b          	addiw	sp,sp,1537
ffffffc050202240:	00c11113          	slli	sp,sp,0xc
ffffffc050202244:	643000ef          	jal	ra,ffffffc050203086 <main>

ffffffc050202248 <loop>:
ffffffc050202248:	a001                	j	ffffffc050202248 <loop>

ffffffc05020224a <local_flush_tlb_all>:
ffffffc05020224a:	1141                	addi	sp,sp,-16
ffffffc05020224c:	e422                	sd	s0,8(sp)
ffffffc05020224e:	0800                	addi	s0,sp,16
ffffffc050202250:	12000073          	sfence.vma
ffffffc050202254:	0001                	nop
ffffffc050202256:	6422                	ld	s0,8(sp)
ffffffc050202258:	0141                	addi	sp,sp,16
ffffffc05020225a:	8082                	ret

ffffffc05020225c <set_satp>:
ffffffc05020225c:	7179                	addi	sp,sp,-48
ffffffc05020225e:	f422                	sd	s0,40(sp)
ffffffc050202260:	1800                	addi	s0,sp,48
ffffffc050202262:	87aa                	mv	a5,a0
ffffffc050202264:	872e                	mv	a4,a1
ffffffc050202266:	fcc43823          	sd	a2,-48(s0)
ffffffc05020226a:	fcf42e23          	sw	a5,-36(s0)
ffffffc05020226e:	87ba                	mv	a5,a4
ffffffc050202270:	fcf42c23          	sw	a5,-40(s0)
ffffffc050202274:	fdc46783          	lwu	a5,-36(s0)
ffffffc050202278:	03c79713          	slli	a4,a5,0x3c
ffffffc05020227c:	fd846783          	lwu	a5,-40(s0)
ffffffc050202280:	17b2                	slli	a5,a5,0x2c
ffffffc050202282:	8fd9                	or	a5,a5,a4
ffffffc050202284:	fd043703          	ld	a4,-48(s0)
ffffffc050202288:	8fd9                	or	a5,a5,a4
ffffffc05020228a:	fef43423          	sd	a5,-24(s0)
ffffffc05020228e:	fe843783          	ld	a5,-24(s0)
ffffffc050202292:	12000073          	sfence.vma
ffffffc050202296:	18079073          	csrw	satp,a5
ffffffc05020229a:	0001                	nop
ffffffc05020229c:	7422                	ld	s0,40(sp)
ffffffc05020229e:	6145                	addi	sp,sp,48
ffffffc0502022a0:	8082                	ret

ffffffc0502022a2 <kva2pa>:
ffffffc0502022a2:	7179                	addi	sp,sp,-48
ffffffc0502022a4:	f422                	sd	s0,40(sp)
ffffffc0502022a6:	1800                	addi	s0,sp,48
ffffffc0502022a8:	fca43c23          	sd	a0,-40(s0)
ffffffc0502022ac:	57fd                	li	a5,-1
ffffffc0502022ae:	9381                	srli	a5,a5,0x20
ffffffc0502022b0:	fef43423          	sd	a5,-24(s0)
ffffffc0502022b4:	fd843703          	ld	a4,-40(s0)
ffffffc0502022b8:	fe843783          	ld	a5,-24(s0)
ffffffc0502022bc:	8ff9                	and	a5,a5,a4
ffffffc0502022be:	fef43023          	sd	a5,-32(s0)
ffffffc0502022c2:	fe043783          	ld	a5,-32(s0)
ffffffc0502022c6:	853e                	mv	a0,a5
ffffffc0502022c8:	7422                	ld	s0,40(sp)
ffffffc0502022ca:	6145                	addi	sp,sp,48
ffffffc0502022cc:	8082                	ret

ffffffc0502022ce <pa2kva>:
ffffffc0502022ce:	7179                	addi	sp,sp,-48
ffffffc0502022d0:	f422                	sd	s0,40(sp)
ffffffc0502022d2:	1800                	addi	s0,sp,48
ffffffc0502022d4:	fca43c23          	sd	a0,-40(s0)
ffffffc0502022d8:	57fd                	li	a5,-1
ffffffc0502022da:	179a                	slli	a5,a5,0x26
ffffffc0502022dc:	fef43423          	sd	a5,-24(s0)
ffffffc0502022e0:	fd843703          	ld	a4,-40(s0)
ffffffc0502022e4:	fe843783          	ld	a5,-24(s0)
ffffffc0502022e8:	8fd9                	or	a5,a5,a4
ffffffc0502022ea:	fef43023          	sd	a5,-32(s0)
ffffffc0502022ee:	fe043783          	ld	a5,-32(s0)
ffffffc0502022f2:	853e                	mv	a0,a5
ffffffc0502022f4:	7422                	ld	s0,40(sp)
ffffffc0502022f6:	6145                	addi	sp,sp,48
ffffffc0502022f8:	8082                	ret

ffffffc0502022fa <get_pa>:
ffffffc0502022fa:	7179                	addi	sp,sp,-48
ffffffc0502022fc:	f422                	sd	s0,40(sp)
ffffffc0502022fe:	1800                	addi	s0,sp,48
ffffffc050202300:	fca43c23          	sd	a0,-40(s0)
ffffffc050202304:	fd843783          	ld	a5,-40(s0)
ffffffc050202308:	c007f793          	andi	a5,a5,-1024
ffffffc05020230c:	fef43423          	sd	a5,-24(s0)
ffffffc050202310:	fe843783          	ld	a5,-24(s0)
ffffffc050202314:	078a                	slli	a5,a5,0x2
ffffffc050202316:	fef43423          	sd	a5,-24(s0)
ffffffc05020231a:	fe843783          	ld	a5,-24(s0)
ffffffc05020231e:	853e                	mv	a0,a5
ffffffc050202320:	7422                	ld	s0,40(sp)
ffffffc050202322:	6145                	addi	sp,sp,48
ffffffc050202324:	8082                	ret

ffffffc050202326 <set_pfn>:
ffffffc050202326:	7179                	addi	sp,sp,-48
ffffffc050202328:	f422                	sd	s0,40(sp)
ffffffc05020232a:	1800                	addi	s0,sp,48
ffffffc05020232c:	fca43c23          	sd	a0,-40(s0)
ffffffc050202330:	fcb43823          	sd	a1,-48(s0)
ffffffc050202334:	fd843783          	ld	a5,-40(s0)
ffffffc050202338:	639c                	ld	a5,0(a5)
ffffffc05020233a:	3ff7f793          	andi	a5,a5,1023
ffffffc05020233e:	fef43423          	sd	a5,-24(s0)
ffffffc050202342:	fd043783          	ld	a5,-48(s0)
ffffffc050202346:	00a79713          	slli	a4,a5,0xa
ffffffc05020234a:	fe843783          	ld	a5,-24(s0)
ffffffc05020234e:	8f5d                	or	a4,a4,a5
ffffffc050202350:	fd843783          	ld	a5,-40(s0)
ffffffc050202354:	e398                	sd	a4,0(a5)
ffffffc050202356:	0001                	nop
ffffffc050202358:	7422                	ld	s0,40(sp)
ffffffc05020235a:	6145                	addi	sp,sp,48
ffffffc05020235c:	8082                	ret

ffffffc05020235e <set_attribute>:
ffffffc05020235e:	7179                	addi	sp,sp,-48
ffffffc050202360:	f422                	sd	s0,40(sp)
ffffffc050202362:	1800                	addi	s0,sp,48
ffffffc050202364:	fca43c23          	sd	a0,-40(s0)
ffffffc050202368:	fcb43823          	sd	a1,-48(s0)
ffffffc05020236c:	fd843783          	ld	a5,-40(s0)
ffffffc050202370:	639c                	ld	a5,0(a5)
ffffffc050202372:	c007f793          	andi	a5,a5,-1024
ffffffc050202376:	fef43423          	sd	a5,-24(s0)
ffffffc05020237a:	fe843703          	ld	a4,-24(s0)
ffffffc05020237e:	fd043783          	ld	a5,-48(s0)
ffffffc050202382:	8f5d                	or	a4,a4,a5
ffffffc050202384:	fd843783          	ld	a5,-40(s0)
ffffffc050202388:	e398                	sd	a4,0(a5)
ffffffc05020238a:	0001                	nop
ffffffc05020238c:	7422                	ld	s0,40(sp)
ffffffc05020238e:	6145                	addi	sp,sp,48
ffffffc050202390:	8082                	ret

ffffffc050202392 <clear_pgdir>:
ffffffc050202392:	7179                	addi	sp,sp,-48
ffffffc050202394:	f422                	sd	s0,40(sp)
ffffffc050202396:	1800                	addi	s0,sp,48
ffffffc050202398:	fca43c23          	sd	a0,-40(s0)
ffffffc05020239c:	fd843783          	ld	a5,-40(s0)
ffffffc0502023a0:	fef43423          	sd	a5,-24(s0)
ffffffc0502023a4:	fe042223          	sw	zero,-28(s0)
ffffffc0502023a8:	a839                	j	ffffffc0502023c6 <clear_pgdir+0x34>
ffffffc0502023aa:	fe843783          	ld	a5,-24(s0)
ffffffc0502023ae:	0007b023          	sd	zero,0(a5)
ffffffc0502023b2:	fe843783          	ld	a5,-24(s0)
ffffffc0502023b6:	07a1                	addi	a5,a5,8
ffffffc0502023b8:	fef43423          	sd	a5,-24(s0)
ffffffc0502023bc:	fe442783          	lw	a5,-28(s0)
ffffffc0502023c0:	2785                	addiw	a5,a5,1
ffffffc0502023c2:	fef42223          	sw	a5,-28(s0)
ffffffc0502023c6:	fe442783          	lw	a5,-28(s0)
ffffffc0502023ca:	0007871b          	sext.w	a4,a5
ffffffc0502023ce:	1ff00793          	li	a5,511
ffffffc0502023d2:	fce7dce3          	bge	a5,a4,ffffffc0502023aa <clear_pgdir+0x18>
ffffffc0502023d6:	0001                	nop
ffffffc0502023d8:	0001                	nop
ffffffc0502023da:	7422                	ld	s0,40(sp)
ffffffc0502023dc:	6145                	addi	sp,sp,48
ffffffc0502023de:	8082                	ret

ffffffc0502023e0 <alloc_page>:
ffffffc0502023e0:	1141                	addi	sp,sp,-16
ffffffc0502023e2:	e422                	sd	s0,8(sp)
ffffffc0502023e4:	0800                	addi	s0,sp,16
ffffffc0502023e6:	0000b797          	auipc	a5,0xb
ffffffc0502023ea:	1ca78793          	addi	a5,a5,458 # ffffffc05020d5b0 <pg_base.1055>
ffffffc0502023ee:	6398                	ld	a4,0(a5)
ffffffc0502023f0:	6785                	lui	a5,0x1
ffffffc0502023f2:	973e                	add	a4,a4,a5
ffffffc0502023f4:	0000b797          	auipc	a5,0xb
ffffffc0502023f8:	1bc78793          	addi	a5,a5,444 # ffffffc05020d5b0 <pg_base.1055>
ffffffc0502023fc:	e398                	sd	a4,0(a5)
ffffffc0502023fe:	0000b797          	auipc	a5,0xb
ffffffc050202402:	1b278793          	addi	a5,a5,434 # ffffffc05020d5b0 <pg_base.1055>
ffffffc050202406:	639c                	ld	a5,0(a5)
ffffffc050202408:	853e                	mv	a0,a5
ffffffc05020240a:	6422                	ld	s0,8(sp)
ffffffc05020240c:	0141                	addi	sp,sp,16
ffffffc05020240e:	8082                	ret

ffffffc050202410 <map_page>:
ffffffc050202410:	711d                	addi	sp,sp,-96
ffffffc050202412:	ec86                	sd	ra,88(sp)
ffffffc050202414:	e8a2                	sd	s0,80(sp)
ffffffc050202416:	e4a6                	sd	s1,72(sp)
ffffffc050202418:	1080                	addi	s0,sp,96
ffffffc05020241a:	faa43c23          	sd	a0,-72(s0)
ffffffc05020241e:	fab43823          	sd	a1,-80(s0)
ffffffc050202422:	fac43423          	sd	a2,-88(s0)
ffffffc050202426:	fb843703          	ld	a4,-72(s0)
ffffffc05020242a:	57fd                	li	a5,-1
ffffffc05020242c:	83e5                	srli	a5,a5,0x19
ffffffc05020242e:	8ff9                	and	a5,a5,a4
ffffffc050202430:	faf43c23          	sd	a5,-72(s0)
ffffffc050202434:	fb843783          	ld	a5,-72(s0)
ffffffc050202438:	83f9                	srli	a5,a5,0x1e
ffffffc05020243a:	fcf43c23          	sd	a5,-40(s0)
ffffffc05020243e:	fd843783          	ld	a5,-40(s0)
ffffffc050202442:	00979713          	slli	a4,a5,0x9
ffffffc050202446:	fb843783          	ld	a5,-72(s0)
ffffffc05020244a:	83d5                	srli	a5,a5,0x15
ffffffc05020244c:	8fb9                	xor	a5,a5,a4
ffffffc05020244e:	fcf43823          	sd	a5,-48(s0)
ffffffc050202452:	fd843783          	ld	a5,-40(s0)
ffffffc050202456:	078e                	slli	a5,a5,0x3
ffffffc050202458:	fa843703          	ld	a4,-88(s0)
ffffffc05020245c:	97ba                	add	a5,a5,a4
ffffffc05020245e:	639c                	ld	a5,0(a5)
ffffffc050202460:	eba1                	bnez	a5,ffffffc0502024b0 <map_page+0xa0>
ffffffc050202462:	fd843783          	ld	a5,-40(s0)
ffffffc050202466:	078e                	slli	a5,a5,0x3
ffffffc050202468:	fa843703          	ld	a4,-88(s0)
ffffffc05020246c:	00f704b3          	add	s1,a4,a5
ffffffc050202470:	f71ff0ef          	jal	ra,ffffffc0502023e0 <alloc_page>
ffffffc050202474:	87aa                	mv	a5,a0
ffffffc050202476:	83b1                	srli	a5,a5,0xc
ffffffc050202478:	85be                	mv	a1,a5
ffffffc05020247a:	8526                	mv	a0,s1
ffffffc05020247c:	eabff0ef          	jal	ra,ffffffc050202326 <set_pfn>
ffffffc050202480:	fd843783          	ld	a5,-40(s0)
ffffffc050202484:	078e                	slli	a5,a5,0x3
ffffffc050202486:	fa843703          	ld	a4,-88(s0)
ffffffc05020248a:	97ba                	add	a5,a5,a4
ffffffc05020248c:	4585                	li	a1,1
ffffffc05020248e:	853e                	mv	a0,a5
ffffffc050202490:	ecfff0ef          	jal	ra,ffffffc05020235e <set_attribute>
ffffffc050202494:	fd843783          	ld	a5,-40(s0)
ffffffc050202498:	078e                	slli	a5,a5,0x3
ffffffc05020249a:	fa843703          	ld	a4,-88(s0)
ffffffc05020249e:	97ba                	add	a5,a5,a4
ffffffc0502024a0:	639c                	ld	a5,0(a5)
ffffffc0502024a2:	853e                	mv	a0,a5
ffffffc0502024a4:	e57ff0ef          	jal	ra,ffffffc0502022fa <get_pa>
ffffffc0502024a8:	87aa                	mv	a5,a0
ffffffc0502024aa:	853e                	mv	a0,a5
ffffffc0502024ac:	ee7ff0ef          	jal	ra,ffffffc050202392 <clear_pgdir>
ffffffc0502024b0:	fd843783          	ld	a5,-40(s0)
ffffffc0502024b4:	078e                	slli	a5,a5,0x3
ffffffc0502024b6:	fa843703          	ld	a4,-88(s0)
ffffffc0502024ba:	97ba                	add	a5,a5,a4
ffffffc0502024bc:	639c                	ld	a5,0(a5)
ffffffc0502024be:	853e                	mv	a0,a5
ffffffc0502024c0:	e3bff0ef          	jal	ra,ffffffc0502022fa <get_pa>
ffffffc0502024c4:	87aa                	mv	a5,a0
ffffffc0502024c6:	fcf43423          	sd	a5,-56(s0)
ffffffc0502024ca:	fd043783          	ld	a5,-48(s0)
ffffffc0502024ce:	078e                	slli	a5,a5,0x3
ffffffc0502024d0:	fc843703          	ld	a4,-56(s0)
ffffffc0502024d4:	973e                	add	a4,a4,a5
ffffffc0502024d6:	fb043783          	ld	a5,-80(s0)
ffffffc0502024da:	83b1                	srli	a5,a5,0xc
ffffffc0502024dc:	85be                	mv	a1,a5
ffffffc0502024de:	853a                	mv	a0,a4
ffffffc0502024e0:	e47ff0ef          	jal	ra,ffffffc050202326 <set_pfn>
ffffffc0502024e4:	fd043783          	ld	a5,-48(s0)
ffffffc0502024e8:	078e                	slli	a5,a5,0x3
ffffffc0502024ea:	fc843703          	ld	a4,-56(s0)
ffffffc0502024ee:	97ba                	add	a5,a5,a4
ffffffc0502024f0:	0cf00593          	li	a1,207
ffffffc0502024f4:	853e                	mv	a0,a5
ffffffc0502024f6:	e69ff0ef          	jal	ra,ffffffc05020235e <set_attribute>
ffffffc0502024fa:	0001                	nop
ffffffc0502024fc:	60e6                	ld	ra,88(sp)
ffffffc0502024fe:	6446                	ld	s0,80(sp)
ffffffc050202500:	64a6                	ld	s1,72(sp)
ffffffc050202502:	6125                	addi	sp,sp,96
ffffffc050202504:	8082                	ret

ffffffc050202506 <enable_vm>:
ffffffc050202506:	1141                	addi	sp,sp,-16
ffffffc050202508:	e406                	sd	ra,8(sp)
ffffffc05020250a:	e022                	sd	s0,0(sp)
ffffffc05020250c:	0800                	addi	s0,sp,16
ffffffc05020250e:	00051637          	lui	a2,0x51
ffffffc050202512:	4581                	li	a1,0
ffffffc050202514:	4521                	li	a0,8
ffffffc050202516:	d47ff0ef          	jal	ra,ffffffc05020225c <set_satp>
ffffffc05020251a:	d31ff0ef          	jal	ra,ffffffc05020224a <local_flush_tlb_all>
ffffffc05020251e:	0001                	nop
ffffffc050202520:	60a2                	ld	ra,8(sp)
ffffffc050202522:	6402                	ld	s0,0(sp)
ffffffc050202524:	0141                	addi	sp,sp,16
ffffffc050202526:	8082                	ret

ffffffc050202528 <setup_vm>:
ffffffc050202528:	7179                	addi	sp,sp,-48
ffffffc05020252a:	f406                	sd	ra,40(sp)
ffffffc05020252c:	f022                	sd	s0,32(sp)
ffffffc05020252e:	1800                	addi	s0,sp,48
ffffffc050202530:	51000537          	lui	a0,0x51000
ffffffc050202534:	e5fff0ef          	jal	ra,ffffffc050202392 <clear_pgdir>
ffffffc050202538:	510007b7          	lui	a5,0x51000
ffffffc05020253c:	fcf43c23          	sd	a5,-40(s0)
ffffffc050202540:	c0500793          	li	a5,-1019
ffffffc050202544:	07f2                	slli	a5,a5,0x1c
ffffffc050202546:	fef43423          	sd	a5,-24(s0)
ffffffc05020254a:	a025                	j	ffffffc050202572 <setup_vm+0x4a>
ffffffc05020254c:	fe843503          	ld	a0,-24(s0)
ffffffc050202550:	d53ff0ef          	jal	ra,ffffffc0502022a2 <kva2pa>
ffffffc050202554:	87aa                	mv	a5,a0
ffffffc050202556:	fd843603          	ld	a2,-40(s0)
ffffffc05020255a:	85be                	mv	a1,a5
ffffffc05020255c:	fe843503          	ld	a0,-24(s0)
ffffffc050202560:	eb1ff0ef          	jal	ra,ffffffc050202410 <map_page>
ffffffc050202564:	fe843703          	ld	a4,-24(s0)
ffffffc050202568:	002007b7          	lui	a5,0x200
ffffffc05020256c:	97ba                	add	a5,a5,a4
ffffffc05020256e:	fef43423          	sd	a5,-24(s0)
ffffffc050202572:	fe843703          	ld	a4,-24(s0)
ffffffc050202576:	e0300793          	li	a5,-509
ffffffc05020257a:	07f6                	slli	a5,a5,0x1d
ffffffc05020257c:	fcf768e3          	bltu	a4,a5,ffffffc05020254c <setup_vm+0x24>
ffffffc050202580:	500007b7          	lui	a5,0x50000
ffffffc050202584:	fef43023          	sd	a5,-32(s0)
ffffffc050202588:	a005                	j	ffffffc0502025a8 <setup_vm+0x80>
ffffffc05020258a:	fd843603          	ld	a2,-40(s0)
ffffffc05020258e:	fe043583          	ld	a1,-32(s0)
ffffffc050202592:	fe043503          	ld	a0,-32(s0)
ffffffc050202596:	e7bff0ef          	jal	ra,ffffffc050202410 <map_page>
ffffffc05020259a:	fe043703          	ld	a4,-32(s0)
ffffffc05020259e:	002007b7          	lui	a5,0x200
ffffffc0502025a2:	97ba                	add	a5,a5,a4
ffffffc0502025a4:	fef43023          	sd	a5,-32(s0)
ffffffc0502025a8:	fe043703          	ld	a4,-32(s0)
ffffffc0502025ac:	510007b7          	lui	a5,0x51000
ffffffc0502025b0:	fcf76de3          	bltu	a4,a5,ffffffc05020258a <setup_vm+0x62>
ffffffc0502025b4:	f53ff0ef          	jal	ra,ffffffc050202506 <enable_vm>
ffffffc0502025b8:	0001                	nop
ffffffc0502025ba:	70a2                	ld	ra,40(sp)
ffffffc0502025bc:	7402                	ld	s0,32(sp)
ffffffc0502025be:	6145                	addi	sp,sp,48
ffffffc0502025c0:	8082                	ret

ffffffc0502025c2 <boot_kernel>:
ffffffc0502025c2:	1101                	addi	sp,sp,-32
ffffffc0502025c4:	ec06                	sd	ra,24(sp)
ffffffc0502025c6:	e822                	sd	s0,16(sp)
ffffffc0502025c8:	1000                	addi	s0,sp,32
ffffffc0502025ca:	fea43423          	sd	a0,-24(s0)
ffffffc0502025ce:	fe843783          	ld	a5,-24(s0)
ffffffc0502025d2:	e781                	bnez	a5,ffffffc0502025da <boot_kernel+0x18>
ffffffc0502025d4:	f55ff0ef          	jal	ra,ffffffc050202528 <setup_vm>
ffffffc0502025d8:	a019                	j	ffffffc0502025de <boot_kernel+0x1c>
ffffffc0502025da:	f2dff0ef          	jal	ra,ffffffc050202506 <enable_vm>
ffffffc0502025de:	00000797          	auipc	a5,0x0
ffffffc0502025e2:	c1678793          	addi	a5,a5,-1002 # ffffffc0502021f4 <_start>
ffffffc0502025e6:	853e                	mv	a0,a5
ffffffc0502025e8:	ce7ff0ef          	jal	ra,ffffffc0502022ce <pa2kva>
ffffffc0502025ec:	87aa                	mv	a5,a0
ffffffc0502025ee:	fe843503          	ld	a0,-24(s0)
ffffffc0502025f2:	9782                	jalr	a5
ffffffc0502025f4:	4781                	li	a5,0
ffffffc0502025f6:	853e                	mv	a0,a5
ffffffc0502025f8:	60e2                	ld	ra,24(sp)
ffffffc0502025fa:	6442                	ld	s0,16(sp)
ffffffc0502025fc:	6105                	addi	sp,sp,32
ffffffc0502025fe:	8082                	ret

ffffffc050202600 <set_attribute>:
ffffffc050202600:	7179                	addi	sp,sp,-48
ffffffc050202602:	f422                	sd	s0,40(sp)
ffffffc050202604:	1800                	addi	s0,sp,48
ffffffc050202606:	fca43c23          	sd	a0,-40(s0)
ffffffc05020260a:	fcb43823          	sd	a1,-48(s0)
ffffffc05020260e:	fd843783          	ld	a5,-40(s0)
ffffffc050202612:	639c                	ld	a5,0(a5)
ffffffc050202614:	c007f793          	andi	a5,a5,-1024
ffffffc050202618:	fef43423          	sd	a5,-24(s0)
ffffffc05020261c:	fe843703          	ld	a4,-24(s0)
ffffffc050202620:	fd043783          	ld	a5,-48(s0)
ffffffc050202624:	8f5d                	or	a4,a4,a5
ffffffc050202626:	fd843783          	ld	a5,-40(s0)
ffffffc05020262a:	e398                	sd	a4,0(a5)
ffffffc05020262c:	0001                	nop
ffffffc05020262e:	7422                	ld	s0,40(sp)
ffffffc050202630:	6145                	addi	sp,sp,48
ffffffc050202632:	8082                	ret

ffffffc050202634 <call_jmptab>:
ffffffc050202634:	7139                	addi	sp,sp,-64
ffffffc050202636:	fc06                	sd	ra,56(sp)
ffffffc050202638:	f822                	sd	s0,48(sp)
ffffffc05020263a:	0080                	addi	s0,sp,64
ffffffc05020263c:	fca43c23          	sd	a0,-40(s0)
ffffffc050202640:	fcb43823          	sd	a1,-48(s0)
ffffffc050202644:	fcc43423          	sd	a2,-56(s0)
ffffffc050202648:	fcd43023          	sd	a3,-64(s0)
ffffffc05020264c:	fd843783          	ld	a5,-40(s0)
ffffffc050202650:	00379713          	slli	a4,a5,0x3
ffffffc050202654:	fe0297b7          	lui	a5,0xfe029
ffffffc050202658:	07b6                	slli	a5,a5,0xd
ffffffc05020265a:	f0078793          	addi	a5,a5,-256 # fffffffffe028f00 <__BSS_END__+0x3faddca428>
ffffffc05020265e:	97ba                	add	a5,a5,a4
ffffffc050202660:	639c                	ld	a5,0(a5)
ffffffc050202662:	fef43423          	sd	a5,-24(s0)
ffffffc050202666:	fe843783          	ld	a5,-24(s0)
ffffffc05020266a:	fef43023          	sd	a5,-32(s0)
ffffffc05020266e:	fe043783          	ld	a5,-32(s0)
ffffffc050202672:	fc043603          	ld	a2,-64(s0)
ffffffc050202676:	fc843583          	ld	a1,-56(s0)
ffffffc05020267a:	fd043503          	ld	a0,-48(s0)
ffffffc05020267e:	9782                	jalr	a5
ffffffc050202680:	87aa                	mv	a5,a0
ffffffc050202682:	853e                	mv	a0,a5
ffffffc050202684:	70e2                	ld	ra,56(sp)
ffffffc050202686:	7442                	ld	s0,48(sp)
ffffffc050202688:	6121                	addi	sp,sp,64
ffffffc05020268a:	8082                	ret

ffffffc05020268c <bios_read_fdt>:
ffffffc05020268c:	1101                	addi	sp,sp,-32
ffffffc05020268e:	ec06                	sd	ra,24(sp)
ffffffc050202690:	e822                	sd	s0,16(sp)
ffffffc050202692:	1000                	addi	s0,sp,32
ffffffc050202694:	87aa                	mv	a5,a0
ffffffc050202696:	fef42623          	sw	a5,-20(s0)
ffffffc05020269a:	fec46783          	lwu	a5,-20(s0)
ffffffc05020269e:	4681                	li	a3,0
ffffffc0502026a0:	4601                	li	a2,0
ffffffc0502026a2:	85be                	mv	a1,a5
ffffffc0502026a4:	451d                	li	a0,7
ffffffc0502026a6:	f8fff0ef          	jal	ra,ffffffc050202634 <call_jmptab>
ffffffc0502026aa:	87aa                	mv	a5,a0
ffffffc0502026ac:	853e                	mv	a0,a5
ffffffc0502026ae:	60e2                	ld	ra,24(sp)
ffffffc0502026b0:	6442                	ld	s0,16(sp)
ffffffc0502026b2:	6105                	addi	sp,sp,32
ffffffc0502026b4:	8082                	ret

ffffffc0502026b6 <init_jmptab>:
ffffffc0502026b6:	1101                	addi	sp,sp,-32
ffffffc0502026b8:	ec22                	sd	s0,24(sp)
ffffffc0502026ba:	1000                	addi	s0,sp,32
ffffffc0502026bc:	fe0297b7          	lui	a5,0xfe029
ffffffc0502026c0:	07b6                	slli	a5,a5,0xd
ffffffc0502026c2:	f0078793          	addi	a5,a5,-256 # fffffffffe028f00 <__BSS_END__+0x3faddca428>
ffffffc0502026c6:	fef43423          	sd	a5,-24(s0)
ffffffc0502026ca:	fe843783          	ld	a5,-24(s0)
ffffffc0502026ce:	00001717          	auipc	a4,0x1
ffffffc0502026d2:	bd670713          	addi	a4,a4,-1066 # ffffffc0502032a4 <port_write>
ffffffc0502026d6:	e398                	sd	a4,0(a5)
ffffffc0502026d8:	fe843783          	ld	a5,-24(s0)
ffffffc0502026dc:	07a1                	addi	a5,a5,8
ffffffc0502026de:	00001717          	auipc	a4,0x1
ffffffc0502026e2:	b9c70713          	addi	a4,a4,-1124 # ffffffc05020327a <port_write_ch>
ffffffc0502026e6:	e398                	sd	a4,0(a5)
ffffffc0502026e8:	fe843783          	ld	a5,-24(s0)
ffffffc0502026ec:	07c1                	addi	a5,a5,16
ffffffc0502026ee:	00001717          	auipc	a4,0x1
ffffffc0502026f2:	bde70713          	addi	a4,a4,-1058 # ffffffc0502032cc <port_read_ch>
ffffffc0502026f6:	e398                	sd	a4,0(a5)
ffffffc0502026f8:	fe843783          	ld	a5,-24(s0)
ffffffc0502026fc:	07e1                	addi	a5,a5,24
ffffffc0502026fe:	00001717          	auipc	a4,0x1
ffffffc050202702:	bf470713          	addi	a4,a4,-1036 # ffffffc0502032f2 <sd_read>
ffffffc050202706:	e398                	sd	a4,0(a5)
ffffffc050202708:	fe843783          	ld	a5,-24(s0)
ffffffc05020270c:	02078793          	addi	a5,a5,32
ffffffc050202710:	00001717          	auipc	a4,0x1
ffffffc050202714:	c2470713          	addi	a4,a4,-988 # ffffffc050203334 <sd_write>
ffffffc050202718:	e398                	sd	a4,0(a5)
ffffffc05020271a:	fe843783          	ld	a5,-24(s0)
ffffffc05020271e:	02878793          	addi	a5,a5,40
ffffffc050202722:	00001717          	auipc	a4,0x1
ffffffc050202726:	ca870713          	addi	a4,a4,-856 # ffffffc0502033ca <qemu_logging>
ffffffc05020272a:	e398                	sd	a4,0(a5)
ffffffc05020272c:	fe843783          	ld	a5,-24(s0)
ffffffc050202730:	03078793          	addi	a5,a5,48
ffffffc050202734:	00001717          	auipc	a4,0x1
ffffffc050202738:	c4270713          	addi	a4,a4,-958 # ffffffc050203376 <set_timer>
ffffffc05020273c:	e398                	sd	a4,0(a5)
ffffffc05020273e:	fe843783          	ld	a5,-24(s0)
ffffffc050202742:	03878793          	addi	a5,a5,56
ffffffc050202746:	00001717          	auipc	a4,0x1
ffffffc05020274a:	c5870713          	addi	a4,a4,-936 # ffffffc05020339e <read_fdt>
ffffffc05020274e:	e398                	sd	a4,0(a5)
ffffffc050202750:	fe843783          	ld	a5,-24(s0)
ffffffc050202754:	04078793          	addi	a5,a5,64
ffffffc050202758:	00001717          	auipc	a4,0x1
ffffffc05020275c:	f0e70713          	addi	a4,a4,-242 # ffffffc050203666 <screen_move_cursor>
ffffffc050202760:	e398                	sd	a4,0(a5)
ffffffc050202762:	fe843783          	ld	a5,-24(s0)
ffffffc050202766:	04878793          	addi	a5,a5,72
ffffffc05020276a:	0000a717          	auipc	a4,0xa
ffffffc05020276e:	c8070713          	addi	a4,a4,-896 # ffffffc05020c3ea <printk>
ffffffc050202772:	e398                	sd	a4,0(a5)
ffffffc050202774:	fe843783          	ld	a5,-24(s0)
ffffffc050202778:	05078793          	addi	a5,a5,80
ffffffc05020277c:	00005717          	auipc	a4,0x5
ffffffc050202780:	0b070713          	addi	a4,a4,176 # ffffffc05020782c <do_scheduler>
ffffffc050202784:	e398                	sd	a4,0(a5)
ffffffc050202786:	fe843783          	ld	a5,-24(s0)
ffffffc05020278a:	05878793          	addi	a5,a5,88
ffffffc05020278e:	00004717          	auipc	a4,0x4
ffffffc050202792:	18270713          	addi	a4,a4,386 # ffffffc050206910 <do_mutex_lock_init>
ffffffc050202796:	e398                	sd	a4,0(a5)
ffffffc050202798:	fe843783          	ld	a5,-24(s0)
ffffffc05020279c:	06078793          	addi	a5,a5,96
ffffffc0502027a0:	00004717          	auipc	a4,0x4
ffffffc0502027a4:	1fe70713          	addi	a4,a4,510 # ffffffc05020699e <do_mutex_lock_acquire>
ffffffc0502027a8:	e398                	sd	a4,0(a5)
ffffffc0502027aa:	fe843783          	ld	a5,-24(s0)
ffffffc0502027ae:	06878793          	addi	a5,a5,104
ffffffc0502027b2:	00004717          	auipc	a4,0x4
ffffffc0502027b6:	29e70713          	addi	a4,a4,670 # ffffffc050206a50 <do_mutex_lock_release>
ffffffc0502027ba:	e398                	sd	a4,0(a5)
ffffffc0502027bc:	0001                	nop
ffffffc0502027be:	6462                	ld	s0,24(sp)
ffffffc0502027c0:	6105                	addi	sp,sp,32
ffffffc0502027c2:	8082                	ret

ffffffc0502027c4 <clear_121>:
ffffffc0502027c4:	7179                	addi	sp,sp,-48
ffffffc0502027c6:	f406                	sd	ra,40(sp)
ffffffc0502027c8:	f022                	sd	s0,32(sp)
ffffffc0502027ca:	1800                	addi	s0,sp,48
ffffffc0502027cc:	fc0517b7          	lui	a5,0xfc051
ffffffc0502027d0:	07b2                	slli	a5,a5,0xc
ffffffc0502027d2:	fef43023          	sd	a5,-32(s0)
ffffffc0502027d6:	500007b7          	lui	a5,0x50000
ffffffc0502027da:	fef43423          	sd	a5,-24(s0)
ffffffc0502027de:	a891                	j	ffffffc050202832 <clear_121+0x6e>
ffffffc0502027e0:	fe843783          	ld	a5,-24(s0)
ffffffc0502027e4:	fcf43c23          	sd	a5,-40(s0)
ffffffc0502027e8:	fd843703          	ld	a4,-40(s0)
ffffffc0502027ec:	57fd                	li	a5,-1
ffffffc0502027ee:	83e5                	srli	a5,a5,0x19
ffffffc0502027f0:	8ff9                	and	a5,a5,a4
ffffffc0502027f2:	fcf43c23          	sd	a5,-40(s0)
ffffffc0502027f6:	fd843783          	ld	a5,-40(s0)
ffffffc0502027fa:	83f9                	srli	a5,a5,0x1e
ffffffc0502027fc:	fcf43823          	sd	a5,-48(s0)
ffffffc050202800:	fd043783          	ld	a5,-48(s0)
ffffffc050202804:	078e                	slli	a5,a5,0x3
ffffffc050202806:	fe043703          	ld	a4,-32(s0)
ffffffc05020280a:	97ba                	add	a5,a5,a4
ffffffc05020280c:	639c                	ld	a5,0(a5)
ffffffc05020280e:	cb99                	beqz	a5,ffffffc050202824 <clear_121+0x60>
ffffffc050202810:	fd043783          	ld	a5,-48(s0)
ffffffc050202814:	078e                	slli	a5,a5,0x3
ffffffc050202816:	fe043703          	ld	a4,-32(s0)
ffffffc05020281a:	97ba                	add	a5,a5,a4
ffffffc05020281c:	4581                	li	a1,0
ffffffc05020281e:	853e                	mv	a0,a5
ffffffc050202820:	de1ff0ef          	jal	ra,ffffffc050202600 <set_attribute>
ffffffc050202824:	fe843703          	ld	a4,-24(s0)
ffffffc050202828:	002007b7          	lui	a5,0x200
ffffffc05020282c:	97ba                	add	a5,a5,a4
ffffffc05020282e:	fef43423          	sd	a5,-24(s0)
ffffffc050202832:	fe843703          	ld	a4,-24(s0)
ffffffc050202836:	510007b7          	lui	a5,0x51000
ffffffc05020283a:	faf763e3          	bltu	a4,a5,ffffffc0502027e0 <clear_121+0x1c>
ffffffc05020283e:	0001                	nop
ffffffc050202840:	0001                	nop
ffffffc050202842:	70a2                	ld	ra,40(sp)
ffffffc050202844:	7402                	ld	s0,32(sp)
ffffffc050202846:	6145                	addi	sp,sp,48
ffffffc050202848:	8082                	ret

ffffffc05020284a <init_task_info>:
ffffffc05020284a:	7179                	addi	sp,sp,-48
ffffffc05020284c:	f406                	sd	ra,40(sp)
ffffffc05020284e:	f022                	sd	s0,32(sp)
ffffffc050202850:	1800                	addi	s0,sp,48
ffffffc050202852:	502007b7          	lui	a5,0x50200
ffffffc050202856:	1fa78793          	addi	a5,a5,506 # 502001fa <boot_stack_top_base-0x1e06>
ffffffc05020285a:	fef43423          	sd	a5,-24(s0)
ffffffc05020285e:	fe843783          	ld	a5,-24(s0)
ffffffc050202862:	00079783          	lh	a5,0(a5)
ffffffc050202866:	2781                	sext.w	a5,a5
ffffffc050202868:	2785                	addiw	a5,a5,1
ffffffc05020286a:	0007871b          	sext.w	a4,a5
ffffffc05020286e:	0000b797          	auipc	a5,0xb
ffffffc050202872:	da278793          	addi	a5,a5,-606 # ffffffc05020d610 <task_num>
ffffffc050202876:	c398                	sw	a4,0(a5)
ffffffc050202878:	502007b7          	lui	a5,0x50200
ffffffc05020287c:	1f878793          	addi	a5,a5,504 # 502001f8 <boot_stack_top_base-0x1e08>
ffffffc050202880:	fef43023          	sd	a5,-32(s0)
ffffffc050202884:	fe043783          	ld	a5,-32(s0)
ffffffc050202888:	00079783          	lh	a5,0(a5)
ffffffc05020288c:	0007871b          	sext.w	a4,a5
ffffffc050202890:	0000b797          	auipc	a5,0xb
ffffffc050202894:	d8478793          	addi	a5,a5,-636 # ffffffc05020d614 <task_info>
ffffffc050202898:	c398                	sw	a4,0(a5)
ffffffc05020289a:	e028d7b7          	lui	a5,0xe028d
ffffffc05020289e:	07a6                	slli	a5,a5,0x9
ffffffc0502028a0:	fcf43c23          	sd	a5,-40(s0)
ffffffc0502028a4:	fd843783          	ld	a5,-40(s0)
ffffffc0502028a8:	fcf43823          	sd	a5,-48(s0)
ffffffc0502028ac:	20000613          	li	a2,512
ffffffc0502028b0:	fd043583          	ld	a1,-48(s0)
ffffffc0502028b4:	00057517          	auipc	a0,0x57
ffffffc0502028b8:	9d450513          	addi	a0,a0,-1580 # ffffffc050259288 <tasks>
ffffffc0502028bc:	497090ef          	jal	ra,ffffffc05020c552 <memcpy>
ffffffc0502028c0:	f05ff0ef          	jal	ra,ffffffc0502027c4 <clear_121>
ffffffc0502028c4:	0001                	nop
ffffffc0502028c6:	70a2                	ld	ra,40(sp)
ffffffc0502028c8:	7402                	ld	s0,32(sp)
ffffffc0502028ca:	6145                	addi	sp,sp,48
ffffffc0502028cc:	8082                	ret

ffffffc0502028ce <init_pcb_stack>:
ffffffc0502028ce:	715d                	addi	sp,sp,-80
ffffffc0502028d0:	e4a2                	sd	s0,72(sp)
ffffffc0502028d2:	0880                	addi	s0,sp,80
ffffffc0502028d4:	fca43423          	sd	a0,-56(s0)
ffffffc0502028d8:	fcb43023          	sd	a1,-64(s0)
ffffffc0502028dc:	fac43c23          	sd	a2,-72(s0)
ffffffc0502028e0:	fad43823          	sd	a3,-80(s0)
ffffffc0502028e4:	fc843783          	ld	a5,-56(s0)
ffffffc0502028e8:	ee078793          	addi	a5,a5,-288 # ffffffffe028cee0 <__BSS_END__+0x3f9002e408>
ffffffc0502028ec:	fef43023          	sd	a5,-32(s0)
ffffffc0502028f0:	fe042623          	sw	zero,-20(s0)
ffffffc0502028f4:	a831                	j	ffffffc050202910 <init_pcb_stack+0x42>
ffffffc0502028f6:	fe043703          	ld	a4,-32(s0)
ffffffc0502028fa:	fec42783          	lw	a5,-20(s0)
ffffffc0502028fe:	078e                	slli	a5,a5,0x3
ffffffc050202900:	97ba                	add	a5,a5,a4
ffffffc050202902:	0007b023          	sd	zero,0(a5)
ffffffc050202906:	fec42783          	lw	a5,-20(s0)
ffffffc05020290a:	2785                	addiw	a5,a5,1
ffffffc05020290c:	fef42623          	sw	a5,-20(s0)
ffffffc050202910:	fec42783          	lw	a5,-20(s0)
ffffffc050202914:	0007871b          	sext.w	a4,a5
ffffffc050202918:	47fd                	li	a5,31
ffffffc05020291a:	fce7dee3          	bge	a5,a4,ffffffc0502028f6 <init_pcb_stack+0x28>
ffffffc05020291e:	fb043703          	ld	a4,-80(s0)
ffffffc050202922:	fe043783          	ld	a5,-32(s0)
ffffffc050202926:	f398                	sd	a4,32(a5)
ffffffc050202928:	fe043783          	ld	a5,-32(s0)
ffffffc05020292c:	fc043703          	ld	a4,-64(s0)
ffffffc050202930:	eb98                	sd	a4,16(a5)
ffffffc050202932:	fffff717          	auipc	a4,0xfffff
ffffffc050202936:	7fe70713          	addi	a4,a4,2046 # ffffffc050202130 <exception_handler_entry>
ffffffc05020293a:	fe043783          	ld	a5,-32(s0)
ffffffc05020293e:	e798                	sd	a4,8(a5)
ffffffc050202940:	fe043783          	ld	a5,-32(s0)
ffffffc050202944:	00040737          	lui	a4,0x40
ffffffc050202948:	02070713          	addi	a4,a4,32 # 40020 <boot_stack_top_base-0x501c1fe0>
ffffffc05020294c:	10e7b023          	sd	a4,256(a5)
ffffffc050202950:	fe043783          	ld	a5,-32(s0)
ffffffc050202954:	fb843703          	ld	a4,-72(s0)
ffffffc050202958:	10e7b423          	sd	a4,264(a5)
ffffffc05020295c:	fe043783          	ld	a5,-32(s0)
ffffffc050202960:	f9078793          	addi	a5,a5,-112
ffffffc050202964:	fcf43c23          	sd	a5,-40(s0)
ffffffc050202968:	fe042423          	sw	zero,-24(s0)
ffffffc05020296c:	a831                	j	ffffffc050202988 <init_pcb_stack+0xba>
ffffffc05020296e:	fd843703          	ld	a4,-40(s0)
ffffffc050202972:	fe842783          	lw	a5,-24(s0)
ffffffc050202976:	078e                	slli	a5,a5,0x3
ffffffc050202978:	97ba                	add	a5,a5,a4
ffffffc05020297a:	0007b023          	sd	zero,0(a5)
ffffffc05020297e:	fe842783          	lw	a5,-24(s0)
ffffffc050202982:	2785                	addiw	a5,a5,1
ffffffc050202984:	fef42423          	sw	a5,-24(s0)
ffffffc050202988:	fe842783          	lw	a5,-24(s0)
ffffffc05020298c:	0007871b          	sext.w	a4,a5
ffffffc050202990:	47b5                	li	a5,13
ffffffc050202992:	fce7dee3          	bge	a5,a4,ffffffc05020296e <init_pcb_stack+0xa0>
ffffffc050202996:	fffff717          	auipc	a4,0xfffff
ffffffc05020299a:	73e70713          	addi	a4,a4,1854 # ffffffc0502020d4 <ret_from_exception>
ffffffc05020299e:	fd843783          	ld	a5,-40(s0)
ffffffc0502029a2:	e398                	sd	a4,0(a5)
ffffffc0502029a4:	fd843703          	ld	a4,-40(s0)
ffffffc0502029a8:	fb043783          	ld	a5,-80(s0)
ffffffc0502029ac:	e398                	sd	a4,0(a5)
ffffffc0502029ae:	fb043783          	ld	a5,-80(s0)
ffffffc0502029b2:	6398                	ld	a4,0(a5)
ffffffc0502029b4:	fd843783          	ld	a5,-40(s0)
ffffffc0502029b8:	e798                	sd	a4,8(a5)
ffffffc0502029ba:	0001                	nop
ffffffc0502029bc:	6426                	ld	s0,72(sp)
ffffffc0502029be:	6161                	addi	sp,sp,80
ffffffc0502029c0:	8082                	ret

ffffffc0502029c2 <init_pcb>:
ffffffc0502029c2:	715d                	addi	sp,sp,-80
ffffffc0502029c4:	e486                	sd	ra,72(sp)
ffffffc0502029c6:	e0a2                	sd	s0,64(sp)
ffffffc0502029c8:	0880                	addi	s0,sp,80
ffffffc0502029ca:	faa43c23          	sd	a0,-72(s0)
ffffffc0502029ce:	fe042623          	sw	zero,-20(s0)
ffffffc0502029d2:	a01d                	j	ffffffc0502029f8 <init_pcb+0x36>
ffffffc0502029d4:	0005b717          	auipc	a4,0x5b
ffffffc0502029d8:	27c70713          	addi	a4,a4,636 # ffffffc05025dc50 <pcb>
ffffffc0502029dc:	fec42683          	lw	a3,-20(s0)
ffffffc0502029e0:	0b800793          	li	a5,184
ffffffc0502029e4:	02f687b3          	mul	a5,a3,a5
ffffffc0502029e8:	97ba                	add	a5,a5,a4
ffffffc0502029ea:	4711                	li	a4,4
ffffffc0502029ec:	dfd8                	sw	a4,60(a5)
ffffffc0502029ee:	fec42783          	lw	a5,-20(s0)
ffffffc0502029f2:	2785                	addiw	a5,a5,1
ffffffc0502029f4:	fef42623          	sw	a5,-20(s0)
ffffffc0502029f8:	fec42783          	lw	a5,-20(s0)
ffffffc0502029fc:	0007871b          	sext.w	a4,a5
ffffffc050202a00:	47bd                	li	a5,15
ffffffc050202a02:	fce7d9e3          	bge	a5,a4,ffffffc0502029d4 <init_pcb+0x12>
ffffffc050202a06:	57fd                	li	a5,-1
ffffffc050202a08:	fef42423          	sw	a5,-24(s0)
ffffffc050202a0c:	fe042223          	sw	zero,-28(s0)
ffffffc050202a10:	a82d                	j	ffffffc050202a4a <init_pcb+0x88>
ffffffc050202a12:	fe442703          	lw	a4,-28(s0)
ffffffc050202a16:	87ba                	mv	a5,a4
ffffffc050202a18:	078e                	slli	a5,a5,0x3
ffffffc050202a1a:	97ba                	add	a5,a5,a4
ffffffc050202a1c:	078a                	slli	a5,a5,0x2
ffffffc050202a1e:	00057717          	auipc	a4,0x57
ffffffc050202a22:	86a70713          	addi	a4,a4,-1942 # ffffffc050259288 <tasks>
ffffffc050202a26:	97ba                	add	a5,a5,a4
ffffffc050202a28:	fb843583          	ld	a1,-72(s0)
ffffffc050202a2c:	853e                	mv	a0,a5
ffffffc050202a2e:	42b090ef          	jal	ra,ffffffc05020c658 <strcmp>
ffffffc050202a32:	87aa                	mv	a5,a0
ffffffc050202a34:	e791                	bnez	a5,ffffffc050202a40 <init_pcb+0x7e>
ffffffc050202a36:	fe442783          	lw	a5,-28(s0)
ffffffc050202a3a:	fef42423          	sw	a5,-24(s0)
ffffffc050202a3e:	a005                	j	ffffffc050202a5e <init_pcb+0x9c>
ffffffc050202a40:	fe442783          	lw	a5,-28(s0)
ffffffc050202a44:	2785                	addiw	a5,a5,1
ffffffc050202a46:	fef42223          	sw	a5,-28(s0)
ffffffc050202a4a:	0000b797          	auipc	a5,0xb
ffffffc050202a4e:	bc678793          	addi	a5,a5,-1082 # ffffffc05020d610 <task_num>
ffffffc050202a52:	4398                	lw	a4,0(a5)
ffffffc050202a54:	fe442783          	lw	a5,-28(s0)
ffffffc050202a58:	2781                	sext.w	a5,a5
ffffffc050202a5a:	fae7cce3          	blt	a5,a4,ffffffc050202a12 <init_pcb+0x50>
ffffffc050202a5e:	fe842783          	lw	a5,-24(s0)
ffffffc050202a62:	0007871b          	sext.w	a4,a5
ffffffc050202a66:	57fd                	li	a5,-1
ffffffc050202a68:	00f71b63          	bne	a4,a5,ffffffc050202a7e <init_pcb+0xbc>
ffffffc050202a6c:	fb843583          	ld	a1,-72(s0)
ffffffc050202a70:	0000a517          	auipc	a0,0xa
ffffffc050202a74:	e6850513          	addi	a0,a0,-408 # ffffffc05020c8d8 <strcat+0x72>
ffffffc050202a78:	283090ef          	jal	ra,ffffffc05020c4fa <printl>
ffffffc050202a7c:	aae9                	j	ffffffc050202c56 <init_pcb+0x294>
ffffffc050202a7e:	4785                	li	a5,1
ffffffc050202a80:	fef42023          	sw	a5,-32(s0)
ffffffc050202a84:	0005b797          	auipc	a5,0x5b
ffffffc050202a88:	1cc78793          	addi	a5,a5,460 # ffffffc05025dc50 <pcb>
ffffffc050202a8c:	0207ac23          	sw	zero,56(a5)
ffffffc050202a90:	fe042703          	lw	a4,-32(s0)
ffffffc050202a94:	fc0517b7          	lui	a5,0xfc051
ffffffc050202a98:	00c79593          	slli	a1,a5,0xc
ffffffc050202a9c:	853a                	mv	a0,a4
ffffffc050202a9e:	159020ef          	jal	ra,ffffffc0502053f6 <allocFixedPage>
ffffffc050202aa2:	872a                	mv	a4,a0
ffffffc050202aa4:	0005b797          	auipc	a5,0x5b
ffffffc050202aa8:	1ac78793          	addi	a5,a5,428 # ffffffc05025dc50 <pcb>
ffffffc050202aac:	fb98                	sd	a4,48(a5)
ffffffc050202aae:	0005b797          	auipc	a5,0x5b
ffffffc050202ab2:	1a278793          	addi	a5,a5,418 # ffffffc05025dc50 <pcb>
ffffffc050202ab6:	7b98                	ld	a4,48(a5)
ffffffc050202ab8:	fc0517b7          	lui	a5,0xfc051
ffffffc050202abc:	00c79593          	slli	a1,a5,0xc
ffffffc050202ac0:	853a                	mv	a0,a4
ffffffc050202ac2:	67b020ef          	jal	ra,ffffffc05020593c <share_pgtable>
ffffffc050202ac6:	0005b797          	auipc	a5,0x5b
ffffffc050202aca:	18a78793          	addi	a5,a5,394 # ffffffc05025dc50 <pcb>
ffffffc050202ace:	0407b423          	sd	zero,72(a5)
ffffffc050202ad2:	0005b797          	auipc	a5,0x5b
ffffffc050202ad6:	17e78793          	addi	a5,a5,382 # ffffffc05025dc50 <pcb>
ffffffc050202ada:	4709                	li	a4,2
ffffffc050202adc:	dfd8                	sw	a4,60(a5)
ffffffc050202ade:	0005b797          	auipc	a5,0x5b
ffffffc050202ae2:	17278793          	addi	a5,a5,370 # ffffffc05025dc50 <pcb>
ffffffc050202ae6:	0407a023          	sw	zero,64(a5)
ffffffc050202aea:	0005b797          	auipc	a5,0x5b
ffffffc050202aee:	16678793          	addi	a5,a5,358 # ffffffc05025dc50 <pcb>
ffffffc050202af2:	0407a223          	sw	zero,68(a5)
ffffffc050202af6:	0005b797          	auipc	a5,0x5b
ffffffc050202afa:	15a78793          	addi	a5,a5,346 # ffffffc05025dc50 <pcb>
ffffffc050202afe:	7b9c                	ld	a5,48(a5)
ffffffc050202b00:	4681                	li	a3,0
ffffffc050202b02:	4601                	li	a2,0
ffffffc050202b04:	85be                	mv	a1,a5
ffffffc050202b06:	000f07b7          	lui	a5,0xf0
ffffffc050202b0a:	0785                	addi	a5,a5,1
ffffffc050202b0c:	01079513          	slli	a0,a5,0x10
ffffffc050202b10:	369020ef          	jal	ra,ffffffc050205678 <alloc_page_helper>
ffffffc050202b14:	fe042703          	lw	a4,-32(s0)
ffffffc050202b18:	fc0517b7          	lui	a5,0xfc051
ffffffc050202b1c:	00c79593          	slli	a1,a5,0xc
ffffffc050202b20:	853a                	mv	a0,a4
ffffffc050202b22:	0d5020ef          	jal	ra,ffffffc0502053f6 <allocFixedPage>
ffffffc050202b26:	fca43c23          	sd	a0,-40(s0)
ffffffc050202b2a:	000f07b7          	lui	a5,0xf0
ffffffc050202b2e:	0785                	addi	a5,a5,1
ffffffc050202b30:	07c2                	slli	a5,a5,0x10
ffffffc050202b32:	fcf43823          	sd	a5,-48(s0)
ffffffc050202b36:	0005b797          	auipc	a5,0x5b
ffffffc050202b3a:	11a78793          	addi	a5,a5,282 # ffffffc05025dc50 <pcb>
ffffffc050202b3e:	fd843703          	ld	a4,-40(s0)
ffffffc050202b42:	f3b8                	sd	a4,96(a5)
ffffffc050202b44:	0005b797          	auipc	a5,0x5b
ffffffc050202b48:	10c78793          	addi	a5,a5,268 # ffffffc05025dc50 <pcb>
ffffffc050202b4c:	fd043703          	ld	a4,-48(s0)
ffffffc050202b50:	f7b8                	sd	a4,104(a5)
ffffffc050202b52:	0005b797          	auipc	a5,0x5b
ffffffc050202b56:	0fe78793          	addi	a5,a5,254 # ffffffc05025dc50 <pcb>
ffffffc050202b5a:	73bc                	ld	a5,96(a5)
ffffffc050202b5c:	fe042703          	lw	a4,-32(s0)
ffffffc050202b60:	00c7171b          	slliw	a4,a4,0xc
ffffffc050202b64:	2701                	sext.w	a4,a4
ffffffc050202b66:	973e                	add	a4,a4,a5
ffffffc050202b68:	0005b797          	auipc	a5,0x5b
ffffffc050202b6c:	0e878793          	addi	a5,a5,232 # ffffffc05025dc50 <pcb>
ffffffc050202b70:	e398                	sd	a4,0(a5)
ffffffc050202b72:	0005b797          	auipc	a5,0x5b
ffffffc050202b76:	0de78793          	addi	a5,a5,222 # ffffffc05025dc50 <pcb>
ffffffc050202b7a:	77bc                	ld	a5,104(a5)
ffffffc050202b7c:	fe042703          	lw	a4,-32(s0)
ffffffc050202b80:	00c7171b          	slliw	a4,a4,0xc
ffffffc050202b84:	2701                	sext.w	a4,a4
ffffffc050202b86:	973e                	add	a4,a4,a5
ffffffc050202b88:	0005b797          	auipc	a5,0x5b
ffffffc050202b8c:	0c878793          	addi	a5,a5,200 # ffffffc05025dc50 <pcb>
ffffffc050202b90:	e798                	sd	a4,8(a5)
ffffffc050202b92:	0005b797          	auipc	a5,0x5b
ffffffc050202b96:	0be78793          	addi	a5,a5,190 # ffffffc05025dc50 <pcb>
ffffffc050202b9a:	0a07a823          	sw	zero,176(a5)
ffffffc050202b9e:	0005b797          	auipc	a5,0x5b
ffffffc050202ba2:	0b278793          	addi	a5,a5,178 # ffffffc05025dc50 <pcb>
ffffffc050202ba6:	4705                	li	a4,1
ffffffc050202ba8:	0ae7aa23          	sw	a4,180(a5)
ffffffc050202bac:	0005b797          	auipc	a5,0x5b
ffffffc050202bb0:	0a478793          	addi	a5,a5,164 # ffffffc05025dc50 <pcb>
ffffffc050202bb4:	0005b717          	auipc	a4,0x5b
ffffffc050202bb8:	0bc70713          	addi	a4,a4,188 # ffffffc05025dc70 <pcb+0x20>
ffffffc050202bbc:	f398                	sd	a4,32(a5)
ffffffc050202bbe:	0005b797          	auipc	a5,0x5b
ffffffc050202bc2:	09278793          	addi	a5,a5,146 # ffffffc05025dc50 <pcb>
ffffffc050202bc6:	0005b717          	auipc	a4,0x5b
ffffffc050202bca:	0aa70713          	addi	a4,a4,170 # ffffffc05025dc70 <pcb+0x20>
ffffffc050202bce:	f798                	sd	a4,40(a5)
ffffffc050202bd0:	0005b597          	auipc	a1,0x5b
ffffffc050202bd4:	09058593          	addi	a1,a1,144 # ffffffc05025dc60 <pcb+0x10>
ffffffc050202bd8:	0000b517          	auipc	a0,0xb
ffffffc050202bdc:	95050513          	addi	a0,a0,-1712 # ffffffc05020d528 <ready_queue>
ffffffc050202be0:	12c050ef          	jal	ra,ffffffc050207d0c <en_queue>
ffffffc050202be4:	fe842783          	lw	a5,-24(s0)
ffffffc050202be8:	4581                	li	a1,0
ffffffc050202bea:	853e                	mv	a0,a5
ffffffc050202bec:	28e020ef          	jal	ra,ffffffc050204e7a <load_task_img>
ffffffc050202bf0:	fca43423          	sd	a0,-56(s0)
ffffffc050202bf4:	0005b797          	auipc	a5,0x5b
ffffffc050202bf8:	05c78793          	addi	a5,a5,92 # ffffffc05025dc50 <pcb>
ffffffc050202bfc:	6398                	ld	a4,0(a5)
ffffffc050202bfe:	0005b797          	auipc	a5,0x5b
ffffffc050202c02:	05278793          	addi	a5,a5,82 # ffffffc05025dc50 <pcb>
ffffffc050202c06:	679c                	ld	a5,8(a5)
ffffffc050202c08:	0005b697          	auipc	a3,0x5b
ffffffc050202c0c:	04868693          	addi	a3,a3,72 # ffffffc05025dc50 <pcb>
ffffffc050202c10:	fc843603          	ld	a2,-56(s0)
ffffffc050202c14:	85be                	mv	a1,a5
ffffffc050202c16:	853a                	mv	a0,a4
ffffffc050202c18:	cb7ff0ef          	jal	ra,ffffffc0502028ce <init_pcb_stack>
ffffffc050202c1c:	0005b797          	auipc	a5,0x5b
ffffffc050202c20:	02c78793          	addi	a5,a5,44 # ffffffc05025dc48 <current_running0>
ffffffc050202c24:	0000a717          	auipc	a4,0xa
ffffffc050202c28:	79470713          	addi	a4,a4,1940 # ffffffc05020d3b8 <pid0_pcb>
ffffffc050202c2c:	e398                	sd	a4,0(a5)
ffffffc050202c2e:	0005b797          	auipc	a5,0x5b
ffffffc050202c32:	01a78793          	addi	a5,a5,26 # ffffffc05025dc48 <current_running0>
ffffffc050202c36:	6398                	ld	a4,0(a5)
ffffffc050202c38:	0005b797          	auipc	a5,0x5b
ffffffc050202c3c:	00878793          	addi	a5,a5,8 # ffffffc05025dc40 <current_running>
ffffffc050202c40:	e398                	sd	a4,0(a5)
ffffffc050202c42:	0000a797          	auipc	a5,0xa
ffffffc050202c46:	77678793          	addi	a5,a5,1910 # ffffffc05020d3b8 <pid0_pcb>
ffffffc050202c4a:	0005b717          	auipc	a4,0x5b
ffffffc050202c4e:	01670713          	addi	a4,a4,22 # ffffffc05025dc60 <pcb+0x10>
ffffffc050202c52:	eb98                	sd	a4,16(a5)
ffffffc050202c54:	0001                	nop
ffffffc050202c56:	60a6                	ld	ra,72(sp)
ffffffc050202c58:	6406                	ld	s0,64(sp)
ffffffc050202c5a:	6161                	addi	sp,sp,80
ffffffc050202c5c:	8082                	ret

ffffffc050202c5e <init_syscall>:
ffffffc050202c5e:	1141                	addi	sp,sp,-16
ffffffc050202c60:	e422                	sd	s0,8(sp)
ffffffc050202c62:	0800                	addi	s0,sp,16
ffffffc050202c64:	0005c797          	auipc	a5,0x5c
ffffffc050202c68:	b7478793          	addi	a5,a5,-1164 # ffffffc05025e7d8 <syscall>
ffffffc050202c6c:	00006717          	auipc	a4,0x6
ffffffc050202c70:	8ee70713          	addi	a4,a4,-1810 # ffffffc05020855a <do_exec>
ffffffc050202c74:	e398                	sd	a4,0(a5)
ffffffc050202c76:	0005c797          	auipc	a5,0x5c
ffffffc050202c7a:	b6278793          	addi	a5,a5,-1182 # ffffffc05025e7d8 <syscall>
ffffffc050202c7e:	00006717          	auipc	a4,0x6
ffffffc050202c82:	c6270713          	addi	a4,a4,-926 # ffffffc0502088e0 <do_exit>
ffffffc050202c86:	e798                	sd	a4,8(a5)
ffffffc050202c88:	0005c797          	auipc	a5,0x5c
ffffffc050202c8c:	b5078793          	addi	a5,a5,-1200 # ffffffc05025e7d8 <syscall>
ffffffc050202c90:	00005717          	auipc	a4,0x5
ffffffc050202c94:	e8470713          	addi	a4,a4,-380 # ffffffc050207b14 <do_sleep>
ffffffc050202c98:	eb98                	sd	a4,16(a5)
ffffffc050202c9a:	0005c797          	auipc	a5,0x5c
ffffffc050202c9e:	b3e78793          	addi	a5,a5,-1218 # ffffffc05025e7d8 <syscall>
ffffffc050202ca2:	00006717          	auipc	a4,0x6
ffffffc050202ca6:	c8870713          	addi	a4,a4,-888 # ffffffc05020892a <do_kill>
ffffffc050202caa:	ef98                	sd	a4,24(a5)
ffffffc050202cac:	0005c797          	auipc	a5,0x5c
ffffffc050202cb0:	b2c78793          	addi	a5,a5,-1236 # ffffffc05025e7d8 <syscall>
ffffffc050202cb4:	00006717          	auipc	a4,0x6
ffffffc050202cb8:	dba70713          	addi	a4,a4,-582 # ffffffc050208a6e <do_waitpid>
ffffffc050202cbc:	f398                	sd	a4,32(a5)
ffffffc050202cbe:	0005c797          	auipc	a5,0x5c
ffffffc050202cc2:	b1a78793          	addi	a5,a5,-1254 # ffffffc05025e7d8 <syscall>
ffffffc050202cc6:	00005717          	auipc	a4,0x5
ffffffc050202cca:	27270713          	addi	a4,a4,626 # ffffffc050207f38 <do_process_show>
ffffffc050202cce:	f798                	sd	a4,40(a5)
ffffffc050202cd0:	0005c797          	auipc	a5,0x5c
ffffffc050202cd4:	b0878793          	addi	a5,a5,-1272 # ffffffc05025e7d8 <syscall>
ffffffc050202cd8:	00006717          	auipc	a4,0x6
ffffffc050202cdc:	e4470713          	addi	a4,a4,-444 # ffffffc050208b1c <do_getpid>
ffffffc050202ce0:	fb98                	sd	a4,48(a5)
ffffffc050202ce2:	0005c797          	auipc	a5,0x5c
ffffffc050202ce6:	af678793          	addi	a5,a5,-1290 # ffffffc05025e7d8 <syscall>
ffffffc050202cea:	00005717          	auipc	a4,0x5
ffffffc050202cee:	b4270713          	addi	a4,a4,-1214 # ffffffc05020782c <do_scheduler>
ffffffc050202cf2:	ff98                	sd	a4,56(a5)
ffffffc050202cf4:	0005c797          	auipc	a5,0x5c
ffffffc050202cf8:	ae478793          	addi	a5,a5,-1308 # ffffffc05025e7d8 <syscall>
ffffffc050202cfc:	00001717          	auipc	a4,0x1
ffffffc050202d00:	9ba70713          	addi	a4,a4,-1606 # ffffffc0502036b6 <screen_write>
ffffffc050202d04:	f3d8                	sd	a4,160(a5)
ffffffc050202d06:	0005c797          	auipc	a5,0x5c
ffffffc050202d0a:	ad278793          	addi	a5,a5,-1326 # ffffffc05025e7d8 <syscall>
ffffffc050202d0e:	00000717          	auipc	a4,0x0
ffffffc050202d12:	5be70713          	addi	a4,a4,1470 # ffffffc0502032cc <port_read_ch>
ffffffc050202d16:	f7d8                	sd	a4,168(a5)
ffffffc050202d18:	0005c797          	auipc	a5,0x5c
ffffffc050202d1c:	ac078793          	addi	a5,a5,-1344 # ffffffc05025e7d8 <syscall>
ffffffc050202d20:	00001717          	auipc	a4,0x1
ffffffc050202d24:	94670713          	addi	a4,a4,-1722 # ffffffc050203666 <screen_move_cursor>
ffffffc050202d28:	fbd8                	sd	a4,176(a5)
ffffffc050202d2a:	0005c797          	auipc	a5,0x5c
ffffffc050202d2e:	aae78793          	addi	a5,a5,-1362 # ffffffc05025e7d8 <syscall>
ffffffc050202d32:	00001717          	auipc	a4,0x1
ffffffc050202d36:	9e270713          	addi	a4,a4,-1566 # ffffffc050203714 <screen_reflush>
ffffffc050202d3a:	ffd8                	sd	a4,184(a5)
ffffffc050202d3c:	0005c797          	auipc	a5,0x5c
ffffffc050202d40:	a9c78793          	addi	a5,a5,-1380 # ffffffc05025e7d8 <syscall>
ffffffc050202d44:	00001717          	auipc	a4,0x1
ffffffc050202d48:	88470713          	addi	a4,a4,-1916 # ffffffc0502035c8 <screen_clear>
ffffffc050202d4c:	e3f8                	sd	a4,192(a5)
ffffffc050202d4e:	0005c797          	auipc	a5,0x5c
ffffffc050202d52:	a8a78793          	addi	a5,a5,-1398 # ffffffc05025e7d8 <syscall>
ffffffc050202d56:	00005717          	auipc	a4,0x5
ffffffc050202d5a:	81270713          	addi	a4,a4,-2030 # ffffffc050207568 <get_time_base>
ffffffc050202d5e:	fbf8                	sd	a4,240(a5)
ffffffc050202d60:	0005c797          	auipc	a5,0x5c
ffffffc050202d64:	a7878793          	addi	a5,a5,-1416 # ffffffc05025e7d8 <syscall>
ffffffc050202d68:	00004717          	auipc	a4,0x4
ffffffc050202d6c:	7b470713          	addi	a4,a4,1972 # ffffffc05020751c <get_ticks>
ffffffc050202d70:	fff8                	sd	a4,248(a5)
ffffffc050202d72:	0005c797          	auipc	a5,0x5c
ffffffc050202d76:	a6678793          	addi	a5,a5,-1434 # ffffffc05025e7d8 <syscall>
ffffffc050202d7a:	00004717          	auipc	a4,0x4
ffffffc050202d7e:	b9670713          	addi	a4,a4,-1130 # ffffffc050206910 <do_mutex_lock_init>
ffffffc050202d82:	14e7b023          	sd	a4,320(a5)
ffffffc050202d86:	0005c797          	auipc	a5,0x5c
ffffffc050202d8a:	a5278793          	addi	a5,a5,-1454 # ffffffc05025e7d8 <syscall>
ffffffc050202d8e:	00004717          	auipc	a4,0x4
ffffffc050202d92:	c1070713          	addi	a4,a4,-1008 # ffffffc05020699e <do_mutex_lock_acquire>
ffffffc050202d96:	14e7b423          	sd	a4,328(a5)
ffffffc050202d9a:	0005c797          	auipc	a5,0x5c
ffffffc050202d9e:	a3e78793          	addi	a5,a5,-1474 # ffffffc05025e7d8 <syscall>
ffffffc050202da2:	00004717          	auipc	a4,0x4
ffffffc050202da6:	cae70713          	addi	a4,a4,-850 # ffffffc050206a50 <do_mutex_lock_release>
ffffffc050202daa:	14e7b823          	sd	a4,336(a5)
ffffffc050202dae:	0005c797          	auipc	a5,0x5c
ffffffc050202db2:	a2a78793          	addi	a5,a5,-1494 # ffffffc05025e7d8 <syscall>
ffffffc050202db6:	00004717          	auipc	a4,0x4
ffffffc050202dba:	daa70713          	addi	a4,a4,-598 # ffffffc050206b60 <do_barrier_init>
ffffffc050202dbe:	16e7b023          	sd	a4,352(a5)
ffffffc050202dc2:	0005c797          	auipc	a5,0x5c
ffffffc050202dc6:	a1678793          	addi	a5,a5,-1514 # ffffffc05025e7d8 <syscall>
ffffffc050202dca:	00004717          	auipc	a4,0x4
ffffffc050202dce:	e2670713          	addi	a4,a4,-474 # ffffffc050206bf0 <do_barrier_wait>
ffffffc050202dd2:	16e7b423          	sd	a4,360(a5)
ffffffc050202dd6:	0005c797          	auipc	a5,0x5c
ffffffc050202dda:	a0278793          	addi	a5,a5,-1534 # ffffffc05025e7d8 <syscall>
ffffffc050202dde:	00004717          	auipc	a4,0x4
ffffffc050202de2:	efe70713          	addi	a4,a4,-258 # ffffffc050206cdc <do_barrier_destroy>
ffffffc050202de6:	16e7b823          	sd	a4,368(a5)
ffffffc050202dea:	0005c797          	auipc	a5,0x5c
ffffffc050202dee:	9ee78793          	addi	a5,a5,-1554 # ffffffc05025e7d8 <syscall>
ffffffc050202df2:	00004717          	auipc	a4,0x4
ffffffc050202df6:	f5470713          	addi	a4,a4,-172 # ffffffc050206d46 <do_condition_init>
ffffffc050202dfa:	16e7bc23          	sd	a4,376(a5)
ffffffc050202dfe:	0005c797          	auipc	a5,0x5c
ffffffc050202e02:	9da78793          	addi	a5,a5,-1574 # ffffffc05025e7d8 <syscall>
ffffffc050202e06:	00004717          	auipc	a4,0x4
ffffffc050202e0a:	f8c70713          	addi	a4,a4,-116 # ffffffc050206d92 <do_condition_wait>
ffffffc050202e0e:	18e7b023          	sd	a4,384(a5)
ffffffc050202e12:	0005c797          	auipc	a5,0x5c
ffffffc050202e16:	9c678793          	addi	a5,a5,-1594 # ffffffc05025e7d8 <syscall>
ffffffc050202e1a:	00004717          	auipc	a4,0x4
ffffffc050202e1e:	fd270713          	addi	a4,a4,-46 # ffffffc050206dec <do_condition_signal>
ffffffc050202e22:	18e7b423          	sd	a4,392(a5)
ffffffc050202e26:	0005c797          	auipc	a5,0x5c
ffffffc050202e2a:	9b278793          	addi	a5,a5,-1614 # ffffffc05025e7d8 <syscall>
ffffffc050202e2e:	00004717          	auipc	a4,0x4
ffffffc050202e32:	fee70713          	addi	a4,a4,-18 # ffffffc050206e1c <do_condition_broadcast>
ffffffc050202e36:	18e7b823          	sd	a4,400(a5)
ffffffc050202e3a:	0005c797          	auipc	a5,0x5c
ffffffc050202e3e:	99e78793          	addi	a5,a5,-1634 # ffffffc05025e7d8 <syscall>
ffffffc050202e42:	00004717          	auipc	a4,0x4
ffffffc050202e46:	00a70713          	addi	a4,a4,10 # ffffffc050206e4c <do_condition_destroy>
ffffffc050202e4a:	18e7bc23          	sd	a4,408(a5)
ffffffc050202e4e:	0005c797          	auipc	a5,0x5c
ffffffc050202e52:	98a78793          	addi	a5,a5,-1654 # ffffffc05025e7d8 <syscall>
ffffffc050202e56:	00004717          	auipc	a4,0x4
ffffffc050202e5a:	17270713          	addi	a4,a4,370 # ffffffc050206fc8 <do_mbox_open>
ffffffc050202e5e:	1ae7b023          	sd	a4,416(a5)
ffffffc050202e62:	0005c797          	auipc	a5,0x5c
ffffffc050202e66:	97678793          	addi	a5,a5,-1674 # ffffffc05025e7d8 <syscall>
ffffffc050202e6a:	00004717          	auipc	a4,0x4
ffffffc050202e6e:	22a70713          	addi	a4,a4,554 # ffffffc050207094 <do_mbox_close>
ffffffc050202e72:	1ae7b423          	sd	a4,424(a5)
ffffffc050202e76:	0005c797          	auipc	a5,0x5c
ffffffc050202e7a:	96278793          	addi	a5,a5,-1694 # ffffffc05025e7d8 <syscall>
ffffffc050202e7e:	00004717          	auipc	a4,0x4
ffffffc050202e82:	2b070713          	addi	a4,a4,688 # ffffffc05020712e <do_mbox_send>
ffffffc050202e86:	1ae7b823          	sd	a4,432(a5)
ffffffc050202e8a:	0005c797          	auipc	a5,0x5c
ffffffc050202e8e:	94e78793          	addi	a5,a5,-1714 # ffffffc05025e7d8 <syscall>
ffffffc050202e92:	00004717          	auipc	a4,0x4
ffffffc050202e96:	40070713          	addi	a4,a4,1024 # ffffffc050207292 <do_mbox_recv>
ffffffc050202e9a:	1ae7bc23          	sd	a4,440(a5)
ffffffc050202e9e:	0005c797          	auipc	a5,0x5c
ffffffc050202ea2:	93a78793          	addi	a5,a5,-1734 # ffffffc05025e7d8 <syscall>
ffffffc050202ea6:	00003717          	auipc	a4,0x3
ffffffc050202eaa:	ffe70713          	addi	a4,a4,-2 # ffffffc050205ea4 <do_shmpageget>
ffffffc050202eae:	1ce7b023          	sd	a4,448(a5)
ffffffc050202eb2:	0005c797          	auipc	a5,0x5c
ffffffc050202eb6:	92678793          	addi	a5,a5,-1754 # ffffffc05025e7d8 <syscall>
ffffffc050202eba:	00003717          	auipc	a4,0x3
ffffffc050202ebe:	21470713          	addi	a4,a4,532 # ffffffc0502060ce <do_shmpagedt>
ffffffc050202ec2:	1ce7b423          	sd	a4,456(a5)
ffffffc050202ec6:	0005c797          	auipc	a5,0x5c
ffffffc050202eca:	91278793          	addi	a5,a5,-1774 # ffffffc05025e7d8 <syscall>
ffffffc050202ece:	00006717          	auipc	a4,0x6
ffffffc050202ed2:	f9670713          	addi	a4,a4,-106 # ffffffc050208e64 <thread_create>
ffffffc050202ed6:	1ce7bc23          	sd	a4,472(a5)
ffffffc050202eda:	0005c797          	auipc	a5,0x5c
ffffffc050202ede:	8fe78793          	addi	a5,a5,-1794 # ffffffc05025e7d8 <syscall>
ffffffc050202ee2:	00006717          	auipc	a4,0x6
ffffffc050202ee6:	c5470713          	addi	a4,a4,-940 # ffffffc050208b36 <do_taskset>
ffffffc050202eea:	1ee7b023          	sd	a4,480(a5)
ffffffc050202eee:	0005c797          	auipc	a5,0x5c
ffffffc050202ef2:	8ea78793          	addi	a5,a5,-1814 # ffffffc05025e7d8 <syscall>
ffffffc050202ef6:	00003717          	auipc	a4,0x3
ffffffc050202efa:	31e70713          	addi	a4,a4,798 # ffffffc050206214 <get_page_addr>
ffffffc050202efe:	1ee7b423          	sd	a4,488(a5)
ffffffc050202f02:	0005c797          	auipc	a5,0x5c
ffffffc050202f06:	8d678793          	addi	a5,a5,-1834 # ffffffc05025e7d8 <syscall>
ffffffc050202f0a:	00003717          	auipc	a4,0x3
ffffffc050202f0e:	3d670713          	addi	a4,a4,982 # ffffffc0502062e0 <do_snapget>
ffffffc050202f12:	32e7b023          	sd	a4,800(a5)
ffffffc050202f16:	0005c797          	auipc	a5,0x5c
ffffffc050202f1a:	8c278793          	addi	a5,a5,-1854 # ffffffc05025e7d8 <syscall>
ffffffc050202f1e:	00009717          	auipc	a4,0x9
ffffffc050202f22:	b9a70713          	addi	a4,a4,-1126 # ffffffc05020bab8 <do_net_send>
ffffffc050202f26:	1ee7bc23          	sd	a4,504(a5)
ffffffc050202f2a:	0005c797          	auipc	a5,0x5c
ffffffc050202f2e:	8ae78793          	addi	a5,a5,-1874 # ffffffc05025e7d8 <syscall>
ffffffc050202f32:	00009717          	auipc	a4,0x9
ffffffc050202f36:	bba70713          	addi	a4,a4,-1094 # ffffffc05020baec <do_net_recv>
ffffffc050202f3a:	20e7b023          	sd	a4,512(a5)
ffffffc050202f3e:	0005c797          	auipc	a5,0x5c
ffffffc050202f42:	89a78793          	addi	a5,a5,-1894 # ffffffc05025e7d8 <syscall>
ffffffc050202f46:	00006717          	auipc	a4,0x6
ffffffc050202f4a:	30c70713          	addi	a4,a4,780 # ffffffc050209252 <do_mkfs>
ffffffc050202f4e:	20e7b423          	sd	a4,520(a5)
ffffffc050202f52:	0005c797          	auipc	a5,0x5c
ffffffc050202f56:	88678793          	addi	a5,a5,-1914 # ffffffc05025e7d8 <syscall>
ffffffc050202f5a:	00007717          	auipc	a4,0x7
ffffffc050202f5e:	82c70713          	addi	a4,a4,-2004 # ffffffc050209786 <do_ls>
ffffffc050202f62:	22e7b823          	sd	a4,560(a5)
ffffffc050202f66:	0005c797          	auipc	a5,0x5c
ffffffc050202f6a:	87278793          	addi	a5,a5,-1934 # ffffffc05025e7d8 <syscall>
ffffffc050202f6e:	00006717          	auipc	a4,0x6
ffffffc050202f72:	73270713          	addi	a4,a4,1842 # ffffffc0502096a0 <do_mkdir>
ffffffc050202f76:	22e7b023          	sd	a4,544(a5)
ffffffc050202f7a:	0005c797          	auipc	a5,0x5c
ffffffc050202f7e:	85e78793          	addi	a5,a5,-1954 # ffffffc05025e7d8 <syscall>
ffffffc050202f82:	00006717          	auipc	a4,0x6
ffffffc050202f86:	7b870713          	addi	a4,a4,1976 # ffffffc05020973a <do_rmdir>
ffffffc050202f8a:	22e7b423          	sd	a4,552(a5)
ffffffc050202f8e:	0005c797          	auipc	a5,0x5c
ffffffc050202f92:	84a78793          	addi	a5,a5,-1974 # ffffffc05025e7d8 <syscall>
ffffffc050202f96:	00006717          	auipc	a4,0x6
ffffffc050202f9a:	5e070713          	addi	a4,a4,1504 # ffffffc050209576 <do_cd>
ffffffc050202f9e:	20e7bc23          	sd	a4,536(a5)
ffffffc050202fa2:	0005c797          	auipc	a5,0x5c
ffffffc050202fa6:	83678793          	addi	a5,a5,-1994 # ffffffc05025e7d8 <syscall>
ffffffc050202faa:	00006717          	auipc	a4,0x6
ffffffc050202fae:	51e70713          	addi	a4,a4,1310 # ffffffc0502094c8 <do_statfs>
ffffffc050202fb2:	20e7b823          	sd	a4,528(a5)
ffffffc050202fb6:	0005c797          	auipc	a5,0x5c
ffffffc050202fba:	82278793          	addi	a5,a5,-2014 # ffffffc05025e7d8 <syscall>
ffffffc050202fbe:	00007717          	auipc	a4,0x7
ffffffc050202fc2:	9ee70713          	addi	a4,a4,-1554 # ffffffc0502099ac <do_touch>
ffffffc050202fc6:	22e7bc23          	sd	a4,568(a5)
ffffffc050202fca:	0005c797          	auipc	a5,0x5c
ffffffc050202fce:	80e78793          	addi	a5,a5,-2034 # ffffffc05025e7d8 <syscall>
ffffffc050202fd2:	00007717          	auipc	a4,0x7
ffffffc050202fd6:	a3270713          	addi	a4,a4,-1486 # ffffffc050209a04 <do_cat>
ffffffc050202fda:	24e7b023          	sd	a4,576(a5)
ffffffc050202fde:	0005b797          	auipc	a5,0x5b
ffffffc050202fe2:	7fa78793          	addi	a5,a5,2042 # ffffffc05025e7d8 <syscall>
ffffffc050202fe6:	00007717          	auipc	a4,0x7
ffffffc050202fea:	a8c70713          	addi	a4,a4,-1396 # ffffffc050209a72 <do_fopen>
ffffffc050202fee:	24e7b423          	sd	a4,584(a5)
ffffffc050202ff2:	0005b797          	auipc	a5,0x5b
ffffffc050202ff6:	7e678793          	addi	a5,a5,2022 # ffffffc05025e7d8 <syscall>
ffffffc050202ffa:	00007717          	auipc	a4,0x7
ffffffc050202ffe:	b7a70713          	addi	a4,a4,-1158 # ffffffc050209b74 <do_fread>
ffffffc050203002:	24e7b823          	sd	a4,592(a5)
ffffffc050203006:	0005b797          	auipc	a5,0x5b
ffffffc05020300a:	7d278793          	addi	a5,a5,2002 # ffffffc05025e7d8 <syscall>
ffffffc05020300e:	00007717          	auipc	a4,0x7
ffffffc050203012:	c1270713          	addi	a4,a4,-1006 # ffffffc050209c20 <do_fwrite>
ffffffc050203016:	24e7bc23          	sd	a4,600(a5)
ffffffc05020301a:	0005b797          	auipc	a5,0x5b
ffffffc05020301e:	7be78793          	addi	a5,a5,1982 # ffffffc05025e7d8 <syscall>
ffffffc050203022:	00007717          	auipc	a4,0x7
ffffffc050203026:	caa70713          	addi	a4,a4,-854 # ffffffc050209ccc <do_fclose>
ffffffc05020302a:	26e7b023          	sd	a4,608(a5)
ffffffc05020302e:	0005b797          	auipc	a5,0x5b
ffffffc050203032:	7aa78793          	addi	a5,a5,1962 # ffffffc05025e7d8 <syscall>
ffffffc050203036:	00007717          	auipc	a4,0x7
ffffffc05020303a:	cc670713          	addi	a4,a4,-826 # ffffffc050209cfc <do_ln>
ffffffc05020303e:	26e7b423          	sd	a4,616(a5)
ffffffc050203042:	0005b797          	auipc	a5,0x5b
ffffffc050203046:	79678793          	addi	a5,a5,1942 # ffffffc05025e7d8 <syscall>
ffffffc05020304a:	00007717          	auipc	a4,0x7
ffffffc05020304e:	d4470713          	addi	a4,a4,-700 # ffffffc050209d8e <do_rm>
ffffffc050203052:	26e7b823          	sd	a4,624(a5)
ffffffc050203056:	0005b797          	auipc	a5,0x5b
ffffffc05020305a:	78278793          	addi	a5,a5,1922 # ffffffc05025e7d8 <syscall>
ffffffc05020305e:	00007717          	auipc	a4,0x7
ffffffc050203062:	d5070713          	addi	a4,a4,-688 # ffffffc050209dae <do_lseek>
ffffffc050203066:	26e7bc23          	sd	a4,632(a5)
ffffffc05020306a:	0005b797          	auipc	a5,0x5b
ffffffc05020306e:	76e78793          	addi	a5,a5,1902 # ffffffc05025e7d8 <syscall>
ffffffc050203072:	00009717          	auipc	a4,0x9
ffffffc050203076:	94870713          	addi	a4,a4,-1720 # ffffffc05020b9ba <do_clearSD>
ffffffc05020307a:	32e7b423          	sd	a4,808(a5)
ffffffc05020307e:	0001                	nop
ffffffc050203080:	6422                	ld	s0,8(sp)
ffffffc050203082:	0141                	addi	sp,sp,16
ffffffc050203084:	8082                	ret

ffffffc050203086 <main>:
ffffffc050203086:	7179                	addi	sp,sp,-48
ffffffc050203088:	f406                	sd	ra,40(sp)
ffffffc05020308a:	f022                	sd	s0,32(sp)
ffffffc05020308c:	1800                	addi	s0,sp,48
ffffffc05020308e:	95eff0ef          	jal	ra,ffffffc0502021ec <get_current_cpu_id>
ffffffc050203092:	87aa                	mv	a5,a0
ffffffc050203094:	fef43423          	sd	a5,-24(s0)
ffffffc050203098:	fe843783          	ld	a5,-24(s0)
ffffffc05020309c:	14079e63          	bnez	a5,ffffffc0502031f8 <main+0x172>
ffffffc0502030a0:	0005b797          	auipc	a5,0x5b
ffffffc0502030a4:	ba078793          	addi	a5,a5,-1120 # ffffffc05025dc40 <current_running>
ffffffc0502030a8:	0000a717          	auipc	a4,0xa
ffffffc0502030ac:	31070713          	addi	a4,a4,784 # ffffffc05020d3b8 <pid0_pcb>
ffffffc0502030b0:	e398                	sd	a4,0(a5)
ffffffc0502030b2:	0005b797          	auipc	a5,0x5b
ffffffc0502030b6:	b9678793          	addi	a5,a5,-1130 # ffffffc05025dc48 <current_running0>
ffffffc0502030ba:	0000a717          	auipc	a4,0xa
ffffffc0502030be:	2fe70713          	addi	a4,a4,766 # ffffffc05020d3b8 <pid0_pcb>
ffffffc0502030c2:	e398                	sd	a4,0(a5)
ffffffc0502030c4:	df2ff0ef          	jal	ra,ffffffc0502026b6 <init_jmptab>
ffffffc0502030c8:	f82ff0ef          	jal	ra,ffffffc05020284a <init_task_info>
ffffffc0502030cc:	53f020ef          	jal	ra,ffffffc050205e0a <init_shmpage>
ffffffc0502030d0:	4501                	li	a0,0
ffffffc0502030d2:	dbaff0ef          	jal	ra,ffffffc05020268c <bios_read_fdt>
ffffffc0502030d6:	872a                	mv	a4,a0
ffffffc0502030d8:	0000a797          	auipc	a5,0xa
ffffffc0502030dc:	56078793          	addi	a5,a5,1376 # ffffffc05020d638 <time_base>
ffffffc0502030e0:	e398                	sd	a4,0(a5)
ffffffc0502030e2:	4509                	li	a0,2
ffffffc0502030e4:	da8ff0ef          	jal	ra,ffffffc05020268c <bios_read_fdt>
ffffffc0502030e8:	87aa                	mv	a5,a0
ffffffc0502030ea:	873e                	mv	a4,a5
ffffffc0502030ec:	00056797          	auipc	a5,0x56
ffffffc0502030f0:	3dc78793          	addi	a5,a5,988 # ffffffc0502594c8 <e1000>
ffffffc0502030f4:	e398                	sd	a4,0(a5)
ffffffc0502030f6:	450d                	li	a0,3
ffffffc0502030f8:	d94ff0ef          	jal	ra,ffffffc05020268c <bios_read_fdt>
ffffffc0502030fc:	fea43023          	sd	a0,-32(s0)
ffffffc050203100:	4511                	li	a0,4
ffffffc050203102:	d8aff0ef          	jal	ra,ffffffc05020268c <bios_read_fdt>
ffffffc050203106:	87aa                	mv	a5,a0
ffffffc050203108:	fcf42e23          	sw	a5,-36(s0)
ffffffc05020310c:	00056797          	auipc	a5,0x56
ffffffc050203110:	3bc78793          	addi	a5,a5,956 # ffffffc0502594c8 <e1000>
ffffffc050203114:	639c                	ld	a5,0(a5)
ffffffc050203116:	fdc42703          	lw	a4,-36(s0)
ffffffc05020311a:	86ba                	mv	a3,a4
ffffffc05020311c:	fe043603          	ld	a2,-32(s0)
ffffffc050203120:	85be                	mv	a1,a5
ffffffc050203122:	00009517          	auipc	a0,0x9
ffffffc050203126:	7d650513          	addi	a0,a0,2006 # ffffffc05020c8f8 <strcat+0x92>
ffffffc05020312a:	2c0090ef          	jal	ra,ffffffc05020c3ea <printk>
ffffffc05020312e:	040005b7          	lui	a1,0x4000
ffffffc050203132:	fe043503          	ld	a0,-32(s0)
ffffffc050203136:	66a030ef          	jal	ra,ffffffc0502067a0 <ioremap>
ffffffc05020313a:	87aa                	mv	a5,a0
ffffffc05020313c:	fef43023          	sd	a5,-32(s0)
ffffffc050203140:	00056797          	auipc	a5,0x56
ffffffc050203144:	38878793          	addi	a5,a5,904 # ffffffc0502594c8 <e1000>
ffffffc050203148:	639c                	ld	a5,0(a5)
ffffffc05020314a:	65a1                	lui	a1,0x8
ffffffc05020314c:	853e                	mv	a0,a5
ffffffc05020314e:	652030ef          	jal	ra,ffffffc0502067a0 <ioremap>
ffffffc050203152:	872a                	mv	a4,a0
ffffffc050203154:	00056797          	auipc	a5,0x56
ffffffc050203158:	37478793          	addi	a5,a5,884 # ffffffc0502594c8 <e1000>
ffffffc05020315c:	e398                	sd	a4,0(a5)
ffffffc05020315e:	00009517          	auipc	a0,0x9
ffffffc050203162:	7da50513          	addi	a0,a0,2010 # ffffffc05020c938 <strcat+0xd2>
ffffffc050203166:	284090ef          	jal	ra,ffffffc05020c3ea <printk>
ffffffc05020316a:	726030ef          	jal	ra,ffffffc050206890 <init_locks>
ffffffc05020316e:	00009517          	auipc	a0,0x9
ffffffc050203172:	7fa50513          	addi	a0,a0,2042 # ffffffc05020c968 <strcat+0x102>
ffffffc050203176:	274090ef          	jal	ra,ffffffc05020c3ea <printk>
ffffffc05020317a:	1f9010ef          	jal	ra,ffffffc050204b72 <init_exception>
ffffffc05020317e:	0000a517          	auipc	a0,0xa
ffffffc050203182:	82250513          	addi	a0,a0,-2014 # ffffffc05020c9a0 <strcat+0x13a>
ffffffc050203186:	264090ef          	jal	ra,ffffffc05020c3ea <printk>
ffffffc05020318a:	fdc42783          	lw	a5,-36(s0)
ffffffc05020318e:	85be                	mv	a1,a5
ffffffc050203190:	fe043503          	ld	a0,-32(s0)
ffffffc050203194:	614010ef          	jal	ra,ffffffc0502047a8 <plic_init>
ffffffc050203198:	fdc42783          	lw	a5,-36(s0)
ffffffc05020319c:	863e                	mv	a2,a5
ffffffc05020319e:	fe043583          	ld	a1,-32(s0)
ffffffc0502031a2:	0000a517          	auipc	a0,0xa
ffffffc0502031a6:	83e50513          	addi	a0,a0,-1986 # ffffffc05020c9e0 <strcat+0x17a>
ffffffc0502031aa:	240090ef          	jal	ra,ffffffc05020c3ea <printk>
ffffffc0502031ae:	0000a517          	auipc	a0,0xa
ffffffc0502031b2:	87a50513          	addi	a0,a0,-1926 # ffffffc05020ca28 <strcat+0x1c2>
ffffffc0502031b6:	80dff0ef          	jal	ra,ffffffc0502029c2 <init_pcb>
ffffffc0502031ba:	098060ef          	jal	ra,ffffffc050209252 <do_mkfs>
ffffffc0502031be:	791000ef          	jal	ra,ffffffc05020414e <e1000_init>
ffffffc0502031c2:	0000a517          	auipc	a0,0xa
ffffffc0502031c6:	86e50513          	addi	a0,a0,-1938 # ffffffc05020ca30 <strcat+0x1ca>
ffffffc0502031ca:	220090ef          	jal	ra,ffffffc05020c3ea <printk>
ffffffc0502031ce:	a91ff0ef          	jal	ra,ffffffc050202c5e <init_syscall>
ffffffc0502031d2:	0000a517          	auipc	a0,0xa
ffffffc0502031d6:	89650513          	addi	a0,a0,-1898 # ffffffc05020ca68 <strcat+0x202>
ffffffc0502031da:	210090ef          	jal	ra,ffffffc05020c3ea <printk>
ffffffc0502031de:	3cc000ef          	jal	ra,ffffffc0502035aa <init_screen>
ffffffc0502031e2:	0000a517          	auipc	a0,0xa
ffffffc0502031e6:	8b650513          	addi	a0,a0,-1866 # ffffffc05020ca98 <strcat+0x232>
ffffffc0502031ea:	200090ef          	jal	ra,ffffffc05020c3ea <printk>
ffffffc0502031ee:	2da040ef          	jal	ra,ffffffc0502074c8 <lock_kernel>
ffffffc0502031f2:	e37fe0ef          	jal	ra,ffffffc050202028 <enable_preempt>
ffffffc0502031f6:	a005                	j	ffffffc050203216 <main+0x190>
ffffffc0502031f8:	2d0040ef          	jal	ra,ffffffc0502074c8 <lock_kernel>
ffffffc0502031fc:	fd9fe0ef          	jal	ra,ffffffc0502021d4 <setup_exception>
ffffffc050203200:	0005b797          	auipc	a5,0x5b
ffffffc050203204:	5d078793          	addi	a5,a5,1488 # ffffffc05025e7d0 <current_running1>
ffffffc050203208:	0000a717          	auipc	a4,0xa
ffffffc05020320c:	26870713          	addi	a4,a4,616 # ffffffc05020d470 <pid1_pcb>
ffffffc050203210:	e398                	sd	a4,0(a5)
ffffffc050203212:	e17fe0ef          	jal	ra,ffffffc050202028 <enable_preempt>
ffffffc050203216:	616040ef          	jal	ra,ffffffc05020782c <do_scheduler>
ffffffc05020321a:	2e8040ef          	jal	ra,ffffffc050207502 <unlock_kernel>
ffffffc05020321e:	2aa040ef          	jal	ra,ffffffc0502074c8 <lock_kernel>
ffffffc050203222:	bfd5                	j	ffffffc050203216 <main+0x190>

ffffffc050203224 <call_bios>:
ffffffc050203224:	715d                	addi	sp,sp,-80
ffffffc050203226:	e486                	sd	ra,72(sp)
ffffffc050203228:	e0a2                	sd	s0,64(sp)
ffffffc05020322a:	0880                	addi	s0,sp,80
ffffffc05020322c:	fca43c23          	sd	a0,-40(s0)
ffffffc050203230:	fcb43823          	sd	a1,-48(s0)
ffffffc050203234:	fcc43423          	sd	a2,-56(s0)
ffffffc050203238:	fcd43023          	sd	a3,-64(s0)
ffffffc05020323c:	fae43c23          	sd	a4,-72(s0)
ffffffc050203240:	faf43823          	sd	a5,-80(s0)
ffffffc050203244:	ffc057b7          	lui	a5,0xffc05
ffffffc050203248:	07d5                	addi	a5,a5,21
ffffffc05020324a:	07c2                	slli	a5,a5,0x10
ffffffc05020324c:	fef43423          	sd	a5,-24(s0)
ffffffc050203250:	fe843803          	ld	a6,-24(s0)
ffffffc050203254:	fb043783          	ld	a5,-80(s0)
ffffffc050203258:	fb843703          	ld	a4,-72(s0)
ffffffc05020325c:	fc043683          	ld	a3,-64(s0)
ffffffc050203260:	fc843603          	ld	a2,-56(s0)
ffffffc050203264:	fd043583          	ld	a1,-48(s0)
ffffffc050203268:	fd843503          	ld	a0,-40(s0)
ffffffc05020326c:	9802                	jalr	a6
ffffffc05020326e:	87aa                	mv	a5,a0
ffffffc050203270:	853e                	mv	a0,a5
ffffffc050203272:	60a6                	ld	ra,72(sp)
ffffffc050203274:	6406                	ld	s0,64(sp)
ffffffc050203276:	6161                	addi	sp,sp,80
ffffffc050203278:	8082                	ret

ffffffc05020327a <port_write_ch>:
ffffffc05020327a:	1101                	addi	sp,sp,-32
ffffffc05020327c:	ec06                	sd	ra,24(sp)
ffffffc05020327e:	e822                	sd	s0,16(sp)
ffffffc050203280:	1000                	addi	s0,sp,32
ffffffc050203282:	87aa                	mv	a5,a0
ffffffc050203284:	fef407a3          	sb	a5,-17(s0)
ffffffc050203288:	fef44583          	lbu	a1,-17(s0)
ffffffc05020328c:	4781                	li	a5,0
ffffffc05020328e:	4701                	li	a4,0
ffffffc050203290:	4681                	li	a3,0
ffffffc050203292:	4601                	li	a2,0
ffffffc050203294:	4505                	li	a0,1
ffffffc050203296:	f8fff0ef          	jal	ra,ffffffc050203224 <call_bios>
ffffffc05020329a:	0001                	nop
ffffffc05020329c:	60e2                	ld	ra,24(sp)
ffffffc05020329e:	6442                	ld	s0,16(sp)
ffffffc0502032a0:	6105                	addi	sp,sp,32
ffffffc0502032a2:	8082                	ret

ffffffc0502032a4 <port_write>:
ffffffc0502032a4:	1101                	addi	sp,sp,-32
ffffffc0502032a6:	ec06                	sd	ra,24(sp)
ffffffc0502032a8:	e822                	sd	s0,16(sp)
ffffffc0502032aa:	1000                	addi	s0,sp,32
ffffffc0502032ac:	fea43423          	sd	a0,-24(s0)
ffffffc0502032b0:	fe843583          	ld	a1,-24(s0)
ffffffc0502032b4:	4781                	li	a5,0
ffffffc0502032b6:	4701                	li	a4,0
ffffffc0502032b8:	4681                	li	a3,0
ffffffc0502032ba:	4601                	li	a2,0
ffffffc0502032bc:	4525                	li	a0,9
ffffffc0502032be:	f67ff0ef          	jal	ra,ffffffc050203224 <call_bios>
ffffffc0502032c2:	0001                	nop
ffffffc0502032c4:	60e2                	ld	ra,24(sp)
ffffffc0502032c6:	6442                	ld	s0,16(sp)
ffffffc0502032c8:	6105                	addi	sp,sp,32
ffffffc0502032ca:	8082                	ret

ffffffc0502032cc <port_read_ch>:
ffffffc0502032cc:	1141                	addi	sp,sp,-16
ffffffc0502032ce:	e406                	sd	ra,8(sp)
ffffffc0502032d0:	e022                	sd	s0,0(sp)
ffffffc0502032d2:	0800                	addi	s0,sp,16
ffffffc0502032d4:	4781                	li	a5,0
ffffffc0502032d6:	4701                	li	a4,0
ffffffc0502032d8:	4681                	li	a3,0
ffffffc0502032da:	4601                	li	a2,0
ffffffc0502032dc:	4581                	li	a1,0
ffffffc0502032de:	4509                	li	a0,2
ffffffc0502032e0:	f45ff0ef          	jal	ra,ffffffc050203224 <call_bios>
ffffffc0502032e4:	87aa                	mv	a5,a0
ffffffc0502032e6:	2781                	sext.w	a5,a5
ffffffc0502032e8:	853e                	mv	a0,a5
ffffffc0502032ea:	60a2                	ld	ra,8(sp)
ffffffc0502032ec:	6402                	ld	s0,0(sp)
ffffffc0502032ee:	0141                	addi	sp,sp,16
ffffffc0502032f0:	8082                	ret

ffffffc0502032f2 <sd_read>:
ffffffc0502032f2:	1101                	addi	sp,sp,-32
ffffffc0502032f4:	ec06                	sd	ra,24(sp)
ffffffc0502032f6:	e822                	sd	s0,16(sp)
ffffffc0502032f8:	1000                	addi	s0,sp,32
ffffffc0502032fa:	87aa                	mv	a5,a0
ffffffc0502032fc:	86ae                	mv	a3,a1
ffffffc0502032fe:	8732                	mv	a4,a2
ffffffc050203300:	fef42623          	sw	a5,-20(s0)
ffffffc050203304:	87b6                	mv	a5,a3
ffffffc050203306:	fef42423          	sw	a5,-24(s0)
ffffffc05020330a:	87ba                	mv	a5,a4
ffffffc05020330c:	fef42223          	sw	a5,-28(s0)
ffffffc050203310:	fec46583          	lwu	a1,-20(s0)
ffffffc050203314:	fe846603          	lwu	a2,-24(s0)
ffffffc050203318:	fe446683          	lwu	a3,-28(s0)
ffffffc05020331c:	4781                	li	a5,0
ffffffc05020331e:	4701                	li	a4,0
ffffffc050203320:	452d                	li	a0,11
ffffffc050203322:	f03ff0ef          	jal	ra,ffffffc050203224 <call_bios>
ffffffc050203326:	87aa                	mv	a5,a0
ffffffc050203328:	2781                	sext.w	a5,a5
ffffffc05020332a:	853e                	mv	a0,a5
ffffffc05020332c:	60e2                	ld	ra,24(sp)
ffffffc05020332e:	6442                	ld	s0,16(sp)
ffffffc050203330:	6105                	addi	sp,sp,32
ffffffc050203332:	8082                	ret

ffffffc050203334 <sd_write>:
ffffffc050203334:	1101                	addi	sp,sp,-32
ffffffc050203336:	ec06                	sd	ra,24(sp)
ffffffc050203338:	e822                	sd	s0,16(sp)
ffffffc05020333a:	1000                	addi	s0,sp,32
ffffffc05020333c:	87aa                	mv	a5,a0
ffffffc05020333e:	86ae                	mv	a3,a1
ffffffc050203340:	8732                	mv	a4,a2
ffffffc050203342:	fef42623          	sw	a5,-20(s0)
ffffffc050203346:	87b6                	mv	a5,a3
ffffffc050203348:	fef42423          	sw	a5,-24(s0)
ffffffc05020334c:	87ba                	mv	a5,a4
ffffffc05020334e:	fef42223          	sw	a5,-28(s0)
ffffffc050203352:	fec46583          	lwu	a1,-20(s0)
ffffffc050203356:	fe846603          	lwu	a2,-24(s0)
ffffffc05020335a:	fe446683          	lwu	a3,-28(s0)
ffffffc05020335e:	4781                	li	a5,0
ffffffc050203360:	4701                	li	a4,0
ffffffc050203362:	4529                	li	a0,10
ffffffc050203364:	ec1ff0ef          	jal	ra,ffffffc050203224 <call_bios>
ffffffc050203368:	87aa                	mv	a5,a0
ffffffc05020336a:	2781                	sext.w	a5,a5
ffffffc05020336c:	853e                	mv	a0,a5
ffffffc05020336e:	60e2                	ld	ra,24(sp)
ffffffc050203370:	6442                	ld	s0,16(sp)
ffffffc050203372:	6105                	addi	sp,sp,32
ffffffc050203374:	8082                	ret

ffffffc050203376 <set_timer>:
ffffffc050203376:	1101                	addi	sp,sp,-32
ffffffc050203378:	ec06                	sd	ra,24(sp)
ffffffc05020337a:	e822                	sd	s0,16(sp)
ffffffc05020337c:	1000                	addi	s0,sp,32
ffffffc05020337e:	fea43423          	sd	a0,-24(s0)
ffffffc050203382:	fe843583          	ld	a1,-24(s0)
ffffffc050203386:	4781                	li	a5,0
ffffffc050203388:	4701                	li	a4,0
ffffffc05020338a:	4681                	li	a3,0
ffffffc05020338c:	4601                	li	a2,0
ffffffc05020338e:	4501                	li	a0,0
ffffffc050203390:	e95ff0ef          	jal	ra,ffffffc050203224 <call_bios>
ffffffc050203394:	0001                	nop
ffffffc050203396:	60e2                	ld	ra,24(sp)
ffffffc050203398:	6442                	ld	s0,16(sp)
ffffffc05020339a:	6105                	addi	sp,sp,32
ffffffc05020339c:	8082                	ret

ffffffc05020339e <read_fdt>:
ffffffc05020339e:	1101                	addi	sp,sp,-32
ffffffc0502033a0:	ec06                	sd	ra,24(sp)
ffffffc0502033a2:	e822                	sd	s0,16(sp)
ffffffc0502033a4:	1000                	addi	s0,sp,32
ffffffc0502033a6:	87aa                	mv	a5,a0
ffffffc0502033a8:	fef42623          	sw	a5,-20(s0)
ffffffc0502033ac:	fec46583          	lwu	a1,-20(s0)
ffffffc0502033b0:	4781                	li	a5,0
ffffffc0502033b2:	4701                	li	a4,0
ffffffc0502033b4:	4681                	li	a3,0
ffffffc0502033b6:	4601                	li	a2,0
ffffffc0502033b8:	4531                	li	a0,12
ffffffc0502033ba:	e6bff0ef          	jal	ra,ffffffc050203224 <call_bios>
ffffffc0502033be:	87aa                	mv	a5,a0
ffffffc0502033c0:	853e                	mv	a0,a5
ffffffc0502033c2:	60e2                	ld	ra,24(sp)
ffffffc0502033c4:	6442                	ld	s0,16(sp)
ffffffc0502033c6:	6105                	addi	sp,sp,32
ffffffc0502033c8:	8082                	ret

ffffffc0502033ca <qemu_logging>:
ffffffc0502033ca:	1101                	addi	sp,sp,-32
ffffffc0502033cc:	ec06                	sd	ra,24(sp)
ffffffc0502033ce:	e822                	sd	s0,16(sp)
ffffffc0502033d0:	1000                	addi	s0,sp,32
ffffffc0502033d2:	fea43423          	sd	a0,-24(s0)
ffffffc0502033d6:	fe843583          	ld	a1,-24(s0)
ffffffc0502033da:	4781                	li	a5,0
ffffffc0502033dc:	4701                	li	a4,0
ffffffc0502033de:	4681                	li	a3,0
ffffffc0502033e0:	4601                	li	a2,0
ffffffc0502033e2:	4539                	li	a0,14
ffffffc0502033e4:	e41ff0ef          	jal	ra,ffffffc050203224 <call_bios>
ffffffc0502033e8:	0001                	nop
ffffffc0502033ea:	60e2                	ld	ra,24(sp)
ffffffc0502033ec:	6442                	ld	s0,16(sp)
ffffffc0502033ee:	6105                	addi	sp,sp,32
ffffffc0502033f0:	8082                	ret

ffffffc0502033f2 <send_ipi>:
ffffffc0502033f2:	1101                	addi	sp,sp,-32
ffffffc0502033f4:	ec06                	sd	ra,24(sp)
ffffffc0502033f6:	e822                	sd	s0,16(sp)
ffffffc0502033f8:	1000                	addi	s0,sp,32
ffffffc0502033fa:	fea43423          	sd	a0,-24(s0)
ffffffc0502033fe:	fe843583          	ld	a1,-24(s0)
ffffffc050203402:	4781                	li	a5,0
ffffffc050203404:	4701                	li	a4,0
ffffffc050203406:	4681                	li	a3,0
ffffffc050203408:	4601                	li	a2,0
ffffffc05020340a:	4511                	li	a0,4
ffffffc05020340c:	e19ff0ef          	jal	ra,ffffffc050203224 <call_bios>
ffffffc050203410:	0001                	nop
ffffffc050203412:	60e2                	ld	ra,24(sp)
ffffffc050203414:	6442                	ld	s0,16(sp)
ffffffc050203416:	6105                	addi	sp,sp,32
ffffffc050203418:	8082                	ret

ffffffc05020341a <call_jmptab>:
ffffffc05020341a:	7139                	addi	sp,sp,-64
ffffffc05020341c:	fc06                	sd	ra,56(sp)
ffffffc05020341e:	f822                	sd	s0,48(sp)
ffffffc050203420:	0080                	addi	s0,sp,64
ffffffc050203422:	fca43c23          	sd	a0,-40(s0)
ffffffc050203426:	fcb43823          	sd	a1,-48(s0)
ffffffc05020342a:	fcc43423          	sd	a2,-56(s0)
ffffffc05020342e:	fcd43023          	sd	a3,-64(s0)
ffffffc050203432:	fd843783          	ld	a5,-40(s0)
ffffffc050203436:	00379713          	slli	a4,a5,0x3
ffffffc05020343a:	fe0297b7          	lui	a5,0xfe029
ffffffc05020343e:	07b6                	slli	a5,a5,0xd
ffffffc050203440:	f0078793          	addi	a5,a5,-256 # fffffffffe028f00 <__BSS_END__+0x3faddca428>
ffffffc050203444:	97ba                	add	a5,a5,a4
ffffffc050203446:	639c                	ld	a5,0(a5)
ffffffc050203448:	fef43423          	sd	a5,-24(s0)
ffffffc05020344c:	fe843783          	ld	a5,-24(s0)
ffffffc050203450:	fef43023          	sd	a5,-32(s0)
ffffffc050203454:	fe043783          	ld	a5,-32(s0)
ffffffc050203458:	fc043603          	ld	a2,-64(s0)
ffffffc05020345c:	fc843583          	ld	a1,-56(s0)
ffffffc050203460:	fd043503          	ld	a0,-48(s0)
ffffffc050203464:	9782                	jalr	a5
ffffffc050203466:	87aa                	mv	a5,a0
ffffffc050203468:	853e                	mv	a0,a5
ffffffc05020346a:	70e2                	ld	ra,56(sp)
ffffffc05020346c:	7442                	ld	s0,48(sp)
ffffffc05020346e:	6121                	addi	sp,sp,64
ffffffc050203470:	8082                	ret

ffffffc050203472 <bios_putchar>:
ffffffc050203472:	1101                	addi	sp,sp,-32
ffffffc050203474:	ec06                	sd	ra,24(sp)
ffffffc050203476:	e822                	sd	s0,16(sp)
ffffffc050203478:	1000                	addi	s0,sp,32
ffffffc05020347a:	87aa                	mv	a5,a0
ffffffc05020347c:	fef42623          	sw	a5,-20(s0)
ffffffc050203480:	fec42783          	lw	a5,-20(s0)
ffffffc050203484:	4681                	li	a3,0
ffffffc050203486:	4601                	li	a2,0
ffffffc050203488:	85be                	mv	a1,a5
ffffffc05020348a:	4505                	li	a0,1
ffffffc05020348c:	f8fff0ef          	jal	ra,ffffffc05020341a <call_jmptab>
ffffffc050203490:	0001                	nop
ffffffc050203492:	60e2                	ld	ra,24(sp)
ffffffc050203494:	6442                	ld	s0,16(sp)
ffffffc050203496:	6105                	addi	sp,sp,32
ffffffc050203498:	8082                	ret

ffffffc05020349a <vt100_move_cursor>:
ffffffc05020349a:	1101                	addi	sp,sp,-32
ffffffc05020349c:	ec06                	sd	ra,24(sp)
ffffffc05020349e:	e822                	sd	s0,16(sp)
ffffffc0502034a0:	1000                	addi	s0,sp,32
ffffffc0502034a2:	87aa                	mv	a5,a0
ffffffc0502034a4:	872e                	mv	a4,a1
ffffffc0502034a6:	fef42623          	sw	a5,-20(s0)
ffffffc0502034aa:	87ba                	mv	a5,a4
ffffffc0502034ac:	fef42423          	sw	a5,-24(s0)
ffffffc0502034b0:	fec42703          	lw	a4,-20(s0)
ffffffc0502034b4:	fe842783          	lw	a5,-24(s0)
ffffffc0502034b8:	86ba                	mv	a3,a4
ffffffc0502034ba:	863e                	mv	a2,a5
ffffffc0502034bc:	45ed                	li	a1,27
ffffffc0502034be:	00009517          	auipc	a0,0x9
ffffffc0502034c2:	60a50513          	addi	a0,a0,1546 # ffffffc05020cac8 <strcat+0x262>
ffffffc0502034c6:	7ad080ef          	jal	ra,ffffffc05020c472 <printv>
ffffffc0502034ca:	0001                	nop
ffffffc0502034cc:	60e2                	ld	ra,24(sp)
ffffffc0502034ce:	6442                	ld	s0,16(sp)
ffffffc0502034d0:	6105                	addi	sp,sp,32
ffffffc0502034d2:	8082                	ret

ffffffc0502034d4 <vt100_clear>:
ffffffc0502034d4:	1141                	addi	sp,sp,-16
ffffffc0502034d6:	e406                	sd	ra,8(sp)
ffffffc0502034d8:	e022                	sd	s0,0(sp)
ffffffc0502034da:	0800                	addi	s0,sp,16
ffffffc0502034dc:	45ed                	li	a1,27
ffffffc0502034de:	00009517          	auipc	a0,0x9
ffffffc0502034e2:	5fa50513          	addi	a0,a0,1530 # ffffffc05020cad8 <strcat+0x272>
ffffffc0502034e6:	78d080ef          	jal	ra,ffffffc05020c472 <printv>
ffffffc0502034ea:	0001                	nop
ffffffc0502034ec:	60a2                	ld	ra,8(sp)
ffffffc0502034ee:	6402                	ld	s0,0(sp)
ffffffc0502034f0:	0141                	addi	sp,sp,16
ffffffc0502034f2:	8082                	ret

ffffffc0502034f4 <vt100_hidden_cursor>:
ffffffc0502034f4:	1141                	addi	sp,sp,-16
ffffffc0502034f6:	e406                	sd	ra,8(sp)
ffffffc0502034f8:	e022                	sd	s0,0(sp)
ffffffc0502034fa:	0800                	addi	s0,sp,16
ffffffc0502034fc:	45ed                	li	a1,27
ffffffc0502034fe:	00009517          	auipc	a0,0x9
ffffffc050203502:	5e250513          	addi	a0,a0,1506 # ffffffc05020cae0 <strcat+0x27a>
ffffffc050203506:	76d080ef          	jal	ra,ffffffc05020c472 <printv>
ffffffc05020350a:	0001                	nop
ffffffc05020350c:	60a2                	ld	ra,8(sp)
ffffffc05020350e:	6402                	ld	s0,0(sp)
ffffffc050203510:	0141                	addi	sp,sp,16
ffffffc050203512:	8082                	ret

ffffffc050203514 <screen_write_ch>:
ffffffc050203514:	1101                	addi	sp,sp,-32
ffffffc050203516:	ec22                	sd	s0,24(sp)
ffffffc050203518:	1000                	addi	s0,sp,32
ffffffc05020351a:	87aa                	mv	a5,a0
ffffffc05020351c:	fef407a3          	sb	a5,-17(s0)
ffffffc050203520:	fef44783          	lbu	a5,-17(s0)
ffffffc050203524:	0ff7f713          	andi	a4,a5,255
ffffffc050203528:	47a9                	li	a5,10
ffffffc05020352a:	02f71363          	bne	a4,a5,ffffffc050203550 <screen_write_ch+0x3c>
ffffffc05020352e:	0005a797          	auipc	a5,0x5a
ffffffc050203532:	71278793          	addi	a5,a5,1810 # ffffffc05025dc40 <current_running>
ffffffc050203536:	639c                	ld	a5,0(a5)
ffffffc050203538:	0407a023          	sw	zero,64(a5)
ffffffc05020353c:	0005a797          	auipc	a5,0x5a
ffffffc050203540:	70478793          	addi	a5,a5,1796 # ffffffc05025dc40 <current_running>
ffffffc050203544:	639c                	ld	a5,0(a5)
ffffffc050203546:	43f8                	lw	a4,68(a5)
ffffffc050203548:	2705                	addiw	a4,a4,1
ffffffc05020354a:	2701                	sext.w	a4,a4
ffffffc05020354c:	c3f8                	sw	a4,68(a5)
ffffffc05020354e:	a891                	j	ffffffc0502035a2 <screen_write_ch+0x8e>
ffffffc050203550:	0005a797          	auipc	a5,0x5a
ffffffc050203554:	6f078793          	addi	a5,a5,1776 # ffffffc05025dc40 <current_running>
ffffffc050203558:	639c                	ld	a5,0(a5)
ffffffc05020355a:	43fc                	lw	a5,68(a5)
ffffffc05020355c:	873e                	mv	a4,a5
ffffffc05020355e:	87ba                	mv	a5,a4
ffffffc050203560:	0027979b          	slliw	a5,a5,0x2
ffffffc050203564:	9fb9                	addw	a5,a5,a4
ffffffc050203566:	0047979b          	slliw	a5,a5,0x4
ffffffc05020356a:	0007871b          	sext.w	a4,a5
ffffffc05020356e:	0005a797          	auipc	a5,0x5a
ffffffc050203572:	6d278793          	addi	a5,a5,1746 # ffffffc05025dc40 <current_running>
ffffffc050203576:	639c                	ld	a5,0(a5)
ffffffc050203578:	43bc                	lw	a5,64(a5)
ffffffc05020357a:	9fb9                	addw	a5,a5,a4
ffffffc05020357c:	2781                	sext.w	a5,a5
ffffffc05020357e:	0000a717          	auipc	a4,0xa
ffffffc050203582:	0c270713          	addi	a4,a4,194 # ffffffc05020d640 <new_screen>
ffffffc050203586:	97ba                	add	a5,a5,a4
ffffffc050203588:	fef44703          	lbu	a4,-17(s0)
ffffffc05020358c:	00e78023          	sb	a4,0(a5)
ffffffc050203590:	0005a797          	auipc	a5,0x5a
ffffffc050203594:	6b078793          	addi	a5,a5,1712 # ffffffc05025dc40 <current_running>
ffffffc050203598:	639c                	ld	a5,0(a5)
ffffffc05020359a:	43b8                	lw	a4,64(a5)
ffffffc05020359c:	2705                	addiw	a4,a4,1
ffffffc05020359e:	2701                	sext.w	a4,a4
ffffffc0502035a0:	c3b8                	sw	a4,64(a5)
ffffffc0502035a2:	0001                	nop
ffffffc0502035a4:	6462                	ld	s0,24(sp)
ffffffc0502035a6:	6105                	addi	sp,sp,32
ffffffc0502035a8:	8082                	ret

ffffffc0502035aa <init_screen>:
ffffffc0502035aa:	1141                	addi	sp,sp,-16
ffffffc0502035ac:	e406                	sd	ra,8(sp)
ffffffc0502035ae:	e022                	sd	s0,0(sp)
ffffffc0502035b0:	0800                	addi	s0,sp,16
ffffffc0502035b2:	f43ff0ef          	jal	ra,ffffffc0502034f4 <vt100_hidden_cursor>
ffffffc0502035b6:	f1fff0ef          	jal	ra,ffffffc0502034d4 <vt100_clear>
ffffffc0502035ba:	00e000ef          	jal	ra,ffffffc0502035c8 <screen_clear>
ffffffc0502035be:	0001                	nop
ffffffc0502035c0:	60a2                	ld	ra,8(sp)
ffffffc0502035c2:	6402                	ld	s0,0(sp)
ffffffc0502035c4:	0141                	addi	sp,sp,16
ffffffc0502035c6:	8082                	ret

ffffffc0502035c8 <screen_clear>:
ffffffc0502035c8:	1101                	addi	sp,sp,-32
ffffffc0502035ca:	ec06                	sd	ra,24(sp)
ffffffc0502035cc:	e822                	sd	s0,16(sp)
ffffffc0502035ce:	1000                	addi	s0,sp,32
ffffffc0502035d0:	fe042623          	sw	zero,-20(s0)
ffffffc0502035d4:	a8a1                	j	ffffffc05020362c <screen_clear+0x64>
ffffffc0502035d6:	fe042423          	sw	zero,-24(s0)
ffffffc0502035da:	a825                	j	ffffffc050203612 <screen_clear+0x4a>
ffffffc0502035dc:	fec42703          	lw	a4,-20(s0)
ffffffc0502035e0:	87ba                	mv	a5,a4
ffffffc0502035e2:	0027979b          	slliw	a5,a5,0x2
ffffffc0502035e6:	9fb9                	addw	a5,a5,a4
ffffffc0502035e8:	0047979b          	slliw	a5,a5,0x4
ffffffc0502035ec:	2781                	sext.w	a5,a5
ffffffc0502035ee:	fe842703          	lw	a4,-24(s0)
ffffffc0502035f2:	9fb9                	addw	a5,a5,a4
ffffffc0502035f4:	2781                	sext.w	a5,a5
ffffffc0502035f6:	0000a717          	auipc	a4,0xa
ffffffc0502035fa:	04a70713          	addi	a4,a4,74 # ffffffc05020d640 <new_screen>
ffffffc0502035fe:	97ba                	add	a5,a5,a4
ffffffc050203600:	02000713          	li	a4,32
ffffffc050203604:	00e78023          	sb	a4,0(a5)
ffffffc050203608:	fe842783          	lw	a5,-24(s0)
ffffffc05020360c:	2785                	addiw	a5,a5,1
ffffffc05020360e:	fef42423          	sw	a5,-24(s0)
ffffffc050203612:	fe842783          	lw	a5,-24(s0)
ffffffc050203616:	0007871b          	sext.w	a4,a5
ffffffc05020361a:	04f00793          	li	a5,79
ffffffc05020361e:	fae7dfe3          	bge	a5,a4,ffffffc0502035dc <screen_clear+0x14>
ffffffc050203622:	fec42783          	lw	a5,-20(s0)
ffffffc050203626:	2785                	addiw	a5,a5,1
ffffffc050203628:	fef42623          	sw	a5,-20(s0)
ffffffc05020362c:	fec42783          	lw	a5,-20(s0)
ffffffc050203630:	0007871b          	sext.w	a4,a5
ffffffc050203634:	03100793          	li	a5,49
ffffffc050203638:	f8e7dfe3          	bge	a5,a4,ffffffc0502035d6 <screen_clear+0xe>
ffffffc05020363c:	0005a797          	auipc	a5,0x5a
ffffffc050203640:	60478793          	addi	a5,a5,1540 # ffffffc05025dc40 <current_running>
ffffffc050203644:	639c                	ld	a5,0(a5)
ffffffc050203646:	0407a023          	sw	zero,64(a5)
ffffffc05020364a:	0005a797          	auipc	a5,0x5a
ffffffc05020364e:	5f678793          	addi	a5,a5,1526 # ffffffc05025dc40 <current_running>
ffffffc050203652:	639c                	ld	a5,0(a5)
ffffffc050203654:	0407a223          	sw	zero,68(a5)
ffffffc050203658:	0bc000ef          	jal	ra,ffffffc050203714 <screen_reflush>
ffffffc05020365c:	0001                	nop
ffffffc05020365e:	60e2                	ld	ra,24(sp)
ffffffc050203660:	6442                	ld	s0,16(sp)
ffffffc050203662:	6105                	addi	sp,sp,32
ffffffc050203664:	8082                	ret

ffffffc050203666 <screen_move_cursor>:
ffffffc050203666:	1101                	addi	sp,sp,-32
ffffffc050203668:	ec06                	sd	ra,24(sp)
ffffffc05020366a:	e822                	sd	s0,16(sp)
ffffffc05020366c:	1000                	addi	s0,sp,32
ffffffc05020366e:	87aa                	mv	a5,a0
ffffffc050203670:	872e                	mv	a4,a1
ffffffc050203672:	fef42623          	sw	a5,-20(s0)
ffffffc050203676:	87ba                	mv	a5,a4
ffffffc050203678:	fef42423          	sw	a5,-24(s0)
ffffffc05020367c:	0005a797          	auipc	a5,0x5a
ffffffc050203680:	5c478793          	addi	a5,a5,1476 # ffffffc05025dc40 <current_running>
ffffffc050203684:	639c                	ld	a5,0(a5)
ffffffc050203686:	fec42703          	lw	a4,-20(s0)
ffffffc05020368a:	c3b8                	sw	a4,64(a5)
ffffffc05020368c:	0005a797          	auipc	a5,0x5a
ffffffc050203690:	5b478793          	addi	a5,a5,1460 # ffffffc05025dc40 <current_running>
ffffffc050203694:	639c                	ld	a5,0(a5)
ffffffc050203696:	fe842703          	lw	a4,-24(s0)
ffffffc05020369a:	c3f8                	sw	a4,68(a5)
ffffffc05020369c:	fe842703          	lw	a4,-24(s0)
ffffffc0502036a0:	fec42783          	lw	a5,-20(s0)
ffffffc0502036a4:	85ba                	mv	a1,a4
ffffffc0502036a6:	853e                	mv	a0,a5
ffffffc0502036a8:	df3ff0ef          	jal	ra,ffffffc05020349a <vt100_move_cursor>
ffffffc0502036ac:	0001                	nop
ffffffc0502036ae:	60e2                	ld	ra,24(sp)
ffffffc0502036b0:	6442                	ld	s0,16(sp)
ffffffc0502036b2:	6105                	addi	sp,sp,32
ffffffc0502036b4:	8082                	ret

ffffffc0502036b6 <screen_write>:
ffffffc0502036b6:	7179                	addi	sp,sp,-48
ffffffc0502036b8:	f406                	sd	ra,40(sp)
ffffffc0502036ba:	f022                	sd	s0,32(sp)
ffffffc0502036bc:	1800                	addi	s0,sp,48
ffffffc0502036be:	fca43c23          	sd	a0,-40(s0)
ffffffc0502036c2:	fe042623          	sw	zero,-20(s0)
ffffffc0502036c6:	fd843503          	ld	a0,-40(s0)
ffffffc0502036ca:	759080ef          	jal	ra,ffffffc05020c622 <strlen>
ffffffc0502036ce:	87aa                	mv	a5,a0
ffffffc0502036d0:	fef42423          	sw	a5,-24(s0)
ffffffc0502036d4:	fe042623          	sw	zero,-20(s0)
ffffffc0502036d8:	a005                	j	ffffffc0502036f8 <screen_write+0x42>
ffffffc0502036da:	fec42783          	lw	a5,-20(s0)
ffffffc0502036de:	fd843703          	ld	a4,-40(s0)
ffffffc0502036e2:	97ba                	add	a5,a5,a4
ffffffc0502036e4:	0007c783          	lbu	a5,0(a5)
ffffffc0502036e8:	853e                	mv	a0,a5
ffffffc0502036ea:	18e000ef          	jal	ra,ffffffc050203878 <screen_putchar>
ffffffc0502036ee:	fec42783          	lw	a5,-20(s0)
ffffffc0502036f2:	2785                	addiw	a5,a5,1
ffffffc0502036f4:	fef42623          	sw	a5,-20(s0)
ffffffc0502036f8:	fec42703          	lw	a4,-20(s0)
ffffffc0502036fc:	fe842783          	lw	a5,-24(s0)
ffffffc050203700:	2701                	sext.w	a4,a4
ffffffc050203702:	2781                	sext.w	a5,a5
ffffffc050203704:	fcf74be3          	blt	a4,a5,ffffffc0502036da <screen_write+0x24>
ffffffc050203708:	0001                	nop
ffffffc05020370a:	0001                	nop
ffffffc05020370c:	70a2                	ld	ra,40(sp)
ffffffc05020370e:	7402                	ld	s0,32(sp)
ffffffc050203710:	6145                	addi	sp,sp,48
ffffffc050203712:	8082                	ret

ffffffc050203714 <screen_reflush>:
ffffffc050203714:	1101                	addi	sp,sp,-32
ffffffc050203716:	ec06                	sd	ra,24(sp)
ffffffc050203718:	e822                	sd	s0,16(sp)
ffffffc05020371a:	1000                	addi	s0,sp,32
ffffffc05020371c:	fe042623          	sw	zero,-20(s0)
ffffffc050203720:	aa39                	j	ffffffc05020383e <screen_reflush+0x12a>
ffffffc050203722:	fe042423          	sw	zero,-24(s0)
ffffffc050203726:	a8fd                	j	ffffffc050203824 <screen_reflush+0x110>
ffffffc050203728:	fec42703          	lw	a4,-20(s0)
ffffffc05020372c:	87ba                	mv	a5,a4
ffffffc05020372e:	0027979b          	slliw	a5,a5,0x2
ffffffc050203732:	9fb9                	addw	a5,a5,a4
ffffffc050203734:	0047979b          	slliw	a5,a5,0x4
ffffffc050203738:	2781                	sext.w	a5,a5
ffffffc05020373a:	fe842703          	lw	a4,-24(s0)
ffffffc05020373e:	9fb9                	addw	a5,a5,a4
ffffffc050203740:	2781                	sext.w	a5,a5
ffffffc050203742:	0000a717          	auipc	a4,0xa
ffffffc050203746:	efe70713          	addi	a4,a4,-258 # ffffffc05020d640 <new_screen>
ffffffc05020374a:	97ba                	add	a5,a5,a4
ffffffc05020374c:	0007c683          	lbu	a3,0(a5)
ffffffc050203750:	fec42703          	lw	a4,-20(s0)
ffffffc050203754:	87ba                	mv	a5,a4
ffffffc050203756:	0027979b          	slliw	a5,a5,0x2
ffffffc05020375a:	9fb9                	addw	a5,a5,a4
ffffffc05020375c:	0047979b          	slliw	a5,a5,0x4
ffffffc050203760:	2781                	sext.w	a5,a5
ffffffc050203762:	fe842703          	lw	a4,-24(s0)
ffffffc050203766:	9fb9                	addw	a5,a5,a4
ffffffc050203768:	2781                	sext.w	a5,a5
ffffffc05020376a:	0000b717          	auipc	a4,0xb
ffffffc05020376e:	e7670713          	addi	a4,a4,-394 # ffffffc05020e5e0 <old_screen>
ffffffc050203772:	97ba                	add	a5,a5,a4
ffffffc050203774:	0007c783          	lbu	a5,0(a5)
ffffffc050203778:	8736                	mv	a4,a3
ffffffc05020377a:	0af70063          	beq	a4,a5,ffffffc05020381a <screen_reflush+0x106>
ffffffc05020377e:	fe842783          	lw	a5,-24(s0)
ffffffc050203782:	2785                	addiw	a5,a5,1
ffffffc050203784:	0007871b          	sext.w	a4,a5
ffffffc050203788:	fec42783          	lw	a5,-20(s0)
ffffffc05020378c:	2785                	addiw	a5,a5,1
ffffffc05020378e:	2781                	sext.w	a5,a5
ffffffc050203790:	85be                	mv	a1,a5
ffffffc050203792:	853a                	mv	a0,a4
ffffffc050203794:	d07ff0ef          	jal	ra,ffffffc05020349a <vt100_move_cursor>
ffffffc050203798:	fec42703          	lw	a4,-20(s0)
ffffffc05020379c:	87ba                	mv	a5,a4
ffffffc05020379e:	0027979b          	slliw	a5,a5,0x2
ffffffc0502037a2:	9fb9                	addw	a5,a5,a4
ffffffc0502037a4:	0047979b          	slliw	a5,a5,0x4
ffffffc0502037a8:	2781                	sext.w	a5,a5
ffffffc0502037aa:	fe842703          	lw	a4,-24(s0)
ffffffc0502037ae:	9fb9                	addw	a5,a5,a4
ffffffc0502037b0:	2781                	sext.w	a5,a5
ffffffc0502037b2:	0000a717          	auipc	a4,0xa
ffffffc0502037b6:	e8e70713          	addi	a4,a4,-370 # ffffffc05020d640 <new_screen>
ffffffc0502037ba:	97ba                	add	a5,a5,a4
ffffffc0502037bc:	0007c783          	lbu	a5,0(a5)
ffffffc0502037c0:	2781                	sext.w	a5,a5
ffffffc0502037c2:	853e                	mv	a0,a5
ffffffc0502037c4:	cafff0ef          	jal	ra,ffffffc050203472 <bios_putchar>
ffffffc0502037c8:	fec42703          	lw	a4,-20(s0)
ffffffc0502037cc:	87ba                	mv	a5,a4
ffffffc0502037ce:	0027979b          	slliw	a5,a5,0x2
ffffffc0502037d2:	9fb9                	addw	a5,a5,a4
ffffffc0502037d4:	0047979b          	slliw	a5,a5,0x4
ffffffc0502037d8:	2781                	sext.w	a5,a5
ffffffc0502037da:	fe842703          	lw	a4,-24(s0)
ffffffc0502037de:	9fb9                	addw	a5,a5,a4
ffffffc0502037e0:	0007869b          	sext.w	a3,a5
ffffffc0502037e4:	fec42703          	lw	a4,-20(s0)
ffffffc0502037e8:	87ba                	mv	a5,a4
ffffffc0502037ea:	0027979b          	slliw	a5,a5,0x2
ffffffc0502037ee:	9fb9                	addw	a5,a5,a4
ffffffc0502037f0:	0047979b          	slliw	a5,a5,0x4
ffffffc0502037f4:	2781                	sext.w	a5,a5
ffffffc0502037f6:	fe842703          	lw	a4,-24(s0)
ffffffc0502037fa:	9fb9                	addw	a5,a5,a4
ffffffc0502037fc:	2781                	sext.w	a5,a5
ffffffc0502037fe:	0000a717          	auipc	a4,0xa
ffffffc050203802:	e4270713          	addi	a4,a4,-446 # ffffffc05020d640 <new_screen>
ffffffc050203806:	9736                	add	a4,a4,a3
ffffffc050203808:	00074703          	lbu	a4,0(a4)
ffffffc05020380c:	0000b697          	auipc	a3,0xb
ffffffc050203810:	dd468693          	addi	a3,a3,-556 # ffffffc05020e5e0 <old_screen>
ffffffc050203814:	97b6                	add	a5,a5,a3
ffffffc050203816:	00e78023          	sb	a4,0(a5)
ffffffc05020381a:	fe842783          	lw	a5,-24(s0)
ffffffc05020381e:	2785                	addiw	a5,a5,1
ffffffc050203820:	fef42423          	sw	a5,-24(s0)
ffffffc050203824:	fe842783          	lw	a5,-24(s0)
ffffffc050203828:	0007871b          	sext.w	a4,a5
ffffffc05020382c:	04f00793          	li	a5,79
ffffffc050203830:	eee7dce3          	bge	a5,a4,ffffffc050203728 <screen_reflush+0x14>
ffffffc050203834:	fec42783          	lw	a5,-20(s0)
ffffffc050203838:	2785                	addiw	a5,a5,1
ffffffc05020383a:	fef42623          	sw	a5,-20(s0)
ffffffc05020383e:	fec42783          	lw	a5,-20(s0)
ffffffc050203842:	0007871b          	sext.w	a4,a5
ffffffc050203846:	03100793          	li	a5,49
ffffffc05020384a:	ece7dce3          	bge	a5,a4,ffffffc050203722 <screen_reflush+0xe>
ffffffc05020384e:	0005a797          	auipc	a5,0x5a
ffffffc050203852:	3f278793          	addi	a5,a5,1010 # ffffffc05025dc40 <current_running>
ffffffc050203856:	639c                	ld	a5,0(a5)
ffffffc050203858:	43b8                	lw	a4,64(a5)
ffffffc05020385a:	0005a797          	auipc	a5,0x5a
ffffffc05020385e:	3e678793          	addi	a5,a5,998 # ffffffc05025dc40 <current_running>
ffffffc050203862:	639c                	ld	a5,0(a5)
ffffffc050203864:	43fc                	lw	a5,68(a5)
ffffffc050203866:	85be                	mv	a1,a5
ffffffc050203868:	853a                	mv	a0,a4
ffffffc05020386a:	c31ff0ef          	jal	ra,ffffffc05020349a <vt100_move_cursor>
ffffffc05020386e:	0001                	nop
ffffffc050203870:	60e2                	ld	ra,24(sp)
ffffffc050203872:	6442                	ld	s0,16(sp)
ffffffc050203874:	6105                	addi	sp,sp,32
ffffffc050203876:	8082                	ret

ffffffc050203878 <screen_putchar>:
ffffffc050203878:	1101                	addi	sp,sp,-32
ffffffc05020387a:	ec22                	sd	s0,24(sp)
ffffffc05020387c:	1000                	addi	s0,sp,32
ffffffc05020387e:	87aa                	mv	a5,a0
ffffffc050203880:	fef407a3          	sb	a5,-17(s0)
ffffffc050203884:	fef44783          	lbu	a5,-17(s0)
ffffffc050203888:	0ff7f713          	andi	a4,a5,255
ffffffc05020388c:	47a9                	li	a5,10
ffffffc05020388e:	02f71363          	bne	a4,a5,ffffffc0502038b4 <screen_putchar+0x3c>
ffffffc050203892:	0005a797          	auipc	a5,0x5a
ffffffc050203896:	3ae78793          	addi	a5,a5,942 # ffffffc05025dc40 <current_running>
ffffffc05020389a:	639c                	ld	a5,0(a5)
ffffffc05020389c:	0407a023          	sw	zero,64(a5)
ffffffc0502038a0:	0005a797          	auipc	a5,0x5a
ffffffc0502038a4:	3a078793          	addi	a5,a5,928 # ffffffc05025dc40 <current_running>
ffffffc0502038a8:	639c                	ld	a5,0(a5)
ffffffc0502038aa:	43f8                	lw	a4,68(a5)
ffffffc0502038ac:	2705                	addiw	a4,a4,1
ffffffc0502038ae:	2701                	sext.w	a4,a4
ffffffc0502038b0:	c3f8                	sw	a4,68(a5)
ffffffc0502038b2:	a0d9                	j	ffffffc050203978 <screen_putchar+0x100>
ffffffc0502038b4:	fef44783          	lbu	a5,-17(s0)
ffffffc0502038b8:	0ff7f713          	andi	a4,a5,255
ffffffc0502038bc:	47a1                	li	a5,8
ffffffc0502038be:	00f70a63          	beq	a4,a5,ffffffc0502038d2 <screen_putchar+0x5a>
ffffffc0502038c2:	fef44783          	lbu	a5,-17(s0)
ffffffc0502038c6:	0ff7f713          	andi	a4,a5,255
ffffffc0502038ca:	07f00793          	li	a5,127
ffffffc0502038ce:	04f71c63          	bne	a4,a5,ffffffc050203926 <screen_putchar+0xae>
ffffffc0502038d2:	0005a797          	auipc	a5,0x5a
ffffffc0502038d6:	36e78793          	addi	a5,a5,878 # ffffffc05025dc40 <current_running>
ffffffc0502038da:	639c                	ld	a5,0(a5)
ffffffc0502038dc:	43b8                	lw	a4,64(a5)
ffffffc0502038de:	377d                	addiw	a4,a4,-1
ffffffc0502038e0:	2701                	sext.w	a4,a4
ffffffc0502038e2:	c3b8                	sw	a4,64(a5)
ffffffc0502038e4:	0005a797          	auipc	a5,0x5a
ffffffc0502038e8:	35c78793          	addi	a5,a5,860 # ffffffc05025dc40 <current_running>
ffffffc0502038ec:	639c                	ld	a5,0(a5)
ffffffc0502038ee:	43fc                	lw	a5,68(a5)
ffffffc0502038f0:	873e                	mv	a4,a5
ffffffc0502038f2:	87ba                	mv	a5,a4
ffffffc0502038f4:	0027979b          	slliw	a5,a5,0x2
ffffffc0502038f8:	9fb9                	addw	a5,a5,a4
ffffffc0502038fa:	0047979b          	slliw	a5,a5,0x4
ffffffc0502038fe:	0007871b          	sext.w	a4,a5
ffffffc050203902:	0005a797          	auipc	a5,0x5a
ffffffc050203906:	33e78793          	addi	a5,a5,830 # ffffffc05025dc40 <current_running>
ffffffc05020390a:	639c                	ld	a5,0(a5)
ffffffc05020390c:	43bc                	lw	a5,64(a5)
ffffffc05020390e:	9fb9                	addw	a5,a5,a4
ffffffc050203910:	2781                	sext.w	a5,a5
ffffffc050203912:	0000a717          	auipc	a4,0xa
ffffffc050203916:	d2e70713          	addi	a4,a4,-722 # ffffffc05020d640 <new_screen>
ffffffc05020391a:	97ba                	add	a5,a5,a4
ffffffc05020391c:	02000713          	li	a4,32
ffffffc050203920:	00e78023          	sb	a4,0(a5)
ffffffc050203924:	a891                	j	ffffffc050203978 <screen_putchar+0x100>
ffffffc050203926:	0005a797          	auipc	a5,0x5a
ffffffc05020392a:	31a78793          	addi	a5,a5,794 # ffffffc05025dc40 <current_running>
ffffffc05020392e:	639c                	ld	a5,0(a5)
ffffffc050203930:	43fc                	lw	a5,68(a5)
ffffffc050203932:	873e                	mv	a4,a5
ffffffc050203934:	87ba                	mv	a5,a4
ffffffc050203936:	0027979b          	slliw	a5,a5,0x2
ffffffc05020393a:	9fb9                	addw	a5,a5,a4
ffffffc05020393c:	0047979b          	slliw	a5,a5,0x4
ffffffc050203940:	0007871b          	sext.w	a4,a5
ffffffc050203944:	0005a797          	auipc	a5,0x5a
ffffffc050203948:	2fc78793          	addi	a5,a5,764 # ffffffc05025dc40 <current_running>
ffffffc05020394c:	639c                	ld	a5,0(a5)
ffffffc05020394e:	43bc                	lw	a5,64(a5)
ffffffc050203950:	9fb9                	addw	a5,a5,a4
ffffffc050203952:	2781                	sext.w	a5,a5
ffffffc050203954:	0000a717          	auipc	a4,0xa
ffffffc050203958:	cec70713          	addi	a4,a4,-788 # ffffffc05020d640 <new_screen>
ffffffc05020395c:	97ba                	add	a5,a5,a4
ffffffc05020395e:	fef44703          	lbu	a4,-17(s0)
ffffffc050203962:	00e78023          	sb	a4,0(a5)
ffffffc050203966:	0005a797          	auipc	a5,0x5a
ffffffc05020396a:	2da78793          	addi	a5,a5,730 # ffffffc05025dc40 <current_running>
ffffffc05020396e:	639c                	ld	a5,0(a5)
ffffffc050203970:	43b8                	lw	a4,64(a5)
ffffffc050203972:	2705                	addiw	a4,a4,1
ffffffc050203974:	2701                	sext.w	a4,a4
ffffffc050203976:	c3b8                	sw	a4,64(a5)
ffffffc050203978:	0001                	nop
ffffffc05020397a:	6462                	ld	s0,24(sp)
ffffffc05020397c:	6105                	addi	sp,sp,32
ffffffc05020397e:	8082                	ret

ffffffc050203980 <writel>:
ffffffc050203980:	1101                	addi	sp,sp,-32
ffffffc050203982:	ec22                	sd	s0,24(sp)
ffffffc050203984:	1000                	addi	s0,sp,32
ffffffc050203986:	87aa                	mv	a5,a0
ffffffc050203988:	feb43023          	sd	a1,-32(s0)
ffffffc05020398c:	fef42623          	sw	a5,-20(s0)
ffffffc050203990:	0550000f          	fence	ow,ow
ffffffc050203994:	fe043783          	ld	a5,-32(s0)
ffffffc050203998:	fec42703          	lw	a4,-20(s0)
ffffffc05020399c:	c398                	sw	a4,0(a5)
ffffffc05020399e:	0001                	nop
ffffffc0502039a0:	6462                	ld	s0,24(sp)
ffffffc0502039a2:	6105                	addi	sp,sp,32
ffffffc0502039a4:	8082                	ret

ffffffc0502039a6 <readl>:
ffffffc0502039a6:	7179                	addi	sp,sp,-48
ffffffc0502039a8:	f422                	sd	s0,40(sp)
ffffffc0502039aa:	1800                	addi	s0,sp,48
ffffffc0502039ac:	fca43c23          	sd	a0,-40(s0)
ffffffc0502039b0:	fd843783          	ld	a5,-40(s0)
ffffffc0502039b4:	439c                	lw	a5,0(a5)
ffffffc0502039b6:	fef42623          	sw	a5,-20(s0)
ffffffc0502039ba:	0aa0000f          	fence	ir,ir
ffffffc0502039be:	fec42783          	lw	a5,-20(s0)
ffffffc0502039c2:	853e                	mv	a0,a5
ffffffc0502039c4:	7422                	ld	s0,40(sp)
ffffffc0502039c6:	6145                	addi	sp,sp,48
ffffffc0502039c8:	8082                	ret

ffffffc0502039ca <local_flush_dcache>:
ffffffc0502039ca:	1141                	addi	sp,sp,-16
ffffffc0502039cc:	e422                	sd	s0,8(sp)
ffffffc0502039ce:	0800                	addi	s0,sp,16
ffffffc0502039d0:	0ff0000f          	fence
ffffffc0502039d4:	0001                	nop
ffffffc0502039d6:	6422                	ld	s0,8(sp)
ffffffc0502039d8:	0141                	addi	sp,sp,16
ffffffc0502039da:	8082                	ret

ffffffc0502039dc <e1000_write_reg>:
ffffffc0502039dc:	1101                	addi	sp,sp,-32
ffffffc0502039de:	ec06                	sd	ra,24(sp)
ffffffc0502039e0:	e822                	sd	s0,16(sp)
ffffffc0502039e2:	1000                	addi	s0,sp,32
ffffffc0502039e4:	fea43423          	sd	a0,-24(s0)
ffffffc0502039e8:	87ae                	mv	a5,a1
ffffffc0502039ea:	8732                	mv	a4,a2
ffffffc0502039ec:	fef42223          	sw	a5,-28(s0)
ffffffc0502039f0:	87ba                	mv	a5,a4
ffffffc0502039f2:	fef42023          	sw	a5,-32(s0)
ffffffc0502039f6:	fe446783          	lwu	a5,-28(s0)
ffffffc0502039fa:	fe843703          	ld	a4,-24(s0)
ffffffc0502039fe:	973e                	add	a4,a4,a5
ffffffc050203a00:	fe042783          	lw	a5,-32(s0)
ffffffc050203a04:	85ba                	mv	a1,a4
ffffffc050203a06:	853e                	mv	a0,a5
ffffffc050203a08:	f79ff0ef          	jal	ra,ffffffc050203980 <writel>
ffffffc050203a0c:	0001                	nop
ffffffc050203a0e:	60e2                	ld	ra,24(sp)
ffffffc050203a10:	6442                	ld	s0,16(sp)
ffffffc050203a12:	6105                	addi	sp,sp,32
ffffffc050203a14:	8082                	ret

ffffffc050203a16 <e1000_read_reg>:
ffffffc050203a16:	1101                	addi	sp,sp,-32
ffffffc050203a18:	ec06                	sd	ra,24(sp)
ffffffc050203a1a:	e822                	sd	s0,16(sp)
ffffffc050203a1c:	1000                	addi	s0,sp,32
ffffffc050203a1e:	fea43423          	sd	a0,-24(s0)
ffffffc050203a22:	87ae                	mv	a5,a1
ffffffc050203a24:	fef42223          	sw	a5,-28(s0)
ffffffc050203a28:	fe446783          	lwu	a5,-28(s0)
ffffffc050203a2c:	fe843703          	ld	a4,-24(s0)
ffffffc050203a30:	97ba                	add	a5,a5,a4
ffffffc050203a32:	853e                	mv	a0,a5
ffffffc050203a34:	f73ff0ef          	jal	ra,ffffffc0502039a6 <readl>
ffffffc050203a38:	87aa                	mv	a5,a0
ffffffc050203a3a:	2781                	sext.w	a5,a5
ffffffc050203a3c:	853e                	mv	a0,a5
ffffffc050203a3e:	60e2                	ld	ra,24(sp)
ffffffc050203a40:	6442                	ld	s0,16(sp)
ffffffc050203a42:	6105                	addi	sp,sp,32
ffffffc050203a44:	8082                	ret

ffffffc050203a46 <e1000_write_reg_array>:
ffffffc050203a46:	7179                	addi	sp,sp,-48
ffffffc050203a48:	f406                	sd	ra,40(sp)
ffffffc050203a4a:	f022                	sd	s0,32(sp)
ffffffc050203a4c:	1800                	addi	s0,sp,48
ffffffc050203a4e:	fea43423          	sd	a0,-24(s0)
ffffffc050203a52:	87ae                	mv	a5,a1
ffffffc050203a54:	8736                	mv	a4,a3
ffffffc050203a56:	fef42223          	sw	a5,-28(s0)
ffffffc050203a5a:	87b2                	mv	a5,a2
ffffffc050203a5c:	fef42023          	sw	a5,-32(s0)
ffffffc050203a60:	87ba                	mv	a5,a4
ffffffc050203a62:	fcf42e23          	sw	a5,-36(s0)
ffffffc050203a66:	fe446703          	lwu	a4,-28(s0)
ffffffc050203a6a:	fe042783          	lw	a5,-32(s0)
ffffffc050203a6e:	0027979b          	slliw	a5,a5,0x2
ffffffc050203a72:	2781                	sext.w	a5,a5
ffffffc050203a74:	1782                	slli	a5,a5,0x20
ffffffc050203a76:	9381                	srli	a5,a5,0x20
ffffffc050203a78:	97ba                	add	a5,a5,a4
ffffffc050203a7a:	fe843703          	ld	a4,-24(s0)
ffffffc050203a7e:	973e                	add	a4,a4,a5
ffffffc050203a80:	fdc42783          	lw	a5,-36(s0)
ffffffc050203a84:	85ba                	mv	a1,a4
ffffffc050203a86:	853e                	mv	a0,a5
ffffffc050203a88:	ef9ff0ef          	jal	ra,ffffffc050203980 <writel>
ffffffc050203a8c:	0001                	nop
ffffffc050203a8e:	70a2                	ld	ra,40(sp)
ffffffc050203a90:	7402                	ld	s0,32(sp)
ffffffc050203a92:	6145                	addi	sp,sp,48
ffffffc050203a94:	8082                	ret

ffffffc050203a96 <kva2pa>:
ffffffc050203a96:	7179                	addi	sp,sp,-48
ffffffc050203a98:	f422                	sd	s0,40(sp)
ffffffc050203a9a:	1800                	addi	s0,sp,48
ffffffc050203a9c:	fca43c23          	sd	a0,-40(s0)
ffffffc050203aa0:	57fd                	li	a5,-1
ffffffc050203aa2:	9381                	srli	a5,a5,0x20
ffffffc050203aa4:	fef43423          	sd	a5,-24(s0)
ffffffc050203aa8:	fd843703          	ld	a4,-40(s0)
ffffffc050203aac:	fe843783          	ld	a5,-24(s0)
ffffffc050203ab0:	8ff9                	and	a5,a5,a4
ffffffc050203ab2:	fef43023          	sd	a5,-32(s0)
ffffffc050203ab6:	fe043783          	ld	a5,-32(s0)
ffffffc050203aba:	853e                	mv	a0,a5
ffffffc050203abc:	7422                	ld	s0,40(sp)
ffffffc050203abe:	6145                	addi	sp,sp,48
ffffffc050203ac0:	8082                	ret

ffffffc050203ac2 <update_loop>:
ffffffc050203ac2:	7179                	addi	sp,sp,-48
ffffffc050203ac4:	f422                	sd	s0,40(sp)
ffffffc050203ac6:	1800                	addi	s0,sp,48
ffffffc050203ac8:	fca43c23          	sd	a0,-40(s0)
ffffffc050203acc:	fd843783          	ld	a5,-40(s0)
ffffffc050203ad0:	fef43423          	sd	a5,-24(s0)
ffffffc050203ad4:	fe843783          	ld	a5,-24(s0)
ffffffc050203ad8:	439c                	lw	a5,0(a5)
ffffffc050203ada:	873e                	mv	a4,a5
ffffffc050203adc:	03f00793          	li	a5,63
ffffffc050203ae0:	00f71763          	bne	a4,a5,ffffffc050203aee <update_loop+0x2c>
ffffffc050203ae4:	fe843783          	ld	a5,-24(s0)
ffffffc050203ae8:	0007a023          	sw	zero,0(a5)
ffffffc050203aec:	a811                	j	ffffffc050203b00 <update_loop+0x3e>
ffffffc050203aee:	fe843783          	ld	a5,-24(s0)
ffffffc050203af2:	439c                	lw	a5,0(a5)
ffffffc050203af4:	2785                	addiw	a5,a5,1
ffffffc050203af6:	0007871b          	sext.w	a4,a5
ffffffc050203afa:	fe843783          	ld	a5,-24(s0)
ffffffc050203afe:	c398                	sw	a4,0(a5)
ffffffc050203b00:	0001                	nop
ffffffc050203b02:	7422                	ld	s0,40(sp)
ffffffc050203b04:	6145                	addi	sp,sp,48
ffffffc050203b06:	8082                	ret

ffffffc050203b08 <set_tx>:
ffffffc050203b08:	1101                	addi	sp,sp,-32
ffffffc050203b0a:	ec22                	sd	s0,24(sp)
ffffffc050203b0c:	1000                	addi	s0,sp,32
ffffffc050203b0e:	87aa                	mv	a5,a0
ffffffc050203b10:	feb43023          	sd	a1,-32(s0)
ffffffc050203b14:	8732                	mv	a4,a2
ffffffc050203b16:	fef42623          	sw	a5,-20(s0)
ffffffc050203b1a:	87ba                	mv	a5,a4
ffffffc050203b1c:	fef41523          	sh	a5,-22(s0)
ffffffc050203b20:	0000c717          	auipc	a4,0xc
ffffffc050203b24:	a6070713          	addi	a4,a4,-1440 # ffffffc05020f580 <tx_desc_array>
ffffffc050203b28:	fec42783          	lw	a5,-20(s0)
ffffffc050203b2c:	0792                	slli	a5,a5,0x4
ffffffc050203b2e:	97ba                	add	a5,a5,a4
ffffffc050203b30:	fe043703          	ld	a4,-32(s0)
ffffffc050203b34:	e398                	sd	a4,0(a5)
ffffffc050203b36:	0000c717          	auipc	a4,0xc
ffffffc050203b3a:	a4a70713          	addi	a4,a4,-1462 # ffffffc05020f580 <tx_desc_array>
ffffffc050203b3e:	fec42783          	lw	a5,-20(s0)
ffffffc050203b42:	0792                	slli	a5,a5,0x4
ffffffc050203b44:	97ba                	add	a5,a5,a4
ffffffc050203b46:	fea45703          	lhu	a4,-22(s0)
ffffffc050203b4a:	00e79423          	sh	a4,8(a5)
ffffffc050203b4e:	0000c717          	auipc	a4,0xc
ffffffc050203b52:	a3270713          	addi	a4,a4,-1486 # ffffffc05020f580 <tx_desc_array>
ffffffc050203b56:	fec42783          	lw	a5,-20(s0)
ffffffc050203b5a:	0792                	slli	a5,a5,0x4
ffffffc050203b5c:	97ba                	add	a5,a5,a4
ffffffc050203b5e:	4725                	li	a4,9
ffffffc050203b60:	00e785a3          	sb	a4,11(a5)
ffffffc050203b64:	0000c717          	auipc	a4,0xc
ffffffc050203b68:	a1c70713          	addi	a4,a4,-1508 # ffffffc05020f580 <tx_desc_array>
ffffffc050203b6c:	fec42783          	lw	a5,-20(s0)
ffffffc050203b70:	0792                	slli	a5,a5,0x4
ffffffc050203b72:	97ba                	add	a5,a5,a4
ffffffc050203b74:	00078623          	sb	zero,12(a5)
ffffffc050203b78:	0001                	nop
ffffffc050203b7a:	6462                	ld	s0,24(sp)
ffffffc050203b7c:	6105                	addi	sp,sp,32
ffffffc050203b7e:	8082                	ret

ffffffc050203b80 <init_tx>:
ffffffc050203b80:	1101                	addi	sp,sp,-32
ffffffc050203b82:	ec22                	sd	s0,24(sp)
ffffffc050203b84:	1000                	addi	s0,sp,32
ffffffc050203b86:	87aa                	mv	a5,a0
ffffffc050203b88:	fef42623          	sw	a5,-20(s0)
ffffffc050203b8c:	0000c717          	auipc	a4,0xc
ffffffc050203b90:	9f470713          	addi	a4,a4,-1548 # ffffffc05020f580 <tx_desc_array>
ffffffc050203b94:	fec42783          	lw	a5,-20(s0)
ffffffc050203b98:	0792                	slli	a5,a5,0x4
ffffffc050203b9a:	97ba                	add	a5,a5,a4
ffffffc050203b9c:	0007b023          	sd	zero,0(a5)
ffffffc050203ba0:	0000c717          	auipc	a4,0xc
ffffffc050203ba4:	9e070713          	addi	a4,a4,-1568 # ffffffc05020f580 <tx_desc_array>
ffffffc050203ba8:	fec42783          	lw	a5,-20(s0)
ffffffc050203bac:	0792                	slli	a5,a5,0x4
ffffffc050203bae:	97ba                	add	a5,a5,a4
ffffffc050203bb0:	00079423          	sh	zero,8(a5)
ffffffc050203bb4:	0000c717          	auipc	a4,0xc
ffffffc050203bb8:	9cc70713          	addi	a4,a4,-1588 # ffffffc05020f580 <tx_desc_array>
ffffffc050203bbc:	fec42783          	lw	a5,-20(s0)
ffffffc050203bc0:	0792                	slli	a5,a5,0x4
ffffffc050203bc2:	97ba                	add	a5,a5,a4
ffffffc050203bc4:	00078523          	sb	zero,10(a5)
ffffffc050203bc8:	0000c717          	auipc	a4,0xc
ffffffc050203bcc:	9b870713          	addi	a4,a4,-1608 # ffffffc05020f580 <tx_desc_array>
ffffffc050203bd0:	fec42783          	lw	a5,-20(s0)
ffffffc050203bd4:	0792                	slli	a5,a5,0x4
ffffffc050203bd6:	97ba                	add	a5,a5,a4
ffffffc050203bd8:	000785a3          	sb	zero,11(a5)
ffffffc050203bdc:	0000c717          	auipc	a4,0xc
ffffffc050203be0:	9a470713          	addi	a4,a4,-1628 # ffffffc05020f580 <tx_desc_array>
ffffffc050203be4:	fec42783          	lw	a5,-20(s0)
ffffffc050203be8:	0792                	slli	a5,a5,0x4
ffffffc050203bea:	97ba                	add	a5,a5,a4
ffffffc050203bec:	00078623          	sb	zero,12(a5)
ffffffc050203bf0:	0000c717          	auipc	a4,0xc
ffffffc050203bf4:	99070713          	addi	a4,a4,-1648 # ffffffc05020f580 <tx_desc_array>
ffffffc050203bf8:	fec42783          	lw	a5,-20(s0)
ffffffc050203bfc:	0792                	slli	a5,a5,0x4
ffffffc050203bfe:	97ba                	add	a5,a5,a4
ffffffc050203c00:	000786a3          	sb	zero,13(a5)
ffffffc050203c04:	0001                	nop
ffffffc050203c06:	6462                	ld	s0,24(sp)
ffffffc050203c08:	6105                	addi	sp,sp,32
ffffffc050203c0a:	8082                	ret

ffffffc050203c0c <init_all_tx>:
ffffffc050203c0c:	1101                	addi	sp,sp,-32
ffffffc050203c0e:	ec22                	sd	s0,24(sp)
ffffffc050203c10:	1000                	addi	s0,sp,32
ffffffc050203c12:	fe042623          	sw	zero,-20(s0)
ffffffc050203c16:	a059                	j	ffffffc050203c9c <init_all_tx+0x90>
ffffffc050203c18:	0000c717          	auipc	a4,0xc
ffffffc050203c1c:	96870713          	addi	a4,a4,-1688 # ffffffc05020f580 <tx_desc_array>
ffffffc050203c20:	fec42783          	lw	a5,-20(s0)
ffffffc050203c24:	0792                	slli	a5,a5,0x4
ffffffc050203c26:	97ba                	add	a5,a5,a4
ffffffc050203c28:	0007b023          	sd	zero,0(a5)
ffffffc050203c2c:	0000c717          	auipc	a4,0xc
ffffffc050203c30:	95470713          	addi	a4,a4,-1708 # ffffffc05020f580 <tx_desc_array>
ffffffc050203c34:	fec42783          	lw	a5,-20(s0)
ffffffc050203c38:	0792                	slli	a5,a5,0x4
ffffffc050203c3a:	97ba                	add	a5,a5,a4
ffffffc050203c3c:	00079423          	sh	zero,8(a5)
ffffffc050203c40:	0000c717          	auipc	a4,0xc
ffffffc050203c44:	94070713          	addi	a4,a4,-1728 # ffffffc05020f580 <tx_desc_array>
ffffffc050203c48:	fec42783          	lw	a5,-20(s0)
ffffffc050203c4c:	0792                	slli	a5,a5,0x4
ffffffc050203c4e:	97ba                	add	a5,a5,a4
ffffffc050203c50:	00078523          	sb	zero,10(a5)
ffffffc050203c54:	0000c717          	auipc	a4,0xc
ffffffc050203c58:	92c70713          	addi	a4,a4,-1748 # ffffffc05020f580 <tx_desc_array>
ffffffc050203c5c:	fec42783          	lw	a5,-20(s0)
ffffffc050203c60:	0792                	slli	a5,a5,0x4
ffffffc050203c62:	97ba                	add	a5,a5,a4
ffffffc050203c64:	000785a3          	sb	zero,11(a5)
ffffffc050203c68:	0000c717          	auipc	a4,0xc
ffffffc050203c6c:	91870713          	addi	a4,a4,-1768 # ffffffc05020f580 <tx_desc_array>
ffffffc050203c70:	fec42783          	lw	a5,-20(s0)
ffffffc050203c74:	0792                	slli	a5,a5,0x4
ffffffc050203c76:	97ba                	add	a5,a5,a4
ffffffc050203c78:	4705                	li	a4,1
ffffffc050203c7a:	00e78623          	sb	a4,12(a5)
ffffffc050203c7e:	0000c717          	auipc	a4,0xc
ffffffc050203c82:	90270713          	addi	a4,a4,-1790 # ffffffc05020f580 <tx_desc_array>
ffffffc050203c86:	fec42783          	lw	a5,-20(s0)
ffffffc050203c8a:	0792                	slli	a5,a5,0x4
ffffffc050203c8c:	97ba                	add	a5,a5,a4
ffffffc050203c8e:	000786a3          	sb	zero,13(a5)
ffffffc050203c92:	fec42783          	lw	a5,-20(s0)
ffffffc050203c96:	2785                	addiw	a5,a5,1
ffffffc050203c98:	fef42623          	sw	a5,-20(s0)
ffffffc050203c9c:	fec42783          	lw	a5,-20(s0)
ffffffc050203ca0:	0007871b          	sext.w	a4,a5
ffffffc050203ca4:	03f00793          	li	a5,63
ffffffc050203ca8:	f6e7d8e3          	bge	a5,a4,ffffffc050203c18 <init_all_tx+0xc>
ffffffc050203cac:	0001                	nop
ffffffc050203cae:	0001                	nop
ffffffc050203cb0:	6462                	ld	s0,24(sp)
ffffffc050203cb2:	6105                	addi	sp,sp,32
ffffffc050203cb4:	8082                	ret

ffffffc050203cb6 <init_rx>:
ffffffc050203cb6:	1101                	addi	sp,sp,-32
ffffffc050203cb8:	ec06                	sd	ra,24(sp)
ffffffc050203cba:	e822                	sd	s0,16(sp)
ffffffc050203cbc:	1000                	addi	s0,sp,32
ffffffc050203cbe:	87aa                	mv	a5,a0
ffffffc050203cc0:	fef42623          	sw	a5,-20(s0)
ffffffc050203cc4:	fec42783          	lw	a5,-20(s0)
ffffffc050203cc8:	00b79713          	slli	a4,a5,0xb
ffffffc050203ccc:	0002c797          	auipc	a5,0x2c
ffffffc050203cd0:	0b478793          	addi	a5,a5,180 # ffffffc05022fd80 <rx_pkt_buffer>
ffffffc050203cd4:	97ba                	add	a5,a5,a4
ffffffc050203cd6:	853e                	mv	a0,a5
ffffffc050203cd8:	dbfff0ef          	jal	ra,ffffffc050203a96 <kva2pa>
ffffffc050203cdc:	86aa                	mv	a3,a0
ffffffc050203cde:	0000c717          	auipc	a4,0xc
ffffffc050203ce2:	ca270713          	addi	a4,a4,-862 # ffffffc05020f980 <rx_desc_array>
ffffffc050203ce6:	fec42783          	lw	a5,-20(s0)
ffffffc050203cea:	0792                	slli	a5,a5,0x4
ffffffc050203cec:	97ba                	add	a5,a5,a4
ffffffc050203cee:	e394                	sd	a3,0(a5)
ffffffc050203cf0:	0000c717          	auipc	a4,0xc
ffffffc050203cf4:	c9070713          	addi	a4,a4,-880 # ffffffc05020f980 <rx_desc_array>
ffffffc050203cf8:	fec42783          	lw	a5,-20(s0)
ffffffc050203cfc:	0792                	slli	a5,a5,0x4
ffffffc050203cfe:	97ba                	add	a5,a5,a4
ffffffc050203d00:	00079423          	sh	zero,8(a5)
ffffffc050203d04:	0000c717          	auipc	a4,0xc
ffffffc050203d08:	c7c70713          	addi	a4,a4,-900 # ffffffc05020f980 <rx_desc_array>
ffffffc050203d0c:	fec42783          	lw	a5,-20(s0)
ffffffc050203d10:	0792                	slli	a5,a5,0x4
ffffffc050203d12:	97ba                	add	a5,a5,a4
ffffffc050203d14:	00079523          	sh	zero,10(a5)
ffffffc050203d18:	0000c717          	auipc	a4,0xc
ffffffc050203d1c:	c6870713          	addi	a4,a4,-920 # ffffffc05020f980 <rx_desc_array>
ffffffc050203d20:	fec42783          	lw	a5,-20(s0)
ffffffc050203d24:	0792                	slli	a5,a5,0x4
ffffffc050203d26:	97ba                	add	a5,a5,a4
ffffffc050203d28:	00078623          	sb	zero,12(a5)
ffffffc050203d2c:	0000c717          	auipc	a4,0xc
ffffffc050203d30:	c5470713          	addi	a4,a4,-940 # ffffffc05020f980 <rx_desc_array>
ffffffc050203d34:	fec42783          	lw	a5,-20(s0)
ffffffc050203d38:	0792                	slli	a5,a5,0x4
ffffffc050203d3a:	97ba                	add	a5,a5,a4
ffffffc050203d3c:	000786a3          	sb	zero,13(a5)
ffffffc050203d40:	0000c717          	auipc	a4,0xc
ffffffc050203d44:	c4070713          	addi	a4,a4,-960 # ffffffc05020f980 <rx_desc_array>
ffffffc050203d48:	fec42783          	lw	a5,-20(s0)
ffffffc050203d4c:	0792                	slli	a5,a5,0x4
ffffffc050203d4e:	97ba                	add	a5,a5,a4
ffffffc050203d50:	00079723          	sh	zero,14(a5)
ffffffc050203d54:	0001                	nop
ffffffc050203d56:	60e2                	ld	ra,24(sp)
ffffffc050203d58:	6442                	ld	s0,16(sp)
ffffffc050203d5a:	6105                	addi	sp,sp,32
ffffffc050203d5c:	8082                	ret

ffffffc050203d5e <init_all_rx>:
ffffffc050203d5e:	1101                	addi	sp,sp,-32
ffffffc050203d60:	ec06                	sd	ra,24(sp)
ffffffc050203d62:	e822                	sd	s0,16(sp)
ffffffc050203d64:	1000                	addi	s0,sp,32
ffffffc050203d66:	fe042623          	sw	zero,-20(s0)
ffffffc050203d6a:	a819                	j	ffffffc050203d80 <init_all_rx+0x22>
ffffffc050203d6c:	fec42783          	lw	a5,-20(s0)
ffffffc050203d70:	853e                	mv	a0,a5
ffffffc050203d72:	f45ff0ef          	jal	ra,ffffffc050203cb6 <init_rx>
ffffffc050203d76:	fec42783          	lw	a5,-20(s0)
ffffffc050203d7a:	2785                	addiw	a5,a5,1
ffffffc050203d7c:	fef42623          	sw	a5,-20(s0)
ffffffc050203d80:	fec42783          	lw	a5,-20(s0)
ffffffc050203d84:	0007871b          	sext.w	a4,a5
ffffffc050203d88:	03f00793          	li	a5,63
ffffffc050203d8c:	fee7d0e3          	bge	a5,a4,ffffffc050203d6c <init_all_rx+0xe>
ffffffc050203d90:	0001                	nop
ffffffc050203d92:	0001                	nop
ffffffc050203d94:	60e2                	ld	ra,24(sp)
ffffffc050203d96:	6442                	ld	s0,16(sp)
ffffffc050203d98:	6105                	addi	sp,sp,32
ffffffc050203d9a:	8082                	ret

ffffffc050203d9c <e1000_reset>:
ffffffc050203d9c:	1141                	addi	sp,sp,-16
ffffffc050203d9e:	e406                	sd	ra,8(sp)
ffffffc050203da0:	e022                	sd	s0,0(sp)
ffffffc050203da2:	0800                	addi	s0,sp,16
ffffffc050203da4:	00055797          	auipc	a5,0x55
ffffffc050203da8:	72478793          	addi	a5,a5,1828 # ffffffc0502594c8 <e1000>
ffffffc050203dac:	639c                	ld	a5,0(a5)
ffffffc050203dae:	4601                	li	a2,0
ffffffc050203db0:	10000593          	li	a1,256
ffffffc050203db4:	853e                	mv	a0,a5
ffffffc050203db6:	c27ff0ef          	jal	ra,ffffffc0502039dc <e1000_write_reg>
ffffffc050203dba:	00055797          	auipc	a5,0x55
ffffffc050203dbe:	70e78793          	addi	a5,a5,1806 # ffffffc0502594c8 <e1000>
ffffffc050203dc2:	639c                	ld	a5,0(a5)
ffffffc050203dc4:	4601                	li	a2,0
ffffffc050203dc6:	40000593          	li	a1,1024
ffffffc050203dca:	853e                	mv	a0,a5
ffffffc050203dcc:	c11ff0ef          	jal	ra,ffffffc0502039dc <e1000_write_reg>
ffffffc050203dd0:	00055797          	auipc	a5,0x55
ffffffc050203dd4:	6f878793          	addi	a5,a5,1784 # ffffffc0502594c8 <e1000>
ffffffc050203dd8:	6398                	ld	a4,0(a5)
ffffffc050203dda:	4601                	li	a2,0
ffffffc050203ddc:	6791                	lui	a5,0x4
ffffffc050203dde:	81078593          	addi	a1,a5,-2032 # 3810 <boot_stack_top_base-0x501fe7f0>
ffffffc050203de2:	853a                	mv	a0,a4
ffffffc050203de4:	bf9ff0ef          	jal	ra,ffffffc0502039dc <e1000_write_reg>
ffffffc050203de8:	00055797          	auipc	a5,0x55
ffffffc050203dec:	6e078793          	addi	a5,a5,1760 # ffffffc0502594c8 <e1000>
ffffffc050203df0:	6398                	ld	a4,0(a5)
ffffffc050203df2:	4601                	li	a2,0
ffffffc050203df4:	6791                	lui	a5,0x4
ffffffc050203df6:	81878593          	addi	a1,a5,-2024 # 3818 <boot_stack_top_base-0x501fe7e8>
ffffffc050203dfa:	853a                	mv	a0,a4
ffffffc050203dfc:	be1ff0ef          	jal	ra,ffffffc0502039dc <e1000_write_reg>
ffffffc050203e00:	00055797          	auipc	a5,0x55
ffffffc050203e04:	6c878793          	addi	a5,a5,1736 # ffffffc0502594c8 <e1000>
ffffffc050203e08:	6398                	ld	a4,0(a5)
ffffffc050203e0a:	4601                	li	a2,0
ffffffc050203e0c:	678d                	lui	a5,0x3
ffffffc050203e0e:	81078593          	addi	a1,a5,-2032 # 2810 <boot_stack_top_base-0x501ff7f0>
ffffffc050203e12:	853a                	mv	a0,a4
ffffffc050203e14:	bc9ff0ef          	jal	ra,ffffffc0502039dc <e1000_write_reg>
ffffffc050203e18:	00055797          	auipc	a5,0x55
ffffffc050203e1c:	6b078793          	addi	a5,a5,1712 # ffffffc0502594c8 <e1000>
ffffffc050203e20:	6398                	ld	a4,0(a5)
ffffffc050203e22:	4601                	li	a2,0
ffffffc050203e24:	678d                	lui	a5,0x3
ffffffc050203e26:	81878593          	addi	a1,a5,-2024 # 2818 <boot_stack_top_base-0x501ff7e8>
ffffffc050203e2a:	853a                	mv	a0,a4
ffffffc050203e2c:	bb1ff0ef          	jal	ra,ffffffc0502039dc <e1000_write_reg>
ffffffc050203e30:	4505                	li	a0,1
ffffffc050203e32:	74e030ef          	jal	ra,ffffffc050207580 <latency>
ffffffc050203e36:	00055797          	auipc	a5,0x55
ffffffc050203e3a:	69278793          	addi	a5,a5,1682 # ffffffc0502594c8 <e1000>
ffffffc050203e3e:	639c                	ld	a5,0(a5)
ffffffc050203e40:	567d                	li	a2,-1
ffffffc050203e42:	0d800593          	li	a1,216
ffffffc050203e46:	853e                	mv	a0,a5
ffffffc050203e48:	b95ff0ef          	jal	ra,ffffffc0502039dc <e1000_write_reg>
ffffffc050203e4c:	0001                	nop
ffffffc050203e4e:	00055797          	auipc	a5,0x55
ffffffc050203e52:	67a78793          	addi	a5,a5,1658 # ffffffc0502594c8 <e1000>
ffffffc050203e56:	639c                	ld	a5,0(a5)
ffffffc050203e58:	0c000593          	li	a1,192
ffffffc050203e5c:	853e                	mv	a0,a5
ffffffc050203e5e:	bb9ff0ef          	jal	ra,ffffffc050203a16 <e1000_read_reg>
ffffffc050203e62:	87aa                	mv	a5,a0
ffffffc050203e64:	2781                	sext.w	a5,a5
ffffffc050203e66:	f7e5                	bnez	a5,ffffffc050203e4e <e1000_reset+0xb2>
ffffffc050203e68:	0001                	nop
ffffffc050203e6a:	0001                	nop
ffffffc050203e6c:	60a2                	ld	ra,8(sp)
ffffffc050203e6e:	6402                	ld	s0,0(sp)
ffffffc050203e70:	0141                	addi	sp,sp,16
ffffffc050203e72:	8082                	ret

ffffffc050203e74 <e1000_configure_tx>:
ffffffc050203e74:	1101                	addi	sp,sp,-32
ffffffc050203e76:	ec06                	sd	ra,24(sp)
ffffffc050203e78:	e822                	sd	s0,16(sp)
ffffffc050203e7a:	1000                	addi	s0,sp,32
ffffffc050203e7c:	d91ff0ef          	jal	ra,ffffffc050203c0c <init_all_tx>
ffffffc050203e80:	0000b797          	auipc	a5,0xb
ffffffc050203e84:	70078793          	addi	a5,a5,1792 # ffffffc05020f580 <tx_desc_array>
ffffffc050203e88:	853e                	mv	a0,a5
ffffffc050203e8a:	c0dff0ef          	jal	ra,ffffffc050203a96 <kva2pa>
ffffffc050203e8e:	87aa                	mv	a5,a0
ffffffc050203e90:	fef42623          	sw	a5,-20(s0)
ffffffc050203e94:	0000b797          	auipc	a5,0xb
ffffffc050203e98:	6ec78793          	addi	a5,a5,1772 # ffffffc05020f580 <tx_desc_array>
ffffffc050203e9c:	853e                	mv	a0,a5
ffffffc050203e9e:	bf9ff0ef          	jal	ra,ffffffc050203a96 <kva2pa>
ffffffc050203ea2:	87aa                	mv	a5,a0
ffffffc050203ea4:	9381                	srli	a5,a5,0x20
ffffffc050203ea6:	fef42423          	sw	a5,-24(s0)
ffffffc050203eaa:	00055797          	auipc	a5,0x55
ffffffc050203eae:	61e78793          	addi	a5,a5,1566 # ffffffc0502594c8 <e1000>
ffffffc050203eb2:	6398                	ld	a4,0(a5)
ffffffc050203eb4:	fec42783          	lw	a5,-20(s0)
ffffffc050203eb8:	863e                	mv	a2,a5
ffffffc050203eba:	6791                	lui	a5,0x4
ffffffc050203ebc:	80078593          	addi	a1,a5,-2048 # 3800 <boot_stack_top_base-0x501fe800>
ffffffc050203ec0:	853a                	mv	a0,a4
ffffffc050203ec2:	b1bff0ef          	jal	ra,ffffffc0502039dc <e1000_write_reg>
ffffffc050203ec6:	00055797          	auipc	a5,0x55
ffffffc050203eca:	60278793          	addi	a5,a5,1538 # ffffffc0502594c8 <e1000>
ffffffc050203ece:	6398                	ld	a4,0(a5)
ffffffc050203ed0:	fe842783          	lw	a5,-24(s0)
ffffffc050203ed4:	863e                	mv	a2,a5
ffffffc050203ed6:	6791                	lui	a5,0x4
ffffffc050203ed8:	80478593          	addi	a1,a5,-2044 # 3804 <boot_stack_top_base-0x501fe7fc>
ffffffc050203edc:	853a                	mv	a0,a4
ffffffc050203ede:	affff0ef          	jal	ra,ffffffc0502039dc <e1000_write_reg>
ffffffc050203ee2:	40000793          	li	a5,1024
ffffffc050203ee6:	fef42223          	sw	a5,-28(s0)
ffffffc050203eea:	00055797          	auipc	a5,0x55
ffffffc050203eee:	5de78793          	addi	a5,a5,1502 # ffffffc0502594c8 <e1000>
ffffffc050203ef2:	6398                	ld	a4,0(a5)
ffffffc050203ef4:	fe442783          	lw	a5,-28(s0)
ffffffc050203ef8:	863e                	mv	a2,a5
ffffffc050203efa:	6791                	lui	a5,0x4
ffffffc050203efc:	80878593          	addi	a1,a5,-2040 # 3808 <boot_stack_top_base-0x501fe7f8>
ffffffc050203f00:	853a                	mv	a0,a4
ffffffc050203f02:	adbff0ef          	jal	ra,ffffffc0502039dc <e1000_write_reg>
ffffffc050203f06:	00055797          	auipc	a5,0x55
ffffffc050203f0a:	5c278793          	addi	a5,a5,1474 # ffffffc0502594c8 <e1000>
ffffffc050203f0e:	6398                	ld	a4,0(a5)
ffffffc050203f10:	00009797          	auipc	a5,0x9
ffffffc050203f14:	70878793          	addi	a5,a5,1800 # ffffffc05020d618 <tx_head>
ffffffc050203f18:	439c                	lw	a5,0(a5)
ffffffc050203f1a:	863e                	mv	a2,a5
ffffffc050203f1c:	6791                	lui	a5,0x4
ffffffc050203f1e:	81078593          	addi	a1,a5,-2032 # 3810 <boot_stack_top_base-0x501fe7f0>
ffffffc050203f22:	853a                	mv	a0,a4
ffffffc050203f24:	ab9ff0ef          	jal	ra,ffffffc0502039dc <e1000_write_reg>
ffffffc050203f28:	00055797          	auipc	a5,0x55
ffffffc050203f2c:	5a078793          	addi	a5,a5,1440 # ffffffc0502594c8 <e1000>
ffffffc050203f30:	6398                	ld	a4,0(a5)
ffffffc050203f32:	00009797          	auipc	a5,0x9
ffffffc050203f36:	6ea78793          	addi	a5,a5,1770 # ffffffc05020d61c <tx_tail>
ffffffc050203f3a:	439c                	lw	a5,0(a5)
ffffffc050203f3c:	863e                	mv	a2,a5
ffffffc050203f3e:	6791                	lui	a5,0x4
ffffffc050203f40:	81878593          	addi	a1,a5,-2024 # 3818 <boot_stack_top_base-0x501fe7e8>
ffffffc050203f44:	853a                	mv	a0,a4
ffffffc050203f46:	a97ff0ef          	jal	ra,ffffffc0502039dc <e1000_write_reg>
ffffffc050203f4a:	000407b7          	lui	a5,0x40
ffffffc050203f4e:	10a78793          	addi	a5,a5,266 # 4010a <boot_stack_top_base-0x501c1ef6>
ffffffc050203f52:	fef42023          	sw	a5,-32(s0)
ffffffc050203f56:	00055797          	auipc	a5,0x55
ffffffc050203f5a:	57278793          	addi	a5,a5,1394 # ffffffc0502594c8 <e1000>
ffffffc050203f5e:	639c                	ld	a5,0(a5)
ffffffc050203f60:	fe042703          	lw	a4,-32(s0)
ffffffc050203f64:	863a                	mv	a2,a4
ffffffc050203f66:	40000593          	li	a1,1024
ffffffc050203f6a:	853e                	mv	a0,a5
ffffffc050203f6c:	a71ff0ef          	jal	ra,ffffffc0502039dc <e1000_write_reg>
ffffffc050203f70:	0001                	nop
ffffffc050203f72:	60e2                	ld	ra,24(sp)
ffffffc050203f74:	6442                	ld	s0,16(sp)
ffffffc050203f76:	6105                	addi	sp,sp,32
ffffffc050203f78:	8082                	ret

ffffffc050203f7a <e1000_configure_rx>:
ffffffc050203f7a:	7179                	addi	sp,sp,-48
ffffffc050203f7c:	f406                	sd	ra,40(sp)
ffffffc050203f7e:	f022                	sd	s0,32(sp)
ffffffc050203f80:	1800                	addi	s0,sp,48
ffffffc050203f82:	003517b7          	lui	a5,0x351
ffffffc050203f86:	a0078793          	addi	a5,a5,-1536 # 350a00 <boot_stack_top_base-0x4feb1600>
ffffffc050203f8a:	fef42623          	sw	a5,-20(s0)
ffffffc050203f8e:	800057b7          	lui	a5,0x80005
ffffffc050203f92:	31e78793          	addi	a5,a5,798 # ffffffff8000531e <__BSS_END__+0x3f2fda6846>
ffffffc050203f96:	fef42423          	sw	a5,-24(s0)
ffffffc050203f9a:	00055797          	auipc	a5,0x55
ffffffc050203f9e:	52e78793          	addi	a5,a5,1326 # ffffffc0502594c8 <e1000>
ffffffc050203fa2:	6398                	ld	a4,0(a5)
ffffffc050203fa4:	fec42783          	lw	a5,-20(s0)
ffffffc050203fa8:	86be                	mv	a3,a5
ffffffc050203faa:	4601                	li	a2,0
ffffffc050203fac:	6795                	lui	a5,0x5
ffffffc050203fae:	40078593          	addi	a1,a5,1024 # 5400 <boot_stack_top_base-0x501fcc00>
ffffffc050203fb2:	853a                	mv	a0,a4
ffffffc050203fb4:	a93ff0ef          	jal	ra,ffffffc050203a46 <e1000_write_reg_array>
ffffffc050203fb8:	00055797          	auipc	a5,0x55
ffffffc050203fbc:	51078793          	addi	a5,a5,1296 # ffffffc0502594c8 <e1000>
ffffffc050203fc0:	6398                	ld	a4,0(a5)
ffffffc050203fc2:	fe842783          	lw	a5,-24(s0)
ffffffc050203fc6:	86be                	mv	a3,a5
ffffffc050203fc8:	4605                	li	a2,1
ffffffc050203fca:	6795                	lui	a5,0x5
ffffffc050203fcc:	40078593          	addi	a1,a5,1024 # 5400 <boot_stack_top_base-0x501fcc00>
ffffffc050203fd0:	853a                	mv	a0,a4
ffffffc050203fd2:	a75ff0ef          	jal	ra,ffffffc050203a46 <e1000_write_reg_array>
ffffffc050203fd6:	d89ff0ef          	jal	ra,ffffffc050203d5e <init_all_rx>
ffffffc050203fda:	0000c797          	auipc	a5,0xc
ffffffc050203fde:	9a678793          	addi	a5,a5,-1626 # ffffffc05020f980 <rx_desc_array>
ffffffc050203fe2:	853e                	mv	a0,a5
ffffffc050203fe4:	ab3ff0ef          	jal	ra,ffffffc050203a96 <kva2pa>
ffffffc050203fe8:	87aa                	mv	a5,a0
ffffffc050203fea:	fef42223          	sw	a5,-28(s0)
ffffffc050203fee:	0000c797          	auipc	a5,0xc
ffffffc050203ff2:	99278793          	addi	a5,a5,-1646 # ffffffc05020f980 <rx_desc_array>
ffffffc050203ff6:	853e                	mv	a0,a5
ffffffc050203ff8:	a9fff0ef          	jal	ra,ffffffc050203a96 <kva2pa>
ffffffc050203ffc:	87aa                	mv	a5,a0
ffffffc050203ffe:	9381                	srli	a5,a5,0x20
ffffffc050204000:	fef42023          	sw	a5,-32(s0)
ffffffc050204004:	00055797          	auipc	a5,0x55
ffffffc050204008:	4c478793          	addi	a5,a5,1220 # ffffffc0502594c8 <e1000>
ffffffc05020400c:	6398                	ld	a4,0(a5)
ffffffc05020400e:	fe442783          	lw	a5,-28(s0)
ffffffc050204012:	863e                	mv	a2,a5
ffffffc050204014:	678d                	lui	a5,0x3
ffffffc050204016:	80078593          	addi	a1,a5,-2048 # 2800 <boot_stack_top_base-0x501ff800>
ffffffc05020401a:	853a                	mv	a0,a4
ffffffc05020401c:	9c1ff0ef          	jal	ra,ffffffc0502039dc <e1000_write_reg>
ffffffc050204020:	00055797          	auipc	a5,0x55
ffffffc050204024:	4a878793          	addi	a5,a5,1192 # ffffffc0502594c8 <e1000>
ffffffc050204028:	6398                	ld	a4,0(a5)
ffffffc05020402a:	fe042783          	lw	a5,-32(s0)
ffffffc05020402e:	863e                	mv	a2,a5
ffffffc050204030:	678d                	lui	a5,0x3
ffffffc050204032:	80478593          	addi	a1,a5,-2044 # 2804 <boot_stack_top_base-0x501ff7fc>
ffffffc050204036:	853a                	mv	a0,a4
ffffffc050204038:	9a5ff0ef          	jal	ra,ffffffc0502039dc <e1000_write_reg>
ffffffc05020403c:	40000793          	li	a5,1024
ffffffc050204040:	fcf42e23          	sw	a5,-36(s0)
ffffffc050204044:	00055797          	auipc	a5,0x55
ffffffc050204048:	48478793          	addi	a5,a5,1156 # ffffffc0502594c8 <e1000>
ffffffc05020404c:	6398                	ld	a4,0(a5)
ffffffc05020404e:	fdc42783          	lw	a5,-36(s0)
ffffffc050204052:	863e                	mv	a2,a5
ffffffc050204054:	678d                	lui	a5,0x3
ffffffc050204056:	80878593          	addi	a1,a5,-2040 # 2808 <boot_stack_top_base-0x501ff7f8>
ffffffc05020405a:	853a                	mv	a0,a4
ffffffc05020405c:	981ff0ef          	jal	ra,ffffffc0502039dc <e1000_write_reg>
ffffffc050204060:	00055797          	auipc	a5,0x55
ffffffc050204064:	46878793          	addi	a5,a5,1128 # ffffffc0502594c8 <e1000>
ffffffc050204068:	6398                	ld	a4,0(a5)
ffffffc05020406a:	00009797          	auipc	a5,0x9
ffffffc05020406e:	5b678793          	addi	a5,a5,1462 # ffffffc05020d620 <rx_head>
ffffffc050204072:	439c                	lw	a5,0(a5)
ffffffc050204074:	863e                	mv	a2,a5
ffffffc050204076:	678d                	lui	a5,0x3
ffffffc050204078:	81078593          	addi	a1,a5,-2032 # 2810 <boot_stack_top_base-0x501ff7f0>
ffffffc05020407c:	853a                	mv	a0,a4
ffffffc05020407e:	95fff0ef          	jal	ra,ffffffc0502039dc <e1000_write_reg>
ffffffc050204082:	00055797          	auipc	a5,0x55
ffffffc050204086:	44678793          	addi	a5,a5,1094 # ffffffc0502594c8 <e1000>
ffffffc05020408a:	6398                	ld	a4,0(a5)
ffffffc05020408c:	00009797          	auipc	a5,0x9
ffffffc050204090:	52c78793          	addi	a5,a5,1324 # ffffffc05020d5b8 <rx_tail>
ffffffc050204094:	439c                	lw	a5,0(a5)
ffffffc050204096:	863e                	mv	a2,a5
ffffffc050204098:	678d                	lui	a5,0x3
ffffffc05020409a:	81878593          	addi	a1,a5,-2024 # 2818 <boot_stack_top_base-0x501ff7e8>
ffffffc05020409e:	853a                	mv	a0,a4
ffffffc0502040a0:	93dff0ef          	jal	ra,ffffffc0502039dc <e1000_write_reg>
ffffffc0502040a4:	67a1                	lui	a5,0x8
ffffffc0502040a6:	0789                	addi	a5,a5,2
ffffffc0502040a8:	fcf42c23          	sw	a5,-40(s0)
ffffffc0502040ac:	00055797          	auipc	a5,0x55
ffffffc0502040b0:	41c78793          	addi	a5,a5,1052 # ffffffc0502594c8 <e1000>
ffffffc0502040b4:	639c                	ld	a5,0(a5)
ffffffc0502040b6:	fd842703          	lw	a4,-40(s0)
ffffffc0502040ba:	863a                	mv	a2,a4
ffffffc0502040bc:	10000593          	li	a1,256
ffffffc0502040c0:	853e                	mv	a0,a5
ffffffc0502040c2:	91bff0ef          	jal	ra,ffffffc0502039dc <e1000_write_reg>
ffffffc0502040c6:	00055797          	auipc	a5,0x55
ffffffc0502040ca:	40278793          	addi	a5,a5,1026 # ffffffc0502594c8 <e1000>
ffffffc0502040ce:	639c                	ld	a5,0(a5)
ffffffc0502040d0:	4641                	li	a2,16
ffffffc0502040d2:	0d000593          	li	a1,208
ffffffc0502040d6:	853e                	mv	a0,a5
ffffffc0502040d8:	905ff0ef          	jal	ra,ffffffc0502039dc <e1000_write_reg>
ffffffc0502040dc:	0001                	nop
ffffffc0502040de:	70a2                	ld	ra,40(sp)
ffffffc0502040e0:	7402                	ld	s0,32(sp)
ffffffc0502040e2:	6145                	addi	sp,sp,48
ffffffc0502040e4:	8082                	ret

ffffffc0502040e6 <handle_rx>:
ffffffc0502040e6:	7179                	addi	sp,sp,-48
ffffffc0502040e8:	f406                	sd	ra,40(sp)
ffffffc0502040ea:	f022                	sd	s0,32(sp)
ffffffc0502040ec:	1800                	addi	s0,sp,48
ffffffc0502040ee:	fca43c23          	sd	a0,-40(s0)
ffffffc0502040f2:	00009797          	auipc	a5,0x9
ffffffc0502040f6:	4c678793          	addi	a5,a5,1222 # ffffffc05020d5b8 <rx_tail>
ffffffc0502040fa:	439c                	lw	a5,0(a5)
ffffffc0502040fc:	0000c717          	auipc	a4,0xc
ffffffc050204100:	88470713          	addi	a4,a4,-1916 # ffffffc05020f980 <rx_desc_array>
ffffffc050204104:	1782                	slli	a5,a5,0x20
ffffffc050204106:	9381                	srli	a5,a5,0x20
ffffffc050204108:	0792                	slli	a5,a5,0x4
ffffffc05020410a:	97ba                	add	a5,a5,a4
ffffffc05020410c:	0087d783          	lhu	a5,8(a5)
ffffffc050204110:	fef42623          	sw	a5,-20(s0)
ffffffc050204114:	00009797          	auipc	a5,0x9
ffffffc050204118:	4a478793          	addi	a5,a5,1188 # ffffffc05020d5b8 <rx_tail>
ffffffc05020411c:	439c                	lw	a5,0(a5)
ffffffc05020411e:	1782                	slli	a5,a5,0x20
ffffffc050204120:	9381                	srli	a5,a5,0x20
ffffffc050204122:	00b79713          	slli	a4,a5,0xb
ffffffc050204126:	0002c797          	auipc	a5,0x2c
ffffffc05020412a:	c5a78793          	addi	a5,a5,-934 # ffffffc05022fd80 <rx_pkt_buffer>
ffffffc05020412e:	97ba                	add	a5,a5,a4
ffffffc050204130:	fec42703          	lw	a4,-20(s0)
ffffffc050204134:	863a                	mv	a2,a4
ffffffc050204136:	85be                	mv	a1,a5
ffffffc050204138:	fd843503          	ld	a0,-40(s0)
ffffffc05020413c:	416080ef          	jal	ra,ffffffc05020c552 <memcpy>
ffffffc050204140:	fec42783          	lw	a5,-20(s0)
ffffffc050204144:	853e                	mv	a0,a5
ffffffc050204146:	70a2                	ld	ra,40(sp)
ffffffc050204148:	7402                	ld	s0,32(sp)
ffffffc05020414a:	6145                	addi	sp,sp,48
ffffffc05020414c:	8082                	ret

ffffffc05020414e <e1000_init>:
ffffffc05020414e:	1141                	addi	sp,sp,-16
ffffffc050204150:	e406                	sd	ra,8(sp)
ffffffc050204152:	e022                	sd	s0,0(sp)
ffffffc050204154:	0800                	addi	s0,sp,16
ffffffc050204156:	c47ff0ef          	jal	ra,ffffffc050203d9c <e1000_reset>
ffffffc05020415a:	d1bff0ef          	jal	ra,ffffffc050203e74 <e1000_configure_tx>
ffffffc05020415e:	e1dff0ef          	jal	ra,ffffffc050203f7a <e1000_configure_rx>
ffffffc050204162:	0001                	nop
ffffffc050204164:	60a2                	ld	ra,8(sp)
ffffffc050204166:	6402                	ld	s0,0(sp)
ffffffc050204168:	0141                	addi	sp,sp,16
ffffffc05020416a:	8082                	ret

ffffffc05020416c <e1000_transmit>:
ffffffc05020416c:	7139                	addi	sp,sp,-64
ffffffc05020416e:	fc06                	sd	ra,56(sp)
ffffffc050204170:	f822                	sd	s0,48(sp)
ffffffc050204172:	0080                	addi	s0,sp,64
ffffffc050204174:	fca43423          	sd	a0,-56(s0)
ffffffc050204178:	87ae                	mv	a5,a1
ffffffc05020417a:	fcf42223          	sw	a5,-60(s0)
ffffffc05020417e:	84dff0ef          	jal	ra,ffffffc0502039ca <local_flush_dcache>
ffffffc050204182:	00055797          	auipc	a5,0x55
ffffffc050204186:	34678793          	addi	a5,a5,838 # ffffffc0502594c8 <e1000>
ffffffc05020418a:	6398                	ld	a4,0(a5)
ffffffc05020418c:	6791                	lui	a5,0x4
ffffffc05020418e:	81078593          	addi	a1,a5,-2032 # 3810 <boot_stack_top_base-0x501fe7f0>
ffffffc050204192:	853a                	mv	a0,a4
ffffffc050204194:	883ff0ef          	jal	ra,ffffffc050203a16 <e1000_read_reg>
ffffffc050204198:	87aa                	mv	a5,a0
ffffffc05020419a:	0007871b          	sext.w	a4,a5
ffffffc05020419e:	00009797          	auipc	a5,0x9
ffffffc0502041a2:	47a78793          	addi	a5,a5,1146 # ffffffc05020d618 <tx_head>
ffffffc0502041a6:	c398                	sw	a4,0(a5)
ffffffc0502041a8:	00055797          	auipc	a5,0x55
ffffffc0502041ac:	32078793          	addi	a5,a5,800 # ffffffc0502594c8 <e1000>
ffffffc0502041b0:	6398                	ld	a4,0(a5)
ffffffc0502041b2:	6791                	lui	a5,0x4
ffffffc0502041b4:	81878593          	addi	a1,a5,-2024 # 3818 <boot_stack_top_base-0x501fe7e8>
ffffffc0502041b8:	853a                	mv	a0,a4
ffffffc0502041ba:	85dff0ef          	jal	ra,ffffffc050203a16 <e1000_read_reg>
ffffffc0502041be:	87aa                	mv	a5,a0
ffffffc0502041c0:	0007871b          	sext.w	a4,a5
ffffffc0502041c4:	00009797          	auipc	a5,0x9
ffffffc0502041c8:	45878793          	addi	a5,a5,1112 # ffffffc05020d61c <tx_tail>
ffffffc0502041cc:	c398                	sw	a4,0(a5)
ffffffc0502041ce:	00009797          	auipc	a5,0x9
ffffffc0502041d2:	44e78793          	addi	a5,a5,1102 # ffffffc05020d61c <tx_tail>
ffffffc0502041d6:	439c                	lw	a5,0(a5)
ffffffc0502041d8:	0000b717          	auipc	a4,0xb
ffffffc0502041dc:	3a870713          	addi	a4,a4,936 # ffffffc05020f580 <tx_desc_array>
ffffffc0502041e0:	1782                	slli	a5,a5,0x20
ffffffc0502041e2:	9381                	srli	a5,a5,0x20
ffffffc0502041e4:	0792                	slli	a5,a5,0x4
ffffffc0502041e6:	97ba                	add	a5,a5,a4
ffffffc0502041e8:	00c7c783          	lbu	a5,12(a5)
ffffffc0502041ec:	8b85                	andi	a5,a5,1
ffffffc0502041ee:	fef407a3          	sb	a5,-17(s0)
ffffffc0502041f2:	fef44783          	lbu	a5,-17(s0)
ffffffc0502041f6:	0ff7f793          	andi	a5,a5,255
ffffffc0502041fa:	efa9                	bnez	a5,ffffffc050204254 <e1000_transmit+0xe8>
ffffffc0502041fc:	00055797          	auipc	a5,0x55
ffffffc050204200:	2cc78793          	addi	a5,a5,716 # ffffffc0502594c8 <e1000>
ffffffc050204204:	639c                	ld	a5,0(a5)
ffffffc050204206:	4609                	li	a2,2
ffffffc050204208:	0d000593          	li	a1,208
ffffffc05020420c:	853e                	mv	a0,a5
ffffffc05020420e:	fceff0ef          	jal	ra,ffffffc0502039dc <e1000_write_reg>
ffffffc050204212:	0005a797          	auipc	a5,0x5a
ffffffc050204216:	a2e78793          	addi	a5,a5,-1490 # ffffffc05025dc40 <current_running>
ffffffc05020421a:	639c                	ld	a5,0(a5)
ffffffc05020421c:	0207ae23          	sw	zero,60(a5)
ffffffc050204220:	0005a797          	auipc	a5,0x5a
ffffffc050204224:	a2078793          	addi	a5,a5,-1504 # ffffffc05025dc40 <current_running>
ffffffc050204228:	639c                	ld	a5,0(a5)
ffffffc05020422a:	07c1                	addi	a5,a5,16
ffffffc05020422c:	85be                	mv	a1,a5
ffffffc05020422e:	00009517          	auipc	a0,0x9
ffffffc050204232:	31a50513          	addi	a0,a0,794 # ffffffc05020d548 <send_queue>
ffffffc050204236:	2d7030ef          	jal	ra,ffffffc050207d0c <en_queue>
ffffffc05020423a:	5f2030ef          	jal	ra,ffffffc05020782c <do_scheduler>
ffffffc05020423e:	00055797          	auipc	a5,0x55
ffffffc050204242:	28a78793          	addi	a5,a5,650 # ffffffc0502594c8 <e1000>
ffffffc050204246:	639c                	ld	a5,0(a5)
ffffffc050204248:	4609                	li	a2,2
ffffffc05020424a:	0d800593          	li	a1,216
ffffffc05020424e:	853e                	mv	a0,a5
ffffffc050204250:	f8cff0ef          	jal	ra,ffffffc0502039dc <e1000_write_reg>
ffffffc050204254:	fc843703          	ld	a4,-56(s0)
ffffffc050204258:	6785                	lui	a5,0x1
ffffffc05020425a:	17fd                	addi	a5,a5,-1
ffffffc05020425c:	8ff9                	and	a5,a5,a4
ffffffc05020425e:	fef43023          	sd	a5,-32(s0)
ffffffc050204262:	fc843783          	ld	a5,-56(s0)
ffffffc050204266:	853e                	mv	a0,a5
ffffffc050204268:	7ad010ef          	jal	ra,ffffffc050206214 <get_page_addr>
ffffffc05020426c:	872a                	mv	a4,a0
ffffffc05020426e:	fe043783          	ld	a5,-32(s0)
ffffffc050204272:	8fd9                	or	a5,a5,a4
ffffffc050204274:	fcf43c23          	sd	a5,-40(s0)
ffffffc050204278:	00009797          	auipc	a5,0x9
ffffffc05020427c:	3a478793          	addi	a5,a5,932 # ffffffc05020d61c <tx_tail>
ffffffc050204280:	439c                	lw	a5,0(a5)
ffffffc050204282:	2781                	sext.w	a5,a5
ffffffc050204284:	fc442703          	lw	a4,-60(s0)
ffffffc050204288:	1742                	slli	a4,a4,0x30
ffffffc05020428a:	9341                	srli	a4,a4,0x30
ffffffc05020428c:	863a                	mv	a2,a4
ffffffc05020428e:	fd843583          	ld	a1,-40(s0)
ffffffc050204292:	853e                	mv	a0,a5
ffffffc050204294:	875ff0ef          	jal	ra,ffffffc050203b08 <set_tx>
ffffffc050204298:	00009797          	auipc	a5,0x9
ffffffc05020429c:	38478793          	addi	a5,a5,900 # ffffffc05020d61c <tx_tail>
ffffffc0502042a0:	853e                	mv	a0,a5
ffffffc0502042a2:	821ff0ef          	jal	ra,ffffffc050203ac2 <update_loop>
ffffffc0502042a6:	00055797          	auipc	a5,0x55
ffffffc0502042aa:	22278793          	addi	a5,a5,546 # ffffffc0502594c8 <e1000>
ffffffc0502042ae:	6398                	ld	a4,0(a5)
ffffffc0502042b0:	00009797          	auipc	a5,0x9
ffffffc0502042b4:	36c78793          	addi	a5,a5,876 # ffffffc05020d61c <tx_tail>
ffffffc0502042b8:	439c                	lw	a5,0(a5)
ffffffc0502042ba:	863e                	mv	a2,a5
ffffffc0502042bc:	6791                	lui	a5,0x4
ffffffc0502042be:	81878593          	addi	a1,a5,-2024 # 3818 <boot_stack_top_base-0x501fe7e8>
ffffffc0502042c2:	853a                	mv	a0,a4
ffffffc0502042c4:	f18ff0ef          	jal	ra,ffffffc0502039dc <e1000_write_reg>
ffffffc0502042c8:	f02ff0ef          	jal	ra,ffffffc0502039ca <local_flush_dcache>
ffffffc0502042cc:	fc442783          	lw	a5,-60(s0)
ffffffc0502042d0:	853e                	mv	a0,a5
ffffffc0502042d2:	70e2                	ld	ra,56(sp)
ffffffc0502042d4:	7442                	ld	s0,48(sp)
ffffffc0502042d6:	6121                	addi	sp,sp,64
ffffffc0502042d8:	8082                	ret

ffffffc0502042da <e1000_poll>:
ffffffc0502042da:	7179                	addi	sp,sp,-48
ffffffc0502042dc:	f406                	sd	ra,40(sp)
ffffffc0502042de:	f022                	sd	s0,32(sp)
ffffffc0502042e0:	1800                	addi	s0,sp,48
ffffffc0502042e2:	fca43c23          	sd	a0,-40(s0)
ffffffc0502042e6:	ee4ff0ef          	jal	ra,ffffffc0502039ca <local_flush_dcache>
ffffffc0502042ea:	00055797          	auipc	a5,0x55
ffffffc0502042ee:	1de78793          	addi	a5,a5,478 # ffffffc0502594c8 <e1000>
ffffffc0502042f2:	6398                	ld	a4,0(a5)
ffffffc0502042f4:	678d                	lui	a5,0x3
ffffffc0502042f6:	81078593          	addi	a1,a5,-2032 # 2810 <boot_stack_top_base-0x501ff7f0>
ffffffc0502042fa:	853a                	mv	a0,a4
ffffffc0502042fc:	f1aff0ef          	jal	ra,ffffffc050203a16 <e1000_read_reg>
ffffffc050204300:	87aa                	mv	a5,a0
ffffffc050204302:	0007871b          	sext.w	a4,a5
ffffffc050204306:	00009797          	auipc	a5,0x9
ffffffc05020430a:	31a78793          	addi	a5,a5,794 # ffffffc05020d620 <rx_head>
ffffffc05020430e:	c398                	sw	a4,0(a5)
ffffffc050204310:	00055797          	auipc	a5,0x55
ffffffc050204314:	1b878793          	addi	a5,a5,440 # ffffffc0502594c8 <e1000>
ffffffc050204318:	6398                	ld	a4,0(a5)
ffffffc05020431a:	678d                	lui	a5,0x3
ffffffc05020431c:	81878593          	addi	a1,a5,-2024 # 2818 <boot_stack_top_base-0x501ff7e8>
ffffffc050204320:	853a                	mv	a0,a4
ffffffc050204322:	ef4ff0ef          	jal	ra,ffffffc050203a16 <e1000_read_reg>
ffffffc050204326:	87aa                	mv	a5,a0
ffffffc050204328:	0007871b          	sext.w	a4,a5
ffffffc05020432c:	00009797          	auipc	a5,0x9
ffffffc050204330:	28c78793          	addi	a5,a5,652 # ffffffc05020d5b8 <rx_tail>
ffffffc050204334:	c398                	sw	a4,0(a5)
ffffffc050204336:	00009797          	auipc	a5,0x9
ffffffc05020433a:	2ea78793          	addi	a5,a5,746 # ffffffc05020d620 <rx_head>
ffffffc05020433e:	439c                	lw	a5,0(a5)
ffffffc050204340:	0000b717          	auipc	a4,0xb
ffffffc050204344:	64070713          	addi	a4,a4,1600 # ffffffc05020f980 <rx_desc_array>
ffffffc050204348:	1782                	slli	a5,a5,0x20
ffffffc05020434a:	9381                	srli	a5,a5,0x20
ffffffc05020434c:	0792                	slli	a5,a5,0x4
ffffffc05020434e:	97ba                	add	a5,a5,a4
ffffffc050204350:	00c7c783          	lbu	a5,12(a5)
ffffffc050204354:	efb9                	bnez	a5,ffffffc0502043b2 <e1000_poll+0xd8>
ffffffc050204356:	00009797          	auipc	a5,0x9
ffffffc05020435a:	26278793          	addi	a5,a5,610 # ffffffc05020d5b8 <rx_tail>
ffffffc05020435e:	439c                	lw	a5,0(a5)
ffffffc050204360:	2785                	addiw	a5,a5,1
ffffffc050204362:	2781                	sext.w	a5,a5
ffffffc050204364:	03f7f793          	andi	a5,a5,63
ffffffc050204368:	0007871b          	sext.w	a4,a5
ffffffc05020436c:	00009797          	auipc	a5,0x9
ffffffc050204370:	2b478793          	addi	a5,a5,692 # ffffffc05020d620 <rx_head>
ffffffc050204374:	439c                	lw	a5,0(a5)
ffffffc050204376:	02f71e63          	bne	a4,a5,ffffffc0502043b2 <e1000_poll+0xd8>
ffffffc05020437a:	0005a797          	auipc	a5,0x5a
ffffffc05020437e:	8c678793          	addi	a5,a5,-1850 # ffffffc05025dc40 <current_running>
ffffffc050204382:	639c                	ld	a5,0(a5)
ffffffc050204384:	0207ae23          	sw	zero,60(a5)
ffffffc050204388:	0005a797          	auipc	a5,0x5a
ffffffc05020438c:	8b878793          	addi	a5,a5,-1864 # ffffffc05025dc40 <current_running>
ffffffc050204390:	639c                	ld	a5,0(a5)
ffffffc050204392:	07c1                	addi	a5,a5,16
ffffffc050204394:	85be                	mv	a1,a5
ffffffc050204396:	00009517          	auipc	a0,0x9
ffffffc05020439a:	1c250513          	addi	a0,a0,450 # ffffffc05020d558 <recv_queue>
ffffffc05020439e:	16f030ef          	jal	ra,ffffffc050207d0c <en_queue>
ffffffc0502043a2:	48a030ef          	jal	ra,ffffffc05020782c <do_scheduler>
ffffffc0502043a6:	fd843503          	ld	a0,-40(s0)
ffffffc0502043aa:	f31ff0ef          	jal	ra,ffffffc0502042da <e1000_poll>
ffffffc0502043ae:	87aa                	mv	a5,a0
ffffffc0502043b0:	a8a9                	j	ffffffc05020440a <e1000_poll+0x130>
ffffffc0502043b2:	00009797          	auipc	a5,0x9
ffffffc0502043b6:	20678793          	addi	a5,a5,518 # ffffffc05020d5b8 <rx_tail>
ffffffc0502043ba:	853e                	mv	a0,a5
ffffffc0502043bc:	f06ff0ef          	jal	ra,ffffffc050203ac2 <update_loop>
ffffffc0502043c0:	fd843503          	ld	a0,-40(s0)
ffffffc0502043c4:	d23ff0ef          	jal	ra,ffffffc0502040e6 <handle_rx>
ffffffc0502043c8:	87aa                	mv	a5,a0
ffffffc0502043ca:	fef42623          	sw	a5,-20(s0)
ffffffc0502043ce:	00009797          	auipc	a5,0x9
ffffffc0502043d2:	1ea78793          	addi	a5,a5,490 # ffffffc05020d5b8 <rx_tail>
ffffffc0502043d6:	439c                	lw	a5,0(a5)
ffffffc0502043d8:	2781                	sext.w	a5,a5
ffffffc0502043da:	853e                	mv	a0,a5
ffffffc0502043dc:	8dbff0ef          	jal	ra,ffffffc050203cb6 <init_rx>
ffffffc0502043e0:	00055797          	auipc	a5,0x55
ffffffc0502043e4:	0e878793          	addi	a5,a5,232 # ffffffc0502594c8 <e1000>
ffffffc0502043e8:	6398                	ld	a4,0(a5)
ffffffc0502043ea:	00009797          	auipc	a5,0x9
ffffffc0502043ee:	1ce78793          	addi	a5,a5,462 # ffffffc05020d5b8 <rx_tail>
ffffffc0502043f2:	439c                	lw	a5,0(a5)
ffffffc0502043f4:	863e                	mv	a2,a5
ffffffc0502043f6:	678d                	lui	a5,0x3
ffffffc0502043f8:	81878593          	addi	a1,a5,-2024 # 2818 <boot_stack_top_base-0x501ff7e8>
ffffffc0502043fc:	853a                	mv	a0,a4
ffffffc0502043fe:	ddeff0ef          	jal	ra,ffffffc0502039dc <e1000_write_reg>
ffffffc050204402:	dc8ff0ef          	jal	ra,ffffffc0502039ca <local_flush_dcache>
ffffffc050204406:	fec42783          	lw	a5,-20(s0)
ffffffc05020440a:	853e                	mv	a0,a5
ffffffc05020440c:	70a2                	ld	ra,40(sp)
ffffffc05020440e:	7402                	ld	s0,32(sp)
ffffffc050204410:	6145                	addi	sp,sp,48
ffffffc050204412:	8082                	ret

ffffffc050204414 <check_send_valid>:
ffffffc050204414:	1141                	addi	sp,sp,-16
ffffffc050204416:	e422                	sd	s0,8(sp)
ffffffc050204418:	0800                	addi	s0,sp,16
ffffffc05020441a:	00009797          	auipc	a5,0x9
ffffffc05020441e:	20278793          	addi	a5,a5,514 # ffffffc05020d61c <tx_tail>
ffffffc050204422:	439c                	lw	a5,0(a5)
ffffffc050204424:	0000b717          	auipc	a4,0xb
ffffffc050204428:	15c70713          	addi	a4,a4,348 # ffffffc05020f580 <tx_desc_array>
ffffffc05020442c:	1782                	slli	a5,a5,0x20
ffffffc05020442e:	9381                	srli	a5,a5,0x20
ffffffc050204430:	0792                	slli	a5,a5,0x4
ffffffc050204432:	97ba                	add	a5,a5,a4
ffffffc050204434:	00c7c783          	lbu	a5,12(a5)
ffffffc050204438:	873e                	mv	a4,a5
ffffffc05020443a:	4785                	li	a5,1
ffffffc05020443c:	00f71463          	bne	a4,a5,ffffffc050204444 <check_send_valid+0x30>
ffffffc050204440:	4785                	li	a5,1
ffffffc050204442:	a011                	j	ffffffc050204446 <check_send_valid+0x32>
ffffffc050204444:	4781                	li	a5,0
ffffffc050204446:	853e                	mv	a0,a5
ffffffc050204448:	6422                	ld	s0,8(sp)
ffffffc05020444a:	0141                	addi	sp,sp,16
ffffffc05020444c:	8082                	ret

ffffffc05020444e <check_recv_valid>:
ffffffc05020444e:	1141                	addi	sp,sp,-16
ffffffc050204450:	e406                	sd	ra,8(sp)
ffffffc050204452:	e022                	sd	s0,0(sp)
ffffffc050204454:	0800                	addi	s0,sp,16
ffffffc050204456:	00055797          	auipc	a5,0x55
ffffffc05020445a:	07278793          	addi	a5,a5,114 # ffffffc0502594c8 <e1000>
ffffffc05020445e:	6398                	ld	a4,0(a5)
ffffffc050204460:	678d                	lui	a5,0x3
ffffffc050204462:	81078593          	addi	a1,a5,-2032 # 2810 <boot_stack_top_base-0x501ff7f0>
ffffffc050204466:	853a                	mv	a0,a4
ffffffc050204468:	daeff0ef          	jal	ra,ffffffc050203a16 <e1000_read_reg>
ffffffc05020446c:	87aa                	mv	a5,a0
ffffffc05020446e:	0007871b          	sext.w	a4,a5
ffffffc050204472:	00009797          	auipc	a5,0x9
ffffffc050204476:	1ae78793          	addi	a5,a5,430 # ffffffc05020d620 <rx_head>
ffffffc05020447a:	c398                	sw	a4,0(a5)
ffffffc05020447c:	00009797          	auipc	a5,0x9
ffffffc050204480:	13c78793          	addi	a5,a5,316 # ffffffc05020d5b8 <rx_tail>
ffffffc050204484:	439c                	lw	a5,0(a5)
ffffffc050204486:	0000b717          	auipc	a4,0xb
ffffffc05020448a:	4fa70713          	addi	a4,a4,1274 # ffffffc05020f980 <rx_desc_array>
ffffffc05020448e:	1782                	slli	a5,a5,0x20
ffffffc050204490:	9381                	srli	a5,a5,0x20
ffffffc050204492:	0792                	slli	a5,a5,0x4
ffffffc050204494:	97ba                	add	a5,a5,a4
ffffffc050204496:	00c7c783          	lbu	a5,12(a5)
ffffffc05020449a:	873e                	mv	a4,a5
ffffffc05020449c:	4785                	li	a5,1
ffffffc05020449e:	00f71a63          	bne	a4,a5,ffffffc0502044b2 <check_recv_valid+0x64>
ffffffc0502044a2:	00008517          	auipc	a0,0x8
ffffffc0502044a6:	64650513          	addi	a0,a0,1606 # ffffffc05020cae8 <strcat+0x282>
ffffffc0502044aa:	050080ef          	jal	ra,ffffffc05020c4fa <printl>
ffffffc0502044ae:	4785                	li	a5,1
ffffffc0502044b0:	a011                	j	ffffffc0502044b4 <check_recv_valid+0x66>
ffffffc0502044b2:	4781                	li	a5,0
ffffffc0502044b4:	853e                	mv	a0,a5
ffffffc0502044b6:	60a2                	ld	ra,8(sp)
ffffffc0502044b8:	6402                	ld	s0,0(sp)
ffffffc0502044ba:	0141                	addi	sp,sp,16
ffffffc0502044bc:	8082                	ret

ffffffc0502044be <e1000_handle_txqe>:
ffffffc0502044be:	1141                	addi	sp,sp,-16
ffffffc0502044c0:	e406                	sd	ra,8(sp)
ffffffc0502044c2:	e022                	sd	s0,0(sp)
ffffffc0502044c4:	0800                	addi	s0,sp,16
ffffffc0502044c6:	00009517          	auipc	a0,0x9
ffffffc0502044ca:	08250513          	addi	a0,a0,130 # ffffffc05020d548 <send_queue>
ffffffc0502044ce:	6de030ef          	jal	ra,ffffffc050207bac <do_unblock>
ffffffc0502044d2:	0001                	nop
ffffffc0502044d4:	60a2                	ld	ra,8(sp)
ffffffc0502044d6:	6402                	ld	s0,0(sp)
ffffffc0502044d8:	0141                	addi	sp,sp,16
ffffffc0502044da:	8082                	ret

ffffffc0502044dc <e1000_handle_rxdmt0>:
ffffffc0502044dc:	1141                	addi	sp,sp,-16
ffffffc0502044de:	e406                	sd	ra,8(sp)
ffffffc0502044e0:	e022                	sd	s0,0(sp)
ffffffc0502044e2:	0800                	addi	s0,sp,16
ffffffc0502044e4:	00009517          	auipc	a0,0x9
ffffffc0502044e8:	07450513          	addi	a0,a0,116 # ffffffc05020d558 <recv_queue>
ffffffc0502044ec:	6c0030ef          	jal	ra,ffffffc050207bac <do_unblock>
ffffffc0502044f0:	0001                	nop
ffffffc0502044f2:	60a2                	ld	ra,8(sp)
ffffffc0502044f4:	6402                	ld	s0,0(sp)
ffffffc0502044f6:	0141                	addi	sp,sp,16
ffffffc0502044f8:	8082                	ret

ffffffc0502044fa <e1000_echo>:
ffffffc0502044fa:	7179                	addi	sp,sp,-48
ffffffc0502044fc:	f406                	sd	ra,40(sp)
ffffffc0502044fe:	f022                	sd	s0,32(sp)
ffffffc050204500:	1800                	addi	s0,sp,48
ffffffc050204502:	fca43c23          	sd	a0,-40(s0)
ffffffc050204506:	87ae                	mv	a5,a1
ffffffc050204508:	fcf42a23          	sw	a5,-44(s0)
ffffffc05020450c:	fd843783          	ld	a5,-40(s0)
ffffffc050204510:	fef43023          	sd	a5,-32(s0)
ffffffc050204514:	fd442783          	lw	a5,-44(s0)
ffffffc050204518:	2781                	sext.w	a5,a5
ffffffc05020451a:	c7d5                	beqz	a5,ffffffc0502045c6 <e1000_echo+0xcc>
ffffffc05020451c:	00008517          	auipc	a0,0x8
ffffffc050204520:	5dc50513          	addi	a0,a0,1500 # ffffffc05020caf8 <strcat+0x292>
ffffffc050204524:	6c7070ef          	jal	ra,ffffffc05020c3ea <printk>
ffffffc050204528:	fe042623          	sw	zero,-20(s0)
ffffffc05020452c:	a831                	j	ffffffc050204548 <e1000_echo+0x4e>
ffffffc05020452e:	fec42783          	lw	a5,-20(s0)
ffffffc050204532:	fe043703          	ld	a4,-32(s0)
ffffffc050204536:	97ba                	add	a5,a5,a4
ffffffc050204538:	577d                	li	a4,-1
ffffffc05020453a:	00e78023          	sb	a4,0(a5)
ffffffc05020453e:	fec42783          	lw	a5,-20(s0)
ffffffc050204542:	2785                	addiw	a5,a5,1
ffffffc050204544:	fef42623          	sw	a5,-20(s0)
ffffffc050204548:	fec42783          	lw	a5,-20(s0)
ffffffc05020454c:	0007871b          	sext.w	a4,a5
ffffffc050204550:	4795                	li	a5,5
ffffffc050204552:	fce7dee3          	bge	a5,a4,ffffffc05020452e <e1000_echo+0x34>
ffffffc050204556:	fe043783          	ld	a5,-32(s0)
ffffffc05020455a:	03878793          	addi	a5,a5,56
ffffffc05020455e:	07300713          	li	a4,115
ffffffc050204562:	00e78023          	sb	a4,0(a5)
ffffffc050204566:	fe043783          	ld	a5,-32(s0)
ffffffc05020456a:	03978793          	addi	a5,a5,57
ffffffc05020456e:	07000713          	li	a4,112
ffffffc050204572:	00e78023          	sb	a4,0(a5)
ffffffc050204576:	fe043783          	ld	a5,-32(s0)
ffffffc05020457a:	03a78793          	addi	a5,a5,58
ffffffc05020457e:	06f00713          	li	a4,111
ffffffc050204582:	00e78023          	sb	a4,0(a5)
ffffffc050204586:	fe043783          	ld	a5,-32(s0)
ffffffc05020458a:	03b78793          	addi	a5,a5,59
ffffffc05020458e:	06e00713          	li	a4,110
ffffffc050204592:	00e78023          	sb	a4,0(a5)
ffffffc050204596:	fe043783          	ld	a5,-32(s0)
ffffffc05020459a:	03c78793          	addi	a5,a5,60
ffffffc05020459e:	07300713          	li	a4,115
ffffffc0502045a2:	00e78023          	sb	a4,0(a5)
ffffffc0502045a6:	fe043783          	ld	a5,-32(s0)
ffffffc0502045aa:	03d78793          	addi	a5,a5,61
ffffffc0502045ae:	06500713          	li	a4,101
ffffffc0502045b2:	00e78023          	sb	a4,0(a5)
ffffffc0502045b6:	fd442783          	lw	a5,-44(s0)
ffffffc0502045ba:	85be                	mv	a1,a5
ffffffc0502045bc:	fd843503          	ld	a0,-40(s0)
ffffffc0502045c0:	badff0ef          	jal	ra,ffffffc05020416c <e1000_transmit>
ffffffc0502045c4:	a011                	j	ffffffc0502045c8 <e1000_echo+0xce>
ffffffc0502045c6:	0001                	nop
ffffffc0502045c8:	70a2                	ld	ra,40(sp)
ffffffc0502045ca:	7402                	ld	s0,32(sp)
ffffffc0502045cc:	6145                	addi	sp,sp,48
ffffffc0502045ce:	8082                	ret

ffffffc0502045d0 <writel>:
ffffffc0502045d0:	1101                	addi	sp,sp,-32
ffffffc0502045d2:	ec22                	sd	s0,24(sp)
ffffffc0502045d4:	1000                	addi	s0,sp,32
ffffffc0502045d6:	87aa                	mv	a5,a0
ffffffc0502045d8:	feb43023          	sd	a1,-32(s0)
ffffffc0502045dc:	fef42623          	sw	a5,-20(s0)
ffffffc0502045e0:	0550000f          	fence	ow,ow
ffffffc0502045e4:	fe043783          	ld	a5,-32(s0)
ffffffc0502045e8:	fec42703          	lw	a4,-20(s0)
ffffffc0502045ec:	c398                	sw	a4,0(a5)
ffffffc0502045ee:	0001                	nop
ffffffc0502045f0:	6462                	ld	s0,24(sp)
ffffffc0502045f2:	6105                	addi	sp,sp,32
ffffffc0502045f4:	8082                	ret

ffffffc0502045f6 <readl>:
ffffffc0502045f6:	7179                	addi	sp,sp,-48
ffffffc0502045f8:	f422                	sd	s0,40(sp)
ffffffc0502045fa:	1800                	addi	s0,sp,48
ffffffc0502045fc:	fca43c23          	sd	a0,-40(s0)
ffffffc050204600:	fd843783          	ld	a5,-40(s0)
ffffffc050204604:	439c                	lw	a5,0(a5)
ffffffc050204606:	fef42623          	sw	a5,-20(s0)
ffffffc05020460a:	0aa0000f          	fence	ir,ir
ffffffc05020460e:	fec42783          	lw	a5,-20(s0)
ffffffc050204612:	853e                	mv	a0,a5
ffffffc050204614:	7422                	ld	s0,40(sp)
ffffffc050204616:	6145                	addi	sp,sp,48
ffffffc050204618:	8082                	ret

ffffffc05020461a <plic_toggle>:
ffffffc05020461a:	7179                	addi	sp,sp,-48
ffffffc05020461c:	f406                	sd	ra,40(sp)
ffffffc05020461e:	f022                	sd	s0,32(sp)
ffffffc050204620:	1800                	addi	s0,sp,48
ffffffc050204622:	fca43c23          	sd	a0,-40(s0)
ffffffc050204626:	87ae                	mv	a5,a1
ffffffc050204628:	8732                	mv	a4,a2
ffffffc05020462a:	fcf42a23          	sw	a5,-44(s0)
ffffffc05020462e:	87ba                	mv	a5,a4
ffffffc050204630:	fcf42823          	sw	a5,-48(s0)
ffffffc050204634:	fd843783          	ld	a5,-40(s0)
ffffffc050204638:	6b98                	ld	a4,16(a5)
ffffffc05020463a:	fd442783          	lw	a5,-44(s0)
ffffffc05020463e:	41f7d69b          	sraiw	a3,a5,0x1f
ffffffc050204642:	01b6d69b          	srliw	a3,a3,0x1b
ffffffc050204646:	9fb5                	addw	a5,a5,a3
ffffffc050204648:	4057d79b          	sraiw	a5,a5,0x5
ffffffc05020464c:	2781                	sext.w	a5,a5
ffffffc05020464e:	078a                	slli	a5,a5,0x2
ffffffc050204650:	97ba                	add	a5,a5,a4
ffffffc050204652:	fef43423          	sd	a5,-24(s0)
ffffffc050204656:	fd442703          	lw	a4,-44(s0)
ffffffc05020465a:	41f7579b          	sraiw	a5,a4,0x1f
ffffffc05020465e:	01b7d79b          	srliw	a5,a5,0x1b
ffffffc050204662:	9f3d                	addw	a4,a4,a5
ffffffc050204664:	8b7d                	andi	a4,a4,31
ffffffc050204666:	40f707bb          	subw	a5,a4,a5
ffffffc05020466a:	2781                	sext.w	a5,a5
ffffffc05020466c:	4705                	li	a4,1
ffffffc05020466e:	00f717bb          	sllw	a5,a4,a5
ffffffc050204672:	2781                	sext.w	a5,a5
ffffffc050204674:	fef42223          	sw	a5,-28(s0)
ffffffc050204678:	fd042783          	lw	a5,-48(s0)
ffffffc05020467c:	2781                	sext.w	a5,a5
ffffffc05020467e:	c395                	beqz	a5,ffffffc0502046a2 <plic_toggle+0x88>
ffffffc050204680:	fe843503          	ld	a0,-24(s0)
ffffffc050204684:	f73ff0ef          	jal	ra,ffffffc0502045f6 <readl>
ffffffc050204688:	87aa                	mv	a5,a0
ffffffc05020468a:	0007871b          	sext.w	a4,a5
ffffffc05020468e:	fe442783          	lw	a5,-28(s0)
ffffffc050204692:	8fd9                	or	a5,a5,a4
ffffffc050204694:	2781                	sext.w	a5,a5
ffffffc050204696:	fe843583          	ld	a1,-24(s0)
ffffffc05020469a:	853e                	mv	a0,a5
ffffffc05020469c:	f35ff0ef          	jal	ra,ffffffc0502045d0 <writel>
ffffffc0502046a0:	a025                	j	ffffffc0502046c8 <plic_toggle+0xae>
ffffffc0502046a2:	fe843503          	ld	a0,-24(s0)
ffffffc0502046a6:	f51ff0ef          	jal	ra,ffffffc0502045f6 <readl>
ffffffc0502046aa:	87aa                	mv	a5,a0
ffffffc0502046ac:	0007871b          	sext.w	a4,a5
ffffffc0502046b0:	fe442783          	lw	a5,-28(s0)
ffffffc0502046b4:	fff7c793          	not	a5,a5
ffffffc0502046b8:	2781                	sext.w	a5,a5
ffffffc0502046ba:	8ff9                	and	a5,a5,a4
ffffffc0502046bc:	2781                	sext.w	a5,a5
ffffffc0502046be:	fe843583          	ld	a1,-24(s0)
ffffffc0502046c2:	853e                	mv	a0,a5
ffffffc0502046c4:	f0dff0ef          	jal	ra,ffffffc0502045d0 <writel>
ffffffc0502046c8:	0001                	nop
ffffffc0502046ca:	70a2                	ld	ra,40(sp)
ffffffc0502046cc:	7402                	ld	s0,32(sp)
ffffffc0502046ce:	6145                	addi	sp,sp,48
ffffffc0502046d0:	8082                	ret

ffffffc0502046d2 <plic_irq_unmask>:
ffffffc0502046d2:	7179                	addi	sp,sp,-48
ffffffc0502046d4:	f406                	sd	ra,40(sp)
ffffffc0502046d6:	f022                	sd	s0,32(sp)
ffffffc0502046d8:	1800                	addi	s0,sp,48
ffffffc0502046da:	87aa                	mv	a5,a0
ffffffc0502046dc:	fcf42e23          	sw	a5,-36(s0)
ffffffc0502046e0:	4785                	li	a5,1
ffffffc0502046e2:	fef42623          	sw	a5,-20(s0)
ffffffc0502046e6:	fec42683          	lw	a3,-20(s0)
ffffffc0502046ea:	0004b797          	auipc	a5,0x4b
ffffffc0502046ee:	69678793          	addi	a5,a5,1686 # ffffffc05024fd80 <plic_regs>
ffffffc0502046f2:	639c                	ld	a5,0(a5)
ffffffc0502046f4:	fdc42703          	lw	a4,-36(s0)
ffffffc0502046f8:	0027171b          	slliw	a4,a4,0x2
ffffffc0502046fc:	2701                	sext.w	a4,a4
ffffffc0502046fe:	97ba                	add	a5,a5,a4
ffffffc050204700:	85be                	mv	a1,a5
ffffffc050204702:	8536                	mv	a0,a3
ffffffc050204704:	ecdff0ef          	jal	ra,ffffffc0502045d0 <writel>
ffffffc050204708:	00055797          	auipc	a5,0x55
ffffffc05020470c:	dc878793          	addi	a5,a5,-568 # ffffffc0502594d0 <plic_handlers>
ffffffc050204710:	fef43023          	sd	a5,-32(s0)
ffffffc050204714:	fe043783          	ld	a5,-32(s0)
ffffffc050204718:	439c                	lw	a5,0(a5)
ffffffc05020471a:	cb99                	beqz	a5,ffffffc050204730 <plic_irq_unmask+0x5e>
ffffffc05020471c:	fec42703          	lw	a4,-20(s0)
ffffffc050204720:	fdc42783          	lw	a5,-36(s0)
ffffffc050204724:	863a                	mv	a2,a4
ffffffc050204726:	85be                	mv	a1,a5
ffffffc050204728:	fe043503          	ld	a0,-32(s0)
ffffffc05020472c:	eefff0ef          	jal	ra,ffffffc05020461a <plic_toggle>
ffffffc050204730:	0001                	nop
ffffffc050204732:	70a2                	ld	ra,40(sp)
ffffffc050204734:	7402                	ld	s0,32(sp)
ffffffc050204736:	6145                	addi	sp,sp,48
ffffffc050204738:	8082                	ret

ffffffc05020473a <plic_claim>:
ffffffc05020473a:	1101                	addi	sp,sp,-32
ffffffc05020473c:	ec06                	sd	ra,24(sp)
ffffffc05020473e:	e822                	sd	s0,16(sp)
ffffffc050204740:	1000                	addi	s0,sp,32
ffffffc050204742:	00055797          	auipc	a5,0x55
ffffffc050204746:	d8e78793          	addi	a5,a5,-626 # ffffffc0502594d0 <plic_handlers>
ffffffc05020474a:	fef43423          	sd	a5,-24(s0)
ffffffc05020474e:	fe843783          	ld	a5,-24(s0)
ffffffc050204752:	679c                	ld	a5,8(a5)
ffffffc050204754:	0791                	addi	a5,a5,4
ffffffc050204756:	fef43023          	sd	a5,-32(s0)
ffffffc05020475a:	fe043503          	ld	a0,-32(s0)
ffffffc05020475e:	e99ff0ef          	jal	ra,ffffffc0502045f6 <readl>
ffffffc050204762:	87aa                	mv	a5,a0
ffffffc050204764:	2781                	sext.w	a5,a5
ffffffc050204766:	853e                	mv	a0,a5
ffffffc050204768:	60e2                	ld	ra,24(sp)
ffffffc05020476a:	6442                	ld	s0,16(sp)
ffffffc05020476c:	6105                	addi	sp,sp,32
ffffffc05020476e:	8082                	ret

ffffffc050204770 <plic_complete>:
ffffffc050204770:	7179                	addi	sp,sp,-48
ffffffc050204772:	f406                	sd	ra,40(sp)
ffffffc050204774:	f022                	sd	s0,32(sp)
ffffffc050204776:	1800                	addi	s0,sp,48
ffffffc050204778:	87aa                	mv	a5,a0
ffffffc05020477a:	fcf42e23          	sw	a5,-36(s0)
ffffffc05020477e:	00055797          	auipc	a5,0x55
ffffffc050204782:	d5278793          	addi	a5,a5,-686 # ffffffc0502594d0 <plic_handlers>
ffffffc050204786:	fef43423          	sd	a5,-24(s0)
ffffffc05020478a:	fdc42703          	lw	a4,-36(s0)
ffffffc05020478e:	fe843783          	ld	a5,-24(s0)
ffffffc050204792:	679c                	ld	a5,8(a5)
ffffffc050204794:	0791                	addi	a5,a5,4
ffffffc050204796:	85be                	mv	a1,a5
ffffffc050204798:	853a                	mv	a0,a4
ffffffc05020479a:	e37ff0ef          	jal	ra,ffffffc0502045d0 <writel>
ffffffc05020479e:	0001                	nop
ffffffc0502047a0:	70a2                	ld	ra,40(sp)
ffffffc0502047a2:	7402                	ld	s0,32(sp)
ffffffc0502047a4:	6145                	addi	sp,sp,48
ffffffc0502047a6:	8082                	ret

ffffffc0502047a8 <plic_init>:
ffffffc0502047a8:	7179                	addi	sp,sp,-48
ffffffc0502047aa:	f406                	sd	ra,40(sp)
ffffffc0502047ac:	f022                	sd	s0,32(sp)
ffffffc0502047ae:	1800                	addi	s0,sp,48
ffffffc0502047b0:	fca43c23          	sd	a0,-40(s0)
ffffffc0502047b4:	87ae                	mv	a5,a1
ffffffc0502047b6:	fcf42a23          	sw	a5,-44(s0)
ffffffc0502047ba:	fd843703          	ld	a4,-40(s0)
ffffffc0502047be:	0004b797          	auipc	a5,0x4b
ffffffc0502047c2:	5c278793          	addi	a5,a5,1474 # ffffffc05024fd80 <plic_regs>
ffffffc0502047c6:	e398                	sd	a4,0(a5)
ffffffc0502047c8:	fe042423          	sw	zero,-24(s0)
ffffffc0502047cc:	00055797          	auipc	a5,0x55
ffffffc0502047d0:	d0478793          	addi	a5,a5,-764 # ffffffc0502594d0 <plic_handlers>
ffffffc0502047d4:	fef43023          	sd	a5,-32(s0)
ffffffc0502047d8:	fe043783          	ld	a5,-32(s0)
ffffffc0502047dc:	439c                	lw	a5,0(a5)
ffffffc0502047de:	cb99                	beqz	a5,ffffffc0502047f4 <plic_init+0x4c>
ffffffc0502047e0:	00008517          	auipc	a0,0x8
ffffffc0502047e4:	32050513          	addi	a0,a0,800 # ffffffc05020cb00 <strcat+0x29a>
ffffffc0502047e8:	403070ef          	jal	ra,ffffffc05020c3ea <printk>
ffffffc0502047ec:	57fd                	li	a5,-1
ffffffc0502047ee:	fef42423          	sw	a5,-24(s0)
ffffffc0502047f2:	a815                	j	ffffffc050204826 <plic_init+0x7e>
ffffffc0502047f4:	fe043783          	ld	a5,-32(s0)
ffffffc0502047f8:	4705                	li	a4,1
ffffffc0502047fa:	c398                	sw	a4,0(a5)
ffffffc0502047fc:	0004b797          	auipc	a5,0x4b
ffffffc050204800:	58478793          	addi	a5,a5,1412 # ffffffc05024fd80 <plic_regs>
ffffffc050204804:	6398                	ld	a4,0(a5)
ffffffc050204806:	002007b7          	lui	a5,0x200
ffffffc05020480a:	973e                	add	a4,a4,a5
ffffffc05020480c:	fe043783          	ld	a5,-32(s0)
ffffffc050204810:	e798                	sd	a4,8(a5)
ffffffc050204812:	0004b797          	auipc	a5,0x4b
ffffffc050204816:	56e78793          	addi	a5,a5,1390 # ffffffc05024fd80 <plic_regs>
ffffffc05020481a:	6398                	ld	a4,0(a5)
ffffffc05020481c:	6789                	lui	a5,0x2
ffffffc05020481e:	973e                	add	a4,a4,a5
ffffffc050204820:	fe043783          	ld	a5,-32(s0)
ffffffc050204824:	eb98                	sd	a4,16(a5)
ffffffc050204826:	fe043783          	ld	a5,-32(s0)
ffffffc05020482a:	6798                	ld	a4,8(a5)
ffffffc05020482c:	fe842783          	lw	a5,-24(s0)
ffffffc050204830:	85ba                	mv	a1,a4
ffffffc050204832:	853e                	mv	a0,a5
ffffffc050204834:	d9dff0ef          	jal	ra,ffffffc0502045d0 <writel>
ffffffc050204838:	4785                	li	a5,1
ffffffc05020483a:	fef42623          	sw	a5,-20(s0)
ffffffc05020483e:	a831                	j	ffffffc05020485a <plic_init+0xb2>
ffffffc050204840:	fec42783          	lw	a5,-20(s0)
ffffffc050204844:	4605                	li	a2,1
ffffffc050204846:	85be                	mv	a1,a5
ffffffc050204848:	fe043503          	ld	a0,-32(s0)
ffffffc05020484c:	dcfff0ef          	jal	ra,ffffffc05020461a <plic_toggle>
ffffffc050204850:	fec42783          	lw	a5,-20(s0)
ffffffc050204854:	2785                	addiw	a5,a5,1
ffffffc050204856:	fef42623          	sw	a5,-20(s0)
ffffffc05020485a:	fec42703          	lw	a4,-20(s0)
ffffffc05020485e:	fd442783          	lw	a5,-44(s0)
ffffffc050204862:	2781                	sext.w	a5,a5
ffffffc050204864:	fce7fee3          	bgeu	a5,a4,ffffffc050204840 <plic_init+0x98>
ffffffc050204868:	fec42783          	lw	a5,-20(s0)
ffffffc05020486c:	0007871b          	sext.w	a4,a5
ffffffc050204870:	02100793          	li	a5,33
ffffffc050204874:	00e7d763          	bge	a5,a4,ffffffc050204882 <plic_init+0xda>
ffffffc050204878:	02100513          	li	a0,33
ffffffc05020487c:	e57ff0ef          	jal	ra,ffffffc0502046d2 <plic_irq_unmask>
ffffffc050204880:	a021                	j	ffffffc050204888 <plic_init+0xe0>
ffffffc050204882:	450d                	li	a0,3
ffffffc050204884:	e4fff0ef          	jal	ra,ffffffc0502046d2 <plic_irq_unmask>
ffffffc050204888:	4781                	li	a5,0
ffffffc05020488a:	853e                	mv	a0,a5
ffffffc05020488c:	70a2                	ld	ra,40(sp)
ffffffc05020488e:	7402                	ld	s0,32(sp)
ffffffc050204890:	6145                	addi	sp,sp,48
ffffffc050204892:	8082                	ret

ffffffc050204894 <call_jmptab>:
ffffffc050204894:	7139                	addi	sp,sp,-64
ffffffc050204896:	fc06                	sd	ra,56(sp)
ffffffc050204898:	f822                	sd	s0,48(sp)
ffffffc05020489a:	0080                	addi	s0,sp,64
ffffffc05020489c:	fca43c23          	sd	a0,-40(s0)
ffffffc0502048a0:	fcb43823          	sd	a1,-48(s0)
ffffffc0502048a4:	fcc43423          	sd	a2,-56(s0)
ffffffc0502048a8:	fcd43023          	sd	a3,-64(s0)
ffffffc0502048ac:	fd843783          	ld	a5,-40(s0)
ffffffc0502048b0:	00379713          	slli	a4,a5,0x3
ffffffc0502048b4:	fe0297b7          	lui	a5,0xfe029
ffffffc0502048b8:	07b6                	slli	a5,a5,0xd
ffffffc0502048ba:	f0078793          	addi	a5,a5,-256 # fffffffffe028f00 <__BSS_END__+0x3faddca428>
ffffffc0502048be:	97ba                	add	a5,a5,a4
ffffffc0502048c0:	639c                	ld	a5,0(a5)
ffffffc0502048c2:	fef43423          	sd	a5,-24(s0)
ffffffc0502048c6:	fe843783          	ld	a5,-24(s0)
ffffffc0502048ca:	fef43023          	sd	a5,-32(s0)
ffffffc0502048ce:	fe043783          	ld	a5,-32(s0)
ffffffc0502048d2:	fc043603          	ld	a2,-64(s0)
ffffffc0502048d6:	fc843583          	ld	a1,-56(s0)
ffffffc0502048da:	fd043503          	ld	a0,-48(s0)
ffffffc0502048de:	9782                	jalr	a5
ffffffc0502048e0:	87aa                	mv	a5,a0
ffffffc0502048e2:	853e                	mv	a0,a5
ffffffc0502048e4:	70e2                	ld	ra,56(sp)
ffffffc0502048e6:	7442                	ld	s0,48(sp)
ffffffc0502048e8:	6121                	addi	sp,sp,64
ffffffc0502048ea:	8082                	ret

ffffffc0502048ec <bios_set_timer>:
ffffffc0502048ec:	1101                	addi	sp,sp,-32
ffffffc0502048ee:	ec06                	sd	ra,24(sp)
ffffffc0502048f0:	e822                	sd	s0,16(sp)
ffffffc0502048f2:	1000                	addi	s0,sp,32
ffffffc0502048f4:	fea43423          	sd	a0,-24(s0)
ffffffc0502048f8:	fe843783          	ld	a5,-24(s0)
ffffffc0502048fc:	4681                	li	a3,0
ffffffc0502048fe:	4601                	li	a2,0
ffffffc050204900:	85be                	mv	a1,a5
ffffffc050204902:	4519                	li	a0,6
ffffffc050204904:	f91ff0ef          	jal	ra,ffffffc050204894 <call_jmptab>
ffffffc050204908:	0001                	nop
ffffffc05020490a:	60e2                	ld	ra,24(sp)
ffffffc05020490c:	6442                	ld	s0,16(sp)
ffffffc05020490e:	6105                	addi	sp,sp,32
ffffffc050204910:	8082                	ret

ffffffc050204912 <_panic>:
ffffffc050204912:	7179                	addi	sp,sp,-48
ffffffc050204914:	f406                	sd	ra,40(sp)
ffffffc050204916:	f022                	sd	s0,32(sp)
ffffffc050204918:	1800                	addi	s0,sp,48
ffffffc05020491a:	fea43423          	sd	a0,-24(s0)
ffffffc05020491e:	87ae                	mv	a5,a1
ffffffc050204920:	fcc43c23          	sd	a2,-40(s0)
ffffffc050204924:	fef42223          	sw	a5,-28(s0)
ffffffc050204928:	fe442783          	lw	a5,-28(s0)
ffffffc05020492c:	86be                	mv	a3,a5
ffffffc05020492e:	fe843603          	ld	a2,-24(s0)
ffffffc050204932:	fd843583          	ld	a1,-40(s0)
ffffffc050204936:	00008517          	auipc	a0,0x8
ffffffc05020493a:	2ea50513          	addi	a0,a0,746 # ffffffc05020cc20 <strcat+0x3ba>
ffffffc05020493e:	2ad070ef          	jal	ra,ffffffc05020c3ea <printk>
ffffffc050204942:	a001                	j	ffffffc050204942 <_panic+0x30>

ffffffc050204944 <readl>:
ffffffc050204944:	7179                	addi	sp,sp,-48
ffffffc050204946:	f422                	sd	s0,40(sp)
ffffffc050204948:	1800                	addi	s0,sp,48
ffffffc05020494a:	fca43c23          	sd	a0,-40(s0)
ffffffc05020494e:	fd843783          	ld	a5,-40(s0)
ffffffc050204952:	439c                	lw	a5,0(a5)
ffffffc050204954:	fef42623          	sw	a5,-20(s0)
ffffffc050204958:	0aa0000f          	fence	ir,ir
ffffffc05020495c:	fec42783          	lw	a5,-20(s0)
ffffffc050204960:	853e                	mv	a0,a5
ffffffc050204962:	7422                	ld	s0,40(sp)
ffffffc050204964:	6145                	addi	sp,sp,48
ffffffc050204966:	8082                	ret

ffffffc050204968 <e1000_read_reg>:
ffffffc050204968:	1101                	addi	sp,sp,-32
ffffffc05020496a:	ec06                	sd	ra,24(sp)
ffffffc05020496c:	e822                	sd	s0,16(sp)
ffffffc05020496e:	1000                	addi	s0,sp,32
ffffffc050204970:	fea43423          	sd	a0,-24(s0)
ffffffc050204974:	87ae                	mv	a5,a1
ffffffc050204976:	fef42223          	sw	a5,-28(s0)
ffffffc05020497a:	fe446783          	lwu	a5,-28(s0)
ffffffc05020497e:	fe843703          	ld	a4,-24(s0)
ffffffc050204982:	97ba                	add	a5,a5,a4
ffffffc050204984:	853e                	mv	a0,a5
ffffffc050204986:	fbfff0ef          	jal	ra,ffffffc050204944 <readl>
ffffffc05020498a:	87aa                	mv	a5,a0
ffffffc05020498c:	2781                	sext.w	a5,a5
ffffffc05020498e:	853e                	mv	a0,a5
ffffffc050204990:	60e2                	ld	ra,24(sp)
ffffffc050204992:	6442                	ld	s0,16(sp)
ffffffc050204994:	6105                	addi	sp,sp,32
ffffffc050204996:	8082                	ret

ffffffc050204998 <interrupt_helper>:
ffffffc050204998:	715d                	addi	sp,sp,-80
ffffffc05020499a:	e486                	sd	ra,72(sp)
ffffffc05020499c:	e0a2                	sd	s0,64(sp)
ffffffc05020499e:	0880                	addi	s0,sp,80
ffffffc0502049a0:	fca43423          	sd	a0,-56(s0)
ffffffc0502049a4:	fcb43023          	sd	a1,-64(s0)
ffffffc0502049a8:	fac43c23          	sd	a2,-72(s0)
ffffffc0502049ac:	841fd0ef          	jal	ra,ffffffc0502021ec <get_current_cpu_id>
ffffffc0502049b0:	87aa                	mv	a5,a0
ffffffc0502049b2:	fef43423          	sd	a5,-24(s0)
ffffffc0502049b6:	fe843783          	ld	a5,-24(s0)
ffffffc0502049ba:	ef81                	bnez	a5,ffffffc0502049d2 <interrupt_helper+0x3a>
ffffffc0502049bc:	00059797          	auipc	a5,0x59
ffffffc0502049c0:	28c78793          	addi	a5,a5,652 # ffffffc05025dc48 <current_running0>
ffffffc0502049c4:	6398                	ld	a4,0(a5)
ffffffc0502049c6:	00059797          	auipc	a5,0x59
ffffffc0502049ca:	27a78793          	addi	a5,a5,634 # ffffffc05025dc40 <current_running>
ffffffc0502049ce:	e398                	sd	a4,0(a5)
ffffffc0502049d0:	a819                	j	ffffffc0502049e6 <interrupt_helper+0x4e>
ffffffc0502049d2:	0005a797          	auipc	a5,0x5a
ffffffc0502049d6:	dfe78793          	addi	a5,a5,-514 # ffffffc05025e7d0 <current_running1>
ffffffc0502049da:	6398                	ld	a4,0(a5)
ffffffc0502049dc:	00059797          	auipc	a5,0x59
ffffffc0502049e0:	26478793          	addi	a5,a5,612 # ffffffc05025dc40 <current_running>
ffffffc0502049e4:	e398                	sd	a4,0(a5)
ffffffc0502049e6:	fb843703          	ld	a4,-72(s0)
ffffffc0502049ea:	57fd                	li	a5,-1
ffffffc0502049ec:	17fe                	slli	a5,a5,0x3f
ffffffc0502049ee:	8ff9                	and	a5,a5,a4
ffffffc0502049f0:	fef43023          	sd	a5,-32(s0)
ffffffc0502049f4:	fb843703          	ld	a4,-72(s0)
ffffffc0502049f8:	57fd                	li	a5,-1
ffffffc0502049fa:	8385                	srli	a5,a5,0x1
ffffffc0502049fc:	8ff9                	and	a5,a5,a4
ffffffc0502049fe:	fcf43c23          	sd	a5,-40(s0)
ffffffc050204a02:	fe043783          	ld	a5,-32(s0)
ffffffc050204a06:	c395                	beqz	a5,ffffffc050204a2a <interrupt_helper+0x92>
ffffffc050204a08:	00055717          	auipc	a4,0x55
ffffffc050204a0c:	b6070713          	addi	a4,a4,-1184 # ffffffc050259568 <irq_table>
ffffffc050204a10:	fd843783          	ld	a5,-40(s0)
ffffffc050204a14:	078e                	slli	a5,a5,0x3
ffffffc050204a16:	97ba                	add	a5,a5,a4
ffffffc050204a18:	639c                	ld	a5,0(a5)
ffffffc050204a1a:	fb843603          	ld	a2,-72(s0)
ffffffc050204a1e:	fc043583          	ld	a1,-64(s0)
ffffffc050204a22:	fc843503          	ld	a0,-56(s0)
ffffffc050204a26:	9782                	jalr	a5
ffffffc050204a28:	a00d                	j	ffffffc050204a4a <interrupt_helper+0xb2>
ffffffc050204a2a:	00055717          	auipc	a4,0x55
ffffffc050204a2e:	abe70713          	addi	a4,a4,-1346 # ffffffc0502594e8 <exc_table>
ffffffc050204a32:	fd843783          	ld	a5,-40(s0)
ffffffc050204a36:	078e                	slli	a5,a5,0x3
ffffffc050204a38:	97ba                	add	a5,a5,a4
ffffffc050204a3a:	639c                	ld	a5,0(a5)
ffffffc050204a3c:	fb843603          	ld	a2,-72(s0)
ffffffc050204a40:	fc043583          	ld	a1,-64(s0)
ffffffc050204a44:	fc843503          	ld	a0,-56(s0)
ffffffc050204a48:	9782                	jalr	a5
ffffffc050204a4a:	0001                	nop
ffffffc050204a4c:	60a6                	ld	ra,72(sp)
ffffffc050204a4e:	6406                	ld	s0,64(sp)
ffffffc050204a50:	6161                	addi	sp,sp,80
ffffffc050204a52:	8082                	ret

ffffffc050204a54 <handle_irq_timer>:
ffffffc050204a54:	7179                	addi	sp,sp,-48
ffffffc050204a56:	f406                	sd	ra,40(sp)
ffffffc050204a58:	f022                	sd	s0,32(sp)
ffffffc050204a5a:	1800                	addi	s0,sp,48
ffffffc050204a5c:	fea43423          	sd	a0,-24(s0)
ffffffc050204a60:	feb43023          	sd	a1,-32(s0)
ffffffc050204a64:	fcc43c23          	sd	a2,-40(s0)
ffffffc050204a68:	2b5020ef          	jal	ra,ffffffc05020751c <get_ticks>
ffffffc050204a6c:	872a                	mv	a4,a0
ffffffc050204a6e:	6785                	lui	a5,0x1
ffffffc050204a70:	38878793          	addi	a5,a5,904 # 1388 <boot_stack_top_base-0x50200c78>
ffffffc050204a74:	97ba                	add	a5,a5,a4
ffffffc050204a76:	853e                	mv	a0,a5
ffffffc050204a78:	e75ff0ef          	jal	ra,ffffffc0502048ec <bios_set_timer>
ffffffc050204a7c:	5b1020ef          	jal	ra,ffffffc05020782c <do_scheduler>
ffffffc050204a80:	0001                	nop
ffffffc050204a82:	70a2                	ld	ra,40(sp)
ffffffc050204a84:	7402                	ld	s0,32(sp)
ffffffc050204a86:	6145                	addi	sp,sp,48
ffffffc050204a88:	8082                	ret

ffffffc050204a8a <handle_irq_ext>:
ffffffc050204a8a:	715d                	addi	sp,sp,-80
ffffffc050204a8c:	e486                	sd	ra,72(sp)
ffffffc050204a8e:	e0a2                	sd	s0,64(sp)
ffffffc050204a90:	0880                	addi	s0,sp,80
ffffffc050204a92:	fca43423          	sd	a0,-56(s0)
ffffffc050204a96:	fcb43023          	sd	a1,-64(s0)
ffffffc050204a9a:	fac43c23          	sd	a2,-72(s0)
ffffffc050204a9e:	c9dff0ef          	jal	ra,ffffffc05020473a <plic_claim>
ffffffc050204aa2:	87aa                	mv	a5,a0
ffffffc050204aa4:	2781                	sext.w	a5,a5
ffffffc050204aa6:	fef42623          	sw	a5,-20(s0)
ffffffc050204aaa:	fec42783          	lw	a5,-20(s0)
ffffffc050204aae:	0007871b          	sext.w	a4,a5
ffffffc050204ab2:	478d                	li	a5,3
ffffffc050204ab4:	00f70863          	beq	a4,a5,ffffffc050204ac4 <handle_irq_ext+0x3a>
ffffffc050204ab8:	fec42783          	lw	a5,-20(s0)
ffffffc050204abc:	853e                	mv	a0,a5
ffffffc050204abe:	cb3ff0ef          	jal	ra,ffffffc050204770 <plic_complete>
ffffffc050204ac2:	a049                	j	ffffffc050204b44 <handle_irq_ext+0xba>
ffffffc050204ac4:	00055797          	auipc	a5,0x55
ffffffc050204ac8:	a0478793          	addi	a5,a5,-1532 # ffffffc0502594c8 <e1000>
ffffffc050204acc:	639c                	ld	a5,0(a5)
ffffffc050204ace:	0c000593          	li	a1,192
ffffffc050204ad2:	853e                	mv	a0,a5
ffffffc050204ad4:	e95ff0ef          	jal	ra,ffffffc050204968 <e1000_read_reg>
ffffffc050204ad8:	87aa                	mv	a5,a0
ffffffc050204ada:	fef42423          	sw	a5,-24(s0)
ffffffc050204ade:	00055797          	auipc	a5,0x55
ffffffc050204ae2:	9ea78793          	addi	a5,a5,-1558 # ffffffc0502594c8 <e1000>
ffffffc050204ae6:	639c                	ld	a5,0(a5)
ffffffc050204ae8:	0d000593          	li	a1,208
ffffffc050204aec:	853e                	mv	a0,a5
ffffffc050204aee:	e7bff0ef          	jal	ra,ffffffc050204968 <e1000_read_reg>
ffffffc050204af2:	87aa                	mv	a5,a0
ffffffc050204af4:	fef42223          	sw	a5,-28(s0)
ffffffc050204af8:	fe842703          	lw	a4,-24(s0)
ffffffc050204afc:	fe442783          	lw	a5,-28(s0)
ffffffc050204b00:	8ff9                	and	a5,a5,a4
ffffffc050204b02:	fef42423          	sw	a5,-24(s0)
ffffffc050204b06:	fe842783          	lw	a5,-24(s0)
ffffffc050204b0a:	0027c793          	xori	a5,a5,2
ffffffc050204b0e:	2781                	sext.w	a5,a5
ffffffc050204b10:	fef42023          	sw	a5,-32(s0)
ffffffc050204b14:	fe842783          	lw	a5,-24(s0)
ffffffc050204b18:	0107c793          	xori	a5,a5,16
ffffffc050204b1c:	2781                	sext.w	a5,a5
ffffffc050204b1e:	fcf42e23          	sw	a5,-36(s0)
ffffffc050204b22:	fe042783          	lw	a5,-32(s0)
ffffffc050204b26:	2781                	sext.w	a5,a5
ffffffc050204b28:	e399                	bnez	a5,ffffffc050204b2e <handle_irq_ext+0xa4>
ffffffc050204b2a:	995ff0ef          	jal	ra,ffffffc0502044be <e1000_handle_txqe>
ffffffc050204b2e:	fdc42783          	lw	a5,-36(s0)
ffffffc050204b32:	2781                	sext.w	a5,a5
ffffffc050204b34:	e399                	bnez	a5,ffffffc050204b3a <handle_irq_ext+0xb0>
ffffffc050204b36:	9a7ff0ef          	jal	ra,ffffffc0502044dc <e1000_handle_rxdmt0>
ffffffc050204b3a:	fec42783          	lw	a5,-20(s0)
ffffffc050204b3e:	853e                	mv	a0,a5
ffffffc050204b40:	c31ff0ef          	jal	ra,ffffffc050204770 <plic_complete>
ffffffc050204b44:	60a6                	ld	ra,72(sp)
ffffffc050204b46:	6406                	ld	s0,64(sp)
ffffffc050204b48:	6161                	addi	sp,sp,80
ffffffc050204b4a:	8082                	ret

ffffffc050204b4c <handle_page_fault>:
ffffffc050204b4c:	7179                	addi	sp,sp,-48
ffffffc050204b4e:	f406                	sd	ra,40(sp)
ffffffc050204b50:	f022                	sd	s0,32(sp)
ffffffc050204b52:	1800                	addi	s0,sp,48
ffffffc050204b54:	fea43423          	sd	a0,-24(s0)
ffffffc050204b58:	feb43023          	sd	a1,-32(s0)
ffffffc050204b5c:	fcc43c23          	sd	a2,-40(s0)
ffffffc050204b60:	fe043503          	ld	a0,-32(s0)
ffffffc050204b64:	00c040ef          	jal	ra,ffffffc050208b70 <do_pagefault>
ffffffc050204b68:	0001                	nop
ffffffc050204b6a:	70a2                	ld	ra,40(sp)
ffffffc050204b6c:	7402                	ld	s0,32(sp)
ffffffc050204b6e:	6145                	addi	sp,sp,48
ffffffc050204b70:	8082                	ret

ffffffc050204b72 <init_exception>:
ffffffc050204b72:	1101                	addi	sp,sp,-32
ffffffc050204b74:	ec06                	sd	ra,24(sp)
ffffffc050204b76:	e822                	sd	s0,16(sp)
ffffffc050204b78:	1000                	addi	s0,sp,32
ffffffc050204b7a:	fe042623          	sw	zero,-20(s0)
ffffffc050204b7e:	a881                	j	ffffffc050204bce <init_exception+0x5c>
ffffffc050204b80:	fec42783          	lw	a5,-20(s0)
ffffffc050204b84:	0007871b          	sext.w	a4,a5
ffffffc050204b88:	47a1                	li	a5,8
ffffffc050204b8a:	02f71063          	bne	a4,a5,ffffffc050204baa <init_exception+0x38>
ffffffc050204b8e:	00055717          	auipc	a4,0x55
ffffffc050204b92:	95a70713          	addi	a4,a4,-1702 # ffffffc0502594e8 <exc_table>
ffffffc050204b96:	fec42783          	lw	a5,-20(s0)
ffffffc050204b9a:	078e                	slli	a5,a5,0x3
ffffffc050204b9c:	97ba                	add	a5,a5,a4
ffffffc050204b9e:	00007717          	auipc	a4,0x7
ffffffc050204ba2:	e7a70713          	addi	a4,a4,-390 # ffffffc05020ba18 <handle_syscall>
ffffffc050204ba6:	e398                	sd	a4,0(a5)
ffffffc050204ba8:	a831                	j	ffffffc050204bc4 <init_exception+0x52>
ffffffc050204baa:	00055717          	auipc	a4,0x55
ffffffc050204bae:	93e70713          	addi	a4,a4,-1730 # ffffffc0502594e8 <exc_table>
ffffffc050204bb2:	fec42783          	lw	a5,-20(s0)
ffffffc050204bb6:	078e                	slli	a5,a5,0x3
ffffffc050204bb8:	97ba                	add	a5,a5,a4
ffffffc050204bba:	00000717          	auipc	a4,0x0
ffffffc050204bbe:	f9270713          	addi	a4,a4,-110 # ffffffc050204b4c <handle_page_fault>
ffffffc050204bc2:	e398                	sd	a4,0(a5)
ffffffc050204bc4:	fec42783          	lw	a5,-20(s0)
ffffffc050204bc8:	2785                	addiw	a5,a5,1
ffffffc050204bca:	fef42623          	sw	a5,-20(s0)
ffffffc050204bce:	fec42783          	lw	a5,-20(s0)
ffffffc050204bd2:	0007871b          	sext.w	a4,a5
ffffffc050204bd6:	47bd                	li	a5,15
ffffffc050204bd8:	fae7d4e3          	bge	a5,a4,ffffffc050204b80 <init_exception+0xe>
ffffffc050204bdc:	fe042423          	sw	zero,-24(s0)
ffffffc050204be0:	a8ad                	j	ffffffc050204c5a <init_exception+0xe8>
ffffffc050204be2:	fe842783          	lw	a5,-24(s0)
ffffffc050204be6:	0007871b          	sext.w	a4,a5
ffffffc050204bea:	4795                	li	a5,5
ffffffc050204bec:	02f71063          	bne	a4,a5,ffffffc050204c0c <init_exception+0x9a>
ffffffc050204bf0:	00055717          	auipc	a4,0x55
ffffffc050204bf4:	97870713          	addi	a4,a4,-1672 # ffffffc050259568 <irq_table>
ffffffc050204bf8:	fe842783          	lw	a5,-24(s0)
ffffffc050204bfc:	078e                	slli	a5,a5,0x3
ffffffc050204bfe:	97ba                	add	a5,a5,a4
ffffffc050204c00:	00000717          	auipc	a4,0x0
ffffffc050204c04:	e5470713          	addi	a4,a4,-428 # ffffffc050204a54 <handle_irq_timer>
ffffffc050204c08:	e398                	sd	a4,0(a5)
ffffffc050204c0a:	a099                	j	ffffffc050204c50 <init_exception+0xde>
ffffffc050204c0c:	fe842783          	lw	a5,-24(s0)
ffffffc050204c10:	0007871b          	sext.w	a4,a5
ffffffc050204c14:	47a5                	li	a5,9
ffffffc050204c16:	02f71063          	bne	a4,a5,ffffffc050204c36 <init_exception+0xc4>
ffffffc050204c1a:	00055717          	auipc	a4,0x55
ffffffc050204c1e:	94e70713          	addi	a4,a4,-1714 # ffffffc050259568 <irq_table>
ffffffc050204c22:	fe842783          	lw	a5,-24(s0)
ffffffc050204c26:	078e                	slli	a5,a5,0x3
ffffffc050204c28:	97ba                	add	a5,a5,a4
ffffffc050204c2a:	00000717          	auipc	a4,0x0
ffffffc050204c2e:	e6070713          	addi	a4,a4,-416 # ffffffc050204a8a <handle_irq_ext>
ffffffc050204c32:	e398                	sd	a4,0(a5)
ffffffc050204c34:	a831                	j	ffffffc050204c50 <init_exception+0xde>
ffffffc050204c36:	00055717          	auipc	a4,0x55
ffffffc050204c3a:	93270713          	addi	a4,a4,-1742 # ffffffc050259568 <irq_table>
ffffffc050204c3e:	fe842783          	lw	a5,-24(s0)
ffffffc050204c42:	078e                	slli	a5,a5,0x3
ffffffc050204c44:	97ba                	add	a5,a5,a4
ffffffc050204c46:	00000717          	auipc	a4,0x0
ffffffc050204c4a:	03070713          	addi	a4,a4,48 # ffffffc050204c76 <handle_other>
ffffffc050204c4e:	e398                	sd	a4,0(a5)
ffffffc050204c50:	fe842783          	lw	a5,-24(s0)
ffffffc050204c54:	2785                	addiw	a5,a5,1
ffffffc050204c56:	fef42423          	sw	a5,-24(s0)
ffffffc050204c5a:	fe842783          	lw	a5,-24(s0)
ffffffc050204c5e:	0007871b          	sext.w	a4,a5
ffffffc050204c62:	47ad                	li	a5,11
ffffffc050204c64:	f6e7dfe3          	bge	a5,a4,ffffffc050204be2 <init_exception+0x70>
ffffffc050204c68:	d6cfd0ef          	jal	ra,ffffffc0502021d4 <setup_exception>
ffffffc050204c6c:	0001                	nop
ffffffc050204c6e:	60e2                	ld	ra,24(sp)
ffffffc050204c70:	6442                	ld	s0,16(sp)
ffffffc050204c72:	6105                	addi	sp,sp,32
ffffffc050204c74:	8082                	ret

ffffffc050204c76 <handle_other>:
ffffffc050204c76:	7129                	addi	sp,sp,-320
ffffffc050204c78:	fe06                	sd	ra,312(sp)
ffffffc050204c7a:	fa22                	sd	s0,304(sp)
ffffffc050204c7c:	0280                	addi	s0,sp,320
ffffffc050204c7e:	eca43c23          	sd	a0,-296(s0)
ffffffc050204c82:	ecb43823          	sd	a1,-304(s0)
ffffffc050204c86:	ecc43423          	sd	a2,-312(s0)
ffffffc050204c8a:	00008717          	auipc	a4,0x8
ffffffc050204c8e:	04e70713          	addi	a4,a4,78 # ffffffc05020ccd8 <strcat+0x472>
ffffffc050204c92:	ee840793          	addi	a5,s0,-280
ffffffc050204c96:	86ba                	mv	a3,a4
ffffffc050204c98:	10000713          	li	a4,256
ffffffc050204c9c:	863a                	mv	a2,a4
ffffffc050204c9e:	85b6                	mv	a1,a3
ffffffc050204ca0:	853e                	mv	a0,a5
ffffffc050204ca2:	0b1070ef          	jal	ra,ffffffc05020c552 <memcpy>
ffffffc050204ca6:	fe042623          	sw	zero,-20(s0)
ffffffc050204caa:	a061                	j	ffffffc050204d32 <handle_other+0xbc>
ffffffc050204cac:	fe042423          	sw	zero,-24(s0)
ffffffc050204cb0:	a0a9                	j	ffffffc050204cfa <handle_other+0x84>
ffffffc050204cb2:	fec42703          	lw	a4,-20(s0)
ffffffc050204cb6:	fe842783          	lw	a5,-24(s0)
ffffffc050204cba:	9fb9                	addw	a5,a5,a4
ffffffc050204cbc:	2781                	sext.w	a5,a5
ffffffc050204cbe:	078e                	slli	a5,a5,0x3
ffffffc050204cc0:	ff040713          	addi	a4,s0,-16
ffffffc050204cc4:	97ba                	add	a5,a5,a4
ffffffc050204cc6:	ef87b683          	ld	a3,-264(a5)
ffffffc050204cca:	fec42703          	lw	a4,-20(s0)
ffffffc050204cce:	fe842783          	lw	a5,-24(s0)
ffffffc050204cd2:	9fb9                	addw	a5,a5,a4
ffffffc050204cd4:	2781                	sext.w	a5,a5
ffffffc050204cd6:	ed843703          	ld	a4,-296(s0)
ffffffc050204cda:	078e                	slli	a5,a5,0x3
ffffffc050204cdc:	97ba                	add	a5,a5,a4
ffffffc050204cde:	639c                	ld	a5,0(a5)
ffffffc050204ce0:	863e                	mv	a2,a5
ffffffc050204ce2:	85b6                	mv	a1,a3
ffffffc050204ce4:	00008517          	auipc	a0,0x8
ffffffc050204ce8:	f6450513          	addi	a0,a0,-156 # ffffffc05020cc48 <strcat+0x3e2>
ffffffc050204cec:	6fe070ef          	jal	ra,ffffffc05020c3ea <printk>
ffffffc050204cf0:	fe842783          	lw	a5,-24(s0)
ffffffc050204cf4:	2785                	addiw	a5,a5,1
ffffffc050204cf6:	fef42423          	sw	a5,-24(s0)
ffffffc050204cfa:	fe842783          	lw	a5,-24(s0)
ffffffc050204cfe:	0007871b          	sext.w	a4,a5
ffffffc050204d02:	4789                	li	a5,2
ffffffc050204d04:	00e7cc63          	blt	a5,a4,ffffffc050204d1c <handle_other+0xa6>
ffffffc050204d08:	fec42703          	lw	a4,-20(s0)
ffffffc050204d0c:	fe842783          	lw	a5,-24(s0)
ffffffc050204d10:	9fb9                	addw	a5,a5,a4
ffffffc050204d12:	2781                	sext.w	a5,a5
ffffffc050204d14:	873e                	mv	a4,a5
ffffffc050204d16:	47fd                	li	a5,31
ffffffc050204d18:	f8e7dde3          	bge	a5,a4,ffffffc050204cb2 <handle_other+0x3c>
ffffffc050204d1c:	00008517          	auipc	a0,0x8
ffffffc050204d20:	f3c50513          	addi	a0,a0,-196 # ffffffc05020cc58 <strcat+0x3f2>
ffffffc050204d24:	6c6070ef          	jal	ra,ffffffc05020c3ea <printk>
ffffffc050204d28:	fec42783          	lw	a5,-20(s0)
ffffffc050204d2c:	278d                	addiw	a5,a5,3
ffffffc050204d2e:	fef42623          	sw	a5,-20(s0)
ffffffc050204d32:	fec42783          	lw	a5,-20(s0)
ffffffc050204d36:	0007871b          	sext.w	a4,a5
ffffffc050204d3a:	47fd                	li	a5,31
ffffffc050204d3c:	f6e7d8e3          	bge	a5,a4,ffffffc050204cac <handle_other+0x36>
ffffffc050204d40:	ed843783          	ld	a5,-296(s0)
ffffffc050204d44:	1007b703          	ld	a4,256(a5)
ffffffc050204d48:	ed843783          	ld	a5,-296(s0)
ffffffc050204d4c:	1107b603          	ld	a2,272(a5)
ffffffc050204d50:	ed843783          	ld	a5,-296(s0)
ffffffc050204d54:	1187b783          	ld	a5,280(a5)
ffffffc050204d58:	86be                	mv	a3,a5
ffffffc050204d5a:	85ba                	mv	a1,a4
ffffffc050204d5c:	00008517          	auipc	a0,0x8
ffffffc050204d60:	f0450513          	addi	a0,a0,-252 # ffffffc05020cc60 <strcat+0x3fa>
ffffffc050204d64:	686070ef          	jal	ra,ffffffc05020c3ea <printk>
ffffffc050204d68:	ed843783          	ld	a5,-296(s0)
ffffffc050204d6c:	1087b783          	ld	a5,264(a5)
ffffffc050204d70:	85be                	mv	a1,a5
ffffffc050204d72:	00008517          	auipc	a0,0x8
ffffffc050204d76:	f1e50513          	addi	a0,a0,-226 # ffffffc05020cc90 <strcat+0x42a>
ffffffc050204d7a:	670070ef          	jal	ra,ffffffc05020c3ea <printk>
ffffffc050204d7e:	ec843603          	ld	a2,-312(s0)
ffffffc050204d82:	ed043583          	ld	a1,-304(s0)
ffffffc050204d86:	00008517          	auipc	a0,0x8
ffffffc050204d8a:	f1a50513          	addi	a0,a0,-230 # ffffffc05020cca0 <strcat+0x43a>
ffffffc050204d8e:	65c070ef          	jal	ra,ffffffc05020c3ea <printk>
ffffffc050204d92:	00008617          	auipc	a2,0x8
ffffffc050204d96:	04660613          	addi	a2,a2,70 # ffffffc05020cdd8 <__FUNCTION__.1550>
ffffffc050204d9a:	0a500593          	li	a1,165
ffffffc050204d9e:	00008517          	auipc	a0,0x8
ffffffc050204da2:	f2250513          	addi	a0,a0,-222 # ffffffc05020ccc0 <strcat+0x45a>
ffffffc050204da6:	b6dff0ef          	jal	ra,ffffffc050204912 <_panic>
ffffffc050204daa:	0001                	nop
ffffffc050204dac:	70f2                	ld	ra,312(sp)
ffffffc050204dae:	7452                	ld	s0,304(sp)
ffffffc050204db0:	6131                	addi	sp,sp,320
ffffffc050204db2:	8082                	ret

ffffffc050204db4 <kva2pa>:
ffffffc050204db4:	7179                	addi	sp,sp,-48
ffffffc050204db6:	f422                	sd	s0,40(sp)
ffffffc050204db8:	1800                	addi	s0,sp,48
ffffffc050204dba:	fca43c23          	sd	a0,-40(s0)
ffffffc050204dbe:	57fd                	li	a5,-1
ffffffc050204dc0:	9381                	srli	a5,a5,0x20
ffffffc050204dc2:	fef43423          	sd	a5,-24(s0)
ffffffc050204dc6:	fd843703          	ld	a4,-40(s0)
ffffffc050204dca:	fe843783          	ld	a5,-24(s0)
ffffffc050204dce:	8ff9                	and	a5,a5,a4
ffffffc050204dd0:	fef43023          	sd	a5,-32(s0)
ffffffc050204dd4:	fe043783          	ld	a5,-32(s0)
ffffffc050204dd8:	853e                	mv	a0,a5
ffffffc050204dda:	7422                	ld	s0,40(sp)
ffffffc050204ddc:	6145                	addi	sp,sp,48
ffffffc050204dde:	8082                	ret

ffffffc050204de0 <call_jmptab>:
ffffffc050204de0:	7139                	addi	sp,sp,-64
ffffffc050204de2:	fc06                	sd	ra,56(sp)
ffffffc050204de4:	f822                	sd	s0,48(sp)
ffffffc050204de6:	0080                	addi	s0,sp,64
ffffffc050204de8:	fca43c23          	sd	a0,-40(s0)
ffffffc050204dec:	fcb43823          	sd	a1,-48(s0)
ffffffc050204df0:	fcc43423          	sd	a2,-56(s0)
ffffffc050204df4:	fcd43023          	sd	a3,-64(s0)
ffffffc050204df8:	fd843783          	ld	a5,-40(s0)
ffffffc050204dfc:	00379713          	slli	a4,a5,0x3
ffffffc050204e00:	fe0297b7          	lui	a5,0xfe029
ffffffc050204e04:	07b6                	slli	a5,a5,0xd
ffffffc050204e06:	f0078793          	addi	a5,a5,-256 # fffffffffe028f00 <__BSS_END__+0x3faddca428>
ffffffc050204e0a:	97ba                	add	a5,a5,a4
ffffffc050204e0c:	639c                	ld	a5,0(a5)
ffffffc050204e0e:	fef43423          	sd	a5,-24(s0)
ffffffc050204e12:	fe843783          	ld	a5,-24(s0)
ffffffc050204e16:	fef43023          	sd	a5,-32(s0)
ffffffc050204e1a:	fe043783          	ld	a5,-32(s0)
ffffffc050204e1e:	fc043603          	ld	a2,-64(s0)
ffffffc050204e22:	fc843583          	ld	a1,-56(s0)
ffffffc050204e26:	fd043503          	ld	a0,-48(s0)
ffffffc050204e2a:	9782                	jalr	a5
ffffffc050204e2c:	87aa                	mv	a5,a0
ffffffc050204e2e:	853e                	mv	a0,a5
ffffffc050204e30:	70e2                	ld	ra,56(sp)
ffffffc050204e32:	7442                	ld	s0,48(sp)
ffffffc050204e34:	6121                	addi	sp,sp,64
ffffffc050204e36:	8082                	ret

ffffffc050204e38 <bios_sdread>:
ffffffc050204e38:	1101                	addi	sp,sp,-32
ffffffc050204e3a:	ec06                	sd	ra,24(sp)
ffffffc050204e3c:	e822                	sd	s0,16(sp)
ffffffc050204e3e:	1000                	addi	s0,sp,32
ffffffc050204e40:	87aa                	mv	a5,a0
ffffffc050204e42:	86ae                	mv	a3,a1
ffffffc050204e44:	8732                	mv	a4,a2
ffffffc050204e46:	fef42623          	sw	a5,-20(s0)
ffffffc050204e4a:	87b6                	mv	a5,a3
ffffffc050204e4c:	fef42423          	sw	a5,-24(s0)
ffffffc050204e50:	87ba                	mv	a5,a4
ffffffc050204e52:	fef42223          	sw	a5,-28(s0)
ffffffc050204e56:	fec46783          	lwu	a5,-20(s0)
ffffffc050204e5a:	fe846703          	lwu	a4,-24(s0)
ffffffc050204e5e:	fe446683          	lwu	a3,-28(s0)
ffffffc050204e62:	863a                	mv	a2,a4
ffffffc050204e64:	85be                	mv	a1,a5
ffffffc050204e66:	450d                	li	a0,3
ffffffc050204e68:	f79ff0ef          	jal	ra,ffffffc050204de0 <call_jmptab>
ffffffc050204e6c:	87aa                	mv	a5,a0
ffffffc050204e6e:	2781                	sext.w	a5,a5
ffffffc050204e70:	853e                	mv	a0,a5
ffffffc050204e72:	60e2                	ld	ra,24(sp)
ffffffc050204e74:	6442                	ld	s0,16(sp)
ffffffc050204e76:	6105                	addi	sp,sp,32
ffffffc050204e78:	8082                	ret

ffffffc050204e7a <load_task_img>:
ffffffc050204e7a:	711d                	addi	sp,sp,-96
ffffffc050204e7c:	ec86                	sd	ra,88(sp)
ffffffc050204e7e:	e8a2                	sd	s0,80(sp)
ffffffc050204e80:	1080                	addi	s0,sp,96
ffffffc050204e82:	87aa                	mv	a5,a0
ffffffc050204e84:	872e                	mv	a4,a1
ffffffc050204e86:	faf42623          	sw	a5,-84(s0)
ffffffc050204e8a:	87ba                	mv	a5,a4
ffffffc050204e8c:	faf42423          	sw	a5,-88(s0)
ffffffc050204e90:	502007b7          	lui	a5,0x50200
ffffffc050204e94:	1fa78793          	addi	a5,a5,506 # 502001fa <boot_stack_top_base-0x1e06>
ffffffc050204e98:	fcf43423          	sd	a5,-56(s0)
ffffffc050204e9c:	00054697          	auipc	a3,0x54
ffffffc050204ea0:	3ec68693          	addi	a3,a3,1004 # ffffffc050259288 <tasks>
ffffffc050204ea4:	fac42703          	lw	a4,-84(s0)
ffffffc050204ea8:	87ba                	mv	a5,a4
ffffffc050204eaa:	078e                	slli	a5,a5,0x3
ffffffc050204eac:	97ba                	add	a5,a5,a4
ffffffc050204eae:	078a                	slli	a5,a5,0x2
ffffffc050204eb0:	97b6                	add	a5,a5,a3
ffffffc050204eb2:	01079783          	lh	a5,16(a5)
ffffffc050204eb6:	fcf42223          	sw	a5,-60(s0)
ffffffc050204eba:	00054697          	auipc	a3,0x54
ffffffc050204ebe:	3ce68693          	addi	a3,a3,974 # ffffffc050259288 <tasks>
ffffffc050204ec2:	fac42703          	lw	a4,-84(s0)
ffffffc050204ec6:	87ba                	mv	a5,a4
ffffffc050204ec8:	078e                	slli	a5,a5,0x3
ffffffc050204eca:	97ba                	add	a5,a5,a4
ffffffc050204ecc:	078a                	slli	a5,a5,0x2
ffffffc050204ece:	97b6                	add	a5,a5,a3
ffffffc050204ed0:	01279783          	lh	a5,18(a5)
ffffffc050204ed4:	fcf42023          	sw	a5,-64(s0)
ffffffc050204ed8:	00054697          	auipc	a3,0x54
ffffffc050204edc:	3b068693          	addi	a3,a3,944 # ffffffc050259288 <tasks>
ffffffc050204ee0:	fac42703          	lw	a4,-84(s0)
ffffffc050204ee4:	87ba                	mv	a5,a4
ffffffc050204ee6:	078e                	slli	a5,a5,0x3
ffffffc050204ee8:	97ba                	add	a5,a5,a4
ffffffc050204eea:	078a                	slli	a5,a5,0x2
ffffffc050204eec:	97b6                	add	a5,a5,a3
ffffffc050204eee:	4bdc                	lw	a5,20(a5)
ffffffc050204ef0:	faf42e23          	sw	a5,-68(s0)
ffffffc050204ef4:	00054697          	auipc	a3,0x54
ffffffc050204ef8:	39468693          	addi	a3,a3,916 # ffffffc050259288 <tasks>
ffffffc050204efc:	fac42703          	lw	a4,-84(s0)
ffffffc050204f00:	87ba                	mv	a5,a4
ffffffc050204f02:	078e                	slli	a5,a5,0x3
ffffffc050204f04:	97ba                	add	a5,a5,a4
ffffffc050204f06:	078a                	slli	a5,a5,0x2
ffffffc050204f08:	97b6                	add	a5,a5,a3
ffffffc050204f0a:	4fdc                	lw	a5,28(a5)
ffffffc050204f0c:	41f7d71b          	sraiw	a4,a5,0x1f
ffffffc050204f10:	0147571b          	srliw	a4,a4,0x14
ffffffc050204f14:	9fb9                	addw	a5,a5,a4
ffffffc050204f16:	40c7d79b          	sraiw	a5,a5,0xc
ffffffc050204f1a:	0007869b          	sext.w	a3,a5
ffffffc050204f1e:	00054617          	auipc	a2,0x54
ffffffc050204f22:	36a60613          	addi	a2,a2,874 # ffffffc050259288 <tasks>
ffffffc050204f26:	fac42703          	lw	a4,-84(s0)
ffffffc050204f2a:	87ba                	mv	a5,a4
ffffffc050204f2c:	078e                	slli	a5,a5,0x3
ffffffc050204f2e:	97ba                	add	a5,a5,a4
ffffffc050204f30:	078a                	slli	a5,a5,0x2
ffffffc050204f32:	97b2                	add	a5,a5,a2
ffffffc050204f34:	4fdc                	lw	a5,28(a5)
ffffffc050204f36:	2781                	sext.w	a5,a5
ffffffc050204f38:	873e                	mv	a4,a5
ffffffc050204f3a:	6785                	lui	a5,0x1
ffffffc050204f3c:	17fd                	addi	a5,a5,-1
ffffffc050204f3e:	8ff9                	and	a5,a5,a4
ffffffc050204f40:	2781                	sext.w	a5,a5
ffffffc050204f42:	00f037b3          	snez	a5,a5
ffffffc050204f46:	0ff7f793          	andi	a5,a5,255
ffffffc050204f4a:	2781                	sext.w	a5,a5
ffffffc050204f4c:	9fb5                	addw	a5,a5,a3
ffffffc050204f4e:	faf42c23          	sw	a5,-72(s0)
ffffffc050204f52:	00054697          	auipc	a3,0x54
ffffffc050204f56:	33668693          	addi	a3,a3,822 # ffffffc050259288 <tasks>
ffffffc050204f5a:	fac42703          	lw	a4,-84(s0)
ffffffc050204f5e:	87ba                	mv	a5,a4
ffffffc050204f60:	078e                	slli	a5,a5,0x3
ffffffc050204f62:	97ba                	add	a5,a5,a4
ffffffc050204f64:	078a                	slli	a5,a5,0x2
ffffffc050204f66:	97b6                	add	a5,a5,a3
ffffffc050204f68:	539c                	lw	a5,32(a5)
ffffffc050204f6a:	fef43423          	sd	a5,-24(s0)
ffffffc050204f6e:	fc442783          	lw	a5,-60(s0)
ffffffc050204f72:	fef42223          	sw	a5,-28(s0)
ffffffc050204f76:	fc042a23          	sw	zero,-44(s0)
ffffffc050204f7a:	a8a5                	j	ffffffc050204ff2 <load_task_img+0x178>
ffffffc050204f7c:	00059717          	auipc	a4,0x59
ffffffc050204f80:	cd470713          	addi	a4,a4,-812 # ffffffc05025dc50 <pcb>
ffffffc050204f84:	fa842683          	lw	a3,-88(s0)
ffffffc050204f88:	0b800793          	li	a5,184
ffffffc050204f8c:	02f687b3          	mul	a5,a3,a5
ffffffc050204f90:	97ba                	add	a5,a5,a4
ffffffc050204f92:	7b9c                	ld	a5,48(a5)
ffffffc050204f94:	4681                	li	a3,0
ffffffc050204f96:	4601                	li	a2,0
ffffffc050204f98:	85be                	mv	a1,a5
ffffffc050204f9a:	fe843503          	ld	a0,-24(s0)
ffffffc050204f9e:	6da000ef          	jal	ra,ffffffc050205678 <alloc_page_helper>
ffffffc050204fa2:	87aa                	mv	a5,a0
ffffffc050204fa4:	faf43823          	sd	a5,-80(s0)
ffffffc050204fa8:	fd442783          	lw	a5,-44(s0)
ffffffc050204fac:	2781                	sext.w	a5,a5
ffffffc050204fae:	e789                	bnez	a5,ffffffc050204fb8 <load_task_img+0x13e>
ffffffc050204fb0:	fb043783          	ld	a5,-80(s0)
ffffffc050204fb4:	fcf43c23          	sd	a5,-40(s0)
ffffffc050204fb8:	fb043503          	ld	a0,-80(s0)
ffffffc050204fbc:	df9ff0ef          	jal	ra,ffffffc050204db4 <kva2pa>
ffffffc050204fc0:	87aa                	mv	a5,a0
ffffffc050204fc2:	2781                	sext.w	a5,a5
ffffffc050204fc4:	fe442703          	lw	a4,-28(s0)
ffffffc050204fc8:	863a                	mv	a2,a4
ffffffc050204fca:	45a1                	li	a1,8
ffffffc050204fcc:	853e                	mv	a0,a5
ffffffc050204fce:	e6bff0ef          	jal	ra,ffffffc050204e38 <bios_sdread>
ffffffc050204fd2:	fe843703          	ld	a4,-24(s0)
ffffffc050204fd6:	6785                	lui	a5,0x1
ffffffc050204fd8:	97ba                	add	a5,a5,a4
ffffffc050204fda:	fef43423          	sd	a5,-24(s0)
ffffffc050204fde:	fe442783          	lw	a5,-28(s0)
ffffffc050204fe2:	27a1                	addiw	a5,a5,8
ffffffc050204fe4:	fef42223          	sw	a5,-28(s0)
ffffffc050204fe8:	fd442783          	lw	a5,-44(s0)
ffffffc050204fec:	27a1                	addiw	a5,a5,8
ffffffc050204fee:	fcf42a23          	sw	a5,-44(s0)
ffffffc050204ff2:	fd442703          	lw	a4,-44(s0)
ffffffc050204ff6:	fc042783          	lw	a5,-64(s0)
ffffffc050204ffa:	2781                	sext.w	a5,a5
ffffffc050204ffc:	f8f760e3          	bltu	a4,a5,ffffffc050204f7c <load_task_img+0x102>
ffffffc050205000:	fc042823          	sw	zero,-48(s0)
ffffffc050205004:	a835                	j	ffffffc050205040 <load_task_img+0x1c6>
ffffffc050205006:	fd042783          	lw	a5,-48(s0)
ffffffc05020500a:	00c7979b          	slliw	a5,a5,0xc
ffffffc05020500e:	2781                	sext.w	a5,a5
ffffffc050205010:	873e                	mv	a4,a5
ffffffc050205012:	fd843783          	ld	a5,-40(s0)
ffffffc050205016:	97ba                	add	a5,a5,a4
ffffffc050205018:	86be                	mv	a3,a5
ffffffc05020501a:	fd042783          	lw	a5,-48(s0)
ffffffc05020501e:	00c7979b          	slliw	a5,a5,0xc
ffffffc050205022:	2781                	sext.w	a5,a5
ffffffc050205024:	873e                	mv	a4,a5
ffffffc050205026:	fd843783          	ld	a5,-40(s0)
ffffffc05020502a:	97ba                	add	a5,a5,a4
ffffffc05020502c:	6605                	lui	a2,0x1
ffffffc05020502e:	85be                	mv	a1,a5
ffffffc050205030:	8536                	mv	a0,a3
ffffffc050205032:	520070ef          	jal	ra,ffffffc05020c552 <memcpy>
ffffffc050205036:	fd042783          	lw	a5,-48(s0)
ffffffc05020503a:	27a1                	addiw	a5,a5,8
ffffffc05020503c:	fcf42823          	sw	a5,-48(s0)
ffffffc050205040:	fd042703          	lw	a4,-48(s0)
ffffffc050205044:	fc042783          	lw	a5,-64(s0)
ffffffc050205048:	2781                	sext.w	a5,a5
ffffffc05020504a:	faf76ee3          	bltu	a4,a5,ffffffc050205006 <load_task_img+0x18c>
ffffffc05020504e:	00054697          	auipc	a3,0x54
ffffffc050205052:	23a68693          	addi	a3,a3,570 # ffffffc050259288 <tasks>
ffffffc050205056:	fac42703          	lw	a4,-84(s0)
ffffffc05020505a:	87ba                	mv	a5,a4
ffffffc05020505c:	078e                	slli	a5,a5,0x3
ffffffc05020505e:	97ba                	add	a5,a5,a4
ffffffc050205060:	078a                	slli	a5,a5,0x2
ffffffc050205062:	97b6                	add	a5,a5,a3
ffffffc050205064:	539c                	lw	a5,32(a5)
ffffffc050205066:	853e                	mv	a0,a5
ffffffc050205068:	60e6                	ld	ra,88(sp)
ffffffc05020506a:	6446                	ld	s0,80(sp)
ffffffc05020506c:	6125                	addi	sp,sp,96
ffffffc05020506e:	8082                	ret

ffffffc050205070 <load_address>:
ffffffc050205070:	1101                	addi	sp,sp,-32
ffffffc050205072:	ec22                	sd	s0,24(sp)
ffffffc050205074:	1000                	addi	s0,sp,32
ffffffc050205076:	87aa                	mv	a5,a0
ffffffc050205078:	fef42623          	sw	a5,-20(s0)
ffffffc05020507c:	00054697          	auipc	a3,0x54
ffffffc050205080:	20c68693          	addi	a3,a3,524 # ffffffc050259288 <tasks>
ffffffc050205084:	fec42703          	lw	a4,-20(s0)
ffffffc050205088:	87ba                	mv	a5,a4
ffffffc05020508a:	078e                	slli	a5,a5,0x3
ffffffc05020508c:	97ba                	add	a5,a5,a4
ffffffc05020508e:	078a                	slli	a5,a5,0x2
ffffffc050205090:	97b6                	add	a5,a5,a3
ffffffc050205092:	539c                	lw	a5,32(a5)
ffffffc050205094:	853e                	mv	a0,a5
ffffffc050205096:	6462                	ld	s0,24(sp)
ffffffc050205098:	6105                	addi	sp,sp,32
ffffffc05020509a:	8082                	ret

ffffffc05020509c <kva2pa>:
ffffffc05020509c:	7179                	addi	sp,sp,-48
ffffffc05020509e:	f422                	sd	s0,40(sp)
ffffffc0502050a0:	1800                	addi	s0,sp,48
ffffffc0502050a2:	fca43c23          	sd	a0,-40(s0)
ffffffc0502050a6:	57fd                	li	a5,-1
ffffffc0502050a8:	9381                	srli	a5,a5,0x20
ffffffc0502050aa:	fef43423          	sd	a5,-24(s0)
ffffffc0502050ae:	fd843703          	ld	a4,-40(s0)
ffffffc0502050b2:	fe843783          	ld	a5,-24(s0)
ffffffc0502050b6:	8ff9                	and	a5,a5,a4
ffffffc0502050b8:	fef43023          	sd	a5,-32(s0)
ffffffc0502050bc:	fe043783          	ld	a5,-32(s0)
ffffffc0502050c0:	853e                	mv	a0,a5
ffffffc0502050c2:	7422                	ld	s0,40(sp)
ffffffc0502050c4:	6145                	addi	sp,sp,48
ffffffc0502050c6:	8082                	ret

ffffffc0502050c8 <pa2kva>:
ffffffc0502050c8:	7179                	addi	sp,sp,-48
ffffffc0502050ca:	f422                	sd	s0,40(sp)
ffffffc0502050cc:	1800                	addi	s0,sp,48
ffffffc0502050ce:	fca43c23          	sd	a0,-40(s0)
ffffffc0502050d2:	57fd                	li	a5,-1
ffffffc0502050d4:	179a                	slli	a5,a5,0x26
ffffffc0502050d6:	fef43423          	sd	a5,-24(s0)
ffffffc0502050da:	fd843703          	ld	a4,-40(s0)
ffffffc0502050de:	fe843783          	ld	a5,-24(s0)
ffffffc0502050e2:	8fd9                	or	a5,a5,a4
ffffffc0502050e4:	fef43023          	sd	a5,-32(s0)
ffffffc0502050e8:	fe043783          	ld	a5,-32(s0)
ffffffc0502050ec:	853e                	mv	a0,a5
ffffffc0502050ee:	7422                	ld	s0,40(sp)
ffffffc0502050f0:	6145                	addi	sp,sp,48
ffffffc0502050f2:	8082                	ret

ffffffc0502050f4 <get_pa>:
ffffffc0502050f4:	7179                	addi	sp,sp,-48
ffffffc0502050f6:	f422                	sd	s0,40(sp)
ffffffc0502050f8:	1800                	addi	s0,sp,48
ffffffc0502050fa:	fca43c23          	sd	a0,-40(s0)
ffffffc0502050fe:	fd843783          	ld	a5,-40(s0)
ffffffc050205102:	c007f793          	andi	a5,a5,-1024
ffffffc050205106:	fef43423          	sd	a5,-24(s0)
ffffffc05020510a:	fe843783          	ld	a5,-24(s0)
ffffffc05020510e:	078a                	slli	a5,a5,0x2
ffffffc050205110:	fef43423          	sd	a5,-24(s0)
ffffffc050205114:	fe843783          	ld	a5,-24(s0)
ffffffc050205118:	853e                	mv	a0,a5
ffffffc05020511a:	7422                	ld	s0,40(sp)
ffffffc05020511c:	6145                	addi	sp,sp,48
ffffffc05020511e:	8082                	ret

ffffffc050205120 <set_pfn>:
ffffffc050205120:	7179                	addi	sp,sp,-48
ffffffc050205122:	f422                	sd	s0,40(sp)
ffffffc050205124:	1800                	addi	s0,sp,48
ffffffc050205126:	fca43c23          	sd	a0,-40(s0)
ffffffc05020512a:	fcb43823          	sd	a1,-48(s0)
ffffffc05020512e:	fd843783          	ld	a5,-40(s0)
ffffffc050205132:	639c                	ld	a5,0(a5)
ffffffc050205134:	3ff7f793          	andi	a5,a5,1023
ffffffc050205138:	fef43423          	sd	a5,-24(s0)
ffffffc05020513c:	fd043783          	ld	a5,-48(s0)
ffffffc050205140:	00a79713          	slli	a4,a5,0xa
ffffffc050205144:	fe843783          	ld	a5,-24(s0)
ffffffc050205148:	8f5d                	or	a4,a4,a5
ffffffc05020514a:	fd843783          	ld	a5,-40(s0)
ffffffc05020514e:	e398                	sd	a4,0(a5)
ffffffc050205150:	0001                	nop
ffffffc050205152:	7422                	ld	s0,40(sp)
ffffffc050205154:	6145                	addi	sp,sp,48
ffffffc050205156:	8082                	ret

ffffffc050205158 <set_attribute>:
ffffffc050205158:	7179                	addi	sp,sp,-48
ffffffc05020515a:	f422                	sd	s0,40(sp)
ffffffc05020515c:	1800                	addi	s0,sp,48
ffffffc05020515e:	fca43c23          	sd	a0,-40(s0)
ffffffc050205162:	fcb43823          	sd	a1,-48(s0)
ffffffc050205166:	fd843783          	ld	a5,-40(s0)
ffffffc05020516a:	639c                	ld	a5,0(a5)
ffffffc05020516c:	c007f793          	andi	a5,a5,-1024
ffffffc050205170:	fef43423          	sd	a5,-24(s0)
ffffffc050205174:	fe843703          	ld	a4,-24(s0)
ffffffc050205178:	fd043783          	ld	a5,-48(s0)
ffffffc05020517c:	8f5d                	or	a4,a4,a5
ffffffc05020517e:	fd843783          	ld	a5,-40(s0)
ffffffc050205182:	e398                	sd	a4,0(a5)
ffffffc050205184:	0001                	nop
ffffffc050205186:	7422                	ld	s0,40(sp)
ffffffc050205188:	6145                	addi	sp,sp,48
ffffffc05020518a:	8082                	ret

ffffffc05020518c <call_jmptab>:
ffffffc05020518c:	7139                	addi	sp,sp,-64
ffffffc05020518e:	fc06                	sd	ra,56(sp)
ffffffc050205190:	f822                	sd	s0,48(sp)
ffffffc050205192:	0080                	addi	s0,sp,64
ffffffc050205194:	fca43c23          	sd	a0,-40(s0)
ffffffc050205198:	fcb43823          	sd	a1,-48(s0)
ffffffc05020519c:	fcc43423          	sd	a2,-56(s0)
ffffffc0502051a0:	fcd43023          	sd	a3,-64(s0)
ffffffc0502051a4:	fd843783          	ld	a5,-40(s0)
ffffffc0502051a8:	00379713          	slli	a4,a5,0x3
ffffffc0502051ac:	fe0297b7          	lui	a5,0xfe029
ffffffc0502051b0:	07b6                	slli	a5,a5,0xd
ffffffc0502051b2:	f0078793          	addi	a5,a5,-256 # fffffffffe028f00 <__BSS_END__+0x3faddca428>
ffffffc0502051b6:	97ba                	add	a5,a5,a4
ffffffc0502051b8:	639c                	ld	a5,0(a5)
ffffffc0502051ba:	fef43423          	sd	a5,-24(s0)
ffffffc0502051be:	fe843783          	ld	a5,-24(s0)
ffffffc0502051c2:	fef43023          	sd	a5,-32(s0)
ffffffc0502051c6:	fe043783          	ld	a5,-32(s0)
ffffffc0502051ca:	fc043603          	ld	a2,-64(s0)
ffffffc0502051ce:	fc843583          	ld	a1,-56(s0)
ffffffc0502051d2:	fd043503          	ld	a0,-48(s0)
ffffffc0502051d6:	9782                	jalr	a5
ffffffc0502051d8:	87aa                	mv	a5,a0
ffffffc0502051da:	853e                	mv	a0,a5
ffffffc0502051dc:	70e2                	ld	ra,56(sp)
ffffffc0502051de:	7442                	ld	s0,48(sp)
ffffffc0502051e0:	6121                	addi	sp,sp,64
ffffffc0502051e2:	8082                	ret

ffffffc0502051e4 <bios_sdwrite>:
ffffffc0502051e4:	1101                	addi	sp,sp,-32
ffffffc0502051e6:	ec06                	sd	ra,24(sp)
ffffffc0502051e8:	e822                	sd	s0,16(sp)
ffffffc0502051ea:	1000                	addi	s0,sp,32
ffffffc0502051ec:	87aa                	mv	a5,a0
ffffffc0502051ee:	86ae                	mv	a3,a1
ffffffc0502051f0:	8732                	mv	a4,a2
ffffffc0502051f2:	fef42623          	sw	a5,-20(s0)
ffffffc0502051f6:	87b6                	mv	a5,a3
ffffffc0502051f8:	fef42423          	sw	a5,-24(s0)
ffffffc0502051fc:	87ba                	mv	a5,a4
ffffffc0502051fe:	fef42223          	sw	a5,-28(s0)
ffffffc050205202:	fec46783          	lwu	a5,-20(s0)
ffffffc050205206:	fe846703          	lwu	a4,-24(s0)
ffffffc05020520a:	fe446683          	lwu	a3,-28(s0)
ffffffc05020520e:	863a                	mv	a2,a4
ffffffc050205210:	85be                	mv	a1,a5
ffffffc050205212:	4511                	li	a0,4
ffffffc050205214:	f79ff0ef          	jal	ra,ffffffc05020518c <call_jmptab>
ffffffc050205218:	87aa                	mv	a5,a0
ffffffc05020521a:	2781                	sext.w	a5,a5
ffffffc05020521c:	853e                	mv	a0,a5
ffffffc05020521e:	60e2                	ld	ra,24(sp)
ffffffc050205220:	6442                	ld	s0,16(sp)
ffffffc050205222:	6105                	addi	sp,sp,32
ffffffc050205224:	8082                	ret

ffffffc050205226 <_panic>:
ffffffc050205226:	7179                	addi	sp,sp,-48
ffffffc050205228:	f406                	sd	ra,40(sp)
ffffffc05020522a:	f022                	sd	s0,32(sp)
ffffffc05020522c:	1800                	addi	s0,sp,48
ffffffc05020522e:	fea43423          	sd	a0,-24(s0)
ffffffc050205232:	87ae                	mv	a5,a1
ffffffc050205234:	fcc43c23          	sd	a2,-40(s0)
ffffffc050205238:	fef42223          	sw	a5,-28(s0)
ffffffc05020523c:	fe442783          	lw	a5,-28(s0)
ffffffc050205240:	86be                	mv	a3,a5
ffffffc050205242:	fe843603          	ld	a2,-24(s0)
ffffffc050205246:	fd843583          	ld	a1,-40(s0)
ffffffc05020524a:	00008517          	auipc	a0,0x8
ffffffc05020524e:	b9e50513          	addi	a0,a0,-1122 # ffffffc05020cde8 <__FUNCTION__.1550+0x10>
ffffffc050205252:	198070ef          	jal	ra,ffffffc05020c3ea <printk>
ffffffc050205256:	a001                	j	ffffffc050205256 <_panic+0x30>

ffffffc050205258 <allocPage>:
ffffffc050205258:	7139                	addi	sp,sp,-64
ffffffc05020525a:	fc06                	sd	ra,56(sp)
ffffffc05020525c:	f822                	sd	s0,48(sp)
ffffffc05020525e:	0080                	addi	s0,sp,64
ffffffc050205260:	87aa                	mv	a5,a0
ffffffc050205262:	fcb43823          	sd	a1,-48(s0)
ffffffc050205266:	fcc43423          	sd	a2,-56(s0)
ffffffc05020526a:	fcf42e23          	sw	a5,-36(s0)
ffffffc05020526e:	fe042623          	sw	zero,-20(s0)
ffffffc050205272:	a8e9                	j	ffffffc05020534c <allocPage+0xf4>
ffffffc050205274:	00055717          	auipc	a4,0x55
ffffffc050205278:	f5470713          	addi	a4,a4,-172 # ffffffc05025a1c8 <ppage_array>
ffffffc05020527c:	fec42783          	lw	a5,-20(s0)
ffffffc050205280:	0796                	slli	a5,a5,0x5
ffffffc050205282:	97ba                	add	a5,a5,a4
ffffffc050205284:	4b9c                	lw	a5,16(a5)
ffffffc050205286:	efd5                	bnez	a5,ffffffc050205342 <allocPage+0xea>
ffffffc050205288:	fec42783          	lw	a5,-20(s0)
ffffffc05020528c:	00c7979b          	slliw	a5,a5,0xc
ffffffc050205290:	2781                	sext.w	a5,a5
ffffffc050205292:	873e                	mv	a4,a5
ffffffc050205294:	00008797          	auipc	a5,0x8
ffffffc050205298:	33c78793          	addi	a5,a5,828 # ffffffc05020d5d0 <userMemBase>
ffffffc05020529c:	639c                	ld	a5,0(a5)
ffffffc05020529e:	973e                	add	a4,a4,a5
ffffffc0502052a0:	77fd                	lui	a5,0xfffff
ffffffc0502052a2:	8ff9                	and	a5,a5,a4
ffffffc0502052a4:	fef43023          	sd	a5,-32(s0)
ffffffc0502052a8:	fe043503          	ld	a0,-32(s0)
ffffffc0502052ac:	1ef000ef          	jal	ra,ffffffc050205c9a <clear_page>
ffffffc0502052b0:	00055717          	auipc	a4,0x55
ffffffc0502052b4:	f1870713          	addi	a4,a4,-232 # ffffffc05025a1c8 <ppage_array>
ffffffc0502052b8:	fec42783          	lw	a5,-20(s0)
ffffffc0502052bc:	0796                	slli	a5,a5,0x5
ffffffc0502052be:	97ba                	add	a5,a5,a4
ffffffc0502052c0:	4705                	li	a4,1
ffffffc0502052c2:	cb98                	sw	a4,16(a5)
ffffffc0502052c4:	00008797          	auipc	a5,0x8
ffffffc0502052c8:	36078793          	addi	a5,a5,864 # ffffffc05020d624 <used_ppage>
ffffffc0502052cc:	439c                	lw	a5,0(a5)
ffffffc0502052ce:	2785                	addiw	a5,a5,1
ffffffc0502052d0:	0007871b          	sext.w	a4,a5
ffffffc0502052d4:	00008797          	auipc	a5,0x8
ffffffc0502052d8:	35078793          	addi	a5,a5,848 # ffffffc05020d624 <used_ppage>
ffffffc0502052dc:	c398                	sw	a4,0(a5)
ffffffc0502052de:	fd043703          	ld	a4,-48(s0)
ffffffc0502052e2:	77fd                	lui	a5,0xfffff
ffffffc0502052e4:	8f7d                	and	a4,a4,a5
ffffffc0502052e6:	00055697          	auipc	a3,0x55
ffffffc0502052ea:	ee268693          	addi	a3,a3,-286 # ffffffc05025a1c8 <ppage_array>
ffffffc0502052ee:	fec42783          	lw	a5,-20(s0)
ffffffc0502052f2:	0796                	slli	a5,a5,0x5
ffffffc0502052f4:	97b6                	add	a5,a5,a3
ffffffc0502052f6:	e398                	sd	a4,0(a5)
ffffffc0502052f8:	00055717          	auipc	a4,0x55
ffffffc0502052fc:	ed070713          	addi	a4,a4,-304 # ffffffc05025a1c8 <ppage_array>
ffffffc050205300:	fec42783          	lw	a5,-20(s0)
ffffffc050205304:	0796                	slli	a5,a5,0x5
ffffffc050205306:	97ba                	add	a5,a5,a4
ffffffc050205308:	4705                	li	a4,1
ffffffc05020530a:	cbd8                	sw	a4,20(a5)
ffffffc05020530c:	00055717          	auipc	a4,0x55
ffffffc050205310:	ebc70713          	addi	a4,a4,-324 # ffffffc05025a1c8 <ppage_array>
ffffffc050205314:	fec42783          	lw	a5,-20(s0)
ffffffc050205318:	0796                	slli	a5,a5,0x5
ffffffc05020531a:	97ba                	add	a5,a5,a4
ffffffc05020531c:	fc843703          	ld	a4,-56(s0)
ffffffc050205320:	ef98                	sd	a4,24(a5)
ffffffc050205322:	67e000ef          	jal	ra,ffffffc0502059a0 <fifo_updata>
ffffffc050205326:	00055717          	auipc	a4,0x55
ffffffc05020532a:	ea270713          	addi	a4,a4,-350 # ffffffc05025a1c8 <ppage_array>
ffffffc05020532e:	fec42783          	lw	a5,-20(s0)
ffffffc050205332:	0796                	slli	a5,a5,0x5
ffffffc050205334:	97ba                	add	a5,a5,a4
ffffffc050205336:	fe043703          	ld	a4,-32(s0)
ffffffc05020533a:	e798                	sd	a4,8(a5)
ffffffc05020533c:	fe043783          	ld	a5,-32(s0)
ffffffc050205340:	a075                	j	ffffffc0502053ec <allocPage+0x194>
ffffffc050205342:	fec42783          	lw	a5,-20(s0)
ffffffc050205346:	2785                	addiw	a5,a5,1
ffffffc050205348:	fef42623          	sw	a5,-20(s0)
ffffffc05020534c:	fec42783          	lw	a5,-20(s0)
ffffffc050205350:	0007871b          	sext.w	a4,a5
ffffffc050205354:	479d                	li	a5,7
ffffffc050205356:	f0e7dfe3          	bge	a5,a4,ffffffc050205274 <allocPage+0x1c>
ffffffc05020535a:	6b8000ef          	jal	ra,ffffffc050205a12 <fifo_seek>
ffffffc05020535e:	87aa                	mv	a5,a0
ffffffc050205360:	fef42623          	sw	a5,-20(s0)
ffffffc050205364:	00055717          	auipc	a4,0x55
ffffffc050205368:	e6470713          	addi	a4,a4,-412 # ffffffc05025a1c8 <ppage_array>
ffffffc05020536c:	fec42783          	lw	a5,-20(s0)
ffffffc050205370:	0796                	slli	a5,a5,0x5
ffffffc050205372:	97ba                	add	a5,a5,a4
ffffffc050205374:	6f98                	ld	a4,24(a5)
ffffffc050205376:	fec42783          	lw	a5,-20(s0)
ffffffc05020537a:	85ba                	mv	a1,a4
ffffffc05020537c:	853e                	mv	a0,a5
ffffffc05020537e:	6f6000ef          	jal	ra,ffffffc050205a74 <p2sd>
ffffffc050205382:	00055717          	auipc	a4,0x55
ffffffc050205386:	e4670713          	addi	a4,a4,-442 # ffffffc05025a1c8 <ppage_array>
ffffffc05020538a:	fec42783          	lw	a5,-20(s0)
ffffffc05020538e:	0796                	slli	a5,a5,0x5
ffffffc050205390:	97ba                	add	a5,a5,a4
ffffffc050205392:	6394                	ld	a3,0(a5)
ffffffc050205394:	00055717          	auipc	a4,0x55
ffffffc050205398:	e3470713          	addi	a4,a4,-460 # ffffffc05025a1c8 <ppage_array>
ffffffc05020539c:	fec42783          	lw	a5,-20(s0)
ffffffc0502053a0:	0796                	slli	a5,a5,0x5
ffffffc0502053a2:	97ba                	add	a5,a5,a4
ffffffc0502053a4:	6f9c                	ld	a5,24(a5)
ffffffc0502053a6:	85be                	mv	a1,a5
ffffffc0502053a8:	8536                	mv	a0,a3
ffffffc0502053aa:	02f000ef          	jal	ra,ffffffc050205bd8 <clear_pagevalid>
ffffffc0502053ae:	00055717          	auipc	a4,0x55
ffffffc0502053b2:	e1a70713          	addi	a4,a4,-486 # ffffffc05025a1c8 <ppage_array>
ffffffc0502053b6:	fec42783          	lw	a5,-20(s0)
ffffffc0502053ba:	0796                	slli	a5,a5,0x5
ffffffc0502053bc:	97ba                	add	a5,a5,a4
ffffffc0502053be:	0007a823          	sw	zero,16(a5) # fffffffffffff010 <__BSS_END__+0x3fafda0538>
ffffffc0502053c2:	00008797          	auipc	a5,0x8
ffffffc0502053c6:	26278793          	addi	a5,a5,610 # ffffffc05020d624 <used_ppage>
ffffffc0502053ca:	439c                	lw	a5,0(a5)
ffffffc0502053cc:	37fd                	addiw	a5,a5,-1
ffffffc0502053ce:	0007871b          	sext.w	a4,a5
ffffffc0502053d2:	00008797          	auipc	a5,0x8
ffffffc0502053d6:	25278793          	addi	a5,a5,594 # ffffffc05020d624 <used_ppage>
ffffffc0502053da:	c398                	sw	a4,0(a5)
ffffffc0502053dc:	fc843603          	ld	a2,-56(s0)
ffffffc0502053e0:	fd043583          	ld	a1,-48(s0)
ffffffc0502053e4:	4505                	li	a0,1
ffffffc0502053e6:	e73ff0ef          	jal	ra,ffffffc050205258 <allocPage>
ffffffc0502053ea:	87aa                	mv	a5,a0
ffffffc0502053ec:	853e                	mv	a0,a5
ffffffc0502053ee:	70e2                	ld	ra,56(sp)
ffffffc0502053f0:	7442                	ld	s0,48(sp)
ffffffc0502053f2:	6121                	addi	sp,sp,64
ffffffc0502053f4:	8082                	ret

ffffffc0502053f6 <allocFixedPage>:
ffffffc0502053f6:	7179                	addi	sp,sp,-48
ffffffc0502053f8:	f406                	sd	ra,40(sp)
ffffffc0502053fa:	f022                	sd	s0,32(sp)
ffffffc0502053fc:	1800                	addi	s0,sp,48
ffffffc0502053fe:	87aa                	mv	a5,a0
ffffffc050205400:	fcb43823          	sd	a1,-48(s0)
ffffffc050205404:	fcf42e23          	sw	a5,-36(s0)
ffffffc050205408:	fe042623          	sw	zero,-20(s0)
ffffffc05020540c:	a845                	j	ffffffc0502054bc <allocFixedPage+0xc6>
ffffffc05020540e:	0004b717          	auipc	a4,0x4b
ffffffc050205412:	97a70713          	addi	a4,a4,-1670 # ffffffc05024fd88 <fpage_array>
ffffffc050205416:	fec42783          	lw	a5,-20(s0)
ffffffc05020541a:	0792                	slli	a5,a5,0x4
ffffffc05020541c:	97ba                	add	a5,a5,a4
ffffffc05020541e:	439c                	lw	a5,0(a5)
ffffffc050205420:	ebc9                	bnez	a5,ffffffc0502054b2 <allocFixedPage+0xbc>
ffffffc050205422:	fec42783          	lw	a5,-20(s0)
ffffffc050205426:	00c7979b          	slliw	a5,a5,0xc
ffffffc05020542a:	2781                	sext.w	a5,a5
ffffffc05020542c:	873e                	mv	a4,a5
ffffffc05020542e:	00008797          	auipc	a5,0x8
ffffffc050205432:	1aa78793          	addi	a5,a5,426 # ffffffc05020d5d8 <fixedMemBase>
ffffffc050205436:	639c                	ld	a5,0(a5)
ffffffc050205438:	973e                	add	a4,a4,a5
ffffffc05020543a:	77fd                	lui	a5,0xfffff
ffffffc05020543c:	8ff9                	and	a5,a5,a4
ffffffc05020543e:	fef43023          	sd	a5,-32(s0)
ffffffc050205442:	fe043503          	ld	a0,-32(s0)
ffffffc050205446:	055000ef          	jal	ra,ffffffc050205c9a <clear_page>
ffffffc05020544a:	0004b717          	auipc	a4,0x4b
ffffffc05020544e:	93e70713          	addi	a4,a4,-1730 # ffffffc05024fd88 <fpage_array>
ffffffc050205452:	fec42783          	lw	a5,-20(s0)
ffffffc050205456:	0792                	slli	a5,a5,0x4
ffffffc050205458:	97ba                	add	a5,a5,a4
ffffffc05020545a:	4705                	li	a4,1
ffffffc05020545c:	c398                	sw	a4,0(a5)
ffffffc05020545e:	00008797          	auipc	a5,0x8
ffffffc050205462:	1ce78793          	addi	a5,a5,462 # ffffffc05020d62c <used_fpage>
ffffffc050205466:	439c                	lw	a5,0(a5)
ffffffc050205468:	2785                	addiw	a5,a5,1
ffffffc05020546a:	0007871b          	sext.w	a4,a5
ffffffc05020546e:	00008797          	auipc	a5,0x8
ffffffc050205472:	1be78793          	addi	a5,a5,446 # ffffffc05020d62c <used_fpage>
ffffffc050205476:	c398                	sw	a4,0(a5)
ffffffc050205478:	fd043783          	ld	a5,-48(s0)
ffffffc05020547c:	ef89                	bnez	a5,ffffffc050205496 <allocFixedPage+0xa0>
ffffffc05020547e:	0004b717          	auipc	a4,0x4b
ffffffc050205482:	90a70713          	addi	a4,a4,-1782 # ffffffc05024fd88 <fpage_array>
ffffffc050205486:	fec42783          	lw	a5,-20(s0)
ffffffc05020548a:	0792                	slli	a5,a5,0x4
ffffffc05020548c:	97ba                	add	a5,a5,a4
ffffffc05020548e:	fe043703          	ld	a4,-32(s0)
ffffffc050205492:	e798                	sd	a4,8(a5)
ffffffc050205494:	a821                	j	ffffffc0502054ac <allocFixedPage+0xb6>
ffffffc050205496:	0004b717          	auipc	a4,0x4b
ffffffc05020549a:	8f270713          	addi	a4,a4,-1806 # ffffffc05024fd88 <fpage_array>
ffffffc05020549e:	fec42783          	lw	a5,-20(s0)
ffffffc0502054a2:	0792                	slli	a5,a5,0x4
ffffffc0502054a4:	97ba                	add	a5,a5,a4
ffffffc0502054a6:	fd043703          	ld	a4,-48(s0)
ffffffc0502054aa:	e798                	sd	a4,8(a5)
ffffffc0502054ac:	fe043783          	ld	a5,-32(s0)
ffffffc0502054b0:	a815                	j	ffffffc0502054e4 <allocFixedPage+0xee>
ffffffc0502054b2:	fec42783          	lw	a5,-20(s0)
ffffffc0502054b6:	2785                	addiw	a5,a5,1
ffffffc0502054b8:	fef42623          	sw	a5,-20(s0)
ffffffc0502054bc:	fec42783          	lw	a5,-20(s0)
ffffffc0502054c0:	0007871b          	sext.w	a4,a5
ffffffc0502054c4:	3ff00793          	li	a5,1023
ffffffc0502054c8:	f4e7d3e3          	bge	a5,a4,ffffffc05020540e <allocFixedPage+0x18>
ffffffc0502054cc:	00008617          	auipc	a2,0x8
ffffffc0502054d0:	95c60613          	addi	a2,a2,-1700 # ffffffc05020ce28 <__FUNCTION__.1387>
ffffffc0502054d4:	06c00593          	li	a1,108
ffffffc0502054d8:	00008517          	auipc	a0,0x8
ffffffc0502054dc:	93850513          	addi	a0,a0,-1736 # ffffffc05020ce10 <__FUNCTION__.1550+0x38>
ffffffc0502054e0:	d47ff0ef          	jal	ra,ffffffc050205226 <_panic>
ffffffc0502054e4:	853e                	mv	a0,a5
ffffffc0502054e6:	70a2                	ld	ra,40(sp)
ffffffc0502054e8:	7402                	ld	s0,32(sp)
ffffffc0502054ea:	6145                	addi	sp,sp,48
ffffffc0502054ec:	8082                	ret

ffffffc0502054ee <freePage>:
ffffffc0502054ee:	7179                	addi	sp,sp,-48
ffffffc0502054f0:	f422                	sd	s0,40(sp)
ffffffc0502054f2:	1800                	addi	s0,sp,48
ffffffc0502054f4:	fca43c23          	sd	a0,-40(s0)
ffffffc0502054f8:	fe042623          	sw	zero,-20(s0)
ffffffc0502054fc:	a055                	j	ffffffc0502055a0 <freePage+0xb2>
ffffffc0502054fe:	00055717          	auipc	a4,0x55
ffffffc050205502:	cca70713          	addi	a4,a4,-822 # ffffffc05025a1c8 <ppage_array>
ffffffc050205506:	fec42783          	lw	a5,-20(s0)
ffffffc05020550a:	0796                	slli	a5,a5,0x5
ffffffc05020550c:	97ba                	add	a5,a5,a4
ffffffc05020550e:	6f9c                	ld	a5,24(a5)
ffffffc050205510:	fd843703          	ld	a4,-40(s0)
ffffffc050205514:	08f71163          	bne	a4,a5,ffffffc050205596 <freePage+0xa8>
ffffffc050205518:	00055717          	auipc	a4,0x55
ffffffc05020551c:	cb070713          	addi	a4,a4,-848 # ffffffc05025a1c8 <ppage_array>
ffffffc050205520:	fec42783          	lw	a5,-20(s0)
ffffffc050205524:	0796                	slli	a5,a5,0x5
ffffffc050205526:	97ba                	add	a5,a5,a4
ffffffc050205528:	0007b023          	sd	zero,0(a5)
ffffffc05020552c:	00055717          	auipc	a4,0x55
ffffffc050205530:	c9c70713          	addi	a4,a4,-868 # ffffffc05025a1c8 <ppage_array>
ffffffc050205534:	fec42783          	lw	a5,-20(s0)
ffffffc050205538:	0796                	slli	a5,a5,0x5
ffffffc05020553a:	97ba                	add	a5,a5,a4
ffffffc05020553c:	0007b423          	sd	zero,8(a5)
ffffffc050205540:	00055717          	auipc	a4,0x55
ffffffc050205544:	c8870713          	addi	a4,a4,-888 # ffffffc05025a1c8 <ppage_array>
ffffffc050205548:	fec42783          	lw	a5,-20(s0)
ffffffc05020554c:	0796                	slli	a5,a5,0x5
ffffffc05020554e:	97ba                	add	a5,a5,a4
ffffffc050205550:	0007bc23          	sd	zero,24(a5)
ffffffc050205554:	00055717          	auipc	a4,0x55
ffffffc050205558:	c7470713          	addi	a4,a4,-908 # ffffffc05025a1c8 <ppage_array>
ffffffc05020555c:	fec42783          	lw	a5,-20(s0)
ffffffc050205560:	0796                	slli	a5,a5,0x5
ffffffc050205562:	97ba                	add	a5,a5,a4
ffffffc050205564:	0007aa23          	sw	zero,20(a5)
ffffffc050205568:	00055717          	auipc	a4,0x55
ffffffc05020556c:	c6070713          	addi	a4,a4,-928 # ffffffc05025a1c8 <ppage_array>
ffffffc050205570:	fec42783          	lw	a5,-20(s0)
ffffffc050205574:	0796                	slli	a5,a5,0x5
ffffffc050205576:	97ba                	add	a5,a5,a4
ffffffc050205578:	0007a823          	sw	zero,16(a5)
ffffffc05020557c:	00008797          	auipc	a5,0x8
ffffffc050205580:	0a878793          	addi	a5,a5,168 # ffffffc05020d624 <used_ppage>
ffffffc050205584:	439c                	lw	a5,0(a5)
ffffffc050205586:	37fd                	addiw	a5,a5,-1
ffffffc050205588:	0007871b          	sext.w	a4,a5
ffffffc05020558c:	00008797          	auipc	a5,0x8
ffffffc050205590:	09878793          	addi	a5,a5,152 # ffffffc05020d624 <used_ppage>
ffffffc050205594:	c398                	sw	a4,0(a5)
ffffffc050205596:	fec42783          	lw	a5,-20(s0)
ffffffc05020559a:	2785                	addiw	a5,a5,1
ffffffc05020559c:	fef42623          	sw	a5,-20(s0)
ffffffc0502055a0:	fec42783          	lw	a5,-20(s0)
ffffffc0502055a4:	0007871b          	sext.w	a4,a5
ffffffc0502055a8:	479d                	li	a5,7
ffffffc0502055aa:	f4e7dae3          	bge	a5,a4,ffffffc0502054fe <freePage+0x10>
ffffffc0502055ae:	fe042423          	sw	zero,-24(s0)
ffffffc0502055b2:	a07d                	j	ffffffc050205660 <freePage+0x172>
ffffffc0502055b4:	00054697          	auipc	a3,0x54
ffffffc0502055b8:	01468693          	addi	a3,a3,20 # ffffffc0502595c8 <sdpage_array>
ffffffc0502055bc:	fe842703          	lw	a4,-24(s0)
ffffffc0502055c0:	87ba                	mv	a5,a4
ffffffc0502055c2:	0786                	slli	a5,a5,0x1
ffffffc0502055c4:	97ba                	add	a5,a5,a4
ffffffc0502055c6:	078e                	slli	a5,a5,0x3
ffffffc0502055c8:	97b6                	add	a5,a5,a3
ffffffc0502055ca:	6b9c                	ld	a5,16(a5)
ffffffc0502055cc:	fd843703          	ld	a4,-40(s0)
ffffffc0502055d0:	08f71363          	bne	a4,a5,ffffffc050205656 <freePage+0x168>
ffffffc0502055d4:	00054697          	auipc	a3,0x54
ffffffc0502055d8:	ff468693          	addi	a3,a3,-12 # ffffffc0502595c8 <sdpage_array>
ffffffc0502055dc:	fe842703          	lw	a4,-24(s0)
ffffffc0502055e0:	87ba                	mv	a5,a4
ffffffc0502055e2:	0786                	slli	a5,a5,0x1
ffffffc0502055e4:	97ba                	add	a5,a5,a4
ffffffc0502055e6:	078e                	slli	a5,a5,0x3
ffffffc0502055e8:	97b6                	add	a5,a5,a3
ffffffc0502055ea:	0007b023          	sd	zero,0(a5)
ffffffc0502055ee:	00054697          	auipc	a3,0x54
ffffffc0502055f2:	fda68693          	addi	a3,a3,-38 # ffffffc0502595c8 <sdpage_array>
ffffffc0502055f6:	fe842703          	lw	a4,-24(s0)
ffffffc0502055fa:	87ba                	mv	a5,a4
ffffffc0502055fc:	0786                	slli	a5,a5,0x1
ffffffc0502055fe:	97ba                	add	a5,a5,a4
ffffffc050205600:	078e                	slli	a5,a5,0x3
ffffffc050205602:	97b6                	add	a5,a5,a3
ffffffc050205604:	0007a423          	sw	zero,8(a5)
ffffffc050205608:	00054697          	auipc	a3,0x54
ffffffc05020560c:	fc068693          	addi	a3,a3,-64 # ffffffc0502595c8 <sdpage_array>
ffffffc050205610:	fe842703          	lw	a4,-24(s0)
ffffffc050205614:	87ba                	mv	a5,a4
ffffffc050205616:	0786                	slli	a5,a5,0x1
ffffffc050205618:	97ba                	add	a5,a5,a4
ffffffc05020561a:	078e                	slli	a5,a5,0x3
ffffffc05020561c:	97b6                	add	a5,a5,a3
ffffffc05020561e:	0007b823          	sd	zero,16(a5)
ffffffc050205622:	00054697          	auipc	a3,0x54
ffffffc050205626:	fa668693          	addi	a3,a3,-90 # ffffffc0502595c8 <sdpage_array>
ffffffc05020562a:	fe842703          	lw	a4,-24(s0)
ffffffc05020562e:	87ba                	mv	a5,a4
ffffffc050205630:	0786                	slli	a5,a5,0x1
ffffffc050205632:	97ba                	add	a5,a5,a4
ffffffc050205634:	078e                	slli	a5,a5,0x3
ffffffc050205636:	97b6                	add	a5,a5,a3
ffffffc050205638:	0007a623          	sw	zero,12(a5)
ffffffc05020563c:	00008797          	auipc	a5,0x8
ffffffc050205640:	fec78793          	addi	a5,a5,-20 # ffffffc05020d628 <used_sdpage>
ffffffc050205644:	439c                	lw	a5,0(a5)
ffffffc050205646:	37fd                	addiw	a5,a5,-1
ffffffc050205648:	0007871b          	sext.w	a4,a5
ffffffc05020564c:	00008797          	auipc	a5,0x8
ffffffc050205650:	fdc78793          	addi	a5,a5,-36 # ffffffc05020d628 <used_sdpage>
ffffffc050205654:	c398                	sw	a4,0(a5)
ffffffc050205656:	fe842783          	lw	a5,-24(s0)
ffffffc05020565a:	2785                	addiw	a5,a5,1
ffffffc05020565c:	fef42423          	sw	a5,-24(s0)
ffffffc050205660:	fe842783          	lw	a5,-24(s0)
ffffffc050205664:	0007871b          	sext.w	a4,a5
ffffffc050205668:	07f00793          	li	a5,127
ffffffc05020566c:	f4e7d4e3          	bge	a5,a4,ffffffc0502055b4 <freePage+0xc6>
ffffffc050205670:	0001                	nop
ffffffc050205672:	7422                	ld	s0,40(sp)
ffffffc050205674:	6145                	addi	sp,sp,48
ffffffc050205676:	8082                	ret

ffffffc050205678 <alloc_page_helper>:
ffffffc050205678:	7119                	addi	sp,sp,-128
ffffffc05020567a:	fc86                	sd	ra,120(sp)
ffffffc05020567c:	f8a2                	sd	s0,112(sp)
ffffffc05020567e:	f4a6                	sd	s1,104(sp)
ffffffc050205680:	0100                	addi	s0,sp,128
ffffffc050205682:	f8a43c23          	sd	a0,-104(s0)
ffffffc050205686:	f8b43823          	sd	a1,-112(s0)
ffffffc05020568a:	f8c43423          	sd	a2,-120(s0)
ffffffc05020568e:	87b6                	mv	a5,a3
ffffffc050205690:	f8f42223          	sw	a5,-124(s0)
ffffffc050205694:	f9043783          	ld	a5,-112(s0)
ffffffc050205698:	fcf43c23          	sd	a5,-40(s0)
ffffffc05020569c:	f9843703          	ld	a4,-104(s0)
ffffffc0502056a0:	57fd                	li	a5,-1
ffffffc0502056a2:	83e5                	srli	a5,a5,0x19
ffffffc0502056a4:	8ff9                	and	a5,a5,a4
ffffffc0502056a6:	f8f43c23          	sd	a5,-104(s0)
ffffffc0502056aa:	f9843783          	ld	a5,-104(s0)
ffffffc0502056ae:	83f9                	srli	a5,a5,0x1e
ffffffc0502056b0:	fcf43823          	sd	a5,-48(s0)
ffffffc0502056b4:	fd043783          	ld	a5,-48(s0)
ffffffc0502056b8:	00979713          	slli	a4,a5,0x9
ffffffc0502056bc:	f9843783          	ld	a5,-104(s0)
ffffffc0502056c0:	83d5                	srli	a5,a5,0x15
ffffffc0502056c2:	8fb9                	xor	a5,a5,a4
ffffffc0502056c4:	fcf43423          	sd	a5,-56(s0)
ffffffc0502056c8:	f9843783          	ld	a5,-104(s0)
ffffffc0502056cc:	00c7d713          	srli	a4,a5,0xc
ffffffc0502056d0:	fd043783          	ld	a5,-48(s0)
ffffffc0502056d4:	07ca                	slli	a5,a5,0x12
ffffffc0502056d6:	8f3d                	xor	a4,a4,a5
ffffffc0502056d8:	fc843783          	ld	a5,-56(s0)
ffffffc0502056dc:	07a6                	slli	a5,a5,0x9
ffffffc0502056de:	8fb9                	xor	a5,a5,a4
ffffffc0502056e0:	fcf43023          	sd	a5,-64(s0)
ffffffc0502056e4:	fd043783          	ld	a5,-48(s0)
ffffffc0502056e8:	078e                	slli	a5,a5,0x3
ffffffc0502056ea:	fd843703          	ld	a4,-40(s0)
ffffffc0502056ee:	97ba                	add	a5,a5,a4
ffffffc0502056f0:	639c                	ld	a5,0(a5)
ffffffc0502056f2:	8b85                	andi	a5,a5,1
ffffffc0502056f4:	e3a9                	bnez	a5,ffffffc050205736 <alloc_page_helper+0xbe>
ffffffc0502056f6:	fd043783          	ld	a5,-48(s0)
ffffffc0502056fa:	078e                	slli	a5,a5,0x3
ffffffc0502056fc:	fd843703          	ld	a4,-40(s0)
ffffffc050205700:	00f704b3          	add	s1,a4,a5
ffffffc050205704:	f9043583          	ld	a1,-112(s0)
ffffffc050205708:	4505                	li	a0,1
ffffffc05020570a:	cedff0ef          	jal	ra,ffffffc0502053f6 <allocFixedPage>
ffffffc05020570e:	87aa                	mv	a5,a0
ffffffc050205710:	853e                	mv	a0,a5
ffffffc050205712:	98bff0ef          	jal	ra,ffffffc05020509c <kva2pa>
ffffffc050205716:	87aa                	mv	a5,a0
ffffffc050205718:	83b1                	srli	a5,a5,0xc
ffffffc05020571a:	85be                	mv	a1,a5
ffffffc05020571c:	8526                	mv	a0,s1
ffffffc05020571e:	a03ff0ef          	jal	ra,ffffffc050205120 <set_pfn>
ffffffc050205722:	fd043783          	ld	a5,-48(s0)
ffffffc050205726:	078e                	slli	a5,a5,0x3
ffffffc050205728:	fd843703          	ld	a4,-40(s0)
ffffffc05020572c:	97ba                	add	a5,a5,a4
ffffffc05020572e:	45c5                	li	a1,17
ffffffc050205730:	853e                	mv	a0,a5
ffffffc050205732:	a27ff0ef          	jal	ra,ffffffc050205158 <set_attribute>
ffffffc050205736:	fd043783          	ld	a5,-48(s0)
ffffffc05020573a:	078e                	slli	a5,a5,0x3
ffffffc05020573c:	fd843703          	ld	a4,-40(s0)
ffffffc050205740:	97ba                	add	a5,a5,a4
ffffffc050205742:	639c                	ld	a5,0(a5)
ffffffc050205744:	853e                	mv	a0,a5
ffffffc050205746:	9afff0ef          	jal	ra,ffffffc0502050f4 <get_pa>
ffffffc05020574a:	87aa                	mv	a5,a0
ffffffc05020574c:	853e                	mv	a0,a5
ffffffc05020574e:	97bff0ef          	jal	ra,ffffffc0502050c8 <pa2kva>
ffffffc050205752:	87aa                	mv	a5,a0
ffffffc050205754:	faf43c23          	sd	a5,-72(s0)
ffffffc050205758:	fc843783          	ld	a5,-56(s0)
ffffffc05020575c:	078e                	slli	a5,a5,0x3
ffffffc05020575e:	fb843703          	ld	a4,-72(s0)
ffffffc050205762:	97ba                	add	a5,a5,a4
ffffffc050205764:	639c                	ld	a5,0(a5)
ffffffc050205766:	8b85                	andi	a5,a5,1
ffffffc050205768:	e3a9                	bnez	a5,ffffffc0502057aa <alloc_page_helper+0x132>
ffffffc05020576a:	fc843783          	ld	a5,-56(s0)
ffffffc05020576e:	078e                	slli	a5,a5,0x3
ffffffc050205770:	fb843703          	ld	a4,-72(s0)
ffffffc050205774:	00f704b3          	add	s1,a4,a5
ffffffc050205778:	f9043583          	ld	a1,-112(s0)
ffffffc05020577c:	4505                	li	a0,1
ffffffc05020577e:	c79ff0ef          	jal	ra,ffffffc0502053f6 <allocFixedPage>
ffffffc050205782:	87aa                	mv	a5,a0
ffffffc050205784:	853e                	mv	a0,a5
ffffffc050205786:	917ff0ef          	jal	ra,ffffffc05020509c <kva2pa>
ffffffc05020578a:	87aa                	mv	a5,a0
ffffffc05020578c:	83b1                	srli	a5,a5,0xc
ffffffc05020578e:	85be                	mv	a1,a5
ffffffc050205790:	8526                	mv	a0,s1
ffffffc050205792:	98fff0ef          	jal	ra,ffffffc050205120 <set_pfn>
ffffffc050205796:	fc843783          	ld	a5,-56(s0)
ffffffc05020579a:	078e                	slli	a5,a5,0x3
ffffffc05020579c:	fb843703          	ld	a4,-72(s0)
ffffffc0502057a0:	97ba                	add	a5,a5,a4
ffffffc0502057a2:	45c5                	li	a1,17
ffffffc0502057a4:	853e                	mv	a0,a5
ffffffc0502057a6:	9b3ff0ef          	jal	ra,ffffffc050205158 <set_attribute>
ffffffc0502057aa:	fc843783          	ld	a5,-56(s0)
ffffffc0502057ae:	078e                	slli	a5,a5,0x3
ffffffc0502057b0:	fb843703          	ld	a4,-72(s0)
ffffffc0502057b4:	97ba                	add	a5,a5,a4
ffffffc0502057b6:	639c                	ld	a5,0(a5)
ffffffc0502057b8:	853e                	mv	a0,a5
ffffffc0502057ba:	93bff0ef          	jal	ra,ffffffc0502050f4 <get_pa>
ffffffc0502057be:	87aa                	mv	a5,a0
ffffffc0502057c0:	853e                	mv	a0,a5
ffffffc0502057c2:	907ff0ef          	jal	ra,ffffffc0502050c8 <pa2kva>
ffffffc0502057c6:	87aa                	mv	a5,a0
ffffffc0502057c8:	faf43823          	sd	a5,-80(s0)
ffffffc0502057cc:	fc043783          	ld	a5,-64(s0)
ffffffc0502057d0:	078e                	slli	a5,a5,0x3
ffffffc0502057d2:	fb043703          	ld	a4,-80(s0)
ffffffc0502057d6:	97ba                	add	a5,a5,a4
ffffffc0502057d8:	639c                	ld	a5,0(a5)
ffffffc0502057da:	8b85                	andi	a5,a5,1
ffffffc0502057dc:	12079263          	bnez	a5,ffffffc050205900 <alloc_page_helper+0x288>
ffffffc0502057e0:	f8442783          	lw	a5,-124(s0)
ffffffc0502057e4:	0007871b          	sext.w	a4,a5
ffffffc0502057e8:	4785                	li	a5,1
ffffffc0502057ea:	04f71563          	bne	a4,a5,ffffffc050205834 <alloc_page_helper+0x1bc>
ffffffc0502057ee:	fc043783          	ld	a5,-64(s0)
ffffffc0502057f2:	078e                	slli	a5,a5,0x3
ffffffc0502057f4:	fb043703          	ld	a4,-80(s0)
ffffffc0502057f8:	00f704b3          	add	s1,a4,a5
ffffffc0502057fc:	f9043603          	ld	a2,-112(s0)
ffffffc050205800:	f9843583          	ld	a1,-104(s0)
ffffffc050205804:	4505                	li	a0,1
ffffffc050205806:	a53ff0ef          	jal	ra,ffffffc050205258 <allocPage>
ffffffc05020580a:	87aa                	mv	a5,a0
ffffffc05020580c:	853e                	mv	a0,a5
ffffffc05020580e:	88fff0ef          	jal	ra,ffffffc05020509c <kva2pa>
ffffffc050205812:	87aa                	mv	a5,a0
ffffffc050205814:	83b1                	srli	a5,a5,0xc
ffffffc050205816:	85be                	mv	a1,a5
ffffffc050205818:	8526                	mv	a0,s1
ffffffc05020581a:	907ff0ef          	jal	ra,ffffffc050205120 <set_pfn>
ffffffc05020581e:	fc043783          	ld	a5,-64(s0)
ffffffc050205822:	078e                	slli	a5,a5,0x3
ffffffc050205824:	fb043703          	ld	a4,-80(s0)
ffffffc050205828:	97ba                	add	a5,a5,a4
ffffffc05020582a:	45fd                	li	a1,31
ffffffc05020582c:	853e                	mv	a0,a5
ffffffc05020582e:	92bff0ef          	jal	ra,ffffffc050205158 <set_attribute>
ffffffc050205832:	a0f9                	j	ffffffc050205900 <alloc_page_helper+0x288>
ffffffc050205834:	f8442783          	lw	a5,-124(s0)
ffffffc050205838:	0007871b          	sext.w	a4,a5
ffffffc05020583c:	4789                	li	a5,2
ffffffc05020583e:	02f71e63          	bne	a4,a5,ffffffc05020587a <alloc_page_helper+0x202>
ffffffc050205842:	fc043783          	ld	a5,-64(s0)
ffffffc050205846:	078e                	slli	a5,a5,0x3
ffffffc050205848:	fb043703          	ld	a4,-80(s0)
ffffffc05020584c:	00f704b3          	add	s1,a4,a5
ffffffc050205850:	f8843503          	ld	a0,-120(s0)
ffffffc050205854:	849ff0ef          	jal	ra,ffffffc05020509c <kva2pa>
ffffffc050205858:	87aa                	mv	a5,a0
ffffffc05020585a:	83b1                	srli	a5,a5,0xc
ffffffc05020585c:	85be                	mv	a1,a5
ffffffc05020585e:	8526                	mv	a0,s1
ffffffc050205860:	8c1ff0ef          	jal	ra,ffffffc050205120 <set_pfn>
ffffffc050205864:	fc043783          	ld	a5,-64(s0)
ffffffc050205868:	078e                	slli	a5,a5,0x3
ffffffc05020586a:	fb043703          	ld	a4,-80(s0)
ffffffc05020586e:	97ba                	add	a5,a5,a4
ffffffc050205870:	45fd                	li	a1,31
ffffffc050205872:	853e                	mv	a0,a5
ffffffc050205874:	8e5ff0ef          	jal	ra,ffffffc050205158 <set_attribute>
ffffffc050205878:	a061                	j	ffffffc050205900 <alloc_page_helper+0x288>
ffffffc05020587a:	f8442783          	lw	a5,-124(s0)
ffffffc05020587e:	0007871b          	sext.w	a4,a5
ffffffc050205882:	478d                	li	a5,3
ffffffc050205884:	02f71e63          	bne	a4,a5,ffffffc0502058c0 <alloc_page_helper+0x248>
ffffffc050205888:	fc043783          	ld	a5,-64(s0)
ffffffc05020588c:	078e                	slli	a5,a5,0x3
ffffffc05020588e:	fb043703          	ld	a4,-80(s0)
ffffffc050205892:	00f704b3          	add	s1,a4,a5
ffffffc050205896:	f8843503          	ld	a0,-120(s0)
ffffffc05020589a:	803ff0ef          	jal	ra,ffffffc05020509c <kva2pa>
ffffffc05020589e:	87aa                	mv	a5,a0
ffffffc0502058a0:	83b1                	srli	a5,a5,0xc
ffffffc0502058a2:	85be                	mv	a1,a5
ffffffc0502058a4:	8526                	mv	a0,s1
ffffffc0502058a6:	87bff0ef          	jal	ra,ffffffc050205120 <set_pfn>
ffffffc0502058aa:	fc043783          	ld	a5,-64(s0)
ffffffc0502058ae:	078e                	slli	a5,a5,0x3
ffffffc0502058b0:	fb043703          	ld	a4,-80(s0)
ffffffc0502058b4:	97ba                	add	a5,a5,a4
ffffffc0502058b6:	45ed                	li	a1,27
ffffffc0502058b8:	853e                	mv	a0,a5
ffffffc0502058ba:	89fff0ef          	jal	ra,ffffffc050205158 <set_attribute>
ffffffc0502058be:	a089                	j	ffffffc050205900 <alloc_page_helper+0x288>
ffffffc0502058c0:	fc043783          	ld	a5,-64(s0)
ffffffc0502058c4:	078e                	slli	a5,a5,0x3
ffffffc0502058c6:	fb043703          	ld	a4,-80(s0)
ffffffc0502058ca:	00f704b3          	add	s1,a4,a5
ffffffc0502058ce:	f9043583          	ld	a1,-112(s0)
ffffffc0502058d2:	4505                	li	a0,1
ffffffc0502058d4:	b23ff0ef          	jal	ra,ffffffc0502053f6 <allocFixedPage>
ffffffc0502058d8:	87aa                	mv	a5,a0
ffffffc0502058da:	853e                	mv	a0,a5
ffffffc0502058dc:	fc0ff0ef          	jal	ra,ffffffc05020509c <kva2pa>
ffffffc0502058e0:	87aa                	mv	a5,a0
ffffffc0502058e2:	83b1                	srli	a5,a5,0xc
ffffffc0502058e4:	85be                	mv	a1,a5
ffffffc0502058e6:	8526                	mv	a0,s1
ffffffc0502058e8:	839ff0ef          	jal	ra,ffffffc050205120 <set_pfn>
ffffffc0502058ec:	fc043783          	ld	a5,-64(s0)
ffffffc0502058f0:	078e                	slli	a5,a5,0x3
ffffffc0502058f2:	fb043703          	ld	a4,-80(s0)
ffffffc0502058f6:	97ba                	add	a5,a5,a4
ffffffc0502058f8:	45fd                	li	a1,31
ffffffc0502058fa:	853e                	mv	a0,a5
ffffffc0502058fc:	85dff0ef          	jal	ra,ffffffc050205158 <set_attribute>
ffffffc050205900:	fc043783          	ld	a5,-64(s0)
ffffffc050205904:	078e                	slli	a5,a5,0x3
ffffffc050205906:	fb043703          	ld	a4,-80(s0)
ffffffc05020590a:	97ba                	add	a5,a5,a4
ffffffc05020590c:	639c                	ld	a5,0(a5)
ffffffc05020590e:	853e                	mv	a0,a5
ffffffc050205910:	fe4ff0ef          	jal	ra,ffffffc0502050f4 <get_pa>
ffffffc050205914:	86aa                	mv	a3,a0
ffffffc050205916:	f9843703          	ld	a4,-104(s0)
ffffffc05020591a:	6785                	lui	a5,0x1
ffffffc05020591c:	17fd                	addi	a5,a5,-1
ffffffc05020591e:	8ff9                	and	a5,a5,a4
ffffffc050205920:	8fd5                	or	a5,a5,a3
ffffffc050205922:	faf43423          	sd	a5,-88(s0)
ffffffc050205926:	fa843503          	ld	a0,-88(s0)
ffffffc05020592a:	f9eff0ef          	jal	ra,ffffffc0502050c8 <pa2kva>
ffffffc05020592e:	87aa                	mv	a5,a0
ffffffc050205930:	853e                	mv	a0,a5
ffffffc050205932:	70e6                	ld	ra,120(sp)
ffffffc050205934:	7446                	ld	s0,112(sp)
ffffffc050205936:	74a6                	ld	s1,104(sp)
ffffffc050205938:	6109                	addi	sp,sp,128
ffffffc05020593a:	8082                	ret

ffffffc05020593c <share_pgtable>:
ffffffc05020593c:	7139                	addi	sp,sp,-64
ffffffc05020593e:	fc22                	sd	s0,56(sp)
ffffffc050205940:	0080                	addi	s0,sp,64
ffffffc050205942:	fca43423          	sd	a0,-56(s0)
ffffffc050205946:	fcb43023          	sd	a1,-64(s0)
ffffffc05020594a:	fc843783          	ld	a5,-56(s0)
ffffffc05020594e:	fef43423          	sd	a5,-24(s0)
ffffffc050205952:	fc043783          	ld	a5,-64(s0)
ffffffc050205956:	fef43023          	sd	a5,-32(s0)
ffffffc05020595a:	fc042e23          	sw	zero,-36(s0)
ffffffc05020595e:	a025                	j	ffffffc050205986 <share_pgtable+0x4a>
ffffffc050205960:	fe043703          	ld	a4,-32(s0)
ffffffc050205964:	00870793          	addi	a5,a4,8
ffffffc050205968:	fef43023          	sd	a5,-32(s0)
ffffffc05020596c:	fe843783          	ld	a5,-24(s0)
ffffffc050205970:	00878693          	addi	a3,a5,8 # 1008 <boot_stack_top_base-0x50200ff8>
ffffffc050205974:	fed43423          	sd	a3,-24(s0)
ffffffc050205978:	6318                	ld	a4,0(a4)
ffffffc05020597a:	e398                	sd	a4,0(a5)
ffffffc05020597c:	fdc42783          	lw	a5,-36(s0)
ffffffc050205980:	2785                	addiw	a5,a5,1
ffffffc050205982:	fcf42e23          	sw	a5,-36(s0)
ffffffc050205986:	fdc42783          	lw	a5,-36(s0)
ffffffc05020598a:	0007871b          	sext.w	a4,a5
ffffffc05020598e:	1ff00793          	li	a5,511
ffffffc050205992:	fce7d7e3          	bge	a5,a4,ffffffc050205960 <share_pgtable+0x24>
ffffffc050205996:	0001                	nop
ffffffc050205998:	0001                	nop
ffffffc05020599a:	7462                	ld	s0,56(sp)
ffffffc05020599c:	6121                	addi	sp,sp,64
ffffffc05020599e:	8082                	ret

ffffffc0502059a0 <fifo_updata>:
ffffffc0502059a0:	1101                	addi	sp,sp,-32
ffffffc0502059a2:	ec22                	sd	s0,24(sp)
ffffffc0502059a4:	1000                	addi	s0,sp,32
ffffffc0502059a6:	fe042623          	sw	zero,-20(s0)
ffffffc0502059aa:	a881                	j	ffffffc0502059fa <fifo_updata+0x5a>
ffffffc0502059ac:	00055717          	auipc	a4,0x55
ffffffc0502059b0:	81c70713          	addi	a4,a4,-2020 # ffffffc05025a1c8 <ppage_array>
ffffffc0502059b4:	fec42783          	lw	a5,-20(s0)
ffffffc0502059b8:	0796                	slli	a5,a5,0x5
ffffffc0502059ba:	97ba                	add	a5,a5,a4
ffffffc0502059bc:	4b9c                	lw	a5,16(a5)
ffffffc0502059be:	873e                	mv	a4,a5
ffffffc0502059c0:	4785                	li	a5,1
ffffffc0502059c2:	02f71763          	bne	a4,a5,ffffffc0502059f0 <fifo_updata+0x50>
ffffffc0502059c6:	00055717          	auipc	a4,0x55
ffffffc0502059ca:	80270713          	addi	a4,a4,-2046 # ffffffc05025a1c8 <ppage_array>
ffffffc0502059ce:	fec42783          	lw	a5,-20(s0)
ffffffc0502059d2:	0796                	slli	a5,a5,0x5
ffffffc0502059d4:	97ba                	add	a5,a5,a4
ffffffc0502059d6:	4bdc                	lw	a5,20(a5)
ffffffc0502059d8:	2785                	addiw	a5,a5,1
ffffffc0502059da:	0007871b          	sext.w	a4,a5
ffffffc0502059de:	00054697          	auipc	a3,0x54
ffffffc0502059e2:	7ea68693          	addi	a3,a3,2026 # ffffffc05025a1c8 <ppage_array>
ffffffc0502059e6:	fec42783          	lw	a5,-20(s0)
ffffffc0502059ea:	0796                	slli	a5,a5,0x5
ffffffc0502059ec:	97b6                	add	a5,a5,a3
ffffffc0502059ee:	cbd8                	sw	a4,20(a5)
ffffffc0502059f0:	fec42783          	lw	a5,-20(s0)
ffffffc0502059f4:	2785                	addiw	a5,a5,1
ffffffc0502059f6:	fef42623          	sw	a5,-20(s0)
ffffffc0502059fa:	fec42783          	lw	a5,-20(s0)
ffffffc0502059fe:	0007871b          	sext.w	a4,a5
ffffffc050205a02:	479d                	li	a5,7
ffffffc050205a04:	fae7d4e3          	bge	a5,a4,ffffffc0502059ac <fifo_updata+0xc>
ffffffc050205a08:	0001                	nop
ffffffc050205a0a:	0001                	nop
ffffffc050205a0c:	6462                	ld	s0,24(sp)
ffffffc050205a0e:	6105                	addi	sp,sp,32
ffffffc050205a10:	8082                	ret

ffffffc050205a12 <fifo_seek>:
ffffffc050205a12:	1101                	addi	sp,sp,-32
ffffffc050205a14:	ec22                	sd	s0,24(sp)
ffffffc050205a16:	1000                	addi	s0,sp,32
ffffffc050205a18:	06400793          	li	a5,100
ffffffc050205a1c:	fef42623          	sw	a5,-20(s0)
ffffffc050205a20:	fe042423          	sw	zero,-24(s0)
ffffffc050205a24:	a03d                	j	ffffffc050205a52 <fifo_seek+0x40>
ffffffc050205a26:	00054717          	auipc	a4,0x54
ffffffc050205a2a:	7a270713          	addi	a4,a4,1954 # ffffffc05025a1c8 <ppage_array>
ffffffc050205a2e:	fe842783          	lw	a5,-24(s0)
ffffffc050205a32:	0796                	slli	a5,a5,0x5
ffffffc050205a34:	97ba                	add	a5,a5,a4
ffffffc050205a36:	4bd8                	lw	a4,20(a5)
ffffffc050205a38:	fec42783          	lw	a5,-20(s0)
ffffffc050205a3c:	2781                	sext.w	a5,a5
ffffffc050205a3e:	00e79563          	bne	a5,a4,ffffffc050205a48 <fifo_seek+0x36>
ffffffc050205a42:	fe842783          	lw	a5,-24(s0)
ffffffc050205a46:	a01d                	j	ffffffc050205a6c <fifo_seek+0x5a>
ffffffc050205a48:	fe842783          	lw	a5,-24(s0)
ffffffc050205a4c:	2785                	addiw	a5,a5,1
ffffffc050205a4e:	fef42423          	sw	a5,-24(s0)
ffffffc050205a52:	fe842783          	lw	a5,-24(s0)
ffffffc050205a56:	0007871b          	sext.w	a4,a5
ffffffc050205a5a:	479d                	li	a5,7
ffffffc050205a5c:	fce7d5e3          	bge	a5,a4,ffffffc050205a26 <fifo_seek+0x14>
ffffffc050205a60:	fec42783          	lw	a5,-20(s0)
ffffffc050205a64:	37fd                	addiw	a5,a5,-1
ffffffc050205a66:	fef42623          	sw	a5,-20(s0)
ffffffc050205a6a:	bf5d                	j	ffffffc050205a20 <fifo_seek+0xe>
ffffffc050205a6c:	853e                	mv	a0,a5
ffffffc050205a6e:	6462                	ld	s0,24(sp)
ffffffc050205a70:	6105                	addi	sp,sp,32
ffffffc050205a72:	8082                	ret

ffffffc050205a74 <p2sd>:
ffffffc050205a74:	7179                	addi	sp,sp,-48
ffffffc050205a76:	f406                	sd	ra,40(sp)
ffffffc050205a78:	f022                	sd	s0,32(sp)
ffffffc050205a7a:	1800                	addi	s0,sp,48
ffffffc050205a7c:	87aa                	mv	a5,a0
ffffffc050205a7e:	fcb43823          	sd	a1,-48(s0)
ffffffc050205a82:	fcf42e23          	sw	a5,-36(s0)
ffffffc050205a86:	fe042623          	sw	zero,-20(s0)
ffffffc050205a8a:	aa1d                	j	ffffffc050205bc0 <p2sd+0x14c>
ffffffc050205a8c:	00054697          	auipc	a3,0x54
ffffffc050205a90:	b3c68693          	addi	a3,a3,-1220 # ffffffc0502595c8 <sdpage_array>
ffffffc050205a94:	fec42703          	lw	a4,-20(s0)
ffffffc050205a98:	87ba                	mv	a5,a4
ffffffc050205a9a:	0786                	slli	a5,a5,0x1
ffffffc050205a9c:	97ba                	add	a5,a5,a4
ffffffc050205a9e:	078e                	slli	a5,a5,0x3
ffffffc050205aa0:	97b6                	add	a5,a5,a3
ffffffc050205aa2:	47dc                	lw	a5,12(a5)
ffffffc050205aa4:	10079963          	bnez	a5,ffffffc050205bb6 <p2sd+0x142>
ffffffc050205aa8:	00054717          	auipc	a4,0x54
ffffffc050205aac:	72070713          	addi	a4,a4,1824 # ffffffc05025a1c8 <ppage_array>
ffffffc050205ab0:	fdc42783          	lw	a5,-36(s0)
ffffffc050205ab4:	0796                	slli	a5,a5,0x5
ffffffc050205ab6:	97ba                	add	a5,a5,a4
ffffffc050205ab8:	6394                	ld	a3,0(a5)
ffffffc050205aba:	00054617          	auipc	a2,0x54
ffffffc050205abe:	b0e60613          	addi	a2,a2,-1266 # ffffffc0502595c8 <sdpage_array>
ffffffc050205ac2:	fec42703          	lw	a4,-20(s0)
ffffffc050205ac6:	87ba                	mv	a5,a4
ffffffc050205ac8:	0786                	slli	a5,a5,0x1
ffffffc050205aca:	97ba                	add	a5,a5,a4
ffffffc050205acc:	078e                	slli	a5,a5,0x3
ffffffc050205ace:	97b2                	add	a5,a5,a2
ffffffc050205ad0:	e394                	sd	a3,0(a5)
ffffffc050205ad2:	00054717          	auipc	a4,0x54
ffffffc050205ad6:	6f670713          	addi	a4,a4,1782 # ffffffc05025a1c8 <ppage_array>
ffffffc050205ada:	fdc42783          	lw	a5,-36(s0)
ffffffc050205ade:	0796                	slli	a5,a5,0x5
ffffffc050205ae0:	97ba                	add	a5,a5,a4
ffffffc050205ae2:	6798                	ld	a4,8(a5)
ffffffc050205ae4:	6785                	lui	a5,0x1
ffffffc050205ae6:	17fd                	addi	a5,a5,-1
ffffffc050205ae8:	8ff9                	and	a5,a5,a4
ffffffc050205aea:	cf89                	beqz	a5,ffffffc050205b04 <p2sd+0x90>
ffffffc050205aec:	00008617          	auipc	a2,0x8
ffffffc050205af0:	aa460613          	addi	a2,a2,-1372 # ffffffc05020d590 <__FUNCTION__.1441>
ffffffc050205af4:	10800593          	li	a1,264
ffffffc050205af8:	00007517          	auipc	a0,0x7
ffffffc050205afc:	31850513          	addi	a0,a0,792 # ffffffc05020ce10 <__FUNCTION__.1550+0x38>
ffffffc050205b00:	f26ff0ef          	jal	ra,ffffffc050205226 <_panic>
ffffffc050205b04:	00054717          	auipc	a4,0x54
ffffffc050205b08:	6c470713          	addi	a4,a4,1732 # ffffffc05025a1c8 <ppage_array>
ffffffc050205b0c:	fdc42783          	lw	a5,-36(s0)
ffffffc050205b10:	0796                	slli	a5,a5,0x5
ffffffc050205b12:	97ba                	add	a5,a5,a4
ffffffc050205b14:	679c                	ld	a5,8(a5)
ffffffc050205b16:	853e                	mv	a0,a5
ffffffc050205b18:	d84ff0ef          	jal	ra,ffffffc05020509c <kva2pa>
ffffffc050205b1c:	87aa                	mv	a5,a0
ffffffc050205b1e:	0007871b          	sext.w	a4,a5
ffffffc050205b22:	fec42783          	lw	a5,-20(s0)
ffffffc050205b26:	27e5                	addiw	a5,a5,25
ffffffc050205b28:	2781                	sext.w	a5,a5
ffffffc050205b2a:	0037979b          	slliw	a5,a5,0x3
ffffffc050205b2e:	2781                	sext.w	a5,a5
ffffffc050205b30:	2781                	sext.w	a5,a5
ffffffc050205b32:	863e                	mv	a2,a5
ffffffc050205b34:	45a1                	li	a1,8
ffffffc050205b36:	853a                	mv	a0,a4
ffffffc050205b38:	eacff0ef          	jal	ra,ffffffc0502051e4 <bios_sdwrite>
ffffffc050205b3c:	fec42783          	lw	a5,-20(s0)
ffffffc050205b40:	27e5                	addiw	a5,a5,25
ffffffc050205b42:	2781                	sext.w	a5,a5
ffffffc050205b44:	0037979b          	slliw	a5,a5,0x3
ffffffc050205b48:	0007869b          	sext.w	a3,a5
ffffffc050205b4c:	00054617          	auipc	a2,0x54
ffffffc050205b50:	a7c60613          	addi	a2,a2,-1412 # ffffffc0502595c8 <sdpage_array>
ffffffc050205b54:	fec42703          	lw	a4,-20(s0)
ffffffc050205b58:	87ba                	mv	a5,a4
ffffffc050205b5a:	0786                	slli	a5,a5,0x1
ffffffc050205b5c:	97ba                	add	a5,a5,a4
ffffffc050205b5e:	078e                	slli	a5,a5,0x3
ffffffc050205b60:	97b2                	add	a5,a5,a2
ffffffc050205b62:	c794                	sw	a3,8(a5)
ffffffc050205b64:	00054697          	auipc	a3,0x54
ffffffc050205b68:	a6468693          	addi	a3,a3,-1436 # ffffffc0502595c8 <sdpage_array>
ffffffc050205b6c:	fec42703          	lw	a4,-20(s0)
ffffffc050205b70:	87ba                	mv	a5,a4
ffffffc050205b72:	0786                	slli	a5,a5,0x1
ffffffc050205b74:	97ba                	add	a5,a5,a4
ffffffc050205b76:	078e                	slli	a5,a5,0x3
ffffffc050205b78:	97b6                	add	a5,a5,a3
ffffffc050205b7a:	4705                	li	a4,1
ffffffc050205b7c:	c7d8                	sw	a4,12(a5)
ffffffc050205b7e:	00008797          	auipc	a5,0x8
ffffffc050205b82:	aaa78793          	addi	a5,a5,-1366 # ffffffc05020d628 <used_sdpage>
ffffffc050205b86:	439c                	lw	a5,0(a5)
ffffffc050205b88:	2785                	addiw	a5,a5,1
ffffffc050205b8a:	0007871b          	sext.w	a4,a5
ffffffc050205b8e:	00008797          	auipc	a5,0x8
ffffffc050205b92:	a9a78793          	addi	a5,a5,-1382 # ffffffc05020d628 <used_sdpage>
ffffffc050205b96:	c398                	sw	a4,0(a5)
ffffffc050205b98:	00054697          	auipc	a3,0x54
ffffffc050205b9c:	a3068693          	addi	a3,a3,-1488 # ffffffc0502595c8 <sdpage_array>
ffffffc050205ba0:	fec42703          	lw	a4,-20(s0)
ffffffc050205ba4:	87ba                	mv	a5,a4
ffffffc050205ba6:	0786                	slli	a5,a5,0x1
ffffffc050205ba8:	97ba                	add	a5,a5,a4
ffffffc050205baa:	078e                	slli	a5,a5,0x3
ffffffc050205bac:	97b6                	add	a5,a5,a3
ffffffc050205bae:	fd043703          	ld	a4,-48(s0)
ffffffc050205bb2:	eb98                	sd	a4,16(a5)
ffffffc050205bb4:	a831                	j	ffffffc050205bd0 <p2sd+0x15c>
ffffffc050205bb6:	fec42783          	lw	a5,-20(s0)
ffffffc050205bba:	2785                	addiw	a5,a5,1
ffffffc050205bbc:	fef42623          	sw	a5,-20(s0)
ffffffc050205bc0:	fec42783          	lw	a5,-20(s0)
ffffffc050205bc4:	0007871b          	sext.w	a4,a5
ffffffc050205bc8:	07f00793          	li	a5,127
ffffffc050205bcc:	ece7d0e3          	bge	a5,a4,ffffffc050205a8c <p2sd+0x18>
ffffffc050205bd0:	70a2                	ld	ra,40(sp)
ffffffc050205bd2:	7402                	ld	s0,32(sp)
ffffffc050205bd4:	6145                	addi	sp,sp,48
ffffffc050205bd6:	8082                	ret

ffffffc050205bd8 <clear_pagevalid>:
ffffffc050205bd8:	715d                	addi	sp,sp,-80
ffffffc050205bda:	e486                	sd	ra,72(sp)
ffffffc050205bdc:	e0a2                	sd	s0,64(sp)
ffffffc050205bde:	0880                	addi	s0,sp,80
ffffffc050205be0:	faa43c23          	sd	a0,-72(s0)
ffffffc050205be4:	fab43823          	sd	a1,-80(s0)
ffffffc050205be8:	fb043783          	ld	a5,-80(s0)
ffffffc050205bec:	fef43423          	sd	a5,-24(s0)
ffffffc050205bf0:	fb843703          	ld	a4,-72(s0)
ffffffc050205bf4:	57fd                	li	a5,-1
ffffffc050205bf6:	83e5                	srli	a5,a5,0x19
ffffffc050205bf8:	8ff9                	and	a5,a5,a4
ffffffc050205bfa:	faf43c23          	sd	a5,-72(s0)
ffffffc050205bfe:	fb843783          	ld	a5,-72(s0)
ffffffc050205c02:	83f9                	srli	a5,a5,0x1e
ffffffc050205c04:	fef43023          	sd	a5,-32(s0)
ffffffc050205c08:	fe043783          	ld	a5,-32(s0)
ffffffc050205c0c:	00979713          	slli	a4,a5,0x9
ffffffc050205c10:	fb843783          	ld	a5,-72(s0)
ffffffc050205c14:	83d5                	srli	a5,a5,0x15
ffffffc050205c16:	8fb9                	xor	a5,a5,a4
ffffffc050205c18:	fcf43c23          	sd	a5,-40(s0)
ffffffc050205c1c:	fb843783          	ld	a5,-72(s0)
ffffffc050205c20:	00c7d713          	srli	a4,a5,0xc
ffffffc050205c24:	fe043783          	ld	a5,-32(s0)
ffffffc050205c28:	07ca                	slli	a5,a5,0x12
ffffffc050205c2a:	8f3d                	xor	a4,a4,a5
ffffffc050205c2c:	fd843783          	ld	a5,-40(s0)
ffffffc050205c30:	07a6                	slli	a5,a5,0x9
ffffffc050205c32:	8fb9                	xor	a5,a5,a4
ffffffc050205c34:	fcf43823          	sd	a5,-48(s0)
ffffffc050205c38:	fe043783          	ld	a5,-32(s0)
ffffffc050205c3c:	078e                	slli	a5,a5,0x3
ffffffc050205c3e:	fe843703          	ld	a4,-24(s0)
ffffffc050205c42:	97ba                	add	a5,a5,a4
ffffffc050205c44:	639c                	ld	a5,0(a5)
ffffffc050205c46:	853e                	mv	a0,a5
ffffffc050205c48:	cacff0ef          	jal	ra,ffffffc0502050f4 <get_pa>
ffffffc050205c4c:	87aa                	mv	a5,a0
ffffffc050205c4e:	853e                	mv	a0,a5
ffffffc050205c50:	c78ff0ef          	jal	ra,ffffffc0502050c8 <pa2kva>
ffffffc050205c54:	87aa                	mv	a5,a0
ffffffc050205c56:	fcf43423          	sd	a5,-56(s0)
ffffffc050205c5a:	fd843783          	ld	a5,-40(s0)
ffffffc050205c5e:	078e                	slli	a5,a5,0x3
ffffffc050205c60:	fc843703          	ld	a4,-56(s0)
ffffffc050205c64:	97ba                	add	a5,a5,a4
ffffffc050205c66:	639c                	ld	a5,0(a5)
ffffffc050205c68:	853e                	mv	a0,a5
ffffffc050205c6a:	c8aff0ef          	jal	ra,ffffffc0502050f4 <get_pa>
ffffffc050205c6e:	87aa                	mv	a5,a0
ffffffc050205c70:	853e                	mv	a0,a5
ffffffc050205c72:	c56ff0ef          	jal	ra,ffffffc0502050c8 <pa2kva>
ffffffc050205c76:	87aa                	mv	a5,a0
ffffffc050205c78:	fcf43023          	sd	a5,-64(s0)
ffffffc050205c7c:	fd043783          	ld	a5,-48(s0)
ffffffc050205c80:	078e                	slli	a5,a5,0x3
ffffffc050205c82:	fc043703          	ld	a4,-64(s0)
ffffffc050205c86:	97ba                	add	a5,a5,a4
ffffffc050205c88:	4581                	li	a1,0
ffffffc050205c8a:	853e                	mv	a0,a5
ffffffc050205c8c:	cccff0ef          	jal	ra,ffffffc050205158 <set_attribute>
ffffffc050205c90:	0001                	nop
ffffffc050205c92:	60a6                	ld	ra,72(sp)
ffffffc050205c94:	6406                	ld	s0,64(sp)
ffffffc050205c96:	6161                	addi	sp,sp,80
ffffffc050205c98:	8082                	ret

ffffffc050205c9a <clear_page>:
ffffffc050205c9a:	7179                	addi	sp,sp,-48
ffffffc050205c9c:	f422                	sd	s0,40(sp)
ffffffc050205c9e:	1800                	addi	s0,sp,48
ffffffc050205ca0:	fca43c23          	sd	a0,-40(s0)
ffffffc050205ca4:	fd843783          	ld	a5,-40(s0)
ffffffc050205ca8:	fef43423          	sd	a5,-24(s0)
ffffffc050205cac:	20000793          	li	a5,512
ffffffc050205cb0:	fef42223          	sw	a5,-28(s0)
ffffffc050205cb4:	a831                	j	ffffffc050205cd0 <clear_page+0x36>
ffffffc050205cb6:	fe843783          	ld	a5,-24(s0)
ffffffc050205cba:	00878713          	addi	a4,a5,8
ffffffc050205cbe:	fee43423          	sd	a4,-24(s0)
ffffffc050205cc2:	0007b023          	sd	zero,0(a5)
ffffffc050205cc6:	fe442783          	lw	a5,-28(s0)
ffffffc050205cca:	37fd                	addiw	a5,a5,-1
ffffffc050205ccc:	fef42223          	sw	a5,-28(s0)
ffffffc050205cd0:	fe442783          	lw	a5,-28(s0)
ffffffc050205cd4:	2781                	sext.w	a5,a5
ffffffc050205cd6:	f3e5                	bnez	a5,ffffffc050205cb6 <clear_page+0x1c>
ffffffc050205cd8:	0001                	nop
ffffffc050205cda:	7422                	ld	s0,40(sp)
ffffffc050205cdc:	6145                	addi	sp,sp,48
ffffffc050205cde:	8082                	ret

ffffffc050205ce0 <srch_mapping>:
ffffffc050205ce0:	7159                	addi	sp,sp,-112
ffffffc050205ce2:	f486                	sd	ra,104(sp)
ffffffc050205ce4:	f0a2                	sd	s0,96(sp)
ffffffc050205ce6:	1880                	addi	s0,sp,112
ffffffc050205ce8:	f8a43c23          	sd	a0,-104(s0)
ffffffc050205cec:	f8b43823          	sd	a1,-112(s0)
ffffffc050205cf0:	f9043783          	ld	a5,-112(s0)
ffffffc050205cf4:	fef43423          	sd	a5,-24(s0)
ffffffc050205cf8:	f9843703          	ld	a4,-104(s0)
ffffffc050205cfc:	57fd                	li	a5,-1
ffffffc050205cfe:	83e5                	srli	a5,a5,0x19
ffffffc050205d00:	8ff9                	and	a5,a5,a4
ffffffc050205d02:	f8f43c23          	sd	a5,-104(s0)
ffffffc050205d06:	f9843783          	ld	a5,-104(s0)
ffffffc050205d0a:	83f9                	srli	a5,a5,0x1e
ffffffc050205d0c:	fef43023          	sd	a5,-32(s0)
ffffffc050205d10:	fe043783          	ld	a5,-32(s0)
ffffffc050205d14:	00979713          	slli	a4,a5,0x9
ffffffc050205d18:	f9843783          	ld	a5,-104(s0)
ffffffc050205d1c:	83d5                	srli	a5,a5,0x15
ffffffc050205d1e:	8fb9                	xor	a5,a5,a4
ffffffc050205d20:	fcf43c23          	sd	a5,-40(s0)
ffffffc050205d24:	f9843783          	ld	a5,-104(s0)
ffffffc050205d28:	00c7d713          	srli	a4,a5,0xc
ffffffc050205d2c:	fe043783          	ld	a5,-32(s0)
ffffffc050205d30:	07ca                	slli	a5,a5,0x12
ffffffc050205d32:	8f3d                	xor	a4,a4,a5
ffffffc050205d34:	fd843783          	ld	a5,-40(s0)
ffffffc050205d38:	07a6                	slli	a5,a5,0x9
ffffffc050205d3a:	8fb9                	xor	a5,a5,a4
ffffffc050205d3c:	fcf43823          	sd	a5,-48(s0)
ffffffc050205d40:	fe043783          	ld	a5,-32(s0)
ffffffc050205d44:	078e                	slli	a5,a5,0x3
ffffffc050205d46:	fe843703          	ld	a4,-24(s0)
ffffffc050205d4a:	97ba                	add	a5,a5,a4
ffffffc050205d4c:	639c                	ld	a5,0(a5)
ffffffc050205d4e:	8b85                	andi	a5,a5,1
ffffffc050205d50:	0017b793          	seqz	a5,a5
ffffffc050205d54:	0ff7f793          	andi	a5,a5,255
ffffffc050205d58:	fcf42623          	sw	a5,-52(s0)
ffffffc050205d5c:	fcc42783          	lw	a5,-52(s0)
ffffffc050205d60:	2781                	sext.w	a5,a5
ffffffc050205d62:	c399                	beqz	a5,ffffffc050205d68 <srch_mapping+0x88>
ffffffc050205d64:	4781                	li	a5,0
ffffffc050205d66:	a869                	j	ffffffc050205e00 <srch_mapping+0x120>
ffffffc050205d68:	fe043783          	ld	a5,-32(s0)
ffffffc050205d6c:	078e                	slli	a5,a5,0x3
ffffffc050205d6e:	fe843703          	ld	a4,-24(s0)
ffffffc050205d72:	97ba                	add	a5,a5,a4
ffffffc050205d74:	639c                	ld	a5,0(a5)
ffffffc050205d76:	853e                	mv	a0,a5
ffffffc050205d78:	b7cff0ef          	jal	ra,ffffffc0502050f4 <get_pa>
ffffffc050205d7c:	87aa                	mv	a5,a0
ffffffc050205d7e:	853e                	mv	a0,a5
ffffffc050205d80:	b48ff0ef          	jal	ra,ffffffc0502050c8 <pa2kva>
ffffffc050205d84:	87aa                	mv	a5,a0
ffffffc050205d86:	fcf43023          	sd	a5,-64(s0)
ffffffc050205d8a:	fd843783          	ld	a5,-40(s0)
ffffffc050205d8e:	078e                	slli	a5,a5,0x3
ffffffc050205d90:	fc043703          	ld	a4,-64(s0)
ffffffc050205d94:	97ba                	add	a5,a5,a4
ffffffc050205d96:	639c                	ld	a5,0(a5)
ffffffc050205d98:	8b85                	andi	a5,a5,1
ffffffc050205d9a:	0017b793          	seqz	a5,a5
ffffffc050205d9e:	0ff7f793          	andi	a5,a5,255
ffffffc050205da2:	faf42e23          	sw	a5,-68(s0)
ffffffc050205da6:	fbc42783          	lw	a5,-68(s0)
ffffffc050205daa:	2781                	sext.w	a5,a5
ffffffc050205dac:	c399                	beqz	a5,ffffffc050205db2 <srch_mapping+0xd2>
ffffffc050205dae:	4781                	li	a5,0
ffffffc050205db0:	a881                	j	ffffffc050205e00 <srch_mapping+0x120>
ffffffc050205db2:	fd843783          	ld	a5,-40(s0)
ffffffc050205db6:	078e                	slli	a5,a5,0x3
ffffffc050205db8:	fc043703          	ld	a4,-64(s0)
ffffffc050205dbc:	97ba                	add	a5,a5,a4
ffffffc050205dbe:	639c                	ld	a5,0(a5)
ffffffc050205dc0:	853e                	mv	a0,a5
ffffffc050205dc2:	b32ff0ef          	jal	ra,ffffffc0502050f4 <get_pa>
ffffffc050205dc6:	87aa                	mv	a5,a0
ffffffc050205dc8:	853e                	mv	a0,a5
ffffffc050205dca:	afeff0ef          	jal	ra,ffffffc0502050c8 <pa2kva>
ffffffc050205dce:	87aa                	mv	a5,a0
ffffffc050205dd0:	faf43823          	sd	a5,-80(s0)
ffffffc050205dd4:	fd043783          	ld	a5,-48(s0)
ffffffc050205dd8:	078e                	slli	a5,a5,0x3
ffffffc050205dda:	fb043703          	ld	a4,-80(s0)
ffffffc050205dde:	97ba                	add	a5,a5,a4
ffffffc050205de0:	639c                	ld	a5,0(a5)
ffffffc050205de2:	8b85                	andi	a5,a5,1
ffffffc050205de4:	0017b793          	seqz	a5,a5
ffffffc050205de8:	0ff7f793          	andi	a5,a5,255
ffffffc050205dec:	faf42623          	sw	a5,-84(s0)
ffffffc050205df0:	fac42783          	lw	a5,-84(s0)
ffffffc050205df4:	2781                	sext.w	a5,a5
ffffffc050205df6:	0017b793          	seqz	a5,a5
ffffffc050205dfa:	0ff7f793          	andi	a5,a5,255
ffffffc050205dfe:	2781                	sext.w	a5,a5
ffffffc050205e00:	853e                	mv	a0,a5
ffffffc050205e02:	70a6                	ld	ra,104(sp)
ffffffc050205e04:	7406                	ld	s0,96(sp)
ffffffc050205e06:	6165                	addi	sp,sp,112
ffffffc050205e08:	8082                	ret

ffffffc050205e0a <init_shmpage>:
ffffffc050205e0a:	1101                	addi	sp,sp,-32
ffffffc050205e0c:	ec22                	sd	s0,24(sp)
ffffffc050205e0e:	1000                	addi	s0,sp,32
ffffffc050205e10:	fe042623          	sw	zero,-20(s0)
ffffffc050205e14:	a89d                	j	ffffffc050205e8a <init_shmpage+0x80>
ffffffc050205e16:	00054717          	auipc	a4,0x54
ffffffc050205e1a:	4b270713          	addi	a4,a4,1202 # ffffffc05025a2c8 <shmpage_array>
ffffffc050205e1e:	fec42683          	lw	a3,-20(s0)
ffffffc050205e22:	09800793          	li	a5,152
ffffffc050205e26:	02f687b3          	mul	a5,a3,a5
ffffffc050205e2a:	97ba                	add	a5,a5,a4
ffffffc050205e2c:	0007a223          	sw	zero,4(a5)
ffffffc050205e30:	00054717          	auipc	a4,0x54
ffffffc050205e34:	49870713          	addi	a4,a4,1176 # ffffffc05025a2c8 <shmpage_array>
ffffffc050205e38:	fec42683          	lw	a3,-20(s0)
ffffffc050205e3c:	09800793          	li	a5,152
ffffffc050205e40:	02f687b3          	mul	a5,a3,a5
ffffffc050205e44:	97ba                	add	a5,a5,a4
ffffffc050205e46:	fec42703          	lw	a4,-20(s0)
ffffffc050205e4a:	c398                	sw	a4,0(a5)
ffffffc050205e4c:	00054717          	auipc	a4,0x54
ffffffc050205e50:	47c70713          	addi	a4,a4,1148 # ffffffc05025a2c8 <shmpage_array>
ffffffc050205e54:	fec42683          	lw	a3,-20(s0)
ffffffc050205e58:	09800793          	li	a5,152
ffffffc050205e5c:	02f687b3          	mul	a5,a3,a5
ffffffc050205e60:	97ba                	add	a5,a5,a4
ffffffc050205e62:	0807a823          	sw	zero,144(a5)
ffffffc050205e66:	00054717          	auipc	a4,0x54
ffffffc050205e6a:	46270713          	addi	a4,a4,1122 # ffffffc05025a2c8 <shmpage_array>
ffffffc050205e6e:	fec42683          	lw	a3,-20(s0)
ffffffc050205e72:	09800793          	li	a5,152
ffffffc050205e76:	02f687b3          	mul	a5,a3,a5
ffffffc050205e7a:	97ba                	add	a5,a5,a4
ffffffc050205e7c:	0007b423          	sd	zero,8(a5)
ffffffc050205e80:	fec42783          	lw	a5,-20(s0)
ffffffc050205e84:	2785                	addiw	a5,a5,1
ffffffc050205e86:	fef42623          	sw	a5,-20(s0)
ffffffc050205e8a:	fec42783          	lw	a5,-20(s0)
ffffffc050205e8e:	0007871b          	sext.w	a4,a5
ffffffc050205e92:	03f00793          	li	a5,63
ffffffc050205e96:	f8e7d0e3          	bge	a5,a4,ffffffc050205e16 <init_shmpage+0xc>
ffffffc050205e9a:	0001                	nop
ffffffc050205e9c:	0001                	nop
ffffffc050205e9e:	6462                	ld	s0,24(sp)
ffffffc050205ea0:	6105                	addi	sp,sp,32
ffffffc050205ea2:	8082                	ret

ffffffc050205ea4 <do_shmpageget>:
ffffffc050205ea4:	711d                	addi	sp,sp,-96
ffffffc050205ea6:	ec86                	sd	ra,88(sp)
ffffffc050205ea8:	e8a2                	sd	s0,80(sp)
ffffffc050205eaa:	1080                	addi	s0,sp,96
ffffffc050205eac:	87aa                	mv	a5,a0
ffffffc050205eae:	faf42623          	sw	a5,-84(s0)
ffffffc050205eb2:	fac42783          	lw	a5,-84(s0)
ffffffc050205eb6:	fcf42e23          	sw	a5,-36(s0)
ffffffc050205eba:	00058797          	auipc	a5,0x58
ffffffc050205ebe:	d8678793          	addi	a5,a5,-634 # ffffffc05025dc40 <current_running>
ffffffc050205ec2:	639c                	ld	a5,0(a5)
ffffffc050205ec4:	5f9c                	lw	a5,56(a5)
ffffffc050205ec6:	fcf42c23          	sw	a5,-40(s0)
ffffffc050205eca:	00058797          	auipc	a5,0x58
ffffffc050205ece:	d7678793          	addi	a5,a5,-650 # ffffffc05025dc40 <current_running>
ffffffc050205ed2:	639c                	ld	a5,0(a5)
ffffffc050205ed4:	7b9c                	ld	a5,48(a5)
ffffffc050205ed6:	fcf43823          	sd	a5,-48(s0)
ffffffc050205eda:	00054717          	auipc	a4,0x54
ffffffc050205ede:	3ee70713          	addi	a4,a4,1006 # ffffffc05025a2c8 <shmpage_array>
ffffffc050205ee2:	fdc42683          	lw	a3,-36(s0)
ffffffc050205ee6:	09800793          	li	a5,152
ffffffc050205eea:	02f687b3          	mul	a5,a3,a5
ffffffc050205eee:	97ba                	add	a5,a5,a4
ffffffc050205ef0:	43dc                	lw	a5,4(a5)
ffffffc050205ef2:	873e                	mv	a4,a5
ffffffc050205ef4:	4785                	li	a5,1
ffffffc050205ef6:	0ef71863          	bne	a4,a5,ffffffc050205fe6 <do_shmpageget+0x142>
ffffffc050205efa:	00054717          	auipc	a4,0x54
ffffffc050205efe:	3ce70713          	addi	a4,a4,974 # ffffffc05025a2c8 <shmpage_array>
ffffffc050205f02:	fdc42683          	lw	a3,-36(s0)
ffffffc050205f06:	09800793          	li	a5,152
ffffffc050205f0a:	02f687b3          	mul	a5,a3,a5
ffffffc050205f0e:	97ba                	add	a5,a5,a4
ffffffc050205f10:	0907a783          	lw	a5,144(a5)
ffffffc050205f14:	2785                	addiw	a5,a5,1
ffffffc050205f16:	0007871b          	sext.w	a4,a5
ffffffc050205f1a:	00054697          	auipc	a3,0x54
ffffffc050205f1e:	3ae68693          	addi	a3,a3,942 # ffffffc05025a2c8 <shmpage_array>
ffffffc050205f22:	fdc42603          	lw	a2,-36(s0)
ffffffc050205f26:	09800793          	li	a5,152
ffffffc050205f2a:	02f607b3          	mul	a5,a2,a5
ffffffc050205f2e:	97b6                	add	a5,a5,a3
ffffffc050205f30:	08e7a823          	sw	a4,144(a5)
ffffffc050205f34:	00007797          	auipc	a5,0x7
ffffffc050205f38:	6ac78793          	addi	a5,a5,1708 # ffffffc05020d5e0 <shmMemBase>
ffffffc050205f3c:	639c                	ld	a5,0(a5)
ffffffc050205f3e:	fef43423          	sd	a5,-24(s0)
ffffffc050205f42:	fd043583          	ld	a1,-48(s0)
ffffffc050205f46:	fe843503          	ld	a0,-24(s0)
ffffffc050205f4a:	d97ff0ef          	jal	ra,ffffffc050205ce0 <srch_mapping>
ffffffc050205f4e:	87aa                	mv	a5,a0
ffffffc050205f50:	cb81                	beqz	a5,ffffffc050205f60 <do_shmpageget+0xbc>
ffffffc050205f52:	fe843703          	ld	a4,-24(s0)
ffffffc050205f56:	6785                	lui	a5,0x1
ffffffc050205f58:	97ba                	add	a5,a5,a4
ffffffc050205f5a:	fef43423          	sd	a5,-24(s0)
ffffffc050205f5e:	b7d5                	j	ffffffc050205f42 <do_shmpageget+0x9e>
ffffffc050205f60:	0001                	nop
ffffffc050205f62:	00054697          	auipc	a3,0x54
ffffffc050205f66:	36668693          	addi	a3,a3,870 # ffffffc05025a2c8 <shmpage_array>
ffffffc050205f6a:	fd842603          	lw	a2,-40(s0)
ffffffc050205f6e:	fdc42703          	lw	a4,-36(s0)
ffffffc050205f72:	87ba                	mv	a5,a4
ffffffc050205f74:	078a                	slli	a5,a5,0x2
ffffffc050205f76:	97ba                	add	a5,a5,a4
ffffffc050205f78:	078a                	slli	a5,a5,0x2
ffffffc050205f7a:	8f99                	sub	a5,a5,a4
ffffffc050205f7c:	97b2                	add	a5,a5,a2
ffffffc050205f7e:	0789                	addi	a5,a5,2
ffffffc050205f80:	078e                	slli	a5,a5,0x3
ffffffc050205f82:	97b6                	add	a5,a5,a3
ffffffc050205f84:	fe843703          	ld	a4,-24(s0)
ffffffc050205f88:	e398                	sd	a4,0(a5)
ffffffc050205f8a:	00054717          	auipc	a4,0x54
ffffffc050205f8e:	33e70713          	addi	a4,a4,830 # ffffffc05025a2c8 <shmpage_array>
ffffffc050205f92:	fdc42683          	lw	a3,-36(s0)
ffffffc050205f96:	09800793          	li	a5,152
ffffffc050205f9a:	02f687b3          	mul	a5,a3,a5
ffffffc050205f9e:	97ba                	add	a5,a5,a4
ffffffc050205fa0:	679c                	ld	a5,8(a5)
ffffffc050205fa2:	fcf43023          	sd	a5,-64(s0)
ffffffc050205fa6:	4689                	li	a3,2
ffffffc050205fa8:	fc043603          	ld	a2,-64(s0)
ffffffc050205fac:	fd043583          	ld	a1,-48(s0)
ffffffc050205fb0:	fe843503          	ld	a0,-24(s0)
ffffffc050205fb4:	ec4ff0ef          	jal	ra,ffffffc050205678 <alloc_page_helper>
ffffffc050205fb8:	faa43c23          	sd	a0,-72(s0)
ffffffc050205fbc:	fb843703          	ld	a4,-72(s0)
ffffffc050205fc0:	fc043783          	ld	a5,-64(s0)
ffffffc050205fc4:	00f70e63          	beq	a4,a5,ffffffc050205fe0 <do_shmpageget+0x13c>
ffffffc050205fc8:	00007617          	auipc	a2,0x7
ffffffc050205fcc:	e7060613          	addi	a2,a2,-400 # ffffffc05020ce38 <__FUNCTION__.1495>
ffffffc050205fd0:	16400593          	li	a1,356
ffffffc050205fd4:	00007517          	auipc	a0,0x7
ffffffc050205fd8:	e3c50513          	addi	a0,a0,-452 # ffffffc05020ce10 <__FUNCTION__.1550+0x38>
ffffffc050205fdc:	a4aff0ef          	jal	ra,ffffffc050205226 <_panic>
ffffffc050205fe0:	fe843783          	ld	a5,-24(s0)
ffffffc050205fe4:	a0c5                	j	ffffffc0502060c4 <do_shmpageget+0x220>
ffffffc050205fe6:	00054717          	auipc	a4,0x54
ffffffc050205fea:	2e270713          	addi	a4,a4,738 # ffffffc05025a2c8 <shmpage_array>
ffffffc050205fee:	fdc42683          	lw	a3,-36(s0)
ffffffc050205ff2:	09800793          	li	a5,152
ffffffc050205ff6:	02f687b3          	mul	a5,a3,a5
ffffffc050205ffa:	97ba                	add	a5,a5,a4
ffffffc050205ffc:	4705                	li	a4,1
ffffffc050205ffe:	c3d8                	sw	a4,4(a5)
ffffffc050206000:	00054717          	auipc	a4,0x54
ffffffc050206004:	2c870713          	addi	a4,a4,712 # ffffffc05025a2c8 <shmpage_array>
ffffffc050206008:	fdc42683          	lw	a3,-36(s0)
ffffffc05020600c:	09800793          	li	a5,152
ffffffc050206010:	02f687b3          	mul	a5,a3,a5
ffffffc050206014:	97ba                	add	a5,a5,a4
ffffffc050206016:	0907a783          	lw	a5,144(a5) # 1090 <boot_stack_top_base-0x50200f70>
ffffffc05020601a:	2785                	addiw	a5,a5,1
ffffffc05020601c:	0007871b          	sext.w	a4,a5
ffffffc050206020:	00054697          	auipc	a3,0x54
ffffffc050206024:	2a868693          	addi	a3,a3,680 # ffffffc05025a2c8 <shmpage_array>
ffffffc050206028:	fdc42603          	lw	a2,-36(s0)
ffffffc05020602c:	09800793          	li	a5,152
ffffffc050206030:	02f607b3          	mul	a5,a2,a5
ffffffc050206034:	97b6                	add	a5,a5,a3
ffffffc050206036:	08e7a823          	sw	a4,144(a5)
ffffffc05020603a:	00007797          	auipc	a5,0x7
ffffffc05020603e:	5a678793          	addi	a5,a5,1446 # ffffffc05020d5e0 <shmMemBase>
ffffffc050206042:	639c                	ld	a5,0(a5)
ffffffc050206044:	fef43023          	sd	a5,-32(s0)
ffffffc050206048:	fd043583          	ld	a1,-48(s0)
ffffffc05020604c:	fe043503          	ld	a0,-32(s0)
ffffffc050206050:	c91ff0ef          	jal	ra,ffffffc050205ce0 <srch_mapping>
ffffffc050206054:	87aa                	mv	a5,a0
ffffffc050206056:	cb81                	beqz	a5,ffffffc050206066 <do_shmpageget+0x1c2>
ffffffc050206058:	fe043703          	ld	a4,-32(s0)
ffffffc05020605c:	6785                	lui	a5,0x1
ffffffc05020605e:	97ba                	add	a5,a5,a4
ffffffc050206060:	fef43023          	sd	a5,-32(s0)
ffffffc050206064:	b7d5                	j	ffffffc050206048 <do_shmpageget+0x1a4>
ffffffc050206066:	0001                	nop
ffffffc050206068:	00054697          	auipc	a3,0x54
ffffffc05020606c:	26068693          	addi	a3,a3,608 # ffffffc05025a2c8 <shmpage_array>
ffffffc050206070:	fd842603          	lw	a2,-40(s0)
ffffffc050206074:	fdc42703          	lw	a4,-36(s0)
ffffffc050206078:	87ba                	mv	a5,a4
ffffffc05020607a:	078a                	slli	a5,a5,0x2
ffffffc05020607c:	97ba                	add	a5,a5,a4
ffffffc05020607e:	078a                	slli	a5,a5,0x2
ffffffc050206080:	8f99                	sub	a5,a5,a4
ffffffc050206082:	97b2                	add	a5,a5,a2
ffffffc050206084:	0789                	addi	a5,a5,2
ffffffc050206086:	078e                	slli	a5,a5,0x3
ffffffc050206088:	97b6                	add	a5,a5,a3
ffffffc05020608a:	fe043703          	ld	a4,-32(s0)
ffffffc05020608e:	e398                	sd	a4,0(a5)
ffffffc050206090:	4681                	li	a3,0
ffffffc050206092:	4601                	li	a2,0
ffffffc050206094:	fd043583          	ld	a1,-48(s0)
ffffffc050206098:	fe043503          	ld	a0,-32(s0)
ffffffc05020609c:	ddcff0ef          	jal	ra,ffffffc050205678 <alloc_page_helper>
ffffffc0502060a0:	fca43423          	sd	a0,-56(s0)
ffffffc0502060a4:	00054717          	auipc	a4,0x54
ffffffc0502060a8:	22470713          	addi	a4,a4,548 # ffffffc05025a2c8 <shmpage_array>
ffffffc0502060ac:	fdc42683          	lw	a3,-36(s0)
ffffffc0502060b0:	09800793          	li	a5,152
ffffffc0502060b4:	02f687b3          	mul	a5,a3,a5
ffffffc0502060b8:	97ba                	add	a5,a5,a4
ffffffc0502060ba:	fc843703          	ld	a4,-56(s0)
ffffffc0502060be:	e798                	sd	a4,8(a5)
ffffffc0502060c0:	fe043783          	ld	a5,-32(s0)
ffffffc0502060c4:	853e                	mv	a0,a5
ffffffc0502060c6:	60e6                	ld	ra,88(sp)
ffffffc0502060c8:	6446                	ld	s0,80(sp)
ffffffc0502060ca:	6125                	addi	sp,sp,96
ffffffc0502060cc:	8082                	ret

ffffffc0502060ce <do_shmpagedt>:
ffffffc0502060ce:	7139                	addi	sp,sp,-64
ffffffc0502060d0:	fc06                	sd	ra,56(sp)
ffffffc0502060d2:	f822                	sd	s0,48(sp)
ffffffc0502060d4:	0080                	addi	s0,sp,64
ffffffc0502060d6:	fca43423          	sd	a0,-56(s0)
ffffffc0502060da:	00058797          	auipc	a5,0x58
ffffffc0502060de:	b6678793          	addi	a5,a5,-1178 # ffffffc05025dc40 <current_running>
ffffffc0502060e2:	639c                	ld	a5,0(a5)
ffffffc0502060e4:	7b9c                	ld	a5,48(a5)
ffffffc0502060e6:	fef43023          	sd	a5,-32(s0)
ffffffc0502060ea:	00058797          	auipc	a5,0x58
ffffffc0502060ee:	b5678793          	addi	a5,a5,-1194 # ffffffc05025dc40 <current_running>
ffffffc0502060f2:	639c                	ld	a5,0(a5)
ffffffc0502060f4:	5f9c                	lw	a5,56(a5)
ffffffc0502060f6:	fcf42e23          	sw	a5,-36(s0)
ffffffc0502060fa:	fc843783          	ld	a5,-56(s0)
ffffffc0502060fe:	fe043583          	ld	a1,-32(s0)
ffffffc050206102:	853e                	mv	a0,a5
ffffffc050206104:	ad5ff0ef          	jal	ra,ffffffc050205bd8 <clear_pagevalid>
ffffffc050206108:	fe042623          	sw	zero,-20(s0)
ffffffc05020610c:	a8d1                	j	ffffffc0502061e0 <do_shmpagedt+0x112>
ffffffc05020610e:	00054697          	auipc	a3,0x54
ffffffc050206112:	1ba68693          	addi	a3,a3,442 # ffffffc05025a2c8 <shmpage_array>
ffffffc050206116:	fdc42603          	lw	a2,-36(s0)
ffffffc05020611a:	fec42703          	lw	a4,-20(s0)
ffffffc05020611e:	87ba                	mv	a5,a4
ffffffc050206120:	078a                	slli	a5,a5,0x2
ffffffc050206122:	97ba                	add	a5,a5,a4
ffffffc050206124:	078a                	slli	a5,a5,0x2
ffffffc050206126:	8f99                	sub	a5,a5,a4
ffffffc050206128:	97b2                	add	a5,a5,a2
ffffffc05020612a:	0789                	addi	a5,a5,2
ffffffc05020612c:	078e                	slli	a5,a5,0x3
ffffffc05020612e:	97b6                	add	a5,a5,a3
ffffffc050206130:	639c                	ld	a5,0(a5)
ffffffc050206132:	873e                	mv	a4,a5
ffffffc050206134:	fc843783          	ld	a5,-56(s0)
ffffffc050206138:	08e79f63          	bne	a5,a4,ffffffc0502061d6 <do_shmpagedt+0x108>
ffffffc05020613c:	00054697          	auipc	a3,0x54
ffffffc050206140:	18c68693          	addi	a3,a3,396 # ffffffc05025a2c8 <shmpage_array>
ffffffc050206144:	fdc42603          	lw	a2,-36(s0)
ffffffc050206148:	fec42703          	lw	a4,-20(s0)
ffffffc05020614c:	87ba                	mv	a5,a4
ffffffc05020614e:	078a                	slli	a5,a5,0x2
ffffffc050206150:	97ba                	add	a5,a5,a4
ffffffc050206152:	078a                	slli	a5,a5,0x2
ffffffc050206154:	8f99                	sub	a5,a5,a4
ffffffc050206156:	97b2                	add	a5,a5,a2
ffffffc050206158:	0789                	addi	a5,a5,2
ffffffc05020615a:	078e                	slli	a5,a5,0x3
ffffffc05020615c:	97b6                	add	a5,a5,a3
ffffffc05020615e:	0007b023          	sd	zero,0(a5)
ffffffc050206162:	00054717          	auipc	a4,0x54
ffffffc050206166:	16670713          	addi	a4,a4,358 # ffffffc05025a2c8 <shmpage_array>
ffffffc05020616a:	fec42683          	lw	a3,-20(s0)
ffffffc05020616e:	09800793          	li	a5,152
ffffffc050206172:	02f687b3          	mul	a5,a3,a5
ffffffc050206176:	97ba                	add	a5,a5,a4
ffffffc050206178:	0907a783          	lw	a5,144(a5)
ffffffc05020617c:	37fd                	addiw	a5,a5,-1
ffffffc05020617e:	0007871b          	sext.w	a4,a5
ffffffc050206182:	00054697          	auipc	a3,0x54
ffffffc050206186:	14668693          	addi	a3,a3,326 # ffffffc05025a2c8 <shmpage_array>
ffffffc05020618a:	fec42603          	lw	a2,-20(s0)
ffffffc05020618e:	09800793          	li	a5,152
ffffffc050206192:	02f607b3          	mul	a5,a2,a5
ffffffc050206196:	97b6                	add	a5,a5,a3
ffffffc050206198:	08e7a823          	sw	a4,144(a5)
ffffffc05020619c:	00054717          	auipc	a4,0x54
ffffffc0502061a0:	12c70713          	addi	a4,a4,300 # ffffffc05025a2c8 <shmpage_array>
ffffffc0502061a4:	fec42683          	lw	a3,-20(s0)
ffffffc0502061a8:	09800793          	li	a5,152
ffffffc0502061ac:	02f687b3          	mul	a5,a3,a5
ffffffc0502061b0:	97ba                	add	a5,a5,a4
ffffffc0502061b2:	0907a783          	lw	a5,144(a5)
ffffffc0502061b6:	04f04a63          	bgtz	a5,ffffffc05020620a <do_shmpagedt+0x13c>
ffffffc0502061ba:	00054717          	auipc	a4,0x54
ffffffc0502061be:	10e70713          	addi	a4,a4,270 # ffffffc05025a2c8 <shmpage_array>
ffffffc0502061c2:	fec42683          	lw	a3,-20(s0)
ffffffc0502061c6:	09800793          	li	a5,152
ffffffc0502061ca:	02f687b3          	mul	a5,a3,a5
ffffffc0502061ce:	97ba                	add	a5,a5,a4
ffffffc0502061d0:	0007a223          	sw	zero,4(a5)
ffffffc0502061d4:	a81d                	j	ffffffc05020620a <do_shmpagedt+0x13c>
ffffffc0502061d6:	fec42783          	lw	a5,-20(s0)
ffffffc0502061da:	2785                	addiw	a5,a5,1
ffffffc0502061dc:	fef42623          	sw	a5,-20(s0)
ffffffc0502061e0:	fec42783          	lw	a5,-20(s0)
ffffffc0502061e4:	0007871b          	sext.w	a4,a5
ffffffc0502061e8:	03f00793          	li	a5,63
ffffffc0502061ec:	f2e7d1e3          	bge	a5,a4,ffffffc05020610e <do_shmpagedt+0x40>
ffffffc0502061f0:	00007617          	auipc	a2,0x7
ffffffc0502061f4:	c5860613          	addi	a2,a2,-936 # ffffffc05020ce48 <__FUNCTION__.1509>
ffffffc0502061f8:	18d00593          	li	a1,397
ffffffc0502061fc:	00007517          	auipc	a0,0x7
ffffffc050206200:	c1450513          	addi	a0,a0,-1004 # ffffffc05020ce10 <__FUNCTION__.1550+0x38>
ffffffc050206204:	822ff0ef          	jal	ra,ffffffc050205226 <_panic>
ffffffc050206208:	a011                	j	ffffffc05020620c <do_shmpagedt+0x13e>
ffffffc05020620a:	0001                	nop
ffffffc05020620c:	70e2                	ld	ra,56(sp)
ffffffc05020620e:	7442                	ld	s0,48(sp)
ffffffc050206210:	6121                	addi	sp,sp,64
ffffffc050206212:	8082                	ret

ffffffc050206214 <get_page_addr>:
ffffffc050206214:	711d                	addi	sp,sp,-96
ffffffc050206216:	ec86                	sd	ra,88(sp)
ffffffc050206218:	e8a2                	sd	s0,80(sp)
ffffffc05020621a:	1080                	addi	s0,sp,96
ffffffc05020621c:	faa43423          	sd	a0,-88(s0)
ffffffc050206220:	00058797          	auipc	a5,0x58
ffffffc050206224:	a2078793          	addi	a5,a5,-1504 # ffffffc05025dc40 <current_running>
ffffffc050206228:	639c                	ld	a5,0(a5)
ffffffc05020622a:	7b9c                	ld	a5,48(a5)
ffffffc05020622c:	fef43423          	sd	a5,-24(s0)
ffffffc050206230:	fa843703          	ld	a4,-88(s0)
ffffffc050206234:	57fd                	li	a5,-1
ffffffc050206236:	83e5                	srli	a5,a5,0x19
ffffffc050206238:	8ff9                	and	a5,a5,a4
ffffffc05020623a:	faf43423          	sd	a5,-88(s0)
ffffffc05020623e:	fa843783          	ld	a5,-88(s0)
ffffffc050206242:	83f9                	srli	a5,a5,0x1e
ffffffc050206244:	fef43023          	sd	a5,-32(s0)
ffffffc050206248:	fe043783          	ld	a5,-32(s0)
ffffffc05020624c:	00979713          	slli	a4,a5,0x9
ffffffc050206250:	fa843783          	ld	a5,-88(s0)
ffffffc050206254:	83d5                	srli	a5,a5,0x15
ffffffc050206256:	8fb9                	xor	a5,a5,a4
ffffffc050206258:	fcf43c23          	sd	a5,-40(s0)
ffffffc05020625c:	fa843783          	ld	a5,-88(s0)
ffffffc050206260:	00c7d713          	srli	a4,a5,0xc
ffffffc050206264:	fe043783          	ld	a5,-32(s0)
ffffffc050206268:	07ca                	slli	a5,a5,0x12
ffffffc05020626a:	8f3d                	xor	a4,a4,a5
ffffffc05020626c:	fd843783          	ld	a5,-40(s0)
ffffffc050206270:	07a6                	slli	a5,a5,0x9
ffffffc050206272:	8fb9                	xor	a5,a5,a4
ffffffc050206274:	fcf43823          	sd	a5,-48(s0)
ffffffc050206278:	fe043783          	ld	a5,-32(s0)
ffffffc05020627c:	078e                	slli	a5,a5,0x3
ffffffc05020627e:	fe843703          	ld	a4,-24(s0)
ffffffc050206282:	97ba                	add	a5,a5,a4
ffffffc050206284:	639c                	ld	a5,0(a5)
ffffffc050206286:	853e                	mv	a0,a5
ffffffc050206288:	e6dfe0ef          	jal	ra,ffffffc0502050f4 <get_pa>
ffffffc05020628c:	87aa                	mv	a5,a0
ffffffc05020628e:	853e                	mv	a0,a5
ffffffc050206290:	e39fe0ef          	jal	ra,ffffffc0502050c8 <pa2kva>
ffffffc050206294:	87aa                	mv	a5,a0
ffffffc050206296:	fcf43423          	sd	a5,-56(s0)
ffffffc05020629a:	fd843783          	ld	a5,-40(s0)
ffffffc05020629e:	078e                	slli	a5,a5,0x3
ffffffc0502062a0:	fc843703          	ld	a4,-56(s0)
ffffffc0502062a4:	97ba                	add	a5,a5,a4
ffffffc0502062a6:	639c                	ld	a5,0(a5)
ffffffc0502062a8:	853e                	mv	a0,a5
ffffffc0502062aa:	e4bfe0ef          	jal	ra,ffffffc0502050f4 <get_pa>
ffffffc0502062ae:	87aa                	mv	a5,a0
ffffffc0502062b0:	853e                	mv	a0,a5
ffffffc0502062b2:	e17fe0ef          	jal	ra,ffffffc0502050c8 <pa2kva>
ffffffc0502062b6:	87aa                	mv	a5,a0
ffffffc0502062b8:	fcf43023          	sd	a5,-64(s0)
ffffffc0502062bc:	fd043783          	ld	a5,-48(s0)
ffffffc0502062c0:	078e                	slli	a5,a5,0x3
ffffffc0502062c2:	fc043703          	ld	a4,-64(s0)
ffffffc0502062c6:	97ba                	add	a5,a5,a4
ffffffc0502062c8:	639c                	ld	a5,0(a5)
ffffffc0502062ca:	83a9                	srli	a5,a5,0xa
ffffffc0502062cc:	07b2                	slli	a5,a5,0xc
ffffffc0502062ce:	faf43c23          	sd	a5,-72(s0)
ffffffc0502062d2:	fb843783          	ld	a5,-72(s0)
ffffffc0502062d6:	853e                	mv	a0,a5
ffffffc0502062d8:	60e6                	ld	ra,88(sp)
ffffffc0502062da:	6446                	ld	s0,80(sp)
ffffffc0502062dc:	6125                	addi	sp,sp,96
ffffffc0502062de:	8082                	ret

ffffffc0502062e0 <do_snapget>:
ffffffc0502062e0:	711d                	addi	sp,sp,-96
ffffffc0502062e2:	ec86                	sd	ra,88(sp)
ffffffc0502062e4:	e8a2                	sd	s0,80(sp)
ffffffc0502062e6:	1080                	addi	s0,sp,96
ffffffc0502062e8:	87aa                	mv	a5,a0
ffffffc0502062ea:	faf42623          	sw	a5,-84(s0)
ffffffc0502062ee:	fac42783          	lw	a5,-84(s0)
ffffffc0502062f2:	fcf42e23          	sw	a5,-36(s0)
ffffffc0502062f6:	00058797          	auipc	a5,0x58
ffffffc0502062fa:	94a78793          	addi	a5,a5,-1718 # ffffffc05025dc40 <current_running>
ffffffc0502062fe:	639c                	ld	a5,0(a5)
ffffffc050206300:	5f9c                	lw	a5,56(a5)
ffffffc050206302:	fcf42c23          	sw	a5,-40(s0)
ffffffc050206306:	00058797          	auipc	a5,0x58
ffffffc05020630a:	93a78793          	addi	a5,a5,-1734 # ffffffc05025dc40 <current_running>
ffffffc05020630e:	639c                	ld	a5,0(a5)
ffffffc050206310:	7b9c                	ld	a5,48(a5)
ffffffc050206312:	fcf43823          	sd	a5,-48(s0)
ffffffc050206316:	00054717          	auipc	a4,0x54
ffffffc05020631a:	fb270713          	addi	a4,a4,-78 # ffffffc05025a2c8 <shmpage_array>
ffffffc05020631e:	fdc42683          	lw	a3,-36(s0)
ffffffc050206322:	09800793          	li	a5,152
ffffffc050206326:	02f687b3          	mul	a5,a3,a5
ffffffc05020632a:	97ba                	add	a5,a5,a4
ffffffc05020632c:	43dc                	lw	a5,4(a5)
ffffffc05020632e:	873e                	mv	a4,a5
ffffffc050206330:	4785                	li	a5,1
ffffffc050206332:	0ef71863          	bne	a4,a5,ffffffc050206422 <do_snapget+0x142>
ffffffc050206336:	00054717          	auipc	a4,0x54
ffffffc05020633a:	f9270713          	addi	a4,a4,-110 # ffffffc05025a2c8 <shmpage_array>
ffffffc05020633e:	fdc42683          	lw	a3,-36(s0)
ffffffc050206342:	09800793          	li	a5,152
ffffffc050206346:	02f687b3          	mul	a5,a3,a5
ffffffc05020634a:	97ba                	add	a5,a5,a4
ffffffc05020634c:	0907a783          	lw	a5,144(a5)
ffffffc050206350:	2785                	addiw	a5,a5,1
ffffffc050206352:	0007871b          	sext.w	a4,a5
ffffffc050206356:	00054697          	auipc	a3,0x54
ffffffc05020635a:	f7268693          	addi	a3,a3,-142 # ffffffc05025a2c8 <shmpage_array>
ffffffc05020635e:	fdc42603          	lw	a2,-36(s0)
ffffffc050206362:	09800793          	li	a5,152
ffffffc050206366:	02f607b3          	mul	a5,a2,a5
ffffffc05020636a:	97b6                	add	a5,a5,a3
ffffffc05020636c:	08e7a823          	sw	a4,144(a5)
ffffffc050206370:	00007797          	auipc	a5,0x7
ffffffc050206374:	27078793          	addi	a5,a5,624 # ffffffc05020d5e0 <shmMemBase>
ffffffc050206378:	639c                	ld	a5,0(a5)
ffffffc05020637a:	fef43423          	sd	a5,-24(s0)
ffffffc05020637e:	fd043583          	ld	a1,-48(s0)
ffffffc050206382:	fe843503          	ld	a0,-24(s0)
ffffffc050206386:	95bff0ef          	jal	ra,ffffffc050205ce0 <srch_mapping>
ffffffc05020638a:	87aa                	mv	a5,a0
ffffffc05020638c:	cb81                	beqz	a5,ffffffc05020639c <do_snapget+0xbc>
ffffffc05020638e:	fe843703          	ld	a4,-24(s0)
ffffffc050206392:	6785                	lui	a5,0x1
ffffffc050206394:	97ba                	add	a5,a5,a4
ffffffc050206396:	fef43423          	sd	a5,-24(s0)
ffffffc05020639a:	b7d5                	j	ffffffc05020637e <do_snapget+0x9e>
ffffffc05020639c:	0001                	nop
ffffffc05020639e:	00054697          	auipc	a3,0x54
ffffffc0502063a2:	f2a68693          	addi	a3,a3,-214 # ffffffc05025a2c8 <shmpage_array>
ffffffc0502063a6:	fd842603          	lw	a2,-40(s0)
ffffffc0502063aa:	fdc42703          	lw	a4,-36(s0)
ffffffc0502063ae:	87ba                	mv	a5,a4
ffffffc0502063b0:	078a                	slli	a5,a5,0x2
ffffffc0502063b2:	97ba                	add	a5,a5,a4
ffffffc0502063b4:	078a                	slli	a5,a5,0x2
ffffffc0502063b6:	8f99                	sub	a5,a5,a4
ffffffc0502063b8:	97b2                	add	a5,a5,a2
ffffffc0502063ba:	0789                	addi	a5,a5,2
ffffffc0502063bc:	078e                	slli	a5,a5,0x3
ffffffc0502063be:	97b6                	add	a5,a5,a3
ffffffc0502063c0:	fe843703          	ld	a4,-24(s0)
ffffffc0502063c4:	e398                	sd	a4,0(a5)
ffffffc0502063c6:	00054717          	auipc	a4,0x54
ffffffc0502063ca:	f0270713          	addi	a4,a4,-254 # ffffffc05025a2c8 <shmpage_array>
ffffffc0502063ce:	fdc42683          	lw	a3,-36(s0)
ffffffc0502063d2:	09800793          	li	a5,152
ffffffc0502063d6:	02f687b3          	mul	a5,a3,a5
ffffffc0502063da:	97ba                	add	a5,a5,a4
ffffffc0502063dc:	679c                	ld	a5,8(a5)
ffffffc0502063de:	fcf43023          	sd	a5,-64(s0)
ffffffc0502063e2:	468d                	li	a3,3
ffffffc0502063e4:	fc043603          	ld	a2,-64(s0)
ffffffc0502063e8:	fd043583          	ld	a1,-48(s0)
ffffffc0502063ec:	fe843503          	ld	a0,-24(s0)
ffffffc0502063f0:	a88ff0ef          	jal	ra,ffffffc050205678 <alloc_page_helper>
ffffffc0502063f4:	faa43c23          	sd	a0,-72(s0)
ffffffc0502063f8:	fb843703          	ld	a4,-72(s0)
ffffffc0502063fc:	fc043783          	ld	a5,-64(s0)
ffffffc050206400:	00f70e63          	beq	a4,a5,ffffffc05020641c <do_snapget+0x13c>
ffffffc050206404:	00007617          	auipc	a2,0x7
ffffffc050206408:	a5460613          	addi	a2,a2,-1452 # ffffffc05020ce58 <__FUNCTION__.1531>
ffffffc05020640c:	1b400593          	li	a1,436
ffffffc050206410:	00007517          	auipc	a0,0x7
ffffffc050206414:	a0050513          	addi	a0,a0,-1536 # ffffffc05020ce10 <__FUNCTION__.1550+0x38>
ffffffc050206418:	e0ffe0ef          	jal	ra,ffffffc050205226 <_panic>
ffffffc05020641c:	fe843783          	ld	a5,-24(s0)
ffffffc050206420:	a0c5                	j	ffffffc050206500 <do_snapget+0x220>
ffffffc050206422:	00054717          	auipc	a4,0x54
ffffffc050206426:	ea670713          	addi	a4,a4,-346 # ffffffc05025a2c8 <shmpage_array>
ffffffc05020642a:	fdc42683          	lw	a3,-36(s0)
ffffffc05020642e:	09800793          	li	a5,152
ffffffc050206432:	02f687b3          	mul	a5,a3,a5
ffffffc050206436:	97ba                	add	a5,a5,a4
ffffffc050206438:	4705                	li	a4,1
ffffffc05020643a:	c3d8                	sw	a4,4(a5)
ffffffc05020643c:	00054717          	auipc	a4,0x54
ffffffc050206440:	e8c70713          	addi	a4,a4,-372 # ffffffc05025a2c8 <shmpage_array>
ffffffc050206444:	fdc42683          	lw	a3,-36(s0)
ffffffc050206448:	09800793          	li	a5,152
ffffffc05020644c:	02f687b3          	mul	a5,a3,a5
ffffffc050206450:	97ba                	add	a5,a5,a4
ffffffc050206452:	0907a783          	lw	a5,144(a5) # 1090 <boot_stack_top_base-0x50200f70>
ffffffc050206456:	2785                	addiw	a5,a5,1
ffffffc050206458:	0007871b          	sext.w	a4,a5
ffffffc05020645c:	00054697          	auipc	a3,0x54
ffffffc050206460:	e6c68693          	addi	a3,a3,-404 # ffffffc05025a2c8 <shmpage_array>
ffffffc050206464:	fdc42603          	lw	a2,-36(s0)
ffffffc050206468:	09800793          	li	a5,152
ffffffc05020646c:	02f607b3          	mul	a5,a2,a5
ffffffc050206470:	97b6                	add	a5,a5,a3
ffffffc050206472:	08e7a823          	sw	a4,144(a5)
ffffffc050206476:	00007797          	auipc	a5,0x7
ffffffc05020647a:	16a78793          	addi	a5,a5,362 # ffffffc05020d5e0 <shmMemBase>
ffffffc05020647e:	639c                	ld	a5,0(a5)
ffffffc050206480:	fef43023          	sd	a5,-32(s0)
ffffffc050206484:	fd043583          	ld	a1,-48(s0)
ffffffc050206488:	fe043503          	ld	a0,-32(s0)
ffffffc05020648c:	855ff0ef          	jal	ra,ffffffc050205ce0 <srch_mapping>
ffffffc050206490:	87aa                	mv	a5,a0
ffffffc050206492:	cb81                	beqz	a5,ffffffc0502064a2 <do_snapget+0x1c2>
ffffffc050206494:	fe043703          	ld	a4,-32(s0)
ffffffc050206498:	6785                	lui	a5,0x1
ffffffc05020649a:	97ba                	add	a5,a5,a4
ffffffc05020649c:	fef43023          	sd	a5,-32(s0)
ffffffc0502064a0:	b7d5                	j	ffffffc050206484 <do_snapget+0x1a4>
ffffffc0502064a2:	0001                	nop
ffffffc0502064a4:	00054697          	auipc	a3,0x54
ffffffc0502064a8:	e2468693          	addi	a3,a3,-476 # ffffffc05025a2c8 <shmpage_array>
ffffffc0502064ac:	fd842603          	lw	a2,-40(s0)
ffffffc0502064b0:	fdc42703          	lw	a4,-36(s0)
ffffffc0502064b4:	87ba                	mv	a5,a4
ffffffc0502064b6:	078a                	slli	a5,a5,0x2
ffffffc0502064b8:	97ba                	add	a5,a5,a4
ffffffc0502064ba:	078a                	slli	a5,a5,0x2
ffffffc0502064bc:	8f99                	sub	a5,a5,a4
ffffffc0502064be:	97b2                	add	a5,a5,a2
ffffffc0502064c0:	0789                	addi	a5,a5,2
ffffffc0502064c2:	078e                	slli	a5,a5,0x3
ffffffc0502064c4:	97b6                	add	a5,a5,a3
ffffffc0502064c6:	fe043703          	ld	a4,-32(s0)
ffffffc0502064ca:	e398                	sd	a4,0(a5)
ffffffc0502064cc:	4681                	li	a3,0
ffffffc0502064ce:	4601                	li	a2,0
ffffffc0502064d0:	fd043583          	ld	a1,-48(s0)
ffffffc0502064d4:	fe043503          	ld	a0,-32(s0)
ffffffc0502064d8:	9a0ff0ef          	jal	ra,ffffffc050205678 <alloc_page_helper>
ffffffc0502064dc:	fca43423          	sd	a0,-56(s0)
ffffffc0502064e0:	00054717          	auipc	a4,0x54
ffffffc0502064e4:	de870713          	addi	a4,a4,-536 # ffffffc05025a2c8 <shmpage_array>
ffffffc0502064e8:	fdc42683          	lw	a3,-36(s0)
ffffffc0502064ec:	09800793          	li	a5,152
ffffffc0502064f0:	02f687b3          	mul	a5,a3,a5
ffffffc0502064f4:	97ba                	add	a5,a5,a4
ffffffc0502064f6:	fc843703          	ld	a4,-56(s0)
ffffffc0502064fa:	e798                	sd	a4,8(a5)
ffffffc0502064fc:	fe043783          	ld	a5,-32(s0)
ffffffc050206500:	853e                	mv	a0,a5
ffffffc050206502:	60e6                	ld	ra,88(sp)
ffffffc050206504:	6446                	ld	s0,80(sp)
ffffffc050206506:	6125                	addi	sp,sp,96
ffffffc050206508:	8082                	ret

ffffffc05020650a <local_flush_tlb_all>:
ffffffc05020650a:	1141                	addi	sp,sp,-16
ffffffc05020650c:	e422                	sd	s0,8(sp)
ffffffc05020650e:	0800                	addi	s0,sp,16
ffffffc050206510:	12000073          	sfence.vma
ffffffc050206514:	0001                	nop
ffffffc050206516:	6422                	ld	s0,8(sp)
ffffffc050206518:	0141                	addi	sp,sp,16
ffffffc05020651a:	8082                	ret

ffffffc05020651c <kva2pa>:
ffffffc05020651c:	7179                	addi	sp,sp,-48
ffffffc05020651e:	f422                	sd	s0,40(sp)
ffffffc050206520:	1800                	addi	s0,sp,48
ffffffc050206522:	fca43c23          	sd	a0,-40(s0)
ffffffc050206526:	57fd                	li	a5,-1
ffffffc050206528:	9381                	srli	a5,a5,0x20
ffffffc05020652a:	fef43423          	sd	a5,-24(s0)
ffffffc05020652e:	fd843703          	ld	a4,-40(s0)
ffffffc050206532:	fe843783          	ld	a5,-24(s0)
ffffffc050206536:	8ff9                	and	a5,a5,a4
ffffffc050206538:	fef43023          	sd	a5,-32(s0)
ffffffc05020653c:	fe043783          	ld	a5,-32(s0)
ffffffc050206540:	853e                	mv	a0,a5
ffffffc050206542:	7422                	ld	s0,40(sp)
ffffffc050206544:	6145                	addi	sp,sp,48
ffffffc050206546:	8082                	ret

ffffffc050206548 <pa2kva>:
ffffffc050206548:	7179                	addi	sp,sp,-48
ffffffc05020654a:	f422                	sd	s0,40(sp)
ffffffc05020654c:	1800                	addi	s0,sp,48
ffffffc05020654e:	fca43c23          	sd	a0,-40(s0)
ffffffc050206552:	57fd                	li	a5,-1
ffffffc050206554:	179a                	slli	a5,a5,0x26
ffffffc050206556:	fef43423          	sd	a5,-24(s0)
ffffffc05020655a:	fd843703          	ld	a4,-40(s0)
ffffffc05020655e:	fe843783          	ld	a5,-24(s0)
ffffffc050206562:	8fd9                	or	a5,a5,a4
ffffffc050206564:	fef43023          	sd	a5,-32(s0)
ffffffc050206568:	fe043783          	ld	a5,-32(s0)
ffffffc05020656c:	853e                	mv	a0,a5
ffffffc05020656e:	7422                	ld	s0,40(sp)
ffffffc050206570:	6145                	addi	sp,sp,48
ffffffc050206572:	8082                	ret

ffffffc050206574 <get_pa>:
ffffffc050206574:	7179                	addi	sp,sp,-48
ffffffc050206576:	f422                	sd	s0,40(sp)
ffffffc050206578:	1800                	addi	s0,sp,48
ffffffc05020657a:	fca43c23          	sd	a0,-40(s0)
ffffffc05020657e:	fd843783          	ld	a5,-40(s0)
ffffffc050206582:	c007f793          	andi	a5,a5,-1024
ffffffc050206586:	fef43423          	sd	a5,-24(s0)
ffffffc05020658a:	fe843783          	ld	a5,-24(s0)
ffffffc05020658e:	078a                	slli	a5,a5,0x2
ffffffc050206590:	fef43423          	sd	a5,-24(s0)
ffffffc050206594:	fe843783          	ld	a5,-24(s0)
ffffffc050206598:	853e                	mv	a0,a5
ffffffc05020659a:	7422                	ld	s0,40(sp)
ffffffc05020659c:	6145                	addi	sp,sp,48
ffffffc05020659e:	8082                	ret

ffffffc0502065a0 <set_pfn>:
ffffffc0502065a0:	7179                	addi	sp,sp,-48
ffffffc0502065a2:	f422                	sd	s0,40(sp)
ffffffc0502065a4:	1800                	addi	s0,sp,48
ffffffc0502065a6:	fca43c23          	sd	a0,-40(s0)
ffffffc0502065aa:	fcb43823          	sd	a1,-48(s0)
ffffffc0502065ae:	fd843783          	ld	a5,-40(s0)
ffffffc0502065b2:	639c                	ld	a5,0(a5)
ffffffc0502065b4:	3ff7f793          	andi	a5,a5,1023
ffffffc0502065b8:	fef43423          	sd	a5,-24(s0)
ffffffc0502065bc:	fd043783          	ld	a5,-48(s0)
ffffffc0502065c0:	00a79713          	slli	a4,a5,0xa
ffffffc0502065c4:	fe843783          	ld	a5,-24(s0)
ffffffc0502065c8:	8f5d                	or	a4,a4,a5
ffffffc0502065ca:	fd843783          	ld	a5,-40(s0)
ffffffc0502065ce:	e398                	sd	a4,0(a5)
ffffffc0502065d0:	0001                	nop
ffffffc0502065d2:	7422                	ld	s0,40(sp)
ffffffc0502065d4:	6145                	addi	sp,sp,48
ffffffc0502065d6:	8082                	ret

ffffffc0502065d8 <set_attribute>:
ffffffc0502065d8:	7179                	addi	sp,sp,-48
ffffffc0502065da:	f422                	sd	s0,40(sp)
ffffffc0502065dc:	1800                	addi	s0,sp,48
ffffffc0502065de:	fca43c23          	sd	a0,-40(s0)
ffffffc0502065e2:	fcb43823          	sd	a1,-48(s0)
ffffffc0502065e6:	fd843783          	ld	a5,-40(s0)
ffffffc0502065ea:	639c                	ld	a5,0(a5)
ffffffc0502065ec:	c007f793          	andi	a5,a5,-1024
ffffffc0502065f0:	fef43423          	sd	a5,-24(s0)
ffffffc0502065f4:	fe843703          	ld	a4,-24(s0)
ffffffc0502065f8:	fd043783          	ld	a5,-48(s0)
ffffffc0502065fc:	8f5d                	or	a4,a4,a5
ffffffc0502065fe:	fd843783          	ld	a5,-40(s0)
ffffffc050206602:	e398                	sd	a4,0(a5)
ffffffc050206604:	0001                	nop
ffffffc050206606:	7422                	ld	s0,40(sp)
ffffffc050206608:	6145                	addi	sp,sp,48
ffffffc05020660a:	8082                	ret

ffffffc05020660c <clear_pgdir>:
ffffffc05020660c:	7179                	addi	sp,sp,-48
ffffffc05020660e:	f422                	sd	s0,40(sp)
ffffffc050206610:	1800                	addi	s0,sp,48
ffffffc050206612:	fca43c23          	sd	a0,-40(s0)
ffffffc050206616:	fd843783          	ld	a5,-40(s0)
ffffffc05020661a:	fef43423          	sd	a5,-24(s0)
ffffffc05020661e:	fe042223          	sw	zero,-28(s0)
ffffffc050206622:	a839                	j	ffffffc050206640 <clear_pgdir+0x34>
ffffffc050206624:	fe843783          	ld	a5,-24(s0)
ffffffc050206628:	0007b023          	sd	zero,0(a5) # 1000 <boot_stack_top_base-0x50201000>
ffffffc05020662c:	fe843783          	ld	a5,-24(s0)
ffffffc050206630:	07a1                	addi	a5,a5,8
ffffffc050206632:	fef43423          	sd	a5,-24(s0)
ffffffc050206636:	fe442783          	lw	a5,-28(s0)
ffffffc05020663a:	2785                	addiw	a5,a5,1
ffffffc05020663c:	fef42223          	sw	a5,-28(s0)
ffffffc050206640:	fe442783          	lw	a5,-28(s0)
ffffffc050206644:	0007871b          	sext.w	a4,a5
ffffffc050206648:	1ff00793          	li	a5,511
ffffffc05020664c:	fce7dce3          	bge	a5,a4,ffffffc050206624 <clear_pgdir+0x18>
ffffffc050206650:	0001                	nop
ffffffc050206652:	0001                	nop
ffffffc050206654:	7422                	ld	s0,40(sp)
ffffffc050206656:	6145                	addi	sp,sp,48
ffffffc050206658:	8082                	ret

ffffffc05020665a <alloc_page_v>:
ffffffc05020665a:	1141                	addi	sp,sp,-16
ffffffc05020665c:	e422                	sd	s0,8(sp)
ffffffc05020665e:	0800                	addi	s0,sp,16
ffffffc050206660:	00007797          	auipc	a5,0x7
ffffffc050206664:	f9878793          	addi	a5,a5,-104 # ffffffc05020d5f8 <pg_base>
ffffffc050206668:	6398                	ld	a4,0(a5)
ffffffc05020666a:	6785                	lui	a5,0x1
ffffffc05020666c:	973e                	add	a4,a4,a5
ffffffc05020666e:	00007797          	auipc	a5,0x7
ffffffc050206672:	f8a78793          	addi	a5,a5,-118 # ffffffc05020d5f8 <pg_base>
ffffffc050206676:	e398                	sd	a4,0(a5)
ffffffc050206678:	00007797          	auipc	a5,0x7
ffffffc05020667c:	f8078793          	addi	a5,a5,-128 # ffffffc05020d5f8 <pg_base>
ffffffc050206680:	639c                	ld	a5,0(a5)
ffffffc050206682:	853e                	mv	a0,a5
ffffffc050206684:	6422                	ld	s0,8(sp)
ffffffc050206686:	0141                	addi	sp,sp,16
ffffffc050206688:	8082                	ret

ffffffc05020668a <map_page_v>:
ffffffc05020668a:	711d                	addi	sp,sp,-96
ffffffc05020668c:	ec86                	sd	ra,88(sp)
ffffffc05020668e:	e8a2                	sd	s0,80(sp)
ffffffc050206690:	e4a6                	sd	s1,72(sp)
ffffffc050206692:	1080                	addi	s0,sp,96
ffffffc050206694:	faa43c23          	sd	a0,-72(s0)
ffffffc050206698:	fab43823          	sd	a1,-80(s0)
ffffffc05020669c:	fac43423          	sd	a2,-88(s0)
ffffffc0502066a0:	fb843703          	ld	a4,-72(s0)
ffffffc0502066a4:	57fd                	li	a5,-1
ffffffc0502066a6:	83e5                	srli	a5,a5,0x19
ffffffc0502066a8:	8ff9                	and	a5,a5,a4
ffffffc0502066aa:	faf43c23          	sd	a5,-72(s0)
ffffffc0502066ae:	fb843783          	ld	a5,-72(s0)
ffffffc0502066b2:	83f9                	srli	a5,a5,0x1e
ffffffc0502066b4:	fcf43c23          	sd	a5,-40(s0)
ffffffc0502066b8:	fd843783          	ld	a5,-40(s0)
ffffffc0502066bc:	00979713          	slli	a4,a5,0x9
ffffffc0502066c0:	fb843783          	ld	a5,-72(s0)
ffffffc0502066c4:	83d5                	srli	a5,a5,0x15
ffffffc0502066c6:	8fb9                	xor	a5,a5,a4
ffffffc0502066c8:	fcf43823          	sd	a5,-48(s0)
ffffffc0502066cc:	fa843783          	ld	a5,-88(s0)
ffffffc0502066d0:	fcf43423          	sd	a5,-56(s0)
ffffffc0502066d4:	fd843783          	ld	a5,-40(s0)
ffffffc0502066d8:	078e                	slli	a5,a5,0x3
ffffffc0502066da:	fc843703          	ld	a4,-56(s0)
ffffffc0502066de:	97ba                	add	a5,a5,a4
ffffffc0502066e0:	639c                	ld	a5,0(a5)
ffffffc0502066e2:	e3a5                	bnez	a5,ffffffc050206742 <map_page_v+0xb8>
ffffffc0502066e4:	fd843783          	ld	a5,-40(s0)
ffffffc0502066e8:	078e                	slli	a5,a5,0x3
ffffffc0502066ea:	fc843703          	ld	a4,-56(s0)
ffffffc0502066ee:	00f704b3          	add	s1,a4,a5
ffffffc0502066f2:	f69ff0ef          	jal	ra,ffffffc05020665a <alloc_page_v>
ffffffc0502066f6:	87aa                	mv	a5,a0
ffffffc0502066f8:	853e                	mv	a0,a5
ffffffc0502066fa:	e23ff0ef          	jal	ra,ffffffc05020651c <kva2pa>
ffffffc0502066fe:	87aa                	mv	a5,a0
ffffffc050206700:	83b1                	srli	a5,a5,0xc
ffffffc050206702:	85be                	mv	a1,a5
ffffffc050206704:	8526                	mv	a0,s1
ffffffc050206706:	e9bff0ef          	jal	ra,ffffffc0502065a0 <set_pfn>
ffffffc05020670a:	fd843783          	ld	a5,-40(s0)
ffffffc05020670e:	078e                	slli	a5,a5,0x3
ffffffc050206710:	fc843703          	ld	a4,-56(s0)
ffffffc050206714:	97ba                	add	a5,a5,a4
ffffffc050206716:	4585                	li	a1,1
ffffffc050206718:	853e                	mv	a0,a5
ffffffc05020671a:	ebfff0ef          	jal	ra,ffffffc0502065d8 <set_attribute>
ffffffc05020671e:	fd843783          	ld	a5,-40(s0)
ffffffc050206722:	078e                	slli	a5,a5,0x3
ffffffc050206724:	fc843703          	ld	a4,-56(s0)
ffffffc050206728:	97ba                	add	a5,a5,a4
ffffffc05020672a:	639c                	ld	a5,0(a5)
ffffffc05020672c:	853e                	mv	a0,a5
ffffffc05020672e:	e47ff0ef          	jal	ra,ffffffc050206574 <get_pa>
ffffffc050206732:	87aa                	mv	a5,a0
ffffffc050206734:	853e                	mv	a0,a5
ffffffc050206736:	e13ff0ef          	jal	ra,ffffffc050206548 <pa2kva>
ffffffc05020673a:	87aa                	mv	a5,a0
ffffffc05020673c:	853e                	mv	a0,a5
ffffffc05020673e:	ecfff0ef          	jal	ra,ffffffc05020660c <clear_pgdir>
ffffffc050206742:	fd843783          	ld	a5,-40(s0)
ffffffc050206746:	078e                	slli	a5,a5,0x3
ffffffc050206748:	fc843703          	ld	a4,-56(s0)
ffffffc05020674c:	97ba                	add	a5,a5,a4
ffffffc05020674e:	639c                	ld	a5,0(a5)
ffffffc050206750:	853e                	mv	a0,a5
ffffffc050206752:	e23ff0ef          	jal	ra,ffffffc050206574 <get_pa>
ffffffc050206756:	87aa                	mv	a5,a0
ffffffc050206758:	853e                	mv	a0,a5
ffffffc05020675a:	defff0ef          	jal	ra,ffffffc050206548 <pa2kva>
ffffffc05020675e:	87aa                	mv	a5,a0
ffffffc050206760:	fcf43023          	sd	a5,-64(s0)
ffffffc050206764:	fd043783          	ld	a5,-48(s0)
ffffffc050206768:	078e                	slli	a5,a5,0x3
ffffffc05020676a:	fc043703          	ld	a4,-64(s0)
ffffffc05020676e:	973e                	add	a4,a4,a5
ffffffc050206770:	fb043783          	ld	a5,-80(s0)
ffffffc050206774:	83b1                	srli	a5,a5,0xc
ffffffc050206776:	85be                	mv	a1,a5
ffffffc050206778:	853a                	mv	a0,a4
ffffffc05020677a:	e27ff0ef          	jal	ra,ffffffc0502065a0 <set_pfn>
ffffffc05020677e:	fd043783          	ld	a5,-48(s0)
ffffffc050206782:	078e                	slli	a5,a5,0x3
ffffffc050206784:	fc043703          	ld	a4,-64(s0)
ffffffc050206788:	97ba                	add	a5,a5,a4
ffffffc05020678a:	0cf00593          	li	a1,207
ffffffc05020678e:	853e                	mv	a0,a5
ffffffc050206790:	e49ff0ef          	jal	ra,ffffffc0502065d8 <set_attribute>
ffffffc050206794:	0001                	nop
ffffffc050206796:	60e6                	ld	ra,88(sp)
ffffffc050206798:	6446                	ld	s0,80(sp)
ffffffc05020679a:	64a6                	ld	s1,72(sp)
ffffffc05020679c:	6125                	addi	sp,sp,96
ffffffc05020679e:	8082                	ret

ffffffc0502067a0 <ioremap>:
ffffffc0502067a0:	7139                	addi	sp,sp,-64
ffffffc0502067a2:	fc06                	sd	ra,56(sp)
ffffffc0502067a4:	f822                	sd	s0,48(sp)
ffffffc0502067a6:	0080                	addi	s0,sp,64
ffffffc0502067a8:	fca43423          	sd	a0,-56(s0)
ffffffc0502067ac:	fcb43023          	sd	a1,-64(s0)
ffffffc0502067b0:	fc043703          	ld	a4,-64(s0)
ffffffc0502067b4:	002007b7          	lui	a5,0x200
ffffffc0502067b8:	00f77663          	bgeu	a4,a5,ffffffc0502067c4 <ioremap+0x24>
ffffffc0502067bc:	002007b7          	lui	a5,0x200
ffffffc0502067c0:	fcf43023          	sd	a5,-64(s0)
ffffffc0502067c4:	00007797          	auipc	a5,0x7
ffffffc0502067c8:	e2478793          	addi	a5,a5,-476 # ffffffc05020d5e8 <io_base>
ffffffc0502067cc:	639c                	ld	a5,0(a5)
ffffffc0502067ce:	fcf43c23          	sd	a5,-40(s0)
ffffffc0502067d2:	fd843783          	ld	a5,-40(s0)
ffffffc0502067d6:	fef43423          	sd	a5,-24(s0)
ffffffc0502067da:	fc843783          	ld	a5,-56(s0)
ffffffc0502067de:	fef43023          	sd	a5,-32(s0)
ffffffc0502067e2:	00007797          	auipc	a5,0x7
ffffffc0502067e6:	e0678793          	addi	a5,a5,-506 # ffffffc05020d5e8 <io_base>
ffffffc0502067ea:	6398                	ld	a4,0(a5)
ffffffc0502067ec:	fc043783          	ld	a5,-64(s0)
ffffffc0502067f0:	973e                	add	a4,a4,a5
ffffffc0502067f2:	00007797          	auipc	a5,0x7
ffffffc0502067f6:	df678793          	addi	a5,a5,-522 # ffffffc05020d5e8 <io_base>
ffffffc0502067fa:	e398                	sd	a4,0(a5)
ffffffc0502067fc:	fc0517b7          	lui	a5,0xfc051
ffffffc050206800:	07b2                	slli	a5,a5,0xc
ffffffc050206802:	fcf43823          	sd	a5,-48(s0)
ffffffc050206806:	a03d                	j	ffffffc050206834 <ioremap+0x94>
ffffffc050206808:	fd043603          	ld	a2,-48(s0)
ffffffc05020680c:	fe043583          	ld	a1,-32(s0)
ffffffc050206810:	fe843503          	ld	a0,-24(s0)
ffffffc050206814:	e77ff0ef          	jal	ra,ffffffc05020668a <map_page_v>
ffffffc050206818:	fe843703          	ld	a4,-24(s0)
ffffffc05020681c:	002007b7          	lui	a5,0x200
ffffffc050206820:	97ba                	add	a5,a5,a4
ffffffc050206822:	fef43423          	sd	a5,-24(s0)
ffffffc050206826:	fe043703          	ld	a4,-32(s0)
ffffffc05020682a:	002007b7          	lui	a5,0x200
ffffffc05020682e:	97ba                	add	a5,a5,a4
ffffffc050206830:	fef43023          	sd	a5,-32(s0)
ffffffc050206834:	00007797          	auipc	a5,0x7
ffffffc050206838:	db478793          	addi	a5,a5,-588 # ffffffc05020d5e8 <io_base>
ffffffc05020683c:	639c                	ld	a5,0(a5)
ffffffc05020683e:	fe843703          	ld	a4,-24(s0)
ffffffc050206842:	fcf763e3          	bltu	a4,a5,ffffffc050206808 <ioremap+0x68>
ffffffc050206846:	cc5ff0ef          	jal	ra,ffffffc05020650a <local_flush_tlb_all>
ffffffc05020684a:	fd843783          	ld	a5,-40(s0)
ffffffc05020684e:	853e                	mv	a0,a5
ffffffc050206850:	70e2                	ld	ra,56(sp)
ffffffc050206852:	7442                	ld	s0,48(sp)
ffffffc050206854:	6121                	addi	sp,sp,64
ffffffc050206856:	8082                	ret

ffffffc050206858 <iounmap>:
ffffffc050206858:	1101                	addi	sp,sp,-32
ffffffc05020685a:	ec22                	sd	s0,24(sp)
ffffffc05020685c:	1000                	addi	s0,sp,32
ffffffc05020685e:	fea43423          	sd	a0,-24(s0)
ffffffc050206862:	0001                	nop
ffffffc050206864:	6462                	ld	s0,24(sp)
ffffffc050206866:	6105                	addi	sp,sp,32
ffffffc050206868:	8082                	ret

ffffffc05020686a <init_head>:
ffffffc05020686a:	1101                	addi	sp,sp,-32
ffffffc05020686c:	ec22                	sd	s0,24(sp)
ffffffc05020686e:	1000                	addi	s0,sp,32
ffffffc050206870:	fea43423          	sd	a0,-24(s0)
ffffffc050206874:	fe843783          	ld	a5,-24(s0)
ffffffc050206878:	fe843703          	ld	a4,-24(s0)
ffffffc05020687c:	e398                	sd	a4,0(a5)
ffffffc05020687e:	fe843783          	ld	a5,-24(s0)
ffffffc050206882:	fe843703          	ld	a4,-24(s0)
ffffffc050206886:	e798                	sd	a4,8(a5)
ffffffc050206888:	0001                	nop
ffffffc05020688a:	6462                	ld	s0,24(sp)
ffffffc05020688c:	6105                	addi	sp,sp,32
ffffffc05020688e:	8082                	ret

ffffffc050206890 <init_locks>:
ffffffc050206890:	1141                	addi	sp,sp,-16
ffffffc050206892:	e422                	sd	s0,8(sp)
ffffffc050206894:	0800                	addi	s0,sp,16
ffffffc050206896:	0001                	nop
ffffffc050206898:	6422                	ld	s0,8(sp)
ffffffc05020689a:	0141                	addi	sp,sp,16
ffffffc05020689c:	8082                	ret

ffffffc05020689e <spin_lock_init>:
ffffffc05020689e:	1101                	addi	sp,sp,-32
ffffffc0502068a0:	ec22                	sd	s0,24(sp)
ffffffc0502068a2:	1000                	addi	s0,sp,32
ffffffc0502068a4:	fea43423          	sd	a0,-24(s0)
ffffffc0502068a8:	fe843783          	ld	a5,-24(s0)
ffffffc0502068ac:	0007a023          	sw	zero,0(a5)
ffffffc0502068b0:	0001                	nop
ffffffc0502068b2:	6462                	ld	s0,24(sp)
ffffffc0502068b4:	6105                	addi	sp,sp,32
ffffffc0502068b6:	8082                	ret

ffffffc0502068b8 <spin_lock_try_acquire>:
ffffffc0502068b8:	1101                	addi	sp,sp,-32
ffffffc0502068ba:	ec22                	sd	s0,24(sp)
ffffffc0502068bc:	1000                	addi	s0,sp,32
ffffffc0502068be:	fea43423          	sd	a0,-24(s0)
ffffffc0502068c2:	0001                	nop
ffffffc0502068c4:	fe843783          	ld	a5,-24(s0)
ffffffc0502068c8:	439c                	lw	a5,0(a5)
ffffffc0502068ca:	2781                	sext.w	a5,a5
ffffffc0502068cc:	873e                	mv	a4,a5
ffffffc0502068ce:	4785                	li	a5,1
ffffffc0502068d0:	fef70ae3          	beq	a4,a5,ffffffc0502068c4 <spin_lock_try_acquire+0xc>
ffffffc0502068d4:	4785                	li	a5,1
ffffffc0502068d6:	853e                	mv	a0,a5
ffffffc0502068d8:	6462                	ld	s0,24(sp)
ffffffc0502068da:	6105                	addi	sp,sp,32
ffffffc0502068dc:	8082                	ret

ffffffc0502068de <spin_lock_acquire>:
ffffffc0502068de:	1101                	addi	sp,sp,-32
ffffffc0502068e0:	ec22                	sd	s0,24(sp)
ffffffc0502068e2:	1000                	addi	s0,sp,32
ffffffc0502068e4:	fea43423          	sd	a0,-24(s0)
ffffffc0502068e8:	fe843783          	ld	a5,-24(s0)
ffffffc0502068ec:	439c                	lw	a5,0(a5)
ffffffc0502068ee:	0001                	nop
ffffffc0502068f0:	6462                	ld	s0,24(sp)
ffffffc0502068f2:	6105                	addi	sp,sp,32
ffffffc0502068f4:	8082                	ret

ffffffc0502068f6 <spin_lock_release>:
ffffffc0502068f6:	1101                	addi	sp,sp,-32
ffffffc0502068f8:	ec22                	sd	s0,24(sp)
ffffffc0502068fa:	1000                	addi	s0,sp,32
ffffffc0502068fc:	fea43423          	sd	a0,-24(s0)
ffffffc050206900:	fe843783          	ld	a5,-24(s0)
ffffffc050206904:	0007a023          	sw	zero,0(a5)
ffffffc050206908:	0001                	nop
ffffffc05020690a:	6462                	ld	s0,24(sp)
ffffffc05020690c:	6105                	addi	sp,sp,32
ffffffc05020690e:	8082                	ret

ffffffc050206910 <do_mutex_lock_init>:
ffffffc050206910:	7179                	addi	sp,sp,-48
ffffffc050206912:	f422                	sd	s0,40(sp)
ffffffc050206914:	1800                	addi	s0,sp,48
ffffffc050206916:	87aa                	mv	a5,a0
ffffffc050206918:	fcf42e23          	sw	a5,-36(s0)
ffffffc05020691c:	fdc42783          	lw	a5,-36(s0)
ffffffc050206920:	fef42623          	sw	a5,-20(s0)
ffffffc050206924:	00057717          	auipc	a4,0x57
ffffffc050206928:	82470713          	addi	a4,a4,-2012 # ffffffc05025d148 <mlocks>
ffffffc05020692c:	fec42783          	lw	a5,-20(s0)
ffffffc050206930:	0796                	slli	a5,a5,0x5
ffffffc050206932:	97ba                	add	a5,a5,a4
ffffffc050206934:	fdc42703          	lw	a4,-36(s0)
ffffffc050206938:	cf98                	sw	a4,24(a5)
ffffffc05020693a:	fec42783          	lw	a5,-20(s0)
ffffffc05020693e:	00579713          	slli	a4,a5,0x5
ffffffc050206942:	00057797          	auipc	a5,0x57
ffffffc050206946:	80678793          	addi	a5,a5,-2042 # ffffffc05025d148 <mlocks>
ffffffc05020694a:	97ba                	add	a5,a5,a4
ffffffc05020694c:	07a1                	addi	a5,a5,8
ffffffc05020694e:	fef43023          	sd	a5,-32(s0)
ffffffc050206952:	00056717          	auipc	a4,0x56
ffffffc050206956:	7f670713          	addi	a4,a4,2038 # ffffffc05025d148 <mlocks>
ffffffc05020695a:	fec42783          	lw	a5,-20(s0)
ffffffc05020695e:	0796                	slli	a5,a5,0x5
ffffffc050206960:	97ba                	add	a5,a5,a4
ffffffc050206962:	fe043703          	ld	a4,-32(s0)
ffffffc050206966:	eb98                	sd	a4,16(a5)
ffffffc050206968:	00056717          	auipc	a4,0x56
ffffffc05020696c:	7e070713          	addi	a4,a4,2016 # ffffffc05025d148 <mlocks>
ffffffc050206970:	fec42783          	lw	a5,-20(s0)
ffffffc050206974:	0796                	slli	a5,a5,0x5
ffffffc050206976:	97ba                	add	a5,a5,a4
ffffffc050206978:	fe043703          	ld	a4,-32(s0)
ffffffc05020697c:	e798                	sd	a4,8(a5)
ffffffc05020697e:	00056717          	auipc	a4,0x56
ffffffc050206982:	7ca70713          	addi	a4,a4,1994 # ffffffc05025d148 <mlocks>
ffffffc050206986:	fec42783          	lw	a5,-20(s0)
ffffffc05020698a:	0796                	slli	a5,a5,0x5
ffffffc05020698c:	97ba                	add	a5,a5,a4
ffffffc05020698e:	0007a023          	sw	zero,0(a5)
ffffffc050206992:	fec42783          	lw	a5,-20(s0)
ffffffc050206996:	853e                	mv	a0,a5
ffffffc050206998:	7422                	ld	s0,40(sp)
ffffffc05020699a:	6145                	addi	sp,sp,48
ffffffc05020699c:	8082                	ret

ffffffc05020699e <do_mutex_lock_acquire>:
ffffffc05020699e:	7179                	addi	sp,sp,-48
ffffffc0502069a0:	f406                	sd	ra,40(sp)
ffffffc0502069a2:	f022                	sd	s0,32(sp)
ffffffc0502069a4:	1800                	addi	s0,sp,48
ffffffc0502069a6:	87aa                	mv	a5,a0
ffffffc0502069a8:	fcf42e23          	sw	a5,-36(s0)
ffffffc0502069ac:	fdc42783          	lw	a5,-36(s0)
ffffffc0502069b0:	00579713          	slli	a4,a5,0x5
ffffffc0502069b4:	00056797          	auipc	a5,0x56
ffffffc0502069b8:	79478793          	addi	a5,a5,1940 # ffffffc05025d148 <mlocks>
ffffffc0502069bc:	97ba                	add	a5,a5,a4
ffffffc0502069be:	fef43023          	sd	a5,-32(s0)
ffffffc0502069c2:	fe043783          	ld	a5,-32(s0)
ffffffc0502069c6:	439c                	lw	a5,0(a5)
ffffffc0502069c8:	e3a5                	bnez	a5,ffffffc050206a28 <do_mutex_lock_acquire+0x8a>
ffffffc0502069ca:	fe043783          	ld	a5,-32(s0)
ffffffc0502069ce:	4705                	li	a4,1
ffffffc0502069d0:	c398                	sw	a4,0(a5)
ffffffc0502069d2:	fe042623          	sw	zero,-20(s0)
ffffffc0502069d6:	a089                	j	ffffffc050206a18 <do_mutex_lock_acquire+0x7a>
ffffffc0502069d8:	00057797          	auipc	a5,0x57
ffffffc0502069dc:	26878793          	addi	a5,a5,616 # ffffffc05025dc40 <current_running>
ffffffc0502069e0:	6398                	ld	a4,0(a5)
ffffffc0502069e2:	fec42783          	lw	a5,-20(s0)
ffffffc0502069e6:	07f1                	addi	a5,a5,28
ffffffc0502069e8:	078a                	slli	a5,a5,0x2
ffffffc0502069ea:	97ba                	add	a5,a5,a4
ffffffc0502069ec:	439c                	lw	a5,0(a5)
ffffffc0502069ee:	e385                	bnez	a5,ffffffc050206a0e <do_mutex_lock_acquire+0x70>
ffffffc0502069f0:	00057797          	auipc	a5,0x57
ffffffc0502069f4:	25078793          	addi	a5,a5,592 # ffffffc05025dc40 <current_running>
ffffffc0502069f8:	6398                	ld	a4,0(a5)
ffffffc0502069fa:	fec42783          	lw	a5,-20(s0)
ffffffc0502069fe:	07f1                	addi	a5,a5,28
ffffffc050206a00:	078a                	slli	a5,a5,0x2
ffffffc050206a02:	97ba                	add	a5,a5,a4
ffffffc050206a04:	fdc42703          	lw	a4,-36(s0)
ffffffc050206a08:	c398                	sw	a4,0(a5)
ffffffc050206a0a:	0001                	nop
ffffffc050206a0c:	a82d                	j	ffffffc050206a46 <do_mutex_lock_acquire+0xa8>
ffffffc050206a0e:	fec42783          	lw	a5,-20(s0)
ffffffc050206a12:	2785                	addiw	a5,a5,1
ffffffc050206a14:	fef42623          	sw	a5,-20(s0)
ffffffc050206a18:	fec42783          	lw	a5,-20(s0)
ffffffc050206a1c:	0007871b          	sext.w	a4,a5
ffffffc050206a20:	47bd                	li	a5,15
ffffffc050206a22:	fae7dbe3          	bge	a5,a4,ffffffc0502069d8 <do_mutex_lock_acquire+0x3a>
ffffffc050206a26:	a005                	j	ffffffc050206a46 <do_mutex_lock_acquire+0xa8>
ffffffc050206a28:	fe043783          	ld	a5,-32(s0)
ffffffc050206a2c:	00878713          	addi	a4,a5,8
ffffffc050206a30:	00057797          	auipc	a5,0x57
ffffffc050206a34:	21078793          	addi	a5,a5,528 # ffffffc05025dc40 <current_running>
ffffffc050206a38:	639c                	ld	a5,0(a5)
ffffffc050206a3a:	07c1                	addi	a5,a5,16
ffffffc050206a3c:	85be                	mv	a1,a5
ffffffc050206a3e:	853a                	mv	a0,a4
ffffffc050206a40:	130010ef          	jal	ra,ffffffc050207b70 <do_block>
ffffffc050206a44:	b7a5                	j	ffffffc0502069ac <do_mutex_lock_acquire+0xe>
ffffffc050206a46:	0001                	nop
ffffffc050206a48:	70a2                	ld	ra,40(sp)
ffffffc050206a4a:	7402                	ld	s0,32(sp)
ffffffc050206a4c:	6145                	addi	sp,sp,48
ffffffc050206a4e:	8082                	ret

ffffffc050206a50 <do_mutex_lock_release>:
ffffffc050206a50:	7179                	addi	sp,sp,-48
ffffffc050206a52:	f406                	sd	ra,40(sp)
ffffffc050206a54:	f022                	sd	s0,32(sp)
ffffffc050206a56:	1800                	addi	s0,sp,48
ffffffc050206a58:	87aa                	mv	a5,a0
ffffffc050206a5a:	fcf42e23          	sw	a5,-36(s0)
ffffffc050206a5e:	fdc42783          	lw	a5,-36(s0)
ffffffc050206a62:	00579713          	slli	a4,a5,0x5
ffffffc050206a66:	00056797          	auipc	a5,0x56
ffffffc050206a6a:	6e278793          	addi	a5,a5,1762 # ffffffc05025d148 <mlocks>
ffffffc050206a6e:	97ba                	add	a5,a5,a4
ffffffc050206a70:	fef43023          	sd	a5,-32(s0)
ffffffc050206a74:	fe042623          	sw	zero,-20(s0)
ffffffc050206a78:	a099                	j	ffffffc050206abe <do_mutex_lock_release+0x6e>
ffffffc050206a7a:	00057797          	auipc	a5,0x57
ffffffc050206a7e:	1c678793          	addi	a5,a5,454 # ffffffc05025dc40 <current_running>
ffffffc050206a82:	6398                	ld	a4,0(a5)
ffffffc050206a84:	fec42783          	lw	a5,-20(s0)
ffffffc050206a88:	07f1                	addi	a5,a5,28
ffffffc050206a8a:	078a                	slli	a5,a5,0x2
ffffffc050206a8c:	97ba                	add	a5,a5,a4
ffffffc050206a8e:	4398                	lw	a4,0(a5)
ffffffc050206a90:	fdc42783          	lw	a5,-36(s0)
ffffffc050206a94:	2781                	sext.w	a5,a5
ffffffc050206a96:	00e79f63          	bne	a5,a4,ffffffc050206ab4 <do_mutex_lock_release+0x64>
ffffffc050206a9a:	00057797          	auipc	a5,0x57
ffffffc050206a9e:	1a678793          	addi	a5,a5,422 # ffffffc05025dc40 <current_running>
ffffffc050206aa2:	6398                	ld	a4,0(a5)
ffffffc050206aa4:	fec42783          	lw	a5,-20(s0)
ffffffc050206aa8:	07f1                	addi	a5,a5,28
ffffffc050206aaa:	078a                	slli	a5,a5,0x2
ffffffc050206aac:	97ba                	add	a5,a5,a4
ffffffc050206aae:	0007a023          	sw	zero,0(a5)
ffffffc050206ab2:	a829                	j	ffffffc050206acc <do_mutex_lock_release+0x7c>
ffffffc050206ab4:	fec42783          	lw	a5,-20(s0)
ffffffc050206ab8:	2785                	addiw	a5,a5,1
ffffffc050206aba:	fef42623          	sw	a5,-20(s0)
ffffffc050206abe:	fec42783          	lw	a5,-20(s0)
ffffffc050206ac2:	0007871b          	sext.w	a4,a5
ffffffc050206ac6:	47bd                	li	a5,15
ffffffc050206ac8:	fae7d9e3          	bge	a5,a4,ffffffc050206a7a <do_mutex_lock_release+0x2a>
ffffffc050206acc:	fe043783          	ld	a5,-32(s0)
ffffffc050206ad0:	07a1                	addi	a5,a5,8
ffffffc050206ad2:	853e                	mv	a0,a5
ffffffc050206ad4:	2cc010ef          	jal	ra,ffffffc050207da0 <isempyt_queue>
ffffffc050206ad8:	87aa                	mv	a5,a0
ffffffc050206ada:	c791                	beqz	a5,ffffffc050206ae6 <do_mutex_lock_release+0x96>
ffffffc050206adc:	fe043783          	ld	a5,-32(s0)
ffffffc050206ae0:	0007a023          	sw	zero,0(a5)
ffffffc050206ae4:	a819                	j	ffffffc050206afa <do_mutex_lock_release+0xaa>
ffffffc050206ae6:	fe043783          	ld	a5,-32(s0)
ffffffc050206aea:	0007a023          	sw	zero,0(a5)
ffffffc050206aee:	fe043783          	ld	a5,-32(s0)
ffffffc050206af2:	07a1                	addi	a5,a5,8
ffffffc050206af4:	853e                	mv	a0,a5
ffffffc050206af6:	0b6010ef          	jal	ra,ffffffc050207bac <do_unblock>
ffffffc050206afa:	0001                	nop
ffffffc050206afc:	70a2                	ld	ra,40(sp)
ffffffc050206afe:	7402                	ld	s0,32(sp)
ffffffc050206b00:	6145                	addi	sp,sp,48
ffffffc050206b02:	8082                	ret

ffffffc050206b04 <kill_lock_release>:
ffffffc050206b04:	7179                	addi	sp,sp,-48
ffffffc050206b06:	f406                	sd	ra,40(sp)
ffffffc050206b08:	f022                	sd	s0,32(sp)
ffffffc050206b0a:	1800                	addi	s0,sp,48
ffffffc050206b0c:	87aa                	mv	a5,a0
ffffffc050206b0e:	fcf42e23          	sw	a5,-36(s0)
ffffffc050206b12:	fdc42783          	lw	a5,-36(s0)
ffffffc050206b16:	00579713          	slli	a4,a5,0x5
ffffffc050206b1a:	00056797          	auipc	a5,0x56
ffffffc050206b1e:	62e78793          	addi	a5,a5,1582 # ffffffc05025d148 <mlocks>
ffffffc050206b22:	97ba                	add	a5,a5,a4
ffffffc050206b24:	fef43423          	sd	a5,-24(s0)
ffffffc050206b28:	fe843783          	ld	a5,-24(s0)
ffffffc050206b2c:	07a1                	addi	a5,a5,8
ffffffc050206b2e:	853e                	mv	a0,a5
ffffffc050206b30:	270010ef          	jal	ra,ffffffc050207da0 <isempyt_queue>
ffffffc050206b34:	87aa                	mv	a5,a0
ffffffc050206b36:	c791                	beqz	a5,ffffffc050206b42 <kill_lock_release+0x3e>
ffffffc050206b38:	fe843783          	ld	a5,-24(s0)
ffffffc050206b3c:	0007a023          	sw	zero,0(a5)
ffffffc050206b40:	a819                	j	ffffffc050206b56 <kill_lock_release+0x52>
ffffffc050206b42:	fe843783          	ld	a5,-24(s0)
ffffffc050206b46:	0007a023          	sw	zero,0(a5)
ffffffc050206b4a:	fe843783          	ld	a5,-24(s0)
ffffffc050206b4e:	07a1                	addi	a5,a5,8
ffffffc050206b50:	853e                	mv	a0,a5
ffffffc050206b52:	05a010ef          	jal	ra,ffffffc050207bac <do_unblock>
ffffffc050206b56:	0001                	nop
ffffffc050206b58:	70a2                	ld	ra,40(sp)
ffffffc050206b5a:	7402                	ld	s0,32(sp)
ffffffc050206b5c:	6145                	addi	sp,sp,48
ffffffc050206b5e:	8082                	ret

ffffffc050206b60 <do_barrier_init>:
ffffffc050206b60:	7179                	addi	sp,sp,-48
ffffffc050206b62:	f406                	sd	ra,40(sp)
ffffffc050206b64:	f022                	sd	s0,32(sp)
ffffffc050206b66:	1800                	addi	s0,sp,48
ffffffc050206b68:	87aa                	mv	a5,a0
ffffffc050206b6a:	872e                	mv	a4,a1
ffffffc050206b6c:	fcf42e23          	sw	a5,-36(s0)
ffffffc050206b70:	87ba                	mv	a5,a4
ffffffc050206b72:	fcf42c23          	sw	a5,-40(s0)
ffffffc050206b76:	fdc42703          	lw	a4,-36(s0)
ffffffc050206b7a:	41f7579b          	sraiw	a5,a4,0x1f
ffffffc050206b7e:	01c7d79b          	srliw	a5,a5,0x1c
ffffffc050206b82:	9f3d                	addw	a4,a4,a5
ffffffc050206b84:	8b3d                	andi	a4,a4,15
ffffffc050206b86:	40f707bb          	subw	a5,a4,a5
ffffffc050206b8a:	fef42623          	sw	a5,-20(s0)
ffffffc050206b8e:	00057697          	auipc	a3,0x57
ffffffc050206b92:	dba68693          	addi	a3,a3,-582 # ffffffc05025d948 <barriers>
ffffffc050206b96:	fec42703          	lw	a4,-20(s0)
ffffffc050206b9a:	87ba                	mv	a5,a4
ffffffc050206b9c:	0786                	slli	a5,a5,0x1
ffffffc050206b9e:	97ba                	add	a5,a5,a4
ffffffc050206ba0:	078e                	slli	a5,a5,0x3
ffffffc050206ba2:	97b6                	add	a5,a5,a3
ffffffc050206ba4:	fd842703          	lw	a4,-40(s0)
ffffffc050206ba8:	c398                	sw	a4,0(a5)
ffffffc050206baa:	00057697          	auipc	a3,0x57
ffffffc050206bae:	d9e68693          	addi	a3,a3,-610 # ffffffc05025d948 <barriers>
ffffffc050206bb2:	fec42703          	lw	a4,-20(s0)
ffffffc050206bb6:	87ba                	mv	a5,a4
ffffffc050206bb8:	0786                	slli	a5,a5,0x1
ffffffc050206bba:	97ba                	add	a5,a5,a4
ffffffc050206bbc:	078e                	slli	a5,a5,0x3
ffffffc050206bbe:	97b6                	add	a5,a5,a3
ffffffc050206bc0:	0007a223          	sw	zero,4(a5)
ffffffc050206bc4:	fec42703          	lw	a4,-20(s0)
ffffffc050206bc8:	87ba                	mv	a5,a4
ffffffc050206bca:	0786                	slli	a5,a5,0x1
ffffffc050206bcc:	97ba                	add	a5,a5,a4
ffffffc050206bce:	078e                	slli	a5,a5,0x3
ffffffc050206bd0:	00057717          	auipc	a4,0x57
ffffffc050206bd4:	d7870713          	addi	a4,a4,-648 # ffffffc05025d948 <barriers>
ffffffc050206bd8:	97ba                	add	a5,a5,a4
ffffffc050206bda:	07a1                	addi	a5,a5,8
ffffffc050206bdc:	853e                	mv	a0,a5
ffffffc050206bde:	c8dff0ef          	jal	ra,ffffffc05020686a <init_head>
ffffffc050206be2:	fec42783          	lw	a5,-20(s0)
ffffffc050206be6:	853e                	mv	a0,a5
ffffffc050206be8:	70a2                	ld	ra,40(sp)
ffffffc050206bea:	7402                	ld	s0,32(sp)
ffffffc050206bec:	6145                	addi	sp,sp,48
ffffffc050206bee:	8082                	ret

ffffffc050206bf0 <do_barrier_wait>:
ffffffc050206bf0:	1101                	addi	sp,sp,-32
ffffffc050206bf2:	ec06                	sd	ra,24(sp)
ffffffc050206bf4:	e822                	sd	s0,16(sp)
ffffffc050206bf6:	1000                	addi	s0,sp,32
ffffffc050206bf8:	87aa                	mv	a5,a0
ffffffc050206bfa:	fef42623          	sw	a5,-20(s0)
ffffffc050206bfe:	00057697          	auipc	a3,0x57
ffffffc050206c02:	d4a68693          	addi	a3,a3,-694 # ffffffc05025d948 <barriers>
ffffffc050206c06:	fec42703          	lw	a4,-20(s0)
ffffffc050206c0a:	87ba                	mv	a5,a4
ffffffc050206c0c:	0786                	slli	a5,a5,0x1
ffffffc050206c0e:	97ba                	add	a5,a5,a4
ffffffc050206c10:	078e                	slli	a5,a5,0x3
ffffffc050206c12:	97b6                	add	a5,a5,a3
ffffffc050206c14:	43dc                	lw	a5,4(a5)
ffffffc050206c16:	2785                	addiw	a5,a5,1
ffffffc050206c18:	0007869b          	sext.w	a3,a5
ffffffc050206c1c:	00057617          	auipc	a2,0x57
ffffffc050206c20:	d2c60613          	addi	a2,a2,-724 # ffffffc05025d948 <barriers>
ffffffc050206c24:	fec42703          	lw	a4,-20(s0)
ffffffc050206c28:	87ba                	mv	a5,a4
ffffffc050206c2a:	0786                	slli	a5,a5,0x1
ffffffc050206c2c:	97ba                	add	a5,a5,a4
ffffffc050206c2e:	078e                	slli	a5,a5,0x3
ffffffc050206c30:	97b2                	add	a5,a5,a2
ffffffc050206c32:	c3d4                	sw	a3,4(a5)
ffffffc050206c34:	00057697          	auipc	a3,0x57
ffffffc050206c38:	d1468693          	addi	a3,a3,-748 # ffffffc05025d948 <barriers>
ffffffc050206c3c:	fec42703          	lw	a4,-20(s0)
ffffffc050206c40:	87ba                	mv	a5,a4
ffffffc050206c42:	0786                	slli	a5,a5,0x1
ffffffc050206c44:	97ba                	add	a5,a5,a4
ffffffc050206c46:	078e                	slli	a5,a5,0x3
ffffffc050206c48:	97b6                	add	a5,a5,a3
ffffffc050206c4a:	4390                	lw	a2,0(a5)
ffffffc050206c4c:	00057697          	auipc	a3,0x57
ffffffc050206c50:	cfc68693          	addi	a3,a3,-772 # ffffffc05025d948 <barriers>
ffffffc050206c54:	fec42703          	lw	a4,-20(s0)
ffffffc050206c58:	87ba                	mv	a5,a4
ffffffc050206c5a:	0786                	slli	a5,a5,0x1
ffffffc050206c5c:	97ba                	add	a5,a5,a4
ffffffc050206c5e:	078e                	slli	a5,a5,0x3
ffffffc050206c60:	97b6                	add	a5,a5,a3
ffffffc050206c62:	43dc                	lw	a5,4(a5)
ffffffc050206c64:	8732                	mv	a4,a2
ffffffc050206c66:	02e7da63          	bge	a5,a4,ffffffc050206c9a <do_barrier_wait+0xaa>
ffffffc050206c6a:	fec42703          	lw	a4,-20(s0)
ffffffc050206c6e:	87ba                	mv	a5,a4
ffffffc050206c70:	0786                	slli	a5,a5,0x1
ffffffc050206c72:	97ba                	add	a5,a5,a4
ffffffc050206c74:	078e                	slli	a5,a5,0x3
ffffffc050206c76:	00057717          	auipc	a4,0x57
ffffffc050206c7a:	cd270713          	addi	a4,a4,-814 # ffffffc05025d948 <barriers>
ffffffc050206c7e:	97ba                	add	a5,a5,a4
ffffffc050206c80:	00878713          	addi	a4,a5,8
ffffffc050206c84:	00057797          	auipc	a5,0x57
ffffffc050206c88:	fbc78793          	addi	a5,a5,-68 # ffffffc05025dc40 <current_running>
ffffffc050206c8c:	639c                	ld	a5,0(a5)
ffffffc050206c8e:	07c1                	addi	a5,a5,16
ffffffc050206c90:	85be                	mv	a1,a5
ffffffc050206c92:	853a                	mv	a0,a4
ffffffc050206c94:	6dd000ef          	jal	ra,ffffffc050207b70 <do_block>
ffffffc050206c98:	a82d                	j	ffffffc050206cd2 <do_barrier_wait+0xe2>
ffffffc050206c9a:	fec42703          	lw	a4,-20(s0)
ffffffc050206c9e:	87ba                	mv	a5,a4
ffffffc050206ca0:	0786                	slli	a5,a5,0x1
ffffffc050206ca2:	97ba                	add	a5,a5,a4
ffffffc050206ca4:	078e                	slli	a5,a5,0x3
ffffffc050206ca6:	00057717          	auipc	a4,0x57
ffffffc050206caa:	ca270713          	addi	a4,a4,-862 # ffffffc05025d948 <barriers>
ffffffc050206cae:	97ba                	add	a5,a5,a4
ffffffc050206cb0:	07a1                	addi	a5,a5,8
ffffffc050206cb2:	853e                	mv	a0,a5
ffffffc050206cb4:	745000ef          	jal	ra,ffffffc050207bf8 <do_all_unblock>
ffffffc050206cb8:	00057697          	auipc	a3,0x57
ffffffc050206cbc:	c9068693          	addi	a3,a3,-880 # ffffffc05025d948 <barriers>
ffffffc050206cc0:	fec42703          	lw	a4,-20(s0)
ffffffc050206cc4:	87ba                	mv	a5,a4
ffffffc050206cc6:	0786                	slli	a5,a5,0x1
ffffffc050206cc8:	97ba                	add	a5,a5,a4
ffffffc050206cca:	078e                	slli	a5,a5,0x3
ffffffc050206ccc:	97b6                	add	a5,a5,a3
ffffffc050206cce:	0007a223          	sw	zero,4(a5)
ffffffc050206cd2:	0001                	nop
ffffffc050206cd4:	60e2                	ld	ra,24(sp)
ffffffc050206cd6:	6442                	ld	s0,16(sp)
ffffffc050206cd8:	6105                	addi	sp,sp,32
ffffffc050206cda:	8082                	ret

ffffffc050206cdc <do_barrier_destroy>:
ffffffc050206cdc:	1101                	addi	sp,sp,-32
ffffffc050206cde:	ec06                	sd	ra,24(sp)
ffffffc050206ce0:	e822                	sd	s0,16(sp)
ffffffc050206ce2:	1000                	addi	s0,sp,32
ffffffc050206ce4:	87aa                	mv	a5,a0
ffffffc050206ce6:	fef42623          	sw	a5,-20(s0)
ffffffc050206cea:	00057697          	auipc	a3,0x57
ffffffc050206cee:	c5e68693          	addi	a3,a3,-930 # ffffffc05025d948 <barriers>
ffffffc050206cf2:	fec42703          	lw	a4,-20(s0)
ffffffc050206cf6:	87ba                	mv	a5,a4
ffffffc050206cf8:	0786                	slli	a5,a5,0x1
ffffffc050206cfa:	97ba                	add	a5,a5,a4
ffffffc050206cfc:	078e                	slli	a5,a5,0x3
ffffffc050206cfe:	97b6                	add	a5,a5,a3
ffffffc050206d00:	0007a023          	sw	zero,0(a5)
ffffffc050206d04:	00057697          	auipc	a3,0x57
ffffffc050206d08:	c4468693          	addi	a3,a3,-956 # ffffffc05025d948 <barriers>
ffffffc050206d0c:	fec42703          	lw	a4,-20(s0)
ffffffc050206d10:	87ba                	mv	a5,a4
ffffffc050206d12:	0786                	slli	a5,a5,0x1
ffffffc050206d14:	97ba                	add	a5,a5,a4
ffffffc050206d16:	078e                	slli	a5,a5,0x3
ffffffc050206d18:	97b6                	add	a5,a5,a3
ffffffc050206d1a:	0007a223          	sw	zero,4(a5)
ffffffc050206d1e:	fec42703          	lw	a4,-20(s0)
ffffffc050206d22:	87ba                	mv	a5,a4
ffffffc050206d24:	0786                	slli	a5,a5,0x1
ffffffc050206d26:	97ba                	add	a5,a5,a4
ffffffc050206d28:	078e                	slli	a5,a5,0x3
ffffffc050206d2a:	00057717          	auipc	a4,0x57
ffffffc050206d2e:	c1e70713          	addi	a4,a4,-994 # ffffffc05025d948 <barriers>
ffffffc050206d32:	97ba                	add	a5,a5,a4
ffffffc050206d34:	07a1                	addi	a5,a5,8
ffffffc050206d36:	853e                	mv	a0,a5
ffffffc050206d38:	b33ff0ef          	jal	ra,ffffffc05020686a <init_head>
ffffffc050206d3c:	0001                	nop
ffffffc050206d3e:	60e2                	ld	ra,24(sp)
ffffffc050206d40:	6442                	ld	s0,16(sp)
ffffffc050206d42:	6105                	addi	sp,sp,32
ffffffc050206d44:	8082                	ret

ffffffc050206d46 <do_condition_init>:
ffffffc050206d46:	7179                	addi	sp,sp,-48
ffffffc050206d48:	f406                	sd	ra,40(sp)
ffffffc050206d4a:	f022                	sd	s0,32(sp)
ffffffc050206d4c:	1800                	addi	s0,sp,48
ffffffc050206d4e:	87aa                	mv	a5,a0
ffffffc050206d50:	fcf42e23          	sw	a5,-36(s0)
ffffffc050206d54:	fdc42703          	lw	a4,-36(s0)
ffffffc050206d58:	41f7579b          	sraiw	a5,a4,0x1f
ffffffc050206d5c:	01c7d79b          	srliw	a5,a5,0x1c
ffffffc050206d60:	9f3d                	addw	a4,a4,a5
ffffffc050206d62:	8b3d                	andi	a4,a4,15
ffffffc050206d64:	40f707bb          	subw	a5,a4,a5
ffffffc050206d68:	fef42623          	sw	a5,-20(s0)
ffffffc050206d6c:	fec42783          	lw	a5,-20(s0)
ffffffc050206d70:	00479713          	slli	a4,a5,0x4
ffffffc050206d74:	00056797          	auipc	a5,0x56
ffffffc050206d78:	2d478793          	addi	a5,a5,724 # ffffffc05025d048 <conditions>
ffffffc050206d7c:	97ba                	add	a5,a5,a4
ffffffc050206d7e:	853e                	mv	a0,a5
ffffffc050206d80:	aebff0ef          	jal	ra,ffffffc05020686a <init_head>
ffffffc050206d84:	fec42783          	lw	a5,-20(s0)
ffffffc050206d88:	853e                	mv	a0,a5
ffffffc050206d8a:	70a2                	ld	ra,40(sp)
ffffffc050206d8c:	7402                	ld	s0,32(sp)
ffffffc050206d8e:	6145                	addi	sp,sp,48
ffffffc050206d90:	8082                	ret

ffffffc050206d92 <do_condition_wait>:
ffffffc050206d92:	1101                	addi	sp,sp,-32
ffffffc050206d94:	ec06                	sd	ra,24(sp)
ffffffc050206d96:	e822                	sd	s0,16(sp)
ffffffc050206d98:	1000                	addi	s0,sp,32
ffffffc050206d9a:	87aa                	mv	a5,a0
ffffffc050206d9c:	872e                	mv	a4,a1
ffffffc050206d9e:	fef42623          	sw	a5,-20(s0)
ffffffc050206da2:	87ba                	mv	a5,a4
ffffffc050206da4:	fef42423          	sw	a5,-24(s0)
ffffffc050206da8:	fe842783          	lw	a5,-24(s0)
ffffffc050206dac:	853e                	mv	a0,a5
ffffffc050206dae:	ca3ff0ef          	jal	ra,ffffffc050206a50 <do_mutex_lock_release>
ffffffc050206db2:	fec42783          	lw	a5,-20(s0)
ffffffc050206db6:	00479713          	slli	a4,a5,0x4
ffffffc050206dba:	00056797          	auipc	a5,0x56
ffffffc050206dbe:	28e78793          	addi	a5,a5,654 # ffffffc05025d048 <conditions>
ffffffc050206dc2:	973e                	add	a4,a4,a5
ffffffc050206dc4:	00057797          	auipc	a5,0x57
ffffffc050206dc8:	e7c78793          	addi	a5,a5,-388 # ffffffc05025dc40 <current_running>
ffffffc050206dcc:	639c                	ld	a5,0(a5)
ffffffc050206dce:	07c1                	addi	a5,a5,16
ffffffc050206dd0:	85be                	mv	a1,a5
ffffffc050206dd2:	853a                	mv	a0,a4
ffffffc050206dd4:	59d000ef          	jal	ra,ffffffc050207b70 <do_block>
ffffffc050206dd8:	fe842783          	lw	a5,-24(s0)
ffffffc050206ddc:	853e                	mv	a0,a5
ffffffc050206dde:	bc1ff0ef          	jal	ra,ffffffc05020699e <do_mutex_lock_acquire>
ffffffc050206de2:	0001                	nop
ffffffc050206de4:	60e2                	ld	ra,24(sp)
ffffffc050206de6:	6442                	ld	s0,16(sp)
ffffffc050206de8:	6105                	addi	sp,sp,32
ffffffc050206dea:	8082                	ret

ffffffc050206dec <do_condition_signal>:
ffffffc050206dec:	1101                	addi	sp,sp,-32
ffffffc050206dee:	ec06                	sd	ra,24(sp)
ffffffc050206df0:	e822                	sd	s0,16(sp)
ffffffc050206df2:	1000                	addi	s0,sp,32
ffffffc050206df4:	87aa                	mv	a5,a0
ffffffc050206df6:	fef42623          	sw	a5,-20(s0)
ffffffc050206dfa:	fec42783          	lw	a5,-20(s0)
ffffffc050206dfe:	00479713          	slli	a4,a5,0x4
ffffffc050206e02:	00056797          	auipc	a5,0x56
ffffffc050206e06:	24678793          	addi	a5,a5,582 # ffffffc05025d048 <conditions>
ffffffc050206e0a:	97ba                	add	a5,a5,a4
ffffffc050206e0c:	853e                	mv	a0,a5
ffffffc050206e0e:	59f000ef          	jal	ra,ffffffc050207bac <do_unblock>
ffffffc050206e12:	0001                	nop
ffffffc050206e14:	60e2                	ld	ra,24(sp)
ffffffc050206e16:	6442                	ld	s0,16(sp)
ffffffc050206e18:	6105                	addi	sp,sp,32
ffffffc050206e1a:	8082                	ret

ffffffc050206e1c <do_condition_broadcast>:
ffffffc050206e1c:	1101                	addi	sp,sp,-32
ffffffc050206e1e:	ec06                	sd	ra,24(sp)
ffffffc050206e20:	e822                	sd	s0,16(sp)
ffffffc050206e22:	1000                	addi	s0,sp,32
ffffffc050206e24:	87aa                	mv	a5,a0
ffffffc050206e26:	fef42623          	sw	a5,-20(s0)
ffffffc050206e2a:	fec42783          	lw	a5,-20(s0)
ffffffc050206e2e:	00479713          	slli	a4,a5,0x4
ffffffc050206e32:	00056797          	auipc	a5,0x56
ffffffc050206e36:	21678793          	addi	a5,a5,534 # ffffffc05025d048 <conditions>
ffffffc050206e3a:	97ba                	add	a5,a5,a4
ffffffc050206e3c:	853e                	mv	a0,a5
ffffffc050206e3e:	5bb000ef          	jal	ra,ffffffc050207bf8 <do_all_unblock>
ffffffc050206e42:	0001                	nop
ffffffc050206e44:	60e2                	ld	ra,24(sp)
ffffffc050206e46:	6442                	ld	s0,16(sp)
ffffffc050206e48:	6105                	addi	sp,sp,32
ffffffc050206e4a:	8082                	ret

ffffffc050206e4c <do_condition_destroy>:
ffffffc050206e4c:	1101                	addi	sp,sp,-32
ffffffc050206e4e:	ec06                	sd	ra,24(sp)
ffffffc050206e50:	e822                	sd	s0,16(sp)
ffffffc050206e52:	1000                	addi	s0,sp,32
ffffffc050206e54:	87aa                	mv	a5,a0
ffffffc050206e56:	fef42623          	sw	a5,-20(s0)
ffffffc050206e5a:	fec42783          	lw	a5,-20(s0)
ffffffc050206e5e:	00479713          	slli	a4,a5,0x4
ffffffc050206e62:	00056797          	auipc	a5,0x56
ffffffc050206e66:	1e678793          	addi	a5,a5,486 # ffffffc05025d048 <conditions>
ffffffc050206e6a:	97ba                	add	a5,a5,a4
ffffffc050206e6c:	853e                	mv	a0,a5
ffffffc050206e6e:	9fdff0ef          	jal	ra,ffffffc05020686a <init_head>
ffffffc050206e72:	0001                	nop
ffffffc050206e74:	60e2                	ld	ra,24(sp)
ffffffc050206e76:	6442                	ld	s0,16(sp)
ffffffc050206e78:	6105                	addi	sp,sp,32
ffffffc050206e7a:	8082                	ret

ffffffc050206e7c <init_mbox>:
ffffffc050206e7c:	1101                	addi	sp,sp,-32
ffffffc050206e7e:	ec06                	sd	ra,24(sp)
ffffffc050206e80:	e822                	sd	s0,16(sp)
ffffffc050206e82:	1000                	addi	s0,sp,32
ffffffc050206e84:	fea43423          	sd	a0,-24(s0)
ffffffc050206e88:	87ae                	mv	a5,a1
ffffffc050206e8a:	fef42223          	sw	a5,-28(s0)
ffffffc050206e8e:	fe442703          	lw	a4,-28(s0)
ffffffc050206e92:	87ba                	mv	a5,a4
ffffffc050206e94:	0792                	slli	a5,a5,0x4
ffffffc050206e96:	8f99                	sub	a5,a5,a4
ffffffc050206e98:	078e                	slli	a5,a5,0x3
ffffffc050206e9a:	00056717          	auipc	a4,0x56
ffffffc050206e9e:	a2e70713          	addi	a4,a4,-1490 # ffffffc05025c8c8 <mailboxs>
ffffffc050206ea2:	97ba                	add	a5,a5,a4
ffffffc050206ea4:	02000613          	li	a2,32
ffffffc050206ea8:	4581                	li	a1,0
ffffffc050206eaa:	853e                	mv	a0,a5
ffffffc050206eac:	6f8050ef          	jal	ra,ffffffc05020c5a4 <memset>
ffffffc050206eb0:	fe442703          	lw	a4,-28(s0)
ffffffc050206eb4:	87ba                	mv	a5,a4
ffffffc050206eb6:	0792                	slli	a5,a5,0x4
ffffffc050206eb8:	8f99                	sub	a5,a5,a4
ffffffc050206eba:	078e                	slli	a5,a5,0x3
ffffffc050206ebc:	02078713          	addi	a4,a5,32
ffffffc050206ec0:	00056797          	auipc	a5,0x56
ffffffc050206ec4:	a0878793          	addi	a5,a5,-1528 # ffffffc05025c8c8 <mailboxs>
ffffffc050206ec8:	97ba                	add	a5,a5,a4
ffffffc050206eca:	04000613          	li	a2,64
ffffffc050206ece:	4581                	li	a1,0
ffffffc050206ed0:	853e                	mv	a0,a5
ffffffc050206ed2:	6d2050ef          	jal	ra,ffffffc05020c5a4 <memset>
ffffffc050206ed6:	fe442703          	lw	a4,-28(s0)
ffffffc050206eda:	87ba                	mv	a5,a4
ffffffc050206edc:	0792                	slli	a5,a5,0x4
ffffffc050206ede:	8f99                	sub	a5,a5,a4
ffffffc050206ee0:	078e                	slli	a5,a5,0x3
ffffffc050206ee2:	00056717          	auipc	a4,0x56
ffffffc050206ee6:	9e670713          	addi	a4,a4,-1562 # ffffffc05025c8c8 <mailboxs>
ffffffc050206eea:	97ba                	add	a5,a5,a4
ffffffc050206eec:	02000613          	li	a2,32
ffffffc050206ef0:	fe843583          	ld	a1,-24(s0)
ffffffc050206ef4:	853e                	mv	a0,a5
ffffffc050206ef6:	65c050ef          	jal	ra,ffffffc05020c552 <memcpy>
ffffffc050206efa:	00056697          	auipc	a3,0x56
ffffffc050206efe:	9ce68693          	addi	a3,a3,-1586 # ffffffc05025c8c8 <mailboxs>
ffffffc050206f02:	fe442703          	lw	a4,-28(s0)
ffffffc050206f06:	87ba                	mv	a5,a4
ffffffc050206f08:	0792                	slli	a5,a5,0x4
ffffffc050206f0a:	8f99                	sub	a5,a5,a4
ffffffc050206f0c:	078e                	slli	a5,a5,0x3
ffffffc050206f0e:	97b6                	add	a5,a5,a3
ffffffc050206f10:	0607aa23          	sw	zero,116(a5)
ffffffc050206f14:	00056697          	auipc	a3,0x56
ffffffc050206f18:	9b468693          	addi	a3,a3,-1612 # ffffffc05025c8c8 <mailboxs>
ffffffc050206f1c:	fe442703          	lw	a4,-28(s0)
ffffffc050206f20:	87ba                	mv	a5,a4
ffffffc050206f22:	0792                	slli	a5,a5,0x4
ffffffc050206f24:	8f99                	sub	a5,a5,a4
ffffffc050206f26:	078e                	slli	a5,a5,0x3
ffffffc050206f28:	97b6                	add	a5,a5,a3
ffffffc050206f2a:	0607a623          	sw	zero,108(a5)
ffffffc050206f2e:	00056697          	auipc	a3,0x56
ffffffc050206f32:	99a68693          	addi	a3,a3,-1638 # ffffffc05025c8c8 <mailboxs>
ffffffc050206f36:	fe442703          	lw	a4,-28(s0)
ffffffc050206f3a:	87ba                	mv	a5,a4
ffffffc050206f3c:	0792                	slli	a5,a5,0x4
ffffffc050206f3e:	8f99                	sub	a5,a5,a4
ffffffc050206f40:	078e                	slli	a5,a5,0x3
ffffffc050206f42:	97b6                	add	a5,a5,a3
ffffffc050206f44:	4705                	li	a4,1
ffffffc050206f46:	d7b8                	sw	a4,104(a5)
ffffffc050206f48:	fe442783          	lw	a5,-28(s0)
ffffffc050206f4c:	853e                	mv	a0,a5
ffffffc050206f4e:	9c3ff0ef          	jal	ra,ffffffc050206910 <do_mutex_lock_init>
ffffffc050206f52:	87aa                	mv	a5,a0
ffffffc050206f54:	863e                	mv	a2,a5
ffffffc050206f56:	00056697          	auipc	a3,0x56
ffffffc050206f5a:	97268693          	addi	a3,a3,-1678 # ffffffc05025c8c8 <mailboxs>
ffffffc050206f5e:	fe442703          	lw	a4,-28(s0)
ffffffc050206f62:	87ba                	mv	a5,a4
ffffffc050206f64:	0792                	slli	a5,a5,0x4
ffffffc050206f66:	8f99                	sub	a5,a5,a4
ffffffc050206f68:	078e                	slli	a5,a5,0x3
ffffffc050206f6a:	97b6                	add	a5,a5,a3
ffffffc050206f6c:	dbb0                	sw	a2,112(a5)
ffffffc050206f6e:	fe442783          	lw	a5,-28(s0)
ffffffc050206f72:	853e                	mv	a0,a5
ffffffc050206f74:	dd3ff0ef          	jal	ra,ffffffc050206d46 <do_condition_init>
ffffffc050206f78:	87aa                	mv	a5,a0
ffffffc050206f7a:	863e                	mv	a2,a5
ffffffc050206f7c:	00056697          	auipc	a3,0x56
ffffffc050206f80:	94c68693          	addi	a3,a3,-1716 # ffffffc05025c8c8 <mailboxs>
ffffffc050206f84:	fe442703          	lw	a4,-28(s0)
ffffffc050206f88:	87ba                	mv	a5,a4
ffffffc050206f8a:	0792                	slli	a5,a5,0x4
ffffffc050206f8c:	8f99                	sub	a5,a5,a4
ffffffc050206f8e:	078e                	slli	a5,a5,0x3
ffffffc050206f90:	97b6                	add	a5,a5,a3
ffffffc050206f92:	d3f0                	sw	a2,100(a5)
ffffffc050206f94:	fe442783          	lw	a5,-28(s0)
ffffffc050206f98:	278d                	addiw	a5,a5,3
ffffffc050206f9a:	2781                	sext.w	a5,a5
ffffffc050206f9c:	853e                	mv	a0,a5
ffffffc050206f9e:	da9ff0ef          	jal	ra,ffffffc050206d46 <do_condition_init>
ffffffc050206fa2:	87aa                	mv	a5,a0
ffffffc050206fa4:	863e                	mv	a2,a5
ffffffc050206fa6:	00056697          	auipc	a3,0x56
ffffffc050206faa:	92268693          	addi	a3,a3,-1758 # ffffffc05025c8c8 <mailboxs>
ffffffc050206fae:	fe442703          	lw	a4,-28(s0)
ffffffc050206fb2:	87ba                	mv	a5,a4
ffffffc050206fb4:	0792                	slli	a5,a5,0x4
ffffffc050206fb6:	8f99                	sub	a5,a5,a4
ffffffc050206fb8:	078e                	slli	a5,a5,0x3
ffffffc050206fba:	97b6                	add	a5,a5,a3
ffffffc050206fbc:	d3f0                	sw	a2,100(a5)
ffffffc050206fbe:	0001                	nop
ffffffc050206fc0:	60e2                	ld	ra,24(sp)
ffffffc050206fc2:	6442                	ld	s0,16(sp)
ffffffc050206fc4:	6105                	addi	sp,sp,32
ffffffc050206fc6:	8082                	ret

ffffffc050206fc8 <do_mbox_open>:
ffffffc050206fc8:	7179                	addi	sp,sp,-48
ffffffc050206fca:	f406                	sd	ra,40(sp)
ffffffc050206fcc:	f022                	sd	s0,32(sp)
ffffffc050206fce:	1800                	addi	s0,sp,48
ffffffc050206fd0:	fca43c23          	sd	a0,-40(s0)
ffffffc050206fd4:	fe042623          	sw	zero,-20(s0)
ffffffc050206fd8:	a899                	j	ffffffc05020702e <do_mbox_open+0x66>
ffffffc050206fda:	fec42703          	lw	a4,-20(s0)
ffffffc050206fde:	87ba                	mv	a5,a4
ffffffc050206fe0:	0792                	slli	a5,a5,0x4
ffffffc050206fe2:	8f99                	sub	a5,a5,a4
ffffffc050206fe4:	078e                	slli	a5,a5,0x3
ffffffc050206fe6:	00056717          	auipc	a4,0x56
ffffffc050206fea:	8e270713          	addi	a4,a4,-1822 # ffffffc05025c8c8 <mailboxs>
ffffffc050206fee:	97ba                	add	a5,a5,a4
ffffffc050206ff0:	85be                	mv	a1,a5
ffffffc050206ff2:	fd843503          	ld	a0,-40(s0)
ffffffc050206ff6:	662050ef          	jal	ra,ffffffc05020c658 <strcmp>
ffffffc050206ffa:	87aa                	mv	a5,a0
ffffffc050206ffc:	e785                	bnez	a5,ffffffc050207024 <do_mbox_open+0x5c>
ffffffc050206ffe:	00056697          	auipc	a3,0x56
ffffffc050207002:	8ca68693          	addi	a3,a3,-1846 # ffffffc05025c8c8 <mailboxs>
ffffffc050207006:	fec42703          	lw	a4,-20(s0)
ffffffc05020700a:	87ba                	mv	a5,a4
ffffffc05020700c:	0792                	slli	a5,a5,0x4
ffffffc05020700e:	8f99                	sub	a5,a5,a4
ffffffc050207010:	078e                	slli	a5,a5,0x3
ffffffc050207012:	97b6                	add	a5,a5,a3
ffffffc050207014:	57bc                	lw	a5,104(a5)
ffffffc050207016:	873e                	mv	a4,a5
ffffffc050207018:	4785                	li	a5,1
ffffffc05020701a:	00f71563          	bne	a4,a5,ffffffc050207024 <do_mbox_open+0x5c>
ffffffc05020701e:	fec42783          	lw	a5,-20(s0)
ffffffc050207022:	a0a5                	j	ffffffc05020708a <do_mbox_open+0xc2>
ffffffc050207024:	fec42783          	lw	a5,-20(s0)
ffffffc050207028:	2785                	addiw	a5,a5,1
ffffffc05020702a:	fef42623          	sw	a5,-20(s0)
ffffffc05020702e:	fec42783          	lw	a5,-20(s0)
ffffffc050207032:	0007871b          	sext.w	a4,a5
ffffffc050207036:	47bd                	li	a5,15
ffffffc050207038:	fae7d1e3          	bge	a5,a4,ffffffc050206fda <do_mbox_open+0x12>
ffffffc05020703c:	fe042423          	sw	zero,-24(s0)
ffffffc050207040:	a01d                	j	ffffffc050207066 <do_mbox_open+0x9e>
ffffffc050207042:	00056697          	auipc	a3,0x56
ffffffc050207046:	88668693          	addi	a3,a3,-1914 # ffffffc05025c8c8 <mailboxs>
ffffffc05020704a:	fe842703          	lw	a4,-24(s0)
ffffffc05020704e:	87ba                	mv	a5,a4
ffffffc050207050:	0792                	slli	a5,a5,0x4
ffffffc050207052:	8f99                	sub	a5,a5,a4
ffffffc050207054:	078e                	slli	a5,a5,0x3
ffffffc050207056:	97b6                	add	a5,a5,a3
ffffffc050207058:	57bc                	lw	a5,104(a5)
ffffffc05020705a:	cf91                	beqz	a5,ffffffc050207076 <do_mbox_open+0xae>
ffffffc05020705c:	fe842783          	lw	a5,-24(s0)
ffffffc050207060:	2785                	addiw	a5,a5,1
ffffffc050207062:	fef42423          	sw	a5,-24(s0)
ffffffc050207066:	fe842783          	lw	a5,-24(s0)
ffffffc05020706a:	0007871b          	sext.w	a4,a5
ffffffc05020706e:	47bd                	li	a5,15
ffffffc050207070:	fce7d9e3          	bge	a5,a4,ffffffc050207042 <do_mbox_open+0x7a>
ffffffc050207074:	a011                	j	ffffffc050207078 <do_mbox_open+0xb0>
ffffffc050207076:	0001                	nop
ffffffc050207078:	fe842783          	lw	a5,-24(s0)
ffffffc05020707c:	85be                	mv	a1,a5
ffffffc05020707e:	fd843503          	ld	a0,-40(s0)
ffffffc050207082:	dfbff0ef          	jal	ra,ffffffc050206e7c <init_mbox>
ffffffc050207086:	fe842783          	lw	a5,-24(s0)
ffffffc05020708a:	853e                	mv	a0,a5
ffffffc05020708c:	70a2                	ld	ra,40(sp)
ffffffc05020708e:	7402                	ld	s0,32(sp)
ffffffc050207090:	6145                	addi	sp,sp,48
ffffffc050207092:	8082                	ret

ffffffc050207094 <do_mbox_close>:
ffffffc050207094:	1101                	addi	sp,sp,-32
ffffffc050207096:	ec22                	sd	s0,24(sp)
ffffffc050207098:	1000                	addi	s0,sp,32
ffffffc05020709a:	87aa                	mv	a5,a0
ffffffc05020709c:	fef42623          	sw	a5,-20(s0)
ffffffc0502070a0:	00056697          	auipc	a3,0x56
ffffffc0502070a4:	82868693          	addi	a3,a3,-2008 # ffffffc05025c8c8 <mailboxs>
ffffffc0502070a8:	fec42703          	lw	a4,-20(s0)
ffffffc0502070ac:	87ba                	mv	a5,a4
ffffffc0502070ae:	0792                	slli	a5,a5,0x4
ffffffc0502070b0:	8f99                	sub	a5,a5,a4
ffffffc0502070b2:	078e                	slli	a5,a5,0x3
ffffffc0502070b4:	97b6                	add	a5,a5,a3
ffffffc0502070b6:	57fc                	lw	a5,108(a5)
ffffffc0502070b8:	06f05763          	blez	a5,ffffffc050207126 <do_mbox_close+0x92>
ffffffc0502070bc:	00056697          	auipc	a3,0x56
ffffffc0502070c0:	80c68693          	addi	a3,a3,-2036 # ffffffc05025c8c8 <mailboxs>
ffffffc0502070c4:	fec42703          	lw	a4,-20(s0)
ffffffc0502070c8:	87ba                	mv	a5,a4
ffffffc0502070ca:	0792                	slli	a5,a5,0x4
ffffffc0502070cc:	8f99                	sub	a5,a5,a4
ffffffc0502070ce:	078e                	slli	a5,a5,0x3
ffffffc0502070d0:	97b6                	add	a5,a5,a3
ffffffc0502070d2:	57fc                	lw	a5,108(a5)
ffffffc0502070d4:	37fd                	addiw	a5,a5,-1
ffffffc0502070d6:	0007869b          	sext.w	a3,a5
ffffffc0502070da:	00055617          	auipc	a2,0x55
ffffffc0502070de:	7ee60613          	addi	a2,a2,2030 # ffffffc05025c8c8 <mailboxs>
ffffffc0502070e2:	fec42703          	lw	a4,-20(s0)
ffffffc0502070e6:	87ba                	mv	a5,a4
ffffffc0502070e8:	0792                	slli	a5,a5,0x4
ffffffc0502070ea:	8f99                	sub	a5,a5,a4
ffffffc0502070ec:	078e                	slli	a5,a5,0x3
ffffffc0502070ee:	97b2                	add	a5,a5,a2
ffffffc0502070f0:	d7f4                	sw	a3,108(a5)
ffffffc0502070f2:	00055697          	auipc	a3,0x55
ffffffc0502070f6:	7d668693          	addi	a3,a3,2006 # ffffffc05025c8c8 <mailboxs>
ffffffc0502070fa:	fec42703          	lw	a4,-20(s0)
ffffffc0502070fe:	87ba                	mv	a5,a4
ffffffc050207100:	0792                	slli	a5,a5,0x4
ffffffc050207102:	8f99                	sub	a5,a5,a4
ffffffc050207104:	078e                	slli	a5,a5,0x3
ffffffc050207106:	97b6                	add	a5,a5,a3
ffffffc050207108:	57fc                	lw	a5,108(a5)
ffffffc05020710a:	ef91                	bnez	a5,ffffffc050207126 <do_mbox_close+0x92>
ffffffc05020710c:	00055697          	auipc	a3,0x55
ffffffc050207110:	7bc68693          	addi	a3,a3,1980 # ffffffc05025c8c8 <mailboxs>
ffffffc050207114:	fec42703          	lw	a4,-20(s0)
ffffffc050207118:	87ba                	mv	a5,a4
ffffffc05020711a:	0792                	slli	a5,a5,0x4
ffffffc05020711c:	8f99                	sub	a5,a5,a4
ffffffc05020711e:	078e                	slli	a5,a5,0x3
ffffffc050207120:	97b6                	add	a5,a5,a3
ffffffc050207122:	0607a423          	sw	zero,104(a5)
ffffffc050207126:	0001                	nop
ffffffc050207128:	6462                	ld	s0,24(sp)
ffffffc05020712a:	6105                	addi	sp,sp,32
ffffffc05020712c:	8082                	ret

ffffffc05020712e <do_mbox_send>:
ffffffc05020712e:	1101                	addi	sp,sp,-32
ffffffc050207130:	ec06                	sd	ra,24(sp)
ffffffc050207132:	e822                	sd	s0,16(sp)
ffffffc050207134:	1000                	addi	s0,sp,32
ffffffc050207136:	87aa                	mv	a5,a0
ffffffc050207138:	feb43023          	sd	a1,-32(s0)
ffffffc05020713c:	8732                	mv	a4,a2
ffffffc05020713e:	fef42623          	sw	a5,-20(s0)
ffffffc050207142:	87ba                	mv	a5,a4
ffffffc050207144:	fef42423          	sw	a5,-24(s0)
ffffffc050207148:	00055697          	auipc	a3,0x55
ffffffc05020714c:	78068693          	addi	a3,a3,1920 # ffffffc05025c8c8 <mailboxs>
ffffffc050207150:	fec42703          	lw	a4,-20(s0)
ffffffc050207154:	87ba                	mv	a5,a4
ffffffc050207156:	0792                	slli	a5,a5,0x4
ffffffc050207158:	8f99                	sub	a5,a5,a4
ffffffc05020715a:	078e                	slli	a5,a5,0x3
ffffffc05020715c:	97b6                	add	a5,a5,a3
ffffffc05020715e:	5bbc                	lw	a5,112(a5)
ffffffc050207160:	853e                	mv	a0,a5
ffffffc050207162:	83dff0ef          	jal	ra,ffffffc05020699e <do_mutex_lock_acquire>
ffffffc050207166:	a82d                	j	ffffffc0502071a0 <do_mbox_send+0x72>
ffffffc050207168:	00055697          	auipc	a3,0x55
ffffffc05020716c:	76068693          	addi	a3,a3,1888 # ffffffc05025c8c8 <mailboxs>
ffffffc050207170:	fec42703          	lw	a4,-20(s0)
ffffffc050207174:	87ba                	mv	a5,a4
ffffffc050207176:	0792                	slli	a5,a5,0x4
ffffffc050207178:	8f99                	sub	a5,a5,a4
ffffffc05020717a:	078e                	slli	a5,a5,0x3
ffffffc05020717c:	97b6                	add	a5,a5,a3
ffffffc05020717e:	53f0                	lw	a2,100(a5)
ffffffc050207180:	00055697          	auipc	a3,0x55
ffffffc050207184:	74868693          	addi	a3,a3,1864 # ffffffc05025c8c8 <mailboxs>
ffffffc050207188:	fec42703          	lw	a4,-20(s0)
ffffffc05020718c:	87ba                	mv	a5,a4
ffffffc05020718e:	0792                	slli	a5,a5,0x4
ffffffc050207190:	8f99                	sub	a5,a5,a4
ffffffc050207192:	078e                	slli	a5,a5,0x3
ffffffc050207194:	97b6                	add	a5,a5,a3
ffffffc050207196:	5bbc                	lw	a5,112(a5)
ffffffc050207198:	85be                	mv	a1,a5
ffffffc05020719a:	8532                	mv	a0,a2
ffffffc05020719c:	bf7ff0ef          	jal	ra,ffffffc050206d92 <do_condition_wait>
ffffffc0502071a0:	00055697          	auipc	a3,0x55
ffffffc0502071a4:	72868693          	addi	a3,a3,1832 # ffffffc05025c8c8 <mailboxs>
ffffffc0502071a8:	fec42703          	lw	a4,-20(s0)
ffffffc0502071ac:	87ba                	mv	a5,a4
ffffffc0502071ae:	0792                	slli	a5,a5,0x4
ffffffc0502071b0:	8f99                	sub	a5,a5,a4
ffffffc0502071b2:	078e                	slli	a5,a5,0x3
ffffffc0502071b4:	97b6                	add	a5,a5,a3
ffffffc0502071b6:	5bfc                	lw	a5,116(a5)
ffffffc0502071b8:	fe842703          	lw	a4,-24(s0)
ffffffc0502071bc:	9fb9                	addw	a5,a5,a4
ffffffc0502071be:	2781                	sext.w	a5,a5
ffffffc0502071c0:	873e                	mv	a4,a5
ffffffc0502071c2:	04000793          	li	a5,64
ffffffc0502071c6:	fae7c1e3          	blt	a5,a4,ffffffc050207168 <do_mbox_send+0x3a>
ffffffc0502071ca:	fec42703          	lw	a4,-20(s0)
ffffffc0502071ce:	87ba                	mv	a5,a4
ffffffc0502071d0:	0792                	slli	a5,a5,0x4
ffffffc0502071d2:	8f99                	sub	a5,a5,a4
ffffffc0502071d4:	078e                	slli	a5,a5,0x3
ffffffc0502071d6:	02078713          	addi	a4,a5,32
ffffffc0502071da:	00055797          	auipc	a5,0x55
ffffffc0502071de:	6ee78793          	addi	a5,a5,1774 # ffffffc05025c8c8 <mailboxs>
ffffffc0502071e2:	00f706b3          	add	a3,a4,a5
ffffffc0502071e6:	00055617          	auipc	a2,0x55
ffffffc0502071ea:	6e260613          	addi	a2,a2,1762 # ffffffc05025c8c8 <mailboxs>
ffffffc0502071ee:	fec42703          	lw	a4,-20(s0)
ffffffc0502071f2:	87ba                	mv	a5,a4
ffffffc0502071f4:	0792                	slli	a5,a5,0x4
ffffffc0502071f6:	8f99                	sub	a5,a5,a4
ffffffc0502071f8:	078e                	slli	a5,a5,0x3
ffffffc0502071fa:	97b2                	add	a5,a5,a2
ffffffc0502071fc:	5bfc                	lw	a5,116(a5)
ffffffc0502071fe:	97b6                	add	a5,a5,a3
ffffffc050207200:	fe842703          	lw	a4,-24(s0)
ffffffc050207204:	863a                	mv	a2,a4
ffffffc050207206:	fe043583          	ld	a1,-32(s0)
ffffffc05020720a:	853e                	mv	a0,a5
ffffffc05020720c:	346050ef          	jal	ra,ffffffc05020c552 <memcpy>
ffffffc050207210:	00055697          	auipc	a3,0x55
ffffffc050207214:	6b868693          	addi	a3,a3,1720 # ffffffc05025c8c8 <mailboxs>
ffffffc050207218:	fec42703          	lw	a4,-20(s0)
ffffffc05020721c:	87ba                	mv	a5,a4
ffffffc05020721e:	0792                	slli	a5,a5,0x4
ffffffc050207220:	8f99                	sub	a5,a5,a4
ffffffc050207222:	078e                	slli	a5,a5,0x3
ffffffc050207224:	97b6                	add	a5,a5,a3
ffffffc050207226:	5bfc                	lw	a5,116(a5)
ffffffc050207228:	fe842703          	lw	a4,-24(s0)
ffffffc05020722c:	9fb9                	addw	a5,a5,a4
ffffffc05020722e:	0007869b          	sext.w	a3,a5
ffffffc050207232:	00055617          	auipc	a2,0x55
ffffffc050207236:	69660613          	addi	a2,a2,1686 # ffffffc05025c8c8 <mailboxs>
ffffffc05020723a:	fec42703          	lw	a4,-20(s0)
ffffffc05020723e:	87ba                	mv	a5,a4
ffffffc050207240:	0792                	slli	a5,a5,0x4
ffffffc050207242:	8f99                	sub	a5,a5,a4
ffffffc050207244:	078e                	slli	a5,a5,0x3
ffffffc050207246:	97b2                	add	a5,a5,a2
ffffffc050207248:	dbf4                	sw	a3,116(a5)
ffffffc05020724a:	00055697          	auipc	a3,0x55
ffffffc05020724e:	67e68693          	addi	a3,a3,1662 # ffffffc05025c8c8 <mailboxs>
ffffffc050207252:	fec42703          	lw	a4,-20(s0)
ffffffc050207256:	87ba                	mv	a5,a4
ffffffc050207258:	0792                	slli	a5,a5,0x4
ffffffc05020725a:	8f99                	sub	a5,a5,a4
ffffffc05020725c:	078e                	slli	a5,a5,0x3
ffffffc05020725e:	97b6                	add	a5,a5,a3
ffffffc050207260:	53bc                	lw	a5,96(a5)
ffffffc050207262:	853e                	mv	a0,a5
ffffffc050207264:	bb9ff0ef          	jal	ra,ffffffc050206e1c <do_condition_broadcast>
ffffffc050207268:	00055697          	auipc	a3,0x55
ffffffc05020726c:	66068693          	addi	a3,a3,1632 # ffffffc05025c8c8 <mailboxs>
ffffffc050207270:	fec42703          	lw	a4,-20(s0)
ffffffc050207274:	87ba                	mv	a5,a4
ffffffc050207276:	0792                	slli	a5,a5,0x4
ffffffc050207278:	8f99                	sub	a5,a5,a4
ffffffc05020727a:	078e                	slli	a5,a5,0x3
ffffffc05020727c:	97b6                	add	a5,a5,a3
ffffffc05020727e:	5bbc                	lw	a5,112(a5)
ffffffc050207280:	853e                	mv	a0,a5
ffffffc050207282:	fceff0ef          	jal	ra,ffffffc050206a50 <do_mutex_lock_release>
ffffffc050207286:	4781                	li	a5,0
ffffffc050207288:	853e                	mv	a0,a5
ffffffc05020728a:	60e2                	ld	ra,24(sp)
ffffffc05020728c:	6442                	ld	s0,16(sp)
ffffffc05020728e:	6105                	addi	sp,sp,32
ffffffc050207290:	8082                	ret

ffffffc050207292 <do_mbox_recv>:
ffffffc050207292:	1101                	addi	sp,sp,-32
ffffffc050207294:	ec06                	sd	ra,24(sp)
ffffffc050207296:	e822                	sd	s0,16(sp)
ffffffc050207298:	1000                	addi	s0,sp,32
ffffffc05020729a:	87aa                	mv	a5,a0
ffffffc05020729c:	feb43023          	sd	a1,-32(s0)
ffffffc0502072a0:	8732                	mv	a4,a2
ffffffc0502072a2:	fef42623          	sw	a5,-20(s0)
ffffffc0502072a6:	87ba                	mv	a5,a4
ffffffc0502072a8:	fef42423          	sw	a5,-24(s0)
ffffffc0502072ac:	00055697          	auipc	a3,0x55
ffffffc0502072b0:	61c68693          	addi	a3,a3,1564 # ffffffc05025c8c8 <mailboxs>
ffffffc0502072b4:	fec42703          	lw	a4,-20(s0)
ffffffc0502072b8:	87ba                	mv	a5,a4
ffffffc0502072ba:	0792                	slli	a5,a5,0x4
ffffffc0502072bc:	8f99                	sub	a5,a5,a4
ffffffc0502072be:	078e                	slli	a5,a5,0x3
ffffffc0502072c0:	97b6                	add	a5,a5,a3
ffffffc0502072c2:	5bbc                	lw	a5,112(a5)
ffffffc0502072c4:	853e                	mv	a0,a5
ffffffc0502072c6:	ed8ff0ef          	jal	ra,ffffffc05020699e <do_mutex_lock_acquire>
ffffffc0502072ca:	a82d                	j	ffffffc050207304 <do_mbox_recv+0x72>
ffffffc0502072cc:	00055697          	auipc	a3,0x55
ffffffc0502072d0:	5fc68693          	addi	a3,a3,1532 # ffffffc05025c8c8 <mailboxs>
ffffffc0502072d4:	fec42703          	lw	a4,-20(s0)
ffffffc0502072d8:	87ba                	mv	a5,a4
ffffffc0502072da:	0792                	slli	a5,a5,0x4
ffffffc0502072dc:	8f99                	sub	a5,a5,a4
ffffffc0502072de:	078e                	slli	a5,a5,0x3
ffffffc0502072e0:	97b6                	add	a5,a5,a3
ffffffc0502072e2:	53b0                	lw	a2,96(a5)
ffffffc0502072e4:	00055697          	auipc	a3,0x55
ffffffc0502072e8:	5e468693          	addi	a3,a3,1508 # ffffffc05025c8c8 <mailboxs>
ffffffc0502072ec:	fec42703          	lw	a4,-20(s0)
ffffffc0502072f0:	87ba                	mv	a5,a4
ffffffc0502072f2:	0792                	slli	a5,a5,0x4
ffffffc0502072f4:	8f99                	sub	a5,a5,a4
ffffffc0502072f6:	078e                	slli	a5,a5,0x3
ffffffc0502072f8:	97b6                	add	a5,a5,a3
ffffffc0502072fa:	5bbc                	lw	a5,112(a5)
ffffffc0502072fc:	85be                	mv	a1,a5
ffffffc0502072fe:	8532                	mv	a0,a2
ffffffc050207300:	a93ff0ef          	jal	ra,ffffffc050206d92 <do_condition_wait>
ffffffc050207304:	00055697          	auipc	a3,0x55
ffffffc050207308:	5c468693          	addi	a3,a3,1476 # ffffffc05025c8c8 <mailboxs>
ffffffc05020730c:	fec42703          	lw	a4,-20(s0)
ffffffc050207310:	87ba                	mv	a5,a4
ffffffc050207312:	0792                	slli	a5,a5,0x4
ffffffc050207314:	8f99                	sub	a5,a5,a4
ffffffc050207316:	078e                	slli	a5,a5,0x3
ffffffc050207318:	97b6                	add	a5,a5,a3
ffffffc05020731a:	5bf8                	lw	a4,116(a5)
ffffffc05020731c:	fe842783          	lw	a5,-24(s0)
ffffffc050207320:	40f707bb          	subw	a5,a4,a5
ffffffc050207324:	2781                	sext.w	a5,a5
ffffffc050207326:	fa07c3e3          	bltz	a5,ffffffc0502072cc <do_mbox_recv+0x3a>
ffffffc05020732a:	fec42703          	lw	a4,-20(s0)
ffffffc05020732e:	87ba                	mv	a5,a4
ffffffc050207330:	0792                	slli	a5,a5,0x4
ffffffc050207332:	8f99                	sub	a5,a5,a4
ffffffc050207334:	078e                	slli	a5,a5,0x3
ffffffc050207336:	02078713          	addi	a4,a5,32
ffffffc05020733a:	00055797          	auipc	a5,0x55
ffffffc05020733e:	58e78793          	addi	a5,a5,1422 # ffffffc05025c8c8 <mailboxs>
ffffffc050207342:	97ba                	add	a5,a5,a4
ffffffc050207344:	fe842703          	lw	a4,-24(s0)
ffffffc050207348:	863a                	mv	a2,a4
ffffffc05020734a:	85be                	mv	a1,a5
ffffffc05020734c:	fe043503          	ld	a0,-32(s0)
ffffffc050207350:	202050ef          	jal	ra,ffffffc05020c552 <memcpy>
ffffffc050207354:	fec42703          	lw	a4,-20(s0)
ffffffc050207358:	87ba                	mv	a5,a4
ffffffc05020735a:	0792                	slli	a5,a5,0x4
ffffffc05020735c:	8f99                	sub	a5,a5,a4
ffffffc05020735e:	078e                	slli	a5,a5,0x3
ffffffc050207360:	02078713          	addi	a4,a5,32
ffffffc050207364:	00055797          	auipc	a5,0x55
ffffffc050207368:	56478793          	addi	a5,a5,1380 # ffffffc05025c8c8 <mailboxs>
ffffffc05020736c:	00f70533          	add	a0,a4,a5
ffffffc050207370:	fec42703          	lw	a4,-20(s0)
ffffffc050207374:	87ba                	mv	a5,a4
ffffffc050207376:	0792                	slli	a5,a5,0x4
ffffffc050207378:	8f99                	sub	a5,a5,a4
ffffffc05020737a:	078e                	slli	a5,a5,0x3
ffffffc05020737c:	02078713          	addi	a4,a5,32
ffffffc050207380:	00055797          	auipc	a5,0x55
ffffffc050207384:	54878793          	addi	a5,a5,1352 # ffffffc05025c8c8 <mailboxs>
ffffffc050207388:	973e                	add	a4,a4,a5
ffffffc05020738a:	fe842783          	lw	a5,-24(s0)
ffffffc05020738e:	00f705b3          	add	a1,a4,a5
ffffffc050207392:	00055697          	auipc	a3,0x55
ffffffc050207396:	53668693          	addi	a3,a3,1334 # ffffffc05025c8c8 <mailboxs>
ffffffc05020739a:	fec42703          	lw	a4,-20(s0)
ffffffc05020739e:	87ba                	mv	a5,a4
ffffffc0502073a0:	0792                	slli	a5,a5,0x4
ffffffc0502073a2:	8f99                	sub	a5,a5,a4
ffffffc0502073a4:	078e                	slli	a5,a5,0x3
ffffffc0502073a6:	97b6                	add	a5,a5,a3
ffffffc0502073a8:	5bf8                	lw	a4,116(a5)
ffffffc0502073aa:	fe842783          	lw	a5,-24(s0)
ffffffc0502073ae:	40f707bb          	subw	a5,a4,a5
ffffffc0502073b2:	2781                	sext.w	a5,a5
ffffffc0502073b4:	863e                	mv	a2,a5
ffffffc0502073b6:	19c050ef          	jal	ra,ffffffc05020c552 <memcpy>
ffffffc0502073ba:	00055697          	auipc	a3,0x55
ffffffc0502073be:	50e68693          	addi	a3,a3,1294 # ffffffc05025c8c8 <mailboxs>
ffffffc0502073c2:	fec42703          	lw	a4,-20(s0)
ffffffc0502073c6:	87ba                	mv	a5,a4
ffffffc0502073c8:	0792                	slli	a5,a5,0x4
ffffffc0502073ca:	8f99                	sub	a5,a5,a4
ffffffc0502073cc:	078e                	slli	a5,a5,0x3
ffffffc0502073ce:	97b6                	add	a5,a5,a3
ffffffc0502073d0:	5bf8                	lw	a4,116(a5)
ffffffc0502073d2:	fe842783          	lw	a5,-24(s0)
ffffffc0502073d6:	40f707bb          	subw	a5,a4,a5
ffffffc0502073da:	0007869b          	sext.w	a3,a5
ffffffc0502073de:	00055617          	auipc	a2,0x55
ffffffc0502073e2:	4ea60613          	addi	a2,a2,1258 # ffffffc05025c8c8 <mailboxs>
ffffffc0502073e6:	fec42703          	lw	a4,-20(s0)
ffffffc0502073ea:	87ba                	mv	a5,a4
ffffffc0502073ec:	0792                	slli	a5,a5,0x4
ffffffc0502073ee:	8f99                	sub	a5,a5,a4
ffffffc0502073f0:	078e                	slli	a5,a5,0x3
ffffffc0502073f2:	97b2                	add	a5,a5,a2
ffffffc0502073f4:	dbf4                	sw	a3,116(a5)
ffffffc0502073f6:	00055697          	auipc	a3,0x55
ffffffc0502073fa:	4d268693          	addi	a3,a3,1234 # ffffffc05025c8c8 <mailboxs>
ffffffc0502073fe:	fec42703          	lw	a4,-20(s0)
ffffffc050207402:	87ba                	mv	a5,a4
ffffffc050207404:	0792                	slli	a5,a5,0x4
ffffffc050207406:	8f99                	sub	a5,a5,a4
ffffffc050207408:	078e                	slli	a5,a5,0x3
ffffffc05020740a:	97b6                	add	a5,a5,a3
ffffffc05020740c:	53fc                	lw	a5,100(a5)
ffffffc05020740e:	853e                	mv	a0,a5
ffffffc050207410:	a0dff0ef          	jal	ra,ffffffc050206e1c <do_condition_broadcast>
ffffffc050207414:	00055697          	auipc	a3,0x55
ffffffc050207418:	4b468693          	addi	a3,a3,1204 # ffffffc05025c8c8 <mailboxs>
ffffffc05020741c:	fec42703          	lw	a4,-20(s0)
ffffffc050207420:	87ba                	mv	a5,a4
ffffffc050207422:	0792                	slli	a5,a5,0x4
ffffffc050207424:	8f99                	sub	a5,a5,a4
ffffffc050207426:	078e                	slli	a5,a5,0x3
ffffffc050207428:	97b6                	add	a5,a5,a3
ffffffc05020742a:	5bbc                	lw	a5,112(a5)
ffffffc05020742c:	853e                	mv	a0,a5
ffffffc05020742e:	e22ff0ef          	jal	ra,ffffffc050206a50 <do_mutex_lock_release>
ffffffc050207432:	4781                	li	a5,0
ffffffc050207434:	853e                	mv	a0,a5
ffffffc050207436:	60e2                	ld	ra,24(sp)
ffffffc050207438:	6442                	ld	s0,16(sp)
ffffffc05020743a:	6105                	addi	sp,sp,32
ffffffc05020743c:	8082                	ret

ffffffc05020743e <atomic_swap>:
ffffffc05020743e:	7179                	addi	sp,sp,-48
ffffffc050207440:	f422                	sd	s0,40(sp)
ffffffc050207442:	1800                	addi	s0,sp,48
ffffffc050207444:	87aa                	mv	a5,a0
ffffffc050207446:	fcb43823          	sd	a1,-48(s0)
ffffffc05020744a:	fcf42e23          	sw	a5,-36(s0)
ffffffc05020744e:	fd043783          	ld	a5,-48(s0)
ffffffc050207452:	fdc42703          	lw	a4,-36(s0)
ffffffc050207456:	0ee7a72f          	amoswap.w.aqrl	a4,a4,(a5)
ffffffc05020745a:	fee42623          	sw	a4,-20(s0)
ffffffc05020745e:	fec42783          	lw	a5,-20(s0)
ffffffc050207462:	853e                	mv	a0,a5
ffffffc050207464:	7422                	ld	s0,40(sp)
ffffffc050207466:	6145                	addi	sp,sp,48
ffffffc050207468:	8082                	ret

ffffffc05020746a <pa2kva>:
ffffffc05020746a:	7179                	addi	sp,sp,-48
ffffffc05020746c:	f422                	sd	s0,40(sp)
ffffffc05020746e:	1800                	addi	s0,sp,48
ffffffc050207470:	fca43c23          	sd	a0,-40(s0)
ffffffc050207474:	57fd                	li	a5,-1
ffffffc050207476:	179a                	slli	a5,a5,0x26
ffffffc050207478:	fef43423          	sd	a5,-24(s0)
ffffffc05020747c:	fd843703          	ld	a4,-40(s0)
ffffffc050207480:	fe843783          	ld	a5,-24(s0)
ffffffc050207484:	8fd9                	or	a5,a5,a4
ffffffc050207486:	fef43023          	sd	a5,-32(s0)
ffffffc05020748a:	fe043783          	ld	a5,-32(s0)
ffffffc05020748e:	853e                	mv	a0,a5
ffffffc050207490:	7422                	ld	s0,40(sp)
ffffffc050207492:	6145                	addi	sp,sp,48
ffffffc050207494:	8082                	ret

ffffffc050207496 <smp_init>:
ffffffc050207496:	1141                	addi	sp,sp,-16
ffffffc050207498:	e422                	sd	s0,8(sp)
ffffffc05020749a:	0800                	addi	s0,sp,16
ffffffc05020749c:	0001                	nop
ffffffc05020749e:	6422                	ld	s0,8(sp)
ffffffc0502074a0:	0141                	addi	sp,sp,16
ffffffc0502074a2:	8082                	ret

ffffffc0502074a4 <wakeup_other_hart>:
ffffffc0502074a4:	1141                	addi	sp,sp,-16
ffffffc0502074a6:	e406                	sd	ra,8(sp)
ffffffc0502074a8:	e022                	sd	s0,0(sp)
ffffffc0502074aa:	0800                	addi	s0,sp,16
ffffffc0502074ac:	ba1fa0ef          	jal	ra,ffffffc05020204c <disable_interrupt>
ffffffc0502074b0:	4501                	li	a0,0
ffffffc0502074b2:	f41fb0ef          	jal	ra,ffffffc0502033f2 <send_ipi>
ffffffc0502074b6:	d17fa0ef          	jal	ra,ffffffc0502021cc <disable_sip>
ffffffc0502074ba:	b8bfa0ef          	jal	ra,ffffffc050202044 <enable_interrupt>
ffffffc0502074be:	0001                	nop
ffffffc0502074c0:	60a2                	ld	ra,8(sp)
ffffffc0502074c2:	6402                	ld	s0,0(sp)
ffffffc0502074c4:	0141                	addi	sp,sp,16
ffffffc0502074c6:	8082                	ret

ffffffc0502074c8 <lock_kernel>:
ffffffc0502074c8:	1141                	addi	sp,sp,-16
ffffffc0502074ca:	e406                	sd	ra,8(sp)
ffffffc0502074cc:	e022                	sd	s0,0(sp)
ffffffc0502074ce:	0800                	addi	s0,sp,16
ffffffc0502074d0:	0001                	nop
ffffffc0502074d2:	00056797          	auipc	a5,0x56
ffffffc0502074d6:	5f678793          	addi	a5,a5,1526 # ffffffc05025dac8 <core_lock>
ffffffc0502074da:	853e                	mv	a0,a5
ffffffc0502074dc:	f8fff0ef          	jal	ra,ffffffc05020746a <pa2kva>
ffffffc0502074e0:	87aa                	mv	a5,a0
ffffffc0502074e2:	85be                	mv	a1,a5
ffffffc0502074e4:	4505                	li	a0,1
ffffffc0502074e6:	f59ff0ef          	jal	ra,ffffffc05020743e <atomic_swap>
ffffffc0502074ea:	87aa                	mv	a5,a0
ffffffc0502074ec:	2781                	sext.w	a5,a5
ffffffc0502074ee:	873e                	mv	a4,a5
ffffffc0502074f0:	4785                	li	a5,1
ffffffc0502074f2:	fef700e3          	beq	a4,a5,ffffffc0502074d2 <lock_kernel+0xa>
ffffffc0502074f6:	0001                	nop
ffffffc0502074f8:	0001                	nop
ffffffc0502074fa:	60a2                	ld	ra,8(sp)
ffffffc0502074fc:	6402                	ld	s0,0(sp)
ffffffc0502074fe:	0141                	addi	sp,sp,16
ffffffc050207500:	8082                	ret

ffffffc050207502 <unlock_kernel>:
ffffffc050207502:	1141                	addi	sp,sp,-16
ffffffc050207504:	e422                	sd	s0,8(sp)
ffffffc050207506:	0800                	addi	s0,sp,16
ffffffc050207508:	00056797          	auipc	a5,0x56
ffffffc05020750c:	5c078793          	addi	a5,a5,1472 # ffffffc05025dac8 <core_lock>
ffffffc050207510:	0007a023          	sw	zero,0(a5)
ffffffc050207514:	0001                	nop
ffffffc050207516:	6422                	ld	s0,8(sp)
ffffffc050207518:	0141                	addi	sp,sp,16
ffffffc05020751a:	8082                	ret

ffffffc05020751c <get_ticks>:
ffffffc05020751c:	1141                	addi	sp,sp,-16
ffffffc05020751e:	e422                	sd	s0,8(sp)
ffffffc050207520:	0800                	addi	s0,sp,16
ffffffc050207522:	c0102773          	rdtime	a4
ffffffc050207526:	00006797          	auipc	a5,0x6
ffffffc05020752a:	10a78793          	addi	a5,a5,266 # ffffffc05020d630 <time_elapsed>
ffffffc05020752e:	e398                	sd	a4,0(a5)
ffffffc050207530:	00006797          	auipc	a5,0x6
ffffffc050207534:	10078793          	addi	a5,a5,256 # ffffffc05020d630 <time_elapsed>
ffffffc050207538:	639c                	ld	a5,0(a5)
ffffffc05020753a:	853e                	mv	a0,a5
ffffffc05020753c:	6422                	ld	s0,8(sp)
ffffffc05020753e:	0141                	addi	sp,sp,16
ffffffc050207540:	8082                	ret

ffffffc050207542 <get_timer>:
ffffffc050207542:	1141                	addi	sp,sp,-16
ffffffc050207544:	e406                	sd	ra,8(sp)
ffffffc050207546:	e022                	sd	s0,0(sp)
ffffffc050207548:	0800                	addi	s0,sp,16
ffffffc05020754a:	fd3ff0ef          	jal	ra,ffffffc05020751c <get_ticks>
ffffffc05020754e:	872a                	mv	a4,a0
ffffffc050207550:	00006797          	auipc	a5,0x6
ffffffc050207554:	0e878793          	addi	a5,a5,232 # ffffffc05020d638 <time_base>
ffffffc050207558:	639c                	ld	a5,0(a5)
ffffffc05020755a:	02f757b3          	divu	a5,a4,a5
ffffffc05020755e:	853e                	mv	a0,a5
ffffffc050207560:	60a2                	ld	ra,8(sp)
ffffffc050207562:	6402                	ld	s0,0(sp)
ffffffc050207564:	0141                	addi	sp,sp,16
ffffffc050207566:	8082                	ret

ffffffc050207568 <get_time_base>:
ffffffc050207568:	1141                	addi	sp,sp,-16
ffffffc05020756a:	e422                	sd	s0,8(sp)
ffffffc05020756c:	0800                	addi	s0,sp,16
ffffffc05020756e:	00006797          	auipc	a5,0x6
ffffffc050207572:	0ca78793          	addi	a5,a5,202 # ffffffc05020d638 <time_base>
ffffffc050207576:	639c                	ld	a5,0(a5)
ffffffc050207578:	853e                	mv	a0,a5
ffffffc05020757a:	6422                	ld	s0,8(sp)
ffffffc05020757c:	0141                	addi	sp,sp,16
ffffffc05020757e:	8082                	ret

ffffffc050207580 <latency>:
ffffffc050207580:	7179                	addi	sp,sp,-48
ffffffc050207582:	f406                	sd	ra,40(sp)
ffffffc050207584:	f022                	sd	s0,32(sp)
ffffffc050207586:	1800                	addi	s0,sp,48
ffffffc050207588:	fca43c23          	sd	a0,-40(s0)
ffffffc05020758c:	fb7ff0ef          	jal	ra,ffffffc050207542 <get_timer>
ffffffc050207590:	fea43423          	sd	a0,-24(s0)
ffffffc050207594:	0001                	nop
ffffffc050207596:	fadff0ef          	jal	ra,ffffffc050207542 <get_timer>
ffffffc05020759a:	872a                	mv	a4,a0
ffffffc05020759c:	fe843783          	ld	a5,-24(s0)
ffffffc0502075a0:	40f707b3          	sub	a5,a4,a5
ffffffc0502075a4:	fd843703          	ld	a4,-40(s0)
ffffffc0502075a8:	fee7e7e3          	bltu	a5,a4,ffffffc050207596 <latency+0x16>
ffffffc0502075ac:	0001                	nop
ffffffc0502075ae:	70a2                	ld	ra,40(sp)
ffffffc0502075b0:	7402                	ld	s0,32(sp)
ffffffc0502075b2:	6145                	addi	sp,sp,48
ffffffc0502075b4:	8082                	ret

ffffffc0502075b6 <check_sleeping>:
ffffffc0502075b6:	7179                	addi	sp,sp,-48
ffffffc0502075b8:	f406                	sd	ra,40(sp)
ffffffc0502075ba:	f022                	sd	s0,32(sp)
ffffffc0502075bc:	1800                	addi	s0,sp,48
ffffffc0502075be:	00006797          	auipc	a5,0x6
ffffffc0502075c2:	f7a78793          	addi	a5,a5,-134 # ffffffc05020d538 <sleep_queue>
ffffffc0502075c6:	679c                	ld	a5,8(a5)
ffffffc0502075c8:	fef43423          	sd	a5,-24(s0)
ffffffc0502075cc:	a88d                	j	ffffffc05020763e <check_sleeping+0x88>
ffffffc0502075ce:	00006517          	auipc	a0,0x6
ffffffc0502075d2:	f6a50513          	addi	a0,a0,-150 # ffffffc05020d538 <sleep_queue>
ffffffc0502075d6:	6b0000ef          	jal	ra,ffffffc050207c86 <de_queue>
ffffffc0502075da:	fea43023          	sd	a0,-32(s0)
ffffffc0502075de:	fe043783          	ld	a5,-32(s0)
ffffffc0502075e2:	17c1                	addi	a5,a5,-16
ffffffc0502075e4:	fcf43c23          	sd	a5,-40(s0)
ffffffc0502075e8:	f5bff0ef          	jal	ra,ffffffc050207542 <get_timer>
ffffffc0502075ec:	872a                	mv	a4,a0
ffffffc0502075ee:	fd843783          	ld	a5,-40(s0)
ffffffc0502075f2:	67bc                	ld	a5,72(a5)
ffffffc0502075f4:	02f76763          	bltu	a4,a5,ffffffc050207622 <check_sleeping+0x6c>
ffffffc0502075f8:	fd843783          	ld	a5,-40(s0)
ffffffc0502075fc:	5fdc                	lw	a5,60(a5)
ffffffc0502075fe:	eb95                	bnez	a5,ffffffc050207632 <check_sleeping+0x7c>
ffffffc050207600:	fd843783          	ld	a5,-40(s0)
ffffffc050207604:	4709                	li	a4,2
ffffffc050207606:	dfd8                	sw	a4,60(a5)
ffffffc050207608:	fd843783          	ld	a5,-40(s0)
ffffffc05020760c:	0407b423          	sd	zero,72(a5)
ffffffc050207610:	fe043583          	ld	a1,-32(s0)
ffffffc050207614:	00006517          	auipc	a0,0x6
ffffffc050207618:	f1450513          	addi	a0,a0,-236 # ffffffc05020d528 <ready_queue>
ffffffc05020761c:	6f0000ef          	jal	ra,ffffffc050207d0c <en_queue>
ffffffc050207620:	a809                	j	ffffffc050207632 <check_sleeping+0x7c>
ffffffc050207622:	fe043583          	ld	a1,-32(s0)
ffffffc050207626:	00006517          	auipc	a0,0x6
ffffffc05020762a:	f1250513          	addi	a0,a0,-238 # ffffffc05020d538 <sleep_queue>
ffffffc05020762e:	6de000ef          	jal	ra,ffffffc050207d0c <en_queue>
ffffffc050207632:	fe043703          	ld	a4,-32(s0)
ffffffc050207636:	fe843783          	ld	a5,-24(s0)
ffffffc05020763a:	00f70b63          	beq	a4,a5,ffffffc050207650 <check_sleeping+0x9a>
ffffffc05020763e:	00006517          	auipc	a0,0x6
ffffffc050207642:	efa50513          	addi	a0,a0,-262 # ffffffc05020d538 <sleep_queue>
ffffffc050207646:	75a000ef          	jal	ra,ffffffc050207da0 <isempyt_queue>
ffffffc05020764a:	87aa                	mv	a5,a0
ffffffc05020764c:	d3c9                	beqz	a5,ffffffc0502075ce <check_sleeping+0x18>
ffffffc05020764e:	a011                	j	ffffffc050207652 <check_sleeping+0x9c>
ffffffc050207650:	0001                	nop
ffffffc050207652:	0001                	nop
ffffffc050207654:	70a2                	ld	ra,40(sp)
ffffffc050207656:	7402                	ld	s0,32(sp)
ffffffc050207658:	6145                	addi	sp,sp,48
ffffffc05020765a:	8082                	ret

ffffffc05020765c <_panic>:
ffffffc05020765c:	7179                	addi	sp,sp,-48
ffffffc05020765e:	f406                	sd	ra,40(sp)
ffffffc050207660:	f022                	sd	s0,32(sp)
ffffffc050207662:	1800                	addi	s0,sp,48
ffffffc050207664:	fea43423          	sd	a0,-24(s0)
ffffffc050207668:	87ae                	mv	a5,a1
ffffffc05020766a:	fcc43c23          	sd	a2,-40(s0)
ffffffc05020766e:	fef42223          	sw	a5,-28(s0)
ffffffc050207672:	fe442783          	lw	a5,-28(s0)
ffffffc050207676:	86be                	mv	a3,a5
ffffffc050207678:	fe843603          	ld	a2,-24(s0)
ffffffc05020767c:	fd843583          	ld	a1,-40(s0)
ffffffc050207680:	00005517          	auipc	a0,0x5
ffffffc050207684:	7e850513          	addi	a0,a0,2024 # ffffffc05020ce68 <__FUNCTION__.1531+0x10>
ffffffc050207688:	563040ef          	jal	ra,ffffffc05020c3ea <printk>
ffffffc05020768c:	a001                	j	ffffffc05020768c <_panic+0x30>

ffffffc05020768e <local_flush_tlb_all>:
ffffffc05020768e:	1141                	addi	sp,sp,-16
ffffffc050207690:	e422                	sd	s0,8(sp)
ffffffc050207692:	0800                	addi	s0,sp,16
ffffffc050207694:	12000073          	sfence.vma
ffffffc050207698:	0001                	nop
ffffffc05020769a:	6422                	ld	s0,8(sp)
ffffffc05020769c:	0141                	addi	sp,sp,16
ffffffc05020769e:	8082                	ret

ffffffc0502076a0 <set_satp>:
ffffffc0502076a0:	7179                	addi	sp,sp,-48
ffffffc0502076a2:	f422                	sd	s0,40(sp)
ffffffc0502076a4:	1800                	addi	s0,sp,48
ffffffc0502076a6:	87aa                	mv	a5,a0
ffffffc0502076a8:	872e                	mv	a4,a1
ffffffc0502076aa:	fcc43823          	sd	a2,-48(s0)
ffffffc0502076ae:	fcf42e23          	sw	a5,-36(s0)
ffffffc0502076b2:	87ba                	mv	a5,a4
ffffffc0502076b4:	fcf42c23          	sw	a5,-40(s0)
ffffffc0502076b8:	fdc46783          	lwu	a5,-36(s0)
ffffffc0502076bc:	03c79713          	slli	a4,a5,0x3c
ffffffc0502076c0:	fd846783          	lwu	a5,-40(s0)
ffffffc0502076c4:	17b2                	slli	a5,a5,0x2c
ffffffc0502076c6:	8fd9                	or	a5,a5,a4
ffffffc0502076c8:	fd043703          	ld	a4,-48(s0)
ffffffc0502076cc:	8fd9                	or	a5,a5,a4
ffffffc0502076ce:	fef43423          	sd	a5,-24(s0)
ffffffc0502076d2:	fe843783          	ld	a5,-24(s0)
ffffffc0502076d6:	12000073          	sfence.vma
ffffffc0502076da:	18079073          	csrw	satp,a5
ffffffc0502076de:	0001                	nop
ffffffc0502076e0:	7422                	ld	s0,40(sp)
ffffffc0502076e2:	6145                	addi	sp,sp,48
ffffffc0502076e4:	8082                	ret

ffffffc0502076e6 <kva2pa>:
ffffffc0502076e6:	7179                	addi	sp,sp,-48
ffffffc0502076e8:	f422                	sd	s0,40(sp)
ffffffc0502076ea:	1800                	addi	s0,sp,48
ffffffc0502076ec:	fca43c23          	sd	a0,-40(s0)
ffffffc0502076f0:	57fd                	li	a5,-1
ffffffc0502076f2:	9381                	srli	a5,a5,0x20
ffffffc0502076f4:	fef43423          	sd	a5,-24(s0)
ffffffc0502076f8:	fd843703          	ld	a4,-40(s0)
ffffffc0502076fc:	fe843783          	ld	a5,-24(s0)
ffffffc050207700:	8ff9                	and	a5,a5,a4
ffffffc050207702:	fef43023          	sd	a5,-32(s0)
ffffffc050207706:	fe043783          	ld	a5,-32(s0)
ffffffc05020770a:	853e                	mv	a0,a5
ffffffc05020770c:	7422                	ld	s0,40(sp)
ffffffc05020770e:	6145                	addi	sp,sp,48
ffffffc050207710:	8082                	ret

ffffffc050207712 <pa2kva>:
ffffffc050207712:	7179                	addi	sp,sp,-48
ffffffc050207714:	f422                	sd	s0,40(sp)
ffffffc050207716:	1800                	addi	s0,sp,48
ffffffc050207718:	fca43c23          	sd	a0,-40(s0)
ffffffc05020771c:	57fd                	li	a5,-1
ffffffc05020771e:	179a                	slli	a5,a5,0x26
ffffffc050207720:	fef43423          	sd	a5,-24(s0)
ffffffc050207724:	fd843703          	ld	a4,-40(s0)
ffffffc050207728:	fe843783          	ld	a5,-24(s0)
ffffffc05020772c:	8fd9                	or	a5,a5,a4
ffffffc05020772e:	fef43023          	sd	a5,-32(s0)
ffffffc050207732:	fe043783          	ld	a5,-32(s0)
ffffffc050207736:	853e                	mv	a0,a5
ffffffc050207738:	7422                	ld	s0,40(sp)
ffffffc05020773a:	6145                	addi	sp,sp,48
ffffffc05020773c:	8082                	ret

ffffffc05020773e <call_jmptab>:
ffffffc05020773e:	7139                	addi	sp,sp,-64
ffffffc050207740:	fc06                	sd	ra,56(sp)
ffffffc050207742:	f822                	sd	s0,48(sp)
ffffffc050207744:	0080                	addi	s0,sp,64
ffffffc050207746:	fca43c23          	sd	a0,-40(s0)
ffffffc05020774a:	fcb43823          	sd	a1,-48(s0)
ffffffc05020774e:	fcc43423          	sd	a2,-56(s0)
ffffffc050207752:	fcd43023          	sd	a3,-64(s0)
ffffffc050207756:	fd843783          	ld	a5,-40(s0)
ffffffc05020775a:	00379713          	slli	a4,a5,0x3
ffffffc05020775e:	fe0297b7          	lui	a5,0xfe029
ffffffc050207762:	07b6                	slli	a5,a5,0xd
ffffffc050207764:	f0078793          	addi	a5,a5,-256 # fffffffffe028f00 <__BSS_END__+0x3faddca428>
ffffffc050207768:	97ba                	add	a5,a5,a4
ffffffc05020776a:	639c                	ld	a5,0(a5)
ffffffc05020776c:	fef43423          	sd	a5,-24(s0)
ffffffc050207770:	fe843783          	ld	a5,-24(s0)
ffffffc050207774:	fef43023          	sd	a5,-32(s0)
ffffffc050207778:	fe043783          	ld	a5,-32(s0)
ffffffc05020777c:	fc043603          	ld	a2,-64(s0)
ffffffc050207780:	fc843583          	ld	a1,-56(s0)
ffffffc050207784:	fd043503          	ld	a0,-48(s0)
ffffffc050207788:	9782                	jalr	a5
ffffffc05020778a:	87aa                	mv	a5,a0
ffffffc05020778c:	853e                	mv	a0,a5
ffffffc05020778e:	70e2                	ld	ra,56(sp)
ffffffc050207790:	7442                	ld	s0,48(sp)
ffffffc050207792:	6121                	addi	sp,sp,64
ffffffc050207794:	8082                	ret

ffffffc050207796 <bios_sdread>:
ffffffc050207796:	1101                	addi	sp,sp,-32
ffffffc050207798:	ec06                	sd	ra,24(sp)
ffffffc05020779a:	e822                	sd	s0,16(sp)
ffffffc05020779c:	1000                	addi	s0,sp,32
ffffffc05020779e:	87aa                	mv	a5,a0
ffffffc0502077a0:	86ae                	mv	a3,a1
ffffffc0502077a2:	8732                	mv	a4,a2
ffffffc0502077a4:	fef42623          	sw	a5,-20(s0)
ffffffc0502077a8:	87b6                	mv	a5,a3
ffffffc0502077aa:	fef42423          	sw	a5,-24(s0)
ffffffc0502077ae:	87ba                	mv	a5,a4
ffffffc0502077b0:	fef42223          	sw	a5,-28(s0)
ffffffc0502077b4:	fec46783          	lwu	a5,-20(s0)
ffffffc0502077b8:	fe846703          	lwu	a4,-24(s0)
ffffffc0502077bc:	fe446683          	lwu	a3,-28(s0)
ffffffc0502077c0:	863a                	mv	a2,a4
ffffffc0502077c2:	85be                	mv	a1,a5
ffffffc0502077c4:	450d                	li	a0,3
ffffffc0502077c6:	f79ff0ef          	jal	ra,ffffffc05020773e <call_jmptab>
ffffffc0502077ca:	87aa                	mv	a5,a0
ffffffc0502077cc:	2781                	sext.w	a5,a5
ffffffc0502077ce:	853e                	mv	a0,a5
ffffffc0502077d0:	60e2                	ld	ra,24(sp)
ffffffc0502077d2:	6442                	ld	s0,16(sp)
ffffffc0502077d4:	6105                	addi	sp,sp,32
ffffffc0502077d6:	8082                	ret

ffffffc0502077d8 <readl>:
ffffffc0502077d8:	7179                	addi	sp,sp,-48
ffffffc0502077da:	f422                	sd	s0,40(sp)
ffffffc0502077dc:	1800                	addi	s0,sp,48
ffffffc0502077de:	fca43c23          	sd	a0,-40(s0)
ffffffc0502077e2:	fd843783          	ld	a5,-40(s0)
ffffffc0502077e6:	439c                	lw	a5,0(a5)
ffffffc0502077e8:	fef42623          	sw	a5,-20(s0)
ffffffc0502077ec:	0aa0000f          	fence	ir,ir
ffffffc0502077f0:	fec42783          	lw	a5,-20(s0)
ffffffc0502077f4:	853e                	mv	a0,a5
ffffffc0502077f6:	7422                	ld	s0,40(sp)
ffffffc0502077f8:	6145                	addi	sp,sp,48
ffffffc0502077fa:	8082                	ret

ffffffc0502077fc <e1000_read_reg>:
ffffffc0502077fc:	1101                	addi	sp,sp,-32
ffffffc0502077fe:	ec06                	sd	ra,24(sp)
ffffffc050207800:	e822                	sd	s0,16(sp)
ffffffc050207802:	1000                	addi	s0,sp,32
ffffffc050207804:	fea43423          	sd	a0,-24(s0)
ffffffc050207808:	87ae                	mv	a5,a1
ffffffc05020780a:	fef42223          	sw	a5,-28(s0)
ffffffc05020780e:	fe446783          	lwu	a5,-28(s0)
ffffffc050207812:	fe843703          	ld	a4,-24(s0)
ffffffc050207816:	97ba                	add	a5,a5,a4
ffffffc050207818:	853e                	mv	a0,a5
ffffffc05020781a:	fbfff0ef          	jal	ra,ffffffc0502077d8 <readl>
ffffffc05020781e:	87aa                	mv	a5,a0
ffffffc050207820:	2781                	sext.w	a5,a5
ffffffc050207822:	853e                	mv	a0,a5
ffffffc050207824:	60e2                	ld	ra,24(sp)
ffffffc050207826:	6442                	ld	s0,16(sp)
ffffffc050207828:	6105                	addi	sp,sp,32
ffffffc05020782a:	8082                	ret

ffffffc05020782c <do_scheduler>:
ffffffc05020782c:	7139                	addi	sp,sp,-64
ffffffc05020782e:	fc06                	sd	ra,56(sp)
ffffffc050207830:	f822                	sd	s0,48(sp)
ffffffc050207832:	f426                	sd	s1,40(sp)
ffffffc050207834:	0080                	addi	s0,sp,64
ffffffc050207836:	9b7fa0ef          	jal	ra,ffffffc0502021ec <get_current_cpu_id>
ffffffc05020783a:	87aa                	mv	a5,a0
ffffffc05020783c:	fcf43823          	sd	a5,-48(s0)
ffffffc050207840:	fd043783          	ld	a5,-48(s0)
ffffffc050207844:	ef81                	bnez	a5,ffffffc05020785c <do_scheduler+0x30>
ffffffc050207846:	00056797          	auipc	a5,0x56
ffffffc05020784a:	40278793          	addi	a5,a5,1026 # ffffffc05025dc48 <current_running0>
ffffffc05020784e:	6398                	ld	a4,0(a5)
ffffffc050207850:	00056797          	auipc	a5,0x56
ffffffc050207854:	3f078793          	addi	a5,a5,1008 # ffffffc05025dc40 <current_running>
ffffffc050207858:	e398                	sd	a4,0(a5)
ffffffc05020785a:	a819                	j	ffffffc050207870 <do_scheduler+0x44>
ffffffc05020785c:	00057797          	auipc	a5,0x57
ffffffc050207860:	f7478793          	addi	a5,a5,-140 # ffffffc05025e7d0 <current_running1>
ffffffc050207864:	6398                	ld	a4,0(a5)
ffffffc050207866:	00056797          	auipc	a5,0x56
ffffffc05020786a:	3da78793          	addi	a5,a5,986 # ffffffc05025dc40 <current_running>
ffffffc05020786e:	e398                	sd	a4,0(a5)
ffffffc050207870:	d47ff0ef          	jal	ra,ffffffc0502075b6 <check_sleeping>
ffffffc050207874:	00056797          	auipc	a5,0x56
ffffffc050207878:	3cc78793          	addi	a5,a5,972 # ffffffc05025dc40 <current_running>
ffffffc05020787c:	639c                	ld	a5,0(a5)
ffffffc05020787e:	5fdc                	lw	a5,60(a5)
ffffffc050207880:	873e                	mv	a4,a5
ffffffc050207882:	4785                	li	a5,1
ffffffc050207884:	00f71963          	bne	a4,a5,ffffffc050207896 <do_scheduler+0x6a>
ffffffc050207888:	00056797          	auipc	a5,0x56
ffffffc05020788c:	3b878793          	addi	a5,a5,952 # ffffffc05025dc40 <current_running>
ffffffc050207890:	639c                	ld	a5,0(a5)
ffffffc050207892:	4709                	li	a4,2
ffffffc050207894:	dfd8                	sw	a4,60(a5)
ffffffc050207896:	00056797          	auipc	a5,0x56
ffffffc05020789a:	3aa78793          	addi	a5,a5,938 # ffffffc05025dc40 <current_running>
ffffffc05020789e:	639c                	ld	a5,0(a5)
ffffffc0502078a0:	fcf43423          	sd	a5,-56(s0)
ffffffc0502078a4:	fd043783          	ld	a5,-48(s0)
ffffffc0502078a8:	2781                	sext.w	a5,a5
ffffffc0502078aa:	2785                	addiw	a5,a5,1
ffffffc0502078ac:	2781                	sext.w	a5,a5
ffffffc0502078ae:	2781                	sext.w	a5,a5
ffffffc0502078b0:	85be                	mv	a1,a5
ffffffc0502078b2:	00006517          	auipc	a0,0x6
ffffffc0502078b6:	c7650513          	addi	a0,a0,-906 # ffffffc05020d528 <ready_queue>
ffffffc0502078ba:	598000ef          	jal	ra,ffffffc050207e52 <make_node_away>
ffffffc0502078be:	fca43023          	sd	a0,-64(s0)
ffffffc0502078c2:	fc043783          	ld	a5,-64(s0)
ffffffc0502078c6:	cbdd                	beqz	a5,ffffffc05020797c <do_scheduler+0x150>
ffffffc0502078c8:	fc043783          	ld	a5,-64(s0)
ffffffc0502078cc:	17c1                	addi	a5,a5,-16
ffffffc0502078ce:	fcf43c23          	sd	a5,-40(s0)
ffffffc0502078d2:	fd843783          	ld	a5,-40(s0)
ffffffc0502078d6:	5fdc                	lw	a5,60(a5)
ffffffc0502078d8:	873e                	mv	a4,a5
ffffffc0502078da:	478d                	li	a5,3
ffffffc0502078dc:	00f71563          	bne	a4,a5,ffffffc0502078e6 <do_scheduler+0xba>
ffffffc0502078e0:	f4dff0ef          	jal	ra,ffffffc05020782c <do_scheduler>
ffffffc0502078e4:	a41d                	j	ffffffc050207b0a <do_scheduler+0x2de>
ffffffc0502078e6:	00056797          	auipc	a5,0x56
ffffffc0502078ea:	35a78793          	addi	a5,a5,858 # ffffffc05025dc40 <current_running>
ffffffc0502078ee:	6398                	ld	a4,0(a5)
ffffffc0502078f0:	00006797          	auipc	a5,0x6
ffffffc0502078f4:	ac878793          	addi	a5,a5,-1336 # ffffffc05020d3b8 <pid0_pcb>
ffffffc0502078f8:	00f70d63          	beq	a4,a5,ffffffc050207912 <do_scheduler+0xe6>
ffffffc0502078fc:	00056797          	auipc	a5,0x56
ffffffc050207900:	34478793          	addi	a5,a5,836 # ffffffc05025dc40 <current_running>
ffffffc050207904:	6398                	ld	a4,0(a5)
ffffffc050207906:	00006797          	auipc	a5,0x6
ffffffc05020790a:	b6a78793          	addi	a5,a5,-1174 # ffffffc05020d470 <pid1_pcb>
ffffffc05020790e:	00f71c63          	bne	a4,a5,ffffffc050207926 <do_scheduler+0xfa>
ffffffc050207912:	c0bff0ef          	jal	ra,ffffffc05020751c <get_ticks>
ffffffc050207916:	872a                	mv	a4,a0
ffffffc050207918:	6791                	lui	a5,0x4
ffffffc05020791a:	a9878793          	addi	a5,a5,-1384 # 3a98 <boot_stack_top_base-0x501fe568>
ffffffc05020791e:	97ba                	add	a5,a5,a4
ffffffc050207920:	853e                	mv	a0,a5
ffffffc050207922:	a55fb0ef          	jal	ra,ffffffc050203376 <set_timer>
ffffffc050207926:	00056797          	auipc	a5,0x56
ffffffc05020792a:	31a78793          	addi	a5,a5,794 # ffffffc05025dc40 <current_running>
ffffffc05020792e:	6398                	ld	a4,0(a5)
ffffffc050207930:	00006797          	auipc	a5,0x6
ffffffc050207934:	a8878793          	addi	a5,a5,-1400 # ffffffc05020d3b8 <pid0_pcb>
ffffffc050207938:	14f70a63          	beq	a4,a5,ffffffc050207a8c <do_scheduler+0x260>
ffffffc05020793c:	00056797          	auipc	a5,0x56
ffffffc050207940:	30478793          	addi	a5,a5,772 # ffffffc05025dc40 <current_running>
ffffffc050207944:	6398                	ld	a4,0(a5)
ffffffc050207946:	00006797          	auipc	a5,0x6
ffffffc05020794a:	b2a78793          	addi	a5,a5,-1238 # ffffffc05020d470 <pid1_pcb>
ffffffc05020794e:	12f70f63          	beq	a4,a5,ffffffc050207a8c <do_scheduler+0x260>
ffffffc050207952:	00056797          	auipc	a5,0x56
ffffffc050207956:	2ee78793          	addi	a5,a5,750 # ffffffc05025dc40 <current_running>
ffffffc05020795a:	639c                	ld	a5,0(a5)
ffffffc05020795c:	5fdc                	lw	a5,60(a5)
ffffffc05020795e:	873e                	mv	a4,a5
ffffffc050207960:	4789                	li	a5,2
ffffffc050207962:	12f71563          	bne	a4,a5,ffffffc050207a8c <do_scheduler+0x260>
ffffffc050207966:	fc843783          	ld	a5,-56(s0)
ffffffc05020796a:	07c1                	addi	a5,a5,16
ffffffc05020796c:	85be                	mv	a1,a5
ffffffc05020796e:	00006517          	auipc	a0,0x6
ffffffc050207972:	bba50513          	addi	a0,a0,-1094 # ffffffc05020d528 <ready_queue>
ffffffc050207976:	396000ef          	jal	ra,ffffffc050207d0c <en_queue>
ffffffc05020797a:	aa09                	j	ffffffc050207a8c <do_scheduler+0x260>
ffffffc05020797c:	00056797          	auipc	a5,0x56
ffffffc050207980:	2c478793          	addi	a5,a5,708 # ffffffc05025dc40 <current_running>
ffffffc050207984:	6398                	ld	a4,0(a5)
ffffffc050207986:	00056797          	auipc	a5,0x56
ffffffc05020798a:	2c278793          	addi	a5,a5,706 # ffffffc05025dc48 <current_running0>
ffffffc05020798e:	639c                	ld	a5,0(a5)
ffffffc050207990:	04f71963          	bne	a4,a5,ffffffc0502079e2 <do_scheduler+0x1b6>
ffffffc050207994:	00057797          	auipc	a5,0x57
ffffffc050207998:	e3c78793          	addi	a5,a5,-452 # ffffffc05025e7d0 <current_running1>
ffffffc05020799c:	6398                	ld	a4,0(a5)
ffffffc05020799e:	00006797          	auipc	a5,0x6
ffffffc0502079a2:	ad278793          	addi	a5,a5,-1326 # ffffffc05020d470 <pid1_pcb>
ffffffc0502079a6:	02f71e63          	bne	a4,a5,ffffffc0502079e2 <do_scheduler+0x1b6>
ffffffc0502079aa:	00056797          	auipc	a5,0x56
ffffffc0502079ae:	29678793          	addi	a5,a5,662 # ffffffc05025dc40 <current_running>
ffffffc0502079b2:	6398                	ld	a4,0(a5)
ffffffc0502079b4:	00006797          	auipc	a5,0x6
ffffffc0502079b8:	a0478793          	addi	a5,a5,-1532 # ffffffc05020d3b8 <pid0_pcb>
ffffffc0502079bc:	02f70363          	beq	a4,a5,ffffffc0502079e2 <do_scheduler+0x1b6>
ffffffc0502079c0:	00006797          	auipc	a5,0x6
ffffffc0502079c4:	9f878793          	addi	a5,a5,-1544 # ffffffc05020d3b8 <pid0_pcb>
ffffffc0502079c8:	fcf43c23          	sd	a5,-40(s0)
ffffffc0502079cc:	fc843783          	ld	a5,-56(s0)
ffffffc0502079d0:	07c1                	addi	a5,a5,16
ffffffc0502079d2:	85be                	mv	a1,a5
ffffffc0502079d4:	00006517          	auipc	a0,0x6
ffffffc0502079d8:	b5450513          	addi	a0,a0,-1196 # ffffffc05020d528 <ready_queue>
ffffffc0502079dc:	330000ef          	jal	ra,ffffffc050207d0c <en_queue>
ffffffc0502079e0:	a075                	j	ffffffc050207a8c <do_scheduler+0x260>
ffffffc0502079e2:	00056797          	auipc	a5,0x56
ffffffc0502079e6:	25e78793          	addi	a5,a5,606 # ffffffc05025dc40 <current_running>
ffffffc0502079ea:	6398                	ld	a4,0(a5)
ffffffc0502079ec:	00057797          	auipc	a5,0x57
ffffffc0502079f0:	de478793          	addi	a5,a5,-540 # ffffffc05025e7d0 <current_running1>
ffffffc0502079f4:	639c                	ld	a5,0(a5)
ffffffc0502079f6:	04f71963          	bne	a4,a5,ffffffc050207a48 <do_scheduler+0x21c>
ffffffc0502079fa:	00056797          	auipc	a5,0x56
ffffffc0502079fe:	24e78793          	addi	a5,a5,590 # ffffffc05025dc48 <current_running0>
ffffffc050207a02:	6398                	ld	a4,0(a5)
ffffffc050207a04:	00006797          	auipc	a5,0x6
ffffffc050207a08:	9b478793          	addi	a5,a5,-1612 # ffffffc05020d3b8 <pid0_pcb>
ffffffc050207a0c:	02f71e63          	bne	a4,a5,ffffffc050207a48 <do_scheduler+0x21c>
ffffffc050207a10:	00056797          	auipc	a5,0x56
ffffffc050207a14:	23078793          	addi	a5,a5,560 # ffffffc05025dc40 <current_running>
ffffffc050207a18:	6398                	ld	a4,0(a5)
ffffffc050207a1a:	00006797          	auipc	a5,0x6
ffffffc050207a1e:	a5678793          	addi	a5,a5,-1450 # ffffffc05020d470 <pid1_pcb>
ffffffc050207a22:	02f70363          	beq	a4,a5,ffffffc050207a48 <do_scheduler+0x21c>
ffffffc050207a26:	00006797          	auipc	a5,0x6
ffffffc050207a2a:	a4a78793          	addi	a5,a5,-1462 # ffffffc05020d470 <pid1_pcb>
ffffffc050207a2e:	fcf43c23          	sd	a5,-40(s0)
ffffffc050207a32:	fc843783          	ld	a5,-56(s0)
ffffffc050207a36:	07c1                	addi	a5,a5,16
ffffffc050207a38:	85be                	mv	a1,a5
ffffffc050207a3a:	00006517          	auipc	a0,0x6
ffffffc050207a3e:	aee50513          	addi	a0,a0,-1298 # ffffffc05020d528 <ready_queue>
ffffffc050207a42:	2ca000ef          	jal	ra,ffffffc050207d0c <en_queue>
ffffffc050207a46:	a099                	j	ffffffc050207a8c <do_scheduler+0x260>
ffffffc050207a48:	00056797          	auipc	a5,0x56
ffffffc050207a4c:	1f878793          	addi	a5,a5,504 # ffffffc05025dc40 <current_running>
ffffffc050207a50:	639c                	ld	a5,0(a5)
ffffffc050207a52:	5fdc                	lw	a5,60(a5)
ffffffc050207a54:	873e                	mv	a4,a5
ffffffc050207a56:	4789                	li	a5,2
ffffffc050207a58:	00f71a63          	bne	a4,a5,ffffffc050207a6c <do_scheduler+0x240>
ffffffc050207a5c:	00056797          	auipc	a5,0x56
ffffffc050207a60:	1e478793          	addi	a5,a5,484 # ffffffc05025dc40 <current_running>
ffffffc050207a64:	639c                	ld	a5,0(a5)
ffffffc050207a66:	fcf43c23          	sd	a5,-40(s0)
ffffffc050207a6a:	a00d                	j	ffffffc050207a8c <do_scheduler+0x260>
ffffffc050207a6c:	fd043783          	ld	a5,-48(s0)
ffffffc050207a70:	eb81                	bnez	a5,ffffffc050207a80 <do_scheduler+0x254>
ffffffc050207a72:	00006797          	auipc	a5,0x6
ffffffc050207a76:	94678793          	addi	a5,a5,-1722 # ffffffc05020d3b8 <pid0_pcb>
ffffffc050207a7a:	fcf43c23          	sd	a5,-40(s0)
ffffffc050207a7e:	a039                	j	ffffffc050207a8c <do_scheduler+0x260>
ffffffc050207a80:	00006797          	auipc	a5,0x6
ffffffc050207a84:	9f078793          	addi	a5,a5,-1552 # ffffffc05020d470 <pid1_pcb>
ffffffc050207a88:	fcf43c23          	sd	a5,-40(s0)
ffffffc050207a8c:	fd843783          	ld	a5,-40(s0)
ffffffc050207a90:	4705                	li	a4,1
ffffffc050207a92:	dfd8                	sw	a4,60(a5)
ffffffc050207a94:	00056797          	auipc	a5,0x56
ffffffc050207a98:	1ac78793          	addi	a5,a5,428 # ffffffc05025dc40 <current_running>
ffffffc050207a9c:	fd843703          	ld	a4,-40(s0)
ffffffc050207aa0:	e398                	sd	a4,0(a5)
ffffffc050207aa2:	fd043783          	ld	a5,-48(s0)
ffffffc050207aa6:	eb89                	bnez	a5,ffffffc050207ab8 <do_scheduler+0x28c>
ffffffc050207aa8:	00056797          	auipc	a5,0x56
ffffffc050207aac:	1a078793          	addi	a5,a5,416 # ffffffc05025dc48 <current_running0>
ffffffc050207ab0:	fd843703          	ld	a4,-40(s0)
ffffffc050207ab4:	e398                	sd	a4,0(a5)
ffffffc050207ab6:	a801                	j	ffffffc050207ac6 <do_scheduler+0x29a>
ffffffc050207ab8:	00057797          	auipc	a5,0x57
ffffffc050207abc:	d1878793          	addi	a5,a5,-744 # ffffffc05025e7d0 <current_running1>
ffffffc050207ac0:	fd843703          	ld	a4,-40(s0)
ffffffc050207ac4:	e398                	sd	a4,0(a5)
ffffffc050207ac6:	fd043783          	ld	a5,-48(s0)
ffffffc050207aca:	0007871b          	sext.w	a4,a5
ffffffc050207ace:	fd843783          	ld	a5,-40(s0)
ffffffc050207ad2:	0ae7a823          	sw	a4,176(a5)
ffffffc050207ad6:	fd843783          	ld	a5,-40(s0)
ffffffc050207ada:	5f9c                	lw	a5,56(a5)
ffffffc050207adc:	0007849b          	sext.w	s1,a5
ffffffc050207ae0:	fd843783          	ld	a5,-40(s0)
ffffffc050207ae4:	7b9c                	ld	a5,48(a5)
ffffffc050207ae6:	853e                	mv	a0,a5
ffffffc050207ae8:	bffff0ef          	jal	ra,ffffffc0502076e6 <kva2pa>
ffffffc050207aec:	87aa                	mv	a5,a0
ffffffc050207aee:	83b1                	srli	a5,a5,0xc
ffffffc050207af0:	863e                	mv	a2,a5
ffffffc050207af2:	85a6                	mv	a1,s1
ffffffc050207af4:	4521                	li	a0,8
ffffffc050207af6:	babff0ef          	jal	ra,ffffffc0502076a0 <set_satp>
ffffffc050207afa:	b95ff0ef          	jal	ra,ffffffc05020768e <local_flush_tlb_all>
ffffffc050207afe:	fd843583          	ld	a1,-40(s0)
ffffffc050207b02:	fc843503          	ld	a0,-56(s0)
ffffffc050207b06:	d4efa0ef          	jal	ra,ffffffc050202054 <switch_to>
ffffffc050207b0a:	70e2                	ld	ra,56(sp)
ffffffc050207b0c:	7442                	ld	s0,48(sp)
ffffffc050207b0e:	74a2                	ld	s1,40(sp)
ffffffc050207b10:	6121                	addi	sp,sp,64
ffffffc050207b12:	8082                	ret

ffffffc050207b14 <do_sleep>:
ffffffc050207b14:	1101                	addi	sp,sp,-32
ffffffc050207b16:	ec06                	sd	ra,24(sp)
ffffffc050207b18:	e822                	sd	s0,16(sp)
ffffffc050207b1a:	1000                	addi	s0,sp,32
ffffffc050207b1c:	87aa                	mv	a5,a0
ffffffc050207b1e:	fef42623          	sw	a5,-20(s0)
ffffffc050207b22:	00056797          	auipc	a5,0x56
ffffffc050207b26:	11e78793          	addi	a5,a5,286 # ffffffc05025dc40 <current_running>
ffffffc050207b2a:	639c                	ld	a5,0(a5)
ffffffc050207b2c:	0207ae23          	sw	zero,60(a5)
ffffffc050207b30:	a13ff0ef          	jal	ra,ffffffc050207542 <get_timer>
ffffffc050207b34:	86aa                	mv	a3,a0
ffffffc050207b36:	fec46703          	lwu	a4,-20(s0)
ffffffc050207b3a:	00056797          	auipc	a5,0x56
ffffffc050207b3e:	10678793          	addi	a5,a5,262 # ffffffc05025dc40 <current_running>
ffffffc050207b42:	639c                	ld	a5,0(a5)
ffffffc050207b44:	9736                	add	a4,a4,a3
ffffffc050207b46:	e7b8                	sd	a4,72(a5)
ffffffc050207b48:	00056797          	auipc	a5,0x56
ffffffc050207b4c:	0f878793          	addi	a5,a5,248 # ffffffc05025dc40 <current_running>
ffffffc050207b50:	639c                	ld	a5,0(a5)
ffffffc050207b52:	07c1                	addi	a5,a5,16
ffffffc050207b54:	85be                	mv	a1,a5
ffffffc050207b56:	00006517          	auipc	a0,0x6
ffffffc050207b5a:	9e250513          	addi	a0,a0,-1566 # ffffffc05020d538 <sleep_queue>
ffffffc050207b5e:	1ae000ef          	jal	ra,ffffffc050207d0c <en_queue>
ffffffc050207b62:	ccbff0ef          	jal	ra,ffffffc05020782c <do_scheduler>
ffffffc050207b66:	0001                	nop
ffffffc050207b68:	60e2                	ld	ra,24(sp)
ffffffc050207b6a:	6442                	ld	s0,16(sp)
ffffffc050207b6c:	6105                	addi	sp,sp,32
ffffffc050207b6e:	8082                	ret

ffffffc050207b70 <do_block>:
ffffffc050207b70:	7179                	addi	sp,sp,-48
ffffffc050207b72:	f406                	sd	ra,40(sp)
ffffffc050207b74:	f022                	sd	s0,32(sp)
ffffffc050207b76:	1800                	addi	s0,sp,48
ffffffc050207b78:	fca43c23          	sd	a0,-40(s0)
ffffffc050207b7c:	fcb43823          	sd	a1,-48(s0)
ffffffc050207b80:	fd043783          	ld	a5,-48(s0)
ffffffc050207b84:	17c1                	addi	a5,a5,-16
ffffffc050207b86:	fef43423          	sd	a5,-24(s0)
ffffffc050207b8a:	fe843783          	ld	a5,-24(s0)
ffffffc050207b8e:	0207ae23          	sw	zero,60(a5)
ffffffc050207b92:	fd043583          	ld	a1,-48(s0)
ffffffc050207b96:	fd843503          	ld	a0,-40(s0)
ffffffc050207b9a:	172000ef          	jal	ra,ffffffc050207d0c <en_queue>
ffffffc050207b9e:	c8fff0ef          	jal	ra,ffffffc05020782c <do_scheduler>
ffffffc050207ba2:	0001                	nop
ffffffc050207ba4:	70a2                	ld	ra,40(sp)
ffffffc050207ba6:	7402                	ld	s0,32(sp)
ffffffc050207ba8:	6145                	addi	sp,sp,48
ffffffc050207baa:	8082                	ret

ffffffc050207bac <do_unblock>:
ffffffc050207bac:	7179                	addi	sp,sp,-48
ffffffc050207bae:	f406                	sd	ra,40(sp)
ffffffc050207bb0:	f022                	sd	s0,32(sp)
ffffffc050207bb2:	1800                	addi	s0,sp,48
ffffffc050207bb4:	fca43c23          	sd	a0,-40(s0)
ffffffc050207bb8:	fd843503          	ld	a0,-40(s0)
ffffffc050207bbc:	0ca000ef          	jal	ra,ffffffc050207c86 <de_queue>
ffffffc050207bc0:	fea43423          	sd	a0,-24(s0)
ffffffc050207bc4:	fe843783          	ld	a5,-24(s0)
ffffffc050207bc8:	c39d                	beqz	a5,ffffffc050207bee <do_unblock+0x42>
ffffffc050207bca:	fe843783          	ld	a5,-24(s0)
ffffffc050207bce:	17c1                	addi	a5,a5,-16
ffffffc050207bd0:	fef43023          	sd	a5,-32(s0)
ffffffc050207bd4:	fe043783          	ld	a5,-32(s0)
ffffffc050207bd8:	4709                	li	a4,2
ffffffc050207bda:	dfd8                	sw	a4,60(a5)
ffffffc050207bdc:	fe843583          	ld	a1,-24(s0)
ffffffc050207be0:	00006517          	auipc	a0,0x6
ffffffc050207be4:	94850513          	addi	a0,a0,-1720 # ffffffc05020d528 <ready_queue>
ffffffc050207be8:	124000ef          	jal	ra,ffffffc050207d0c <en_queue>
ffffffc050207bec:	a011                	j	ffffffc050207bf0 <do_unblock+0x44>
ffffffc050207bee:	0001                	nop
ffffffc050207bf0:	70a2                	ld	ra,40(sp)
ffffffc050207bf2:	7402                	ld	s0,32(sp)
ffffffc050207bf4:	6145                	addi	sp,sp,48
ffffffc050207bf6:	8082                	ret

ffffffc050207bf8 <do_all_unblock>:
ffffffc050207bf8:	1101                	addi	sp,sp,-32
ffffffc050207bfa:	ec06                	sd	ra,24(sp)
ffffffc050207bfc:	e822                	sd	s0,16(sp)
ffffffc050207bfe:	1000                	addi	s0,sp,32
ffffffc050207c00:	fea43423          	sd	a0,-24(s0)
ffffffc050207c04:	a029                	j	ffffffc050207c0e <do_all_unblock+0x16>
ffffffc050207c06:	fe843503          	ld	a0,-24(s0)
ffffffc050207c0a:	fa3ff0ef          	jal	ra,ffffffc050207bac <do_unblock>
ffffffc050207c0e:	fe843503          	ld	a0,-24(s0)
ffffffc050207c12:	18e000ef          	jal	ra,ffffffc050207da0 <isempyt_queue>
ffffffc050207c16:	87aa                	mv	a5,a0
ffffffc050207c18:	d7fd                	beqz	a5,ffffffc050207c06 <do_all_unblock+0xe>
ffffffc050207c1a:	0001                	nop
ffffffc050207c1c:	60e2                	ld	ra,24(sp)
ffffffc050207c1e:	6442                	ld	s0,16(sp)
ffffffc050207c20:	6105                	addi	sp,sp,32
ffffffc050207c22:	8082                	ret

ffffffc050207c24 <init_ready_queue>:
ffffffc050207c24:	7179                	addi	sp,sp,-48
ffffffc050207c26:	f406                	sd	ra,40(sp)
ffffffc050207c28:	f022                	sd	s0,32(sp)
ffffffc050207c2a:	1800                	addi	s0,sp,48
ffffffc050207c2c:	fca43c23          	sd	a0,-40(s0)
ffffffc050207c30:	87ae                	mv	a5,a1
ffffffc050207c32:	fcf42a23          	sw	a5,-44(s0)
ffffffc050207c36:	fe042623          	sw	zero,-20(s0)
ffffffc050207c3a:	a805                	j	ffffffc050207c6a <init_ready_queue+0x46>
ffffffc050207c3c:	fec42703          	lw	a4,-20(s0)
ffffffc050207c40:	0b800793          	li	a5,184
ffffffc050207c44:	02f707b3          	mul	a5,a4,a5
ffffffc050207c48:	01078713          	addi	a4,a5,16
ffffffc050207c4c:	00056797          	auipc	a5,0x56
ffffffc050207c50:	00478793          	addi	a5,a5,4 # ffffffc05025dc50 <pcb>
ffffffc050207c54:	97ba                	add	a5,a5,a4
ffffffc050207c56:	85be                	mv	a1,a5
ffffffc050207c58:	fd843503          	ld	a0,-40(s0)
ffffffc050207c5c:	0b0000ef          	jal	ra,ffffffc050207d0c <en_queue>
ffffffc050207c60:	fec42783          	lw	a5,-20(s0)
ffffffc050207c64:	2785                	addiw	a5,a5,1
ffffffc050207c66:	fef42623          	sw	a5,-20(s0)
ffffffc050207c6a:	fec42703          	lw	a4,-20(s0)
ffffffc050207c6e:	fd442783          	lw	a5,-44(s0)
ffffffc050207c72:	2701                	sext.w	a4,a4
ffffffc050207c74:	2781                	sext.w	a5,a5
ffffffc050207c76:	fcf743e3          	blt	a4,a5,ffffffc050207c3c <init_ready_queue+0x18>
ffffffc050207c7a:	0001                	nop
ffffffc050207c7c:	0001                	nop
ffffffc050207c7e:	70a2                	ld	ra,40(sp)
ffffffc050207c80:	7402                	ld	s0,32(sp)
ffffffc050207c82:	6145                	addi	sp,sp,48
ffffffc050207c84:	8082                	ret

ffffffc050207c86 <de_queue>:
ffffffc050207c86:	7139                	addi	sp,sp,-64
ffffffc050207c88:	fc06                	sd	ra,56(sp)
ffffffc050207c8a:	f822                	sd	s0,48(sp)
ffffffc050207c8c:	0080                	addi	s0,sp,64
ffffffc050207c8e:	fca43423          	sd	a0,-56(s0)
ffffffc050207c92:	fc843783          	ld	a5,-56(s0)
ffffffc050207c96:	ef89                	bnez	a5,ffffffc050207cb0 <de_queue+0x2a>
ffffffc050207c98:	00005617          	auipc	a2,0x5
ffffffc050207c9c:	38860613          	addi	a2,a2,904 # ffffffc05020d020 <__FUNCTION__.1608>
ffffffc050207ca0:	0c400593          	li	a1,196
ffffffc050207ca4:	00005517          	auipc	a0,0x5
ffffffc050207ca8:	1ec50513          	addi	a0,a0,492 # ffffffc05020ce90 <__FUNCTION__.1531+0x38>
ffffffc050207cac:	9b1ff0ef          	jal	ra,ffffffc05020765c <_panic>
ffffffc050207cb0:	fc843783          	ld	a5,-56(s0)
ffffffc050207cb4:	679c                	ld	a5,8(a5)
ffffffc050207cb6:	fef43423          	sd	a5,-24(s0)
ffffffc050207cba:	fc843783          	ld	a5,-56(s0)
ffffffc050207cbe:	639c                	ld	a5,0(a5)
ffffffc050207cc0:	fef43023          	sd	a5,-32(s0)
ffffffc050207cc4:	fe843703          	ld	a4,-24(s0)
ffffffc050207cc8:	fc843783          	ld	a5,-56(s0)
ffffffc050207ccc:	00f71a63          	bne	a4,a5,ffffffc050207ce0 <de_queue+0x5a>
ffffffc050207cd0:	fe043703          	ld	a4,-32(s0)
ffffffc050207cd4:	fc843783          	ld	a5,-56(s0)
ffffffc050207cd8:	00f71463          	bne	a4,a5,ffffffc050207ce0 <de_queue+0x5a>
ffffffc050207cdc:	4781                	li	a5,0
ffffffc050207cde:	a015                	j	ffffffc050207d02 <de_queue+0x7c>
ffffffc050207ce0:	fe043783          	ld	a5,-32(s0)
ffffffc050207ce4:	639c                	ld	a5,0(a5)
ffffffc050207ce6:	fcf43c23          	sd	a5,-40(s0)
ffffffc050207cea:	fc843783          	ld	a5,-56(s0)
ffffffc050207cee:	fd843703          	ld	a4,-40(s0)
ffffffc050207cf2:	e398                	sd	a4,0(a5)
ffffffc050207cf4:	fd843783          	ld	a5,-40(s0)
ffffffc050207cf8:	fc843703          	ld	a4,-56(s0)
ffffffc050207cfc:	e798                	sd	a4,8(a5)
ffffffc050207cfe:	fe043783          	ld	a5,-32(s0)
ffffffc050207d02:	853e                	mv	a0,a5
ffffffc050207d04:	70e2                	ld	ra,56(sp)
ffffffc050207d06:	7442                	ld	s0,48(sp)
ffffffc050207d08:	6121                	addi	sp,sp,64
ffffffc050207d0a:	8082                	ret

ffffffc050207d0c <en_queue>:
ffffffc050207d0c:	7179                	addi	sp,sp,-48
ffffffc050207d0e:	f422                	sd	s0,40(sp)
ffffffc050207d10:	1800                	addi	s0,sp,48
ffffffc050207d12:	fca43c23          	sd	a0,-40(s0)
ffffffc050207d16:	fcb43823          	sd	a1,-48(s0)
ffffffc050207d1a:	fd843783          	ld	a5,-40(s0)
ffffffc050207d1e:	639c                	ld	a5,0(a5)
ffffffc050207d20:	fef43423          	sd	a5,-24(s0)
ffffffc050207d24:	fd843783          	ld	a5,-40(s0)
ffffffc050207d28:	679c                	ld	a5,8(a5)
ffffffc050207d2a:	fef43023          	sd	a5,-32(s0)
ffffffc050207d2e:	fe843703          	ld	a4,-24(s0)
ffffffc050207d32:	fd843783          	ld	a5,-40(s0)
ffffffc050207d36:	02f71d63          	bne	a4,a5,ffffffc050207d70 <en_queue+0x64>
ffffffc050207d3a:	fe043703          	ld	a4,-32(s0)
ffffffc050207d3e:	fd843783          	ld	a5,-40(s0)
ffffffc050207d42:	02f71763          	bne	a4,a5,ffffffc050207d70 <en_queue+0x64>
ffffffc050207d46:	fd843783          	ld	a5,-40(s0)
ffffffc050207d4a:	fd043703          	ld	a4,-48(s0)
ffffffc050207d4e:	e798                	sd	a4,8(a5)
ffffffc050207d50:	fd843783          	ld	a5,-40(s0)
ffffffc050207d54:	fd043703          	ld	a4,-48(s0)
ffffffc050207d58:	e398                	sd	a4,0(a5)
ffffffc050207d5a:	fd043783          	ld	a5,-48(s0)
ffffffc050207d5e:	fd843703          	ld	a4,-40(s0)
ffffffc050207d62:	e798                	sd	a4,8(a5)
ffffffc050207d64:	fd043783          	ld	a5,-48(s0)
ffffffc050207d68:	fd843703          	ld	a4,-40(s0)
ffffffc050207d6c:	e398                	sd	a4,0(a5)
ffffffc050207d6e:	a035                	j	ffffffc050207d9a <en_queue+0x8e>
ffffffc050207d70:	fd843783          	ld	a5,-40(s0)
ffffffc050207d74:	fd043703          	ld	a4,-48(s0)
ffffffc050207d78:	e798                	sd	a4,8(a5)
ffffffc050207d7a:	fd043783          	ld	a5,-48(s0)
ffffffc050207d7e:	fd843703          	ld	a4,-40(s0)
ffffffc050207d82:	e398                	sd	a4,0(a5)
ffffffc050207d84:	fd043783          	ld	a5,-48(s0)
ffffffc050207d88:	fe043703          	ld	a4,-32(s0)
ffffffc050207d8c:	e798                	sd	a4,8(a5)
ffffffc050207d8e:	fe043783          	ld	a5,-32(s0)
ffffffc050207d92:	fd043703          	ld	a4,-48(s0)
ffffffc050207d96:	e398                	sd	a4,0(a5)
ffffffc050207d98:	0001                	nop
ffffffc050207d9a:	7422                	ld	s0,40(sp)
ffffffc050207d9c:	6145                	addi	sp,sp,48
ffffffc050207d9e:	8082                	ret

ffffffc050207da0 <isempyt_queue>:
ffffffc050207da0:	1101                	addi	sp,sp,-32
ffffffc050207da2:	ec22                	sd	s0,24(sp)
ffffffc050207da4:	1000                	addi	s0,sp,32
ffffffc050207da6:	fea43423          	sd	a0,-24(s0)
ffffffc050207daa:	fe843783          	ld	a5,-24(s0)
ffffffc050207dae:	639c                	ld	a5,0(a5)
ffffffc050207db0:	fe843703          	ld	a4,-24(s0)
ffffffc050207db4:	00f71b63          	bne	a4,a5,ffffffc050207dca <isempyt_queue+0x2a>
ffffffc050207db8:	fe843783          	ld	a5,-24(s0)
ffffffc050207dbc:	679c                	ld	a5,8(a5)
ffffffc050207dbe:	fe843703          	ld	a4,-24(s0)
ffffffc050207dc2:	00f71463          	bne	a4,a5,ffffffc050207dca <isempyt_queue+0x2a>
ffffffc050207dc6:	4785                	li	a5,1
ffffffc050207dc8:	a011                	j	ffffffc050207dcc <isempyt_queue+0x2c>
ffffffc050207dca:	4781                	li	a5,0
ffffffc050207dcc:	853e                	mv	a0,a5
ffffffc050207dce:	6462                	ld	s0,24(sp)
ffffffc050207dd0:	6105                	addi	sp,sp,32
ffffffc050207dd2:	8082                	ret

ffffffc050207dd4 <seek_mask_queue>:
ffffffc050207dd4:	7139                	addi	sp,sp,-64
ffffffc050207dd6:	fc22                	sd	s0,56(sp)
ffffffc050207dd8:	0080                	addi	s0,sp,64
ffffffc050207dda:	fca43423          	sd	a0,-56(s0)
ffffffc050207dde:	87ae                	mv	a5,a1
ffffffc050207de0:	fcf42223          	sw	a5,-60(s0)
ffffffc050207de4:	fc843783          	ld	a5,-56(s0)
ffffffc050207de8:	fef43023          	sd	a5,-32(s0)
ffffffc050207dec:	fc843783          	ld	a5,-56(s0)
ffffffc050207df0:	fef43423          	sd	a5,-24(s0)
ffffffc050207df4:	fe843783          	ld	a5,-24(s0)
ffffffc050207df8:	639c                	ld	a5,0(a5)
ffffffc050207dfa:	fef43423          	sd	a5,-24(s0)
ffffffc050207dfe:	fe843703          	ld	a4,-24(s0)
ffffffc050207e02:	fe043783          	ld	a5,-32(s0)
ffffffc050207e06:	00f71463          	bne	a4,a5,ffffffc050207e0e <seek_mask_queue+0x3a>
ffffffc050207e0a:	4781                	li	a5,0
ffffffc050207e0c:	a83d                	j	ffffffc050207e4a <seek_mask_queue+0x76>
ffffffc050207e0e:	fe843783          	ld	a5,-24(s0)
ffffffc050207e12:	17c1                	addi	a5,a5,-16
ffffffc050207e14:	fcf43c23          	sd	a5,-40(s0)
ffffffc050207e18:	fd843783          	ld	a5,-40(s0)
ffffffc050207e1c:	0b47a783          	lw	a5,180(a5)
ffffffc050207e20:	873e                	mv	a4,a5
ffffffc050207e22:	478d                	li	a5,3
ffffffc050207e24:	00f70b63          	beq	a4,a5,ffffffc050207e3a <seek_mask_queue+0x66>
ffffffc050207e28:	fd843783          	ld	a5,-40(s0)
ffffffc050207e2c:	0b47a703          	lw	a4,180(a5)
ffffffc050207e30:	fc442783          	lw	a5,-60(s0)
ffffffc050207e34:	2781                	sext.w	a5,a5
ffffffc050207e36:	fae79fe3          	bne	a5,a4,ffffffc050207df4 <seek_mask_queue+0x20>
ffffffc050207e3a:	fd843783          	ld	a5,-40(s0)
ffffffc050207e3e:	5fdc                	lw	a5,60(a5)
ffffffc050207e40:	873e                	mv	a4,a5
ffffffc050207e42:	4789                	li	a5,2
ffffffc050207e44:	faf718e3          	bne	a4,a5,ffffffc050207df4 <seek_mask_queue+0x20>
ffffffc050207e48:	4785                	li	a5,1
ffffffc050207e4a:	853e                	mv	a0,a5
ffffffc050207e4c:	7462                	ld	s0,56(sp)
ffffffc050207e4e:	6121                	addi	sp,sp,64
ffffffc050207e50:	8082                	ret

ffffffc050207e52 <make_node_away>:
ffffffc050207e52:	711d                	addi	sp,sp,-96
ffffffc050207e54:	ec86                	sd	ra,88(sp)
ffffffc050207e56:	e8a2                	sd	s0,80(sp)
ffffffc050207e58:	1080                	addi	s0,sp,96
ffffffc050207e5a:	faa43423          	sd	a0,-88(s0)
ffffffc050207e5e:	87ae                	mv	a5,a1
ffffffc050207e60:	faf42223          	sw	a5,-92(s0)
ffffffc050207e64:	fa843783          	ld	a5,-88(s0)
ffffffc050207e68:	fef43023          	sd	a5,-32(s0)
ffffffc050207e6c:	fa843783          	ld	a5,-88(s0)
ffffffc050207e70:	fef43423          	sd	a5,-24(s0)
ffffffc050207e74:	fe843783          	ld	a5,-24(s0)
ffffffc050207e78:	639c                	ld	a5,0(a5)
ffffffc050207e7a:	fef43423          	sd	a5,-24(s0)
ffffffc050207e7e:	fe843703          	ld	a4,-24(s0)
ffffffc050207e82:	fe043783          	ld	a5,-32(s0)
ffffffc050207e86:	00f71463          	bne	a4,a5,ffffffc050207e8e <make_node_away+0x3c>
ffffffc050207e8a:	4781                	li	a5,0
ffffffc050207e8c:	a04d                	j	ffffffc050207f2e <make_node_away+0xdc>
ffffffc050207e8e:	fe843783          	ld	a5,-24(s0)
ffffffc050207e92:	17c1                	addi	a5,a5,-16
ffffffc050207e94:	fcf43c23          	sd	a5,-40(s0)
ffffffc050207e98:	fd843783          	ld	a5,-40(s0)
ffffffc050207e9c:	5fdc                	lw	a5,60(a5)
ffffffc050207e9e:	873e                	mv	a4,a5
ffffffc050207ea0:	478d                	li	a5,3
ffffffc050207ea2:	02f71f63          	bne	a4,a5,ffffffc050207ee0 <make_node_away+0x8e>
ffffffc050207ea6:	fe843783          	ld	a5,-24(s0)
ffffffc050207eaa:	639c                	ld	a5,0(a5)
ffffffc050207eac:	fcf43023          	sd	a5,-64(s0)
ffffffc050207eb0:	fe843783          	ld	a5,-24(s0)
ffffffc050207eb4:	679c                	ld	a5,8(a5)
ffffffc050207eb6:	faf43c23          	sd	a5,-72(s0)
ffffffc050207eba:	fb843783          	ld	a5,-72(s0)
ffffffc050207ebe:	fc043703          	ld	a4,-64(s0)
ffffffc050207ec2:	e398                	sd	a4,0(a5)
ffffffc050207ec4:	fc043783          	ld	a5,-64(s0)
ffffffc050207ec8:	fb843703          	ld	a4,-72(s0)
ffffffc050207ecc:	e798                	sd	a4,8(a5)
ffffffc050207ece:	fa442783          	lw	a5,-92(s0)
ffffffc050207ed2:	85be                	mv	a1,a5
ffffffc050207ed4:	fe043503          	ld	a0,-32(s0)
ffffffc050207ed8:	f7bff0ef          	jal	ra,ffffffc050207e52 <make_node_away>
ffffffc050207edc:	87aa                	mv	a5,a0
ffffffc050207ede:	a881                	j	ffffffc050207f2e <make_node_away+0xdc>
ffffffc050207ee0:	fd843783          	ld	a5,-40(s0)
ffffffc050207ee4:	0b47a783          	lw	a5,180(a5)
ffffffc050207ee8:	873e                	mv	a4,a5
ffffffc050207eea:	478d                	li	a5,3
ffffffc050207eec:	00f70b63          	beq	a4,a5,ffffffc050207f02 <make_node_away+0xb0>
ffffffc050207ef0:	fd843783          	ld	a5,-40(s0)
ffffffc050207ef4:	0b47a703          	lw	a4,180(a5)
ffffffc050207ef8:	fa442783          	lw	a5,-92(s0)
ffffffc050207efc:	2781                	sext.w	a5,a5
ffffffc050207efe:	f6e79be3          	bne	a5,a4,ffffffc050207e74 <make_node_away+0x22>
ffffffc050207f02:	fe843783          	ld	a5,-24(s0)
ffffffc050207f06:	639c                	ld	a5,0(a5)
ffffffc050207f08:	fcf43823          	sd	a5,-48(s0)
ffffffc050207f0c:	fe843783          	ld	a5,-24(s0)
ffffffc050207f10:	679c                	ld	a5,8(a5)
ffffffc050207f12:	fcf43423          	sd	a5,-56(s0)
ffffffc050207f16:	fc843783          	ld	a5,-56(s0)
ffffffc050207f1a:	fd043703          	ld	a4,-48(s0)
ffffffc050207f1e:	e398                	sd	a4,0(a5)
ffffffc050207f20:	fd043783          	ld	a5,-48(s0)
ffffffc050207f24:	fc843703          	ld	a4,-56(s0)
ffffffc050207f28:	e798                	sd	a4,8(a5)
ffffffc050207f2a:	fe843783          	ld	a5,-24(s0)
ffffffc050207f2e:	853e                	mv	a0,a5
ffffffc050207f30:	60e6                	ld	ra,88(sp)
ffffffc050207f32:	6446                	ld	s0,80(sp)
ffffffc050207f34:	6125                	addi	sp,sp,96
ffffffc050207f36:	8082                	ret

ffffffc050207f38 <do_process_show>:
ffffffc050207f38:	7179                	addi	sp,sp,-48
ffffffc050207f3a:	f406                	sd	ra,40(sp)
ffffffc050207f3c:	f022                	sd	s0,32(sp)
ffffffc050207f3e:	1800                	addi	s0,sp,48
ffffffc050207f40:	00005517          	auipc	a0,0x5
ffffffc050207f44:	f6850513          	addi	a0,a0,-152 # ffffffc05020cea8 <__FUNCTION__.1531+0x50>
ffffffc050207f48:	4a2040ef          	jal	ra,ffffffc05020c3ea <printk>
ffffffc050207f4c:	fe042623          	sw	zero,-20(s0)
ffffffc050207f50:	aa61                	j	ffffffc0502080e8 <do_process_show+0x1b0>
ffffffc050207f52:	00056717          	auipc	a4,0x56
ffffffc050207f56:	cfe70713          	addi	a4,a4,-770 # ffffffc05025dc50 <pcb>
ffffffc050207f5a:	fec42683          	lw	a3,-20(s0)
ffffffc050207f5e:	0b800793          	li	a5,184
ffffffc050207f62:	02f687b3          	mul	a5,a3,a5
ffffffc050207f66:	97ba                	add	a5,a5,a4
ffffffc050207f68:	5fdc                	lw	a5,60(a5)
ffffffc050207f6a:	86be                	mv	a3,a5
ffffffc050207f6c:	4711                	li	a4,4
ffffffc050207f6e:	16d76763          	bltu	a4,a3,ffffffc0502080dc <do_process_show+0x1a4>
ffffffc050207f72:	00279713          	slli	a4,a5,0x2
ffffffc050207f76:	00005797          	auipc	a5,0x5
ffffffc050207f7a:	05a78793          	addi	a5,a5,90 # ffffffc05020cfd0 <__FUNCTION__.1531+0x178>
ffffffc050207f7e:	97ba                	add	a5,a5,a4
ffffffc050207f80:	439c                	lw	a5,0(a5)
ffffffc050207f82:	0007871b          	sext.w	a4,a5
ffffffc050207f86:	00005797          	auipc	a5,0x5
ffffffc050207f8a:	04a78793          	addi	a5,a5,74 # ffffffc05020cfd0 <__FUNCTION__.1531+0x178>
ffffffc050207f8e:	97ba                	add	a5,a5,a4
ffffffc050207f90:	8782                	jr	a5
ffffffc050207f92:	00005797          	auipc	a5,0x5
ffffffc050207f96:	f2e78793          	addi	a5,a5,-210 # ffffffc05020cec0 <__FUNCTION__.1531+0x68>
ffffffc050207f9a:	fef43023          	sd	a5,-32(s0)
ffffffc050207f9e:	a82d                	j	ffffffc050207fd8 <do_process_show+0xa0>
ffffffc050207fa0:	00005797          	auipc	a5,0x5
ffffffc050207fa4:	f3078793          	addi	a5,a5,-208 # ffffffc05020ced0 <__FUNCTION__.1531+0x78>
ffffffc050207fa8:	fef43023          	sd	a5,-32(s0)
ffffffc050207fac:	a035                	j	ffffffc050207fd8 <do_process_show+0xa0>
ffffffc050207fae:	00005797          	auipc	a5,0x5
ffffffc050207fb2:	f3278793          	addi	a5,a5,-206 # ffffffc05020cee0 <__FUNCTION__.1531+0x88>
ffffffc050207fb6:	fef43023          	sd	a5,-32(s0)
ffffffc050207fba:	a839                	j	ffffffc050207fd8 <do_process_show+0xa0>
ffffffc050207fbc:	00005797          	auipc	a5,0x5
ffffffc050207fc0:	f3478793          	addi	a5,a5,-204 # ffffffc05020cef0 <__FUNCTION__.1531+0x98>
ffffffc050207fc4:	fef43023          	sd	a5,-32(s0)
ffffffc050207fc8:	aa19                	j	ffffffc0502080de <do_process_show+0x1a6>
ffffffc050207fca:	00005797          	auipc	a5,0x5
ffffffc050207fce:	f3678793          	addi	a5,a5,-202 # ffffffc05020cf00 <__FUNCTION__.1531+0xa8>
ffffffc050207fd2:	fef43023          	sd	a5,-32(s0)
ffffffc050207fd6:	a221                	j	ffffffc0502080de <do_process_show+0x1a6>
ffffffc050207fd8:	00056717          	auipc	a4,0x56
ffffffc050207fdc:	c7870713          	addi	a4,a4,-904 # ffffffc05025dc50 <pcb>
ffffffc050207fe0:	fec42683          	lw	a3,-20(s0)
ffffffc050207fe4:	0b800793          	li	a5,184
ffffffc050207fe8:	02f687b3          	mul	a5,a3,a5
ffffffc050207fec:	97ba                	add	a5,a5,a4
ffffffc050207fee:	5fdc                	lw	a5,60(a5)
ffffffc050207ff0:	873e                	mv	a4,a5
ffffffc050207ff2:	4785                	li	a5,1
ffffffc050207ff4:	08f71363          	bne	a4,a5,ffffffc05020807a <do_process_show+0x142>
ffffffc050207ff8:	00056717          	auipc	a4,0x56
ffffffc050207ffc:	c5870713          	addi	a4,a4,-936 # ffffffc05025dc50 <pcb>
ffffffc050208000:	fec42683          	lw	a3,-20(s0)
ffffffc050208004:	0b800793          	li	a5,184
ffffffc050208008:	02f687b3          	mul	a5,a3,a5
ffffffc05020800c:	97ba                	add	a5,a5,a4
ffffffc05020800e:	5f90                	lw	a2,56(a5)
ffffffc050208010:	00056717          	auipc	a4,0x56
ffffffc050208014:	c4070713          	addi	a4,a4,-960 # ffffffc05025dc50 <pcb>
ffffffc050208018:	fec42683          	lw	a3,-20(s0)
ffffffc05020801c:	0b800793          	li	a5,184
ffffffc050208020:	02f687b3          	mul	a5,a3,a5
ffffffc050208024:	97ba                	add	a5,a5,a4
ffffffc050208026:	0b47a503          	lw	a0,180(a5)
ffffffc05020802a:	00056717          	auipc	a4,0x56
ffffffc05020802e:	c2670713          	addi	a4,a4,-986 # ffffffc05025dc50 <pcb>
ffffffc050208032:	fec42683          	lw	a3,-20(s0)
ffffffc050208036:	0b800793          	li	a5,184
ffffffc05020803a:	02f687b3          	mul	a5,a3,a5
ffffffc05020803e:	97ba                	add	a5,a5,a4
ffffffc050208040:	0687b883          	ld	a7,104(a5)
ffffffc050208044:	00056717          	auipc	a4,0x56
ffffffc050208048:	c0c70713          	addi	a4,a4,-1012 # ffffffc05025dc50 <pcb>
ffffffc05020804c:	fec42683          	lw	a3,-20(s0)
ffffffc050208050:	0b800793          	li	a5,184
ffffffc050208054:	02f687b3          	mul	a5,a3,a5
ffffffc050208058:	97ba                	add	a5,a5,a4
ffffffc05020805a:	0b07a783          	lw	a5,176(a5)
ffffffc05020805e:	fec42583          	lw	a1,-20(s0)
ffffffc050208062:	883e                	mv	a6,a5
ffffffc050208064:	87c6                	mv	a5,a7
ffffffc050208066:	872a                	mv	a4,a0
ffffffc050208068:	fe043683          	ld	a3,-32(s0)
ffffffc05020806c:	00005517          	auipc	a0,0x5
ffffffc050208070:	ea450513          	addi	a0,a0,-348 # ffffffc05020cf10 <__FUNCTION__.1531+0xb8>
ffffffc050208074:	376040ef          	jal	ra,ffffffc05020c3ea <printk>
ffffffc050208078:	a09d                	j	ffffffc0502080de <do_process_show+0x1a6>
ffffffc05020807a:	00056717          	auipc	a4,0x56
ffffffc05020807e:	bd670713          	addi	a4,a4,-1066 # ffffffc05025dc50 <pcb>
ffffffc050208082:	fec42683          	lw	a3,-20(s0)
ffffffc050208086:	0b800793          	li	a5,184
ffffffc05020808a:	02f687b3          	mul	a5,a3,a5
ffffffc05020808e:	97ba                	add	a5,a5,a4
ffffffc050208090:	5f90                	lw	a2,56(a5)
ffffffc050208092:	00056717          	auipc	a4,0x56
ffffffc050208096:	bbe70713          	addi	a4,a4,-1090 # ffffffc05025dc50 <pcb>
ffffffc05020809a:	fec42683          	lw	a3,-20(s0)
ffffffc05020809e:	0b800793          	li	a5,184
ffffffc0502080a2:	02f687b3          	mul	a5,a3,a5
ffffffc0502080a6:	97ba                	add	a5,a5,a4
ffffffc0502080a8:	0b47a503          	lw	a0,180(a5)
ffffffc0502080ac:	00056717          	auipc	a4,0x56
ffffffc0502080b0:	ba470713          	addi	a4,a4,-1116 # ffffffc05025dc50 <pcb>
ffffffc0502080b4:	fec42683          	lw	a3,-20(s0)
ffffffc0502080b8:	0b800793          	li	a5,184
ffffffc0502080bc:	02f687b3          	mul	a5,a3,a5
ffffffc0502080c0:	97ba                	add	a5,a5,a4
ffffffc0502080c2:	77bc                	ld	a5,104(a5)
ffffffc0502080c4:	fec42583          	lw	a1,-20(s0)
ffffffc0502080c8:	872a                	mv	a4,a0
ffffffc0502080ca:	fe043683          	ld	a3,-32(s0)
ffffffc0502080ce:	00005517          	auipc	a0,0x5
ffffffc0502080d2:	e8a50513          	addi	a0,a0,-374 # ffffffc05020cf58 <__FUNCTION__.1531+0x100>
ffffffc0502080d6:	314040ef          	jal	ra,ffffffc05020c3ea <printk>
ffffffc0502080da:	a011                	j	ffffffc0502080de <do_process_show+0x1a6>
ffffffc0502080dc:	0001                	nop
ffffffc0502080de:	fec42783          	lw	a5,-20(s0)
ffffffc0502080e2:	2785                	addiw	a5,a5,1
ffffffc0502080e4:	fef42623          	sw	a5,-20(s0)
ffffffc0502080e8:	fec42783          	lw	a5,-20(s0)
ffffffc0502080ec:	0007871b          	sext.w	a4,a5
ffffffc0502080f0:	47bd                	li	a5,15
ffffffc0502080f2:	e6e7d0e3          	bge	a5,a4,ffffffc050207f52 <do_process_show+0x1a>
ffffffc0502080f6:	00005797          	auipc	a5,0x5
ffffffc0502080fa:	52e78793          	addi	a5,a5,1326 # ffffffc05020d624 <used_ppage>
ffffffc0502080fe:	4394                	lw	a3,0(a5)
ffffffc050208100:	00005797          	auipc	a5,0x5
ffffffc050208104:	52478793          	addi	a5,a5,1316 # ffffffc05020d624 <used_ppage>
ffffffc050208108:	439c                	lw	a5,0(a5)
ffffffc05020810a:	4721                	li	a4,8
ffffffc05020810c:	40f707bb          	subw	a5,a4,a5
ffffffc050208110:	2781                	sext.w	a5,a5
ffffffc050208112:	863e                	mv	a2,a5
ffffffc050208114:	85b6                	mv	a1,a3
ffffffc050208116:	00005517          	auipc	a0,0x5
ffffffc05020811a:	e7a50513          	addi	a0,a0,-390 # ffffffc05020cf90 <__FUNCTION__.1531+0x138>
ffffffc05020811e:	2cc040ef          	jal	ra,ffffffc05020c3ea <printk>
ffffffc050208122:	00051797          	auipc	a5,0x51
ffffffc050208126:	3a678793          	addi	a5,a5,934 # ffffffc0502594c8 <e1000>
ffffffc05020812a:	6398                	ld	a4,0(a5)
ffffffc05020812c:	678d                	lui	a5,0x3
ffffffc05020812e:	81078593          	addi	a1,a5,-2032 # 2810 <boot_stack_top_base-0x501ff7f0>
ffffffc050208132:	853a                	mv	a0,a4
ffffffc050208134:	ec8ff0ef          	jal	ra,ffffffc0502077fc <e1000_read_reg>
ffffffc050208138:	87aa                	mv	a5,a0
ffffffc05020813a:	2781                	sext.w	a5,a5
ffffffc05020813c:	fcf42e23          	sw	a5,-36(s0)
ffffffc050208140:	00051797          	auipc	a5,0x51
ffffffc050208144:	38878793          	addi	a5,a5,904 # ffffffc0502594c8 <e1000>
ffffffc050208148:	6398                	ld	a4,0(a5)
ffffffc05020814a:	678d                	lui	a5,0x3
ffffffc05020814c:	81878593          	addi	a1,a5,-2024 # 2818 <boot_stack_top_base-0x501ff7e8>
ffffffc050208150:	853a                	mv	a0,a4
ffffffc050208152:	eaaff0ef          	jal	ra,ffffffc0502077fc <e1000_read_reg>
ffffffc050208156:	87aa                	mv	a5,a0
ffffffc050208158:	2781                	sext.w	a5,a5
ffffffc05020815a:	fcf42c23          	sw	a5,-40(s0)
ffffffc05020815e:	fd842703          	lw	a4,-40(s0)
ffffffc050208162:	fdc42783          	lw	a5,-36(s0)
ffffffc050208166:	863a                	mv	a2,a4
ffffffc050208168:	85be                	mv	a1,a5
ffffffc05020816a:	00005517          	auipc	a0,0x5
ffffffc05020816e:	e4650513          	addi	a0,a0,-442 # ffffffc05020cfb0 <__FUNCTION__.1531+0x158>
ffffffc050208172:	278040ef          	jal	ra,ffffffc05020c3ea <printk>
ffffffc050208176:	0001                	nop
ffffffc050208178:	70a2                	ld	ra,40(sp)
ffffffc05020817a:	7402                	ld	s0,32(sp)
ffffffc05020817c:	6145                	addi	sp,sp,48
ffffffc05020817e:	8082                	ret

ffffffc050208180 <alloc_pcb>:
ffffffc050208180:	7179                	addi	sp,sp,-48
ffffffc050208182:	f406                	sd	ra,40(sp)
ffffffc050208184:	f022                	sd	s0,32(sp)
ffffffc050208186:	1800                	addi	s0,sp,48
ffffffc050208188:	fe042623          	sw	zero,-20(s0)
ffffffc05020818c:	a071                	j	ffffffc050208218 <alloc_pcb+0x98>
ffffffc05020818e:	00056717          	auipc	a4,0x56
ffffffc050208192:	ac270713          	addi	a4,a4,-1342 # ffffffc05025dc50 <pcb>
ffffffc050208196:	fec42683          	lw	a3,-20(s0)
ffffffc05020819a:	0b800793          	li	a5,184
ffffffc05020819e:	02f687b3          	mul	a5,a3,a5
ffffffc0502081a2:	97ba                	add	a5,a5,a4
ffffffc0502081a4:	5fdc                	lw	a5,60(a5)
ffffffc0502081a6:	873e                	mv	a4,a5
ffffffc0502081a8:	478d                	li	a5,3
ffffffc0502081aa:	06f71263          	bne	a4,a5,ffffffc05020820e <alloc_pcb+0x8e>
ffffffc0502081ae:	fec42703          	lw	a4,-20(s0)
ffffffc0502081b2:	0b800793          	li	a5,184
ffffffc0502081b6:	02f70733          	mul	a4,a4,a5
ffffffc0502081ba:	00056797          	auipc	a5,0x56
ffffffc0502081be:	a9678793          	addi	a5,a5,-1386 # ffffffc05025dc50 <pcb>
ffffffc0502081c2:	97ba                	add	a5,a5,a4
ffffffc0502081c4:	fef43023          	sd	a5,-32(s0)
ffffffc0502081c8:	0b800793          	li	a5,184
ffffffc0502081cc:	fcf42e23          	sw	a5,-36(s0)
ffffffc0502081d0:	a831                	j	ffffffc0502081ec <alloc_pcb+0x6c>
ffffffc0502081d2:	fe043783          	ld	a5,-32(s0)
ffffffc0502081d6:	00178713          	addi	a4,a5,1
ffffffc0502081da:	fee43023          	sd	a4,-32(s0)
ffffffc0502081de:	00078023          	sb	zero,0(a5)
ffffffc0502081e2:	fdc42783          	lw	a5,-36(s0)
ffffffc0502081e6:	37fd                	addiw	a5,a5,-1
ffffffc0502081e8:	fcf42e23          	sw	a5,-36(s0)
ffffffc0502081ec:	fdc42783          	lw	a5,-36(s0)
ffffffc0502081f0:	2781                	sext.w	a5,a5
ffffffc0502081f2:	f3e5                	bnez	a5,ffffffc0502081d2 <alloc_pcb+0x52>
ffffffc0502081f4:	00056717          	auipc	a4,0x56
ffffffc0502081f8:	a5c70713          	addi	a4,a4,-1444 # ffffffc05025dc50 <pcb>
ffffffc0502081fc:	fec42683          	lw	a3,-20(s0)
ffffffc050208200:	0b800793          	li	a5,184
ffffffc050208204:	02f687b3          	mul	a5,a3,a5
ffffffc050208208:	97ba                	add	a5,a5,a4
ffffffc05020820a:	4711                	li	a4,4
ffffffc05020820c:	dfd8                	sw	a4,60(a5)
ffffffc05020820e:	fec42783          	lw	a5,-20(s0)
ffffffc050208212:	2785                	addiw	a5,a5,1
ffffffc050208214:	fef42623          	sw	a5,-20(s0)
ffffffc050208218:	fec42783          	lw	a5,-20(s0)
ffffffc05020821c:	0007871b          	sext.w	a4,a5
ffffffc050208220:	47bd                	li	a5,15
ffffffc050208222:	f6e7d6e3          	bge	a5,a4,ffffffc05020818e <alloc_pcb+0xe>
ffffffc050208226:	fc042c23          	sw	zero,-40(s0)
ffffffc05020822a:	a80d                	j	ffffffc05020825c <alloc_pcb+0xdc>
ffffffc05020822c:	00056717          	auipc	a4,0x56
ffffffc050208230:	a2470713          	addi	a4,a4,-1500 # ffffffc05025dc50 <pcb>
ffffffc050208234:	fd842683          	lw	a3,-40(s0)
ffffffc050208238:	0b800793          	li	a5,184
ffffffc05020823c:	02f687b3          	mul	a5,a3,a5
ffffffc050208240:	97ba                	add	a5,a5,a4
ffffffc050208242:	5fdc                	lw	a5,60(a5)
ffffffc050208244:	873e                	mv	a4,a5
ffffffc050208246:	4791                	li	a5,4
ffffffc050208248:	00f71563          	bne	a4,a5,ffffffc050208252 <alloc_pcb+0xd2>
ffffffc05020824c:	fd842783          	lw	a5,-40(s0)
ffffffc050208250:	a815                	j	ffffffc050208284 <alloc_pcb+0x104>
ffffffc050208252:	fd842783          	lw	a5,-40(s0)
ffffffc050208256:	2785                	addiw	a5,a5,1
ffffffc050208258:	fcf42c23          	sw	a5,-40(s0)
ffffffc05020825c:	fd842783          	lw	a5,-40(s0)
ffffffc050208260:	0007871b          	sext.w	a4,a5
ffffffc050208264:	47bd                	li	a5,15
ffffffc050208266:	fce7d3e3          	bge	a5,a4,ffffffc05020822c <alloc_pcb+0xac>
ffffffc05020826a:	00005617          	auipc	a2,0x5
ffffffc05020826e:	dc660613          	addi	a2,a2,-570 # ffffffc05020d030 <__FUNCTION__.1673>
ffffffc050208272:	15f00593          	li	a1,351
ffffffc050208276:	00005517          	auipc	a0,0x5
ffffffc05020827a:	c1a50513          	addi	a0,a0,-998 # ffffffc05020ce90 <__FUNCTION__.1531+0x38>
ffffffc05020827e:	bdeff0ef          	jal	ra,ffffffc05020765c <_panic>
ffffffc050208282:	57fd                	li	a5,-1
ffffffc050208284:	853e                	mv	a0,a5
ffffffc050208286:	70a2                	ld	ra,40(sp)
ffffffc050208288:	7402                	ld	s0,32(sp)
ffffffc05020828a:	6145                	addi	sp,sp,48
ffffffc05020828c:	8082                	ret

ffffffc05020828e <init_kernel_stack>:
ffffffc05020828e:	711d                	addi	sp,sp,-96
ffffffc050208290:	eca2                	sd	s0,88(sp)
ffffffc050208292:	1080                	addi	s0,sp,96
ffffffc050208294:	fca43423          	sd	a0,-56(s0)
ffffffc050208298:	fcb43023          	sd	a1,-64(s0)
ffffffc05020829c:	fac43c23          	sd	a2,-72(s0)
ffffffc0502082a0:	fad43823          	sd	a3,-80(s0)
ffffffc0502082a4:	87ba                	mv	a5,a4
ffffffc0502082a6:	faf42623          	sw	a5,-84(s0)
ffffffc0502082aa:	fc843783          	ld	a5,-56(s0)
ffffffc0502082ae:	ee078793          	addi	a5,a5,-288
ffffffc0502082b2:	fef43023          	sd	a5,-32(s0)
ffffffc0502082b6:	fe042623          	sw	zero,-20(s0)
ffffffc0502082ba:	a831                	j	ffffffc0502082d6 <init_kernel_stack+0x48>
ffffffc0502082bc:	fe043703          	ld	a4,-32(s0)
ffffffc0502082c0:	fec42783          	lw	a5,-20(s0)
ffffffc0502082c4:	078e                	slli	a5,a5,0x3
ffffffc0502082c6:	97ba                	add	a5,a5,a4
ffffffc0502082c8:	0007b023          	sd	zero,0(a5)
ffffffc0502082cc:	fec42783          	lw	a5,-20(s0)
ffffffc0502082d0:	2785                	addiw	a5,a5,1
ffffffc0502082d2:	fef42623          	sw	a5,-20(s0)
ffffffc0502082d6:	fec42783          	lw	a5,-20(s0)
ffffffc0502082da:	0007871b          	sext.w	a4,a5
ffffffc0502082de:	47fd                	li	a5,31
ffffffc0502082e0:	fce7dee3          	bge	a5,a4,ffffffc0502082bc <init_kernel_stack+0x2e>
ffffffc0502082e4:	fac42703          	lw	a4,-84(s0)
ffffffc0502082e8:	fe043783          	ld	a5,-32(s0)
ffffffc0502082ec:	ebb8                	sd	a4,80(a5)
ffffffc0502082ee:	fe043783          	ld	a5,-32(s0)
ffffffc0502082f2:	fc043703          	ld	a4,-64(s0)
ffffffc0502082f6:	efb8                	sd	a4,88(a5)
ffffffc0502082f8:	fb043703          	ld	a4,-80(s0)
ffffffc0502082fc:	fe043783          	ld	a5,-32(s0)
ffffffc050208300:	f398                	sd	a4,32(a5)
ffffffc050208302:	fb043783          	ld	a5,-80(s0)
ffffffc050208306:	6798                	ld	a4,8(a5)
ffffffc050208308:	fe043783          	ld	a5,-32(s0)
ffffffc05020830c:	eb98                	sd	a4,16(a5)
ffffffc05020830e:	ffffa717          	auipc	a4,0xffffa
ffffffc050208312:	e2270713          	addi	a4,a4,-478 # ffffffc050202130 <exception_handler_entry>
ffffffc050208316:	fe043783          	ld	a5,-32(s0)
ffffffc05020831a:	e798                	sd	a4,8(a5)
ffffffc05020831c:	fe043783          	ld	a5,-32(s0)
ffffffc050208320:	00046737          	lui	a4,0x46
ffffffc050208324:	02070713          	addi	a4,a4,32 # 46020 <boot_stack_top_base-0x501bbfe0>
ffffffc050208328:	10e7b023          	sd	a4,256(a5)
ffffffc05020832c:	fe043783          	ld	a5,-32(s0)
ffffffc050208330:	fb843703          	ld	a4,-72(s0)
ffffffc050208334:	10e7b423          	sd	a4,264(a5)
ffffffc050208338:	fe043783          	ld	a5,-32(s0)
ffffffc05020833c:	f9078793          	addi	a5,a5,-112
ffffffc050208340:	fcf43c23          	sd	a5,-40(s0)
ffffffc050208344:	fe042423          	sw	zero,-24(s0)
ffffffc050208348:	a831                	j	ffffffc050208364 <init_kernel_stack+0xd6>
ffffffc05020834a:	fd843703          	ld	a4,-40(s0)
ffffffc05020834e:	fe842783          	lw	a5,-24(s0)
ffffffc050208352:	078e                	slli	a5,a5,0x3
ffffffc050208354:	97ba                	add	a5,a5,a4
ffffffc050208356:	0007b023          	sd	zero,0(a5)
ffffffc05020835a:	fe842783          	lw	a5,-24(s0)
ffffffc05020835e:	2785                	addiw	a5,a5,1
ffffffc050208360:	fef42423          	sw	a5,-24(s0)
ffffffc050208364:	fe842783          	lw	a5,-24(s0)
ffffffc050208368:	0007871b          	sext.w	a4,a5
ffffffc05020836c:	47b5                	li	a5,13
ffffffc05020836e:	fce7dee3          	bge	a5,a4,ffffffc05020834a <init_kernel_stack+0xbc>
ffffffc050208372:	ffffa717          	auipc	a4,0xffffa
ffffffc050208376:	d6270713          	addi	a4,a4,-670 # ffffffc0502020d4 <ret_from_exception>
ffffffc05020837a:	fd843783          	ld	a5,-40(s0)
ffffffc05020837e:	e398                	sd	a4,0(a5)
ffffffc050208380:	fd843703          	ld	a4,-40(s0)
ffffffc050208384:	fb043783          	ld	a5,-80(s0)
ffffffc050208388:	e398                	sd	a4,0(a5)
ffffffc05020838a:	fb043783          	ld	a5,-80(s0)
ffffffc05020838e:	6398                	ld	a4,0(a5)
ffffffc050208390:	fd843783          	ld	a5,-40(s0)
ffffffc050208394:	e798                	sd	a4,8(a5)
ffffffc050208396:	0001                	nop
ffffffc050208398:	6466                	ld	s0,88(sp)
ffffffc05020839a:	6125                	addi	sp,sp,96
ffffffc05020839c:	8082                	ret

ffffffc05020839e <seek_task>:
ffffffc05020839e:	7179                	addi	sp,sp,-48
ffffffc0502083a0:	f406                	sd	ra,40(sp)
ffffffc0502083a2:	f022                	sd	s0,32(sp)
ffffffc0502083a4:	1800                	addi	s0,sp,48
ffffffc0502083a6:	fca43c23          	sd	a0,-40(s0)
ffffffc0502083aa:	57fd                	li	a5,-1
ffffffc0502083ac:	fef42623          	sw	a5,-20(s0)
ffffffc0502083b0:	fe042423          	sw	zero,-24(s0)
ffffffc0502083b4:	a82d                	j	ffffffc0502083ee <seek_task+0x50>
ffffffc0502083b6:	fe842703          	lw	a4,-24(s0)
ffffffc0502083ba:	87ba                	mv	a5,a4
ffffffc0502083bc:	078e                	slli	a5,a5,0x3
ffffffc0502083be:	97ba                	add	a5,a5,a4
ffffffc0502083c0:	078a                	slli	a5,a5,0x2
ffffffc0502083c2:	00051717          	auipc	a4,0x51
ffffffc0502083c6:	ec670713          	addi	a4,a4,-314 # ffffffc050259288 <tasks>
ffffffc0502083ca:	97ba                	add	a5,a5,a4
ffffffc0502083cc:	fd843583          	ld	a1,-40(s0)
ffffffc0502083d0:	853e                	mv	a0,a5
ffffffc0502083d2:	286040ef          	jal	ra,ffffffc05020c658 <strcmp>
ffffffc0502083d6:	87aa                	mv	a5,a0
ffffffc0502083d8:	e791                	bnez	a5,ffffffc0502083e4 <seek_task+0x46>
ffffffc0502083da:	fe842783          	lw	a5,-24(s0)
ffffffc0502083de:	fef42623          	sw	a5,-20(s0)
ffffffc0502083e2:	a005                	j	ffffffc050208402 <seek_task+0x64>
ffffffc0502083e4:	fe842783          	lw	a5,-24(s0)
ffffffc0502083e8:	2785                	addiw	a5,a5,1
ffffffc0502083ea:	fef42423          	sw	a5,-24(s0)
ffffffc0502083ee:	00005797          	auipc	a5,0x5
ffffffc0502083f2:	22278793          	addi	a5,a5,546 # ffffffc05020d610 <task_num>
ffffffc0502083f6:	4398                	lw	a4,0(a5)
ffffffc0502083f8:	fe842783          	lw	a5,-24(s0)
ffffffc0502083fc:	2781                	sext.w	a5,a5
ffffffc0502083fe:	fae7cce3          	blt	a5,a4,ffffffc0502083b6 <seek_task+0x18>
ffffffc050208402:	fec42783          	lw	a5,-20(s0)
ffffffc050208406:	0007871b          	sext.w	a4,a5
ffffffc05020840a:	57fd                	li	a5,-1
ffffffc05020840c:	00f71c63          	bne	a4,a5,ffffffc050208424 <seek_task+0x86>
ffffffc050208410:	fd843583          	ld	a1,-40(s0)
ffffffc050208414:	00005517          	auipc	a0,0x5
ffffffc050208418:	bd450513          	addi	a0,a0,-1068 # ffffffc05020cfe8 <__FUNCTION__.1531+0x190>
ffffffc05020841c:	0de040ef          	jal	ra,ffffffc05020c4fa <printl>
ffffffc050208420:	57fd                	li	a5,-1
ffffffc050208422:	a019                	j	ffffffc050208428 <seek_task+0x8a>
ffffffc050208424:	fec42783          	lw	a5,-20(s0)
ffffffc050208428:	853e                	mv	a0,a5
ffffffc05020842a:	70a2                	ld	ra,40(sp)
ffffffc05020842c:	7402                	ld	s0,32(sp)
ffffffc05020842e:	6145                	addi	sp,sp,48
ffffffc050208430:	8082                	ret

ffffffc050208432 <init_user_stack>:
ffffffc050208432:	7119                	addi	sp,sp,-128
ffffffc050208434:	fc86                	sd	ra,120(sp)
ffffffc050208436:	f8a2                	sd	s0,112(sp)
ffffffc050208438:	0100                	addi	s0,sp,128
ffffffc05020843a:	faa43423          	sd	a0,-88(s0)
ffffffc05020843e:	fab43023          	sd	a1,-96(s0)
ffffffc050208442:	f8c43c23          	sd	a2,-104(s0)
ffffffc050208446:	87b6                	mv	a5,a3
ffffffc050208448:	f8e43423          	sd	a4,-120(s0)
ffffffc05020844c:	f8f42a23          	sw	a5,-108(s0)
ffffffc050208450:	fa843783          	ld	a5,-88(s0)
ffffffc050208454:	fef43423          	sd	a5,-24(s0)
ffffffc050208458:	fa043783          	ld	a5,-96(s0)
ffffffc05020845c:	fef43023          	sd	a5,-32(s0)
ffffffc050208460:	fe843783          	ld	a5,-24(s0)
ffffffc050208464:	fd078793          	addi	a5,a5,-48
ffffffc050208468:	fef43423          	sd	a5,-24(s0)
ffffffc05020846c:	fe043783          	ld	a5,-32(s0)
ffffffc050208470:	fd078793          	addi	a5,a5,-48
ffffffc050208474:	fef43023          	sd	a5,-32(s0)
ffffffc050208478:	fe843783          	ld	a5,-24(s0)
ffffffc05020847c:	fcf43823          	sd	a5,-48(s0)
ffffffc050208480:	fe043783          	ld	a5,-32(s0)
ffffffc050208484:	fcf43423          	sd	a5,-56(s0)
ffffffc050208488:	fc042e23          	sw	zero,-36(s0)
ffffffc05020848c:	a041                	j	ffffffc05020850c <init_user_stack+0xda>
ffffffc05020848e:	fdc42783          	lw	a5,-36(s0)
ffffffc050208492:	078e                	slli	a5,a5,0x3
ffffffc050208494:	f8843703          	ld	a4,-120(s0)
ffffffc050208498:	97ba                	add	a5,a5,a4
ffffffc05020849a:	639c                	ld	a5,0(a5)
ffffffc05020849c:	853e                	mv	a0,a5
ffffffc05020849e:	184040ef          	jal	ra,ffffffc05020c622 <strlen>
ffffffc0502084a2:	87aa                	mv	a5,a0
ffffffc0502084a4:	fcf42023          	sw	a5,-64(s0)
ffffffc0502084a8:	fc042783          	lw	a5,-64(s0)
ffffffc0502084ac:	2785                	addiw	a5,a5,1
ffffffc0502084ae:	2781                	sext.w	a5,a5
ffffffc0502084b0:	873e                	mv	a4,a5
ffffffc0502084b2:	fe843783          	ld	a5,-24(s0)
ffffffc0502084b6:	8f99                	sub	a5,a5,a4
ffffffc0502084b8:	fef43423          	sd	a5,-24(s0)
ffffffc0502084bc:	fc042783          	lw	a5,-64(s0)
ffffffc0502084c0:	2785                	addiw	a5,a5,1
ffffffc0502084c2:	2781                	sext.w	a5,a5
ffffffc0502084c4:	873e                	mv	a4,a5
ffffffc0502084c6:	fe043783          	ld	a5,-32(s0)
ffffffc0502084ca:	8f99                	sub	a5,a5,a4
ffffffc0502084cc:	fef43023          	sd	a5,-32(s0)
ffffffc0502084d0:	fe843783          	ld	a5,-24(s0)
ffffffc0502084d4:	faf43c23          	sd	a5,-72(s0)
ffffffc0502084d8:	fdc42783          	lw	a5,-36(s0)
ffffffc0502084dc:	078e                	slli	a5,a5,0x3
ffffffc0502084de:	f8843703          	ld	a4,-120(s0)
ffffffc0502084e2:	97ba                	add	a5,a5,a4
ffffffc0502084e4:	639c                	ld	a5,0(a5)
ffffffc0502084e6:	85be                	mv	a1,a5
ffffffc0502084e8:	fb843503          	ld	a0,-72(s0)
ffffffc0502084ec:	29e040ef          	jal	ra,ffffffc05020c78a <strcpy>
ffffffc0502084f0:	fd043703          	ld	a4,-48(s0)
ffffffc0502084f4:	fdc42783          	lw	a5,-36(s0)
ffffffc0502084f8:	078e                	slli	a5,a5,0x3
ffffffc0502084fa:	97ba                	add	a5,a5,a4
ffffffc0502084fc:	fe043703          	ld	a4,-32(s0)
ffffffc050208500:	e398                	sd	a4,0(a5)
ffffffc050208502:	fdc42783          	lw	a5,-36(s0)
ffffffc050208506:	2785                	addiw	a5,a5,1
ffffffc050208508:	fcf42e23          	sw	a5,-36(s0)
ffffffc05020850c:	fdc42703          	lw	a4,-36(s0)
ffffffc050208510:	f9442783          	lw	a5,-108(s0)
ffffffc050208514:	2701                	sext.w	a4,a4
ffffffc050208516:	2781                	sext.w	a5,a5
ffffffc050208518:	f6f74be3          	blt	a4,a5,ffffffc05020848e <init_user_stack+0x5c>
ffffffc05020851c:	fa843703          	ld	a4,-88(s0)
ffffffc050208520:	fe843783          	ld	a5,-24(s0)
ffffffc050208524:	40f707b3          	sub	a5,a4,a5
ffffffc050208528:	8391                	srli	a5,a5,0x4
ffffffc05020852a:	fcf42223          	sw	a5,-60(s0)
ffffffc05020852e:	fc442783          	lw	a5,-60(s0)
ffffffc050208532:	2785                	addiw	a5,a5,1
ffffffc050208534:	2781                	sext.w	a5,a5
ffffffc050208536:	0047979b          	slliw	a5,a5,0x4
ffffffc05020853a:	2781                	sext.w	a5,a5
ffffffc05020853c:	873e                	mv	a4,a5
ffffffc05020853e:	fa043783          	ld	a5,-96(s0)
ffffffc050208542:	40e78733          	sub	a4,a5,a4
ffffffc050208546:	f9843783          	ld	a5,-104(s0)
ffffffc05020854a:	e798                	sd	a4,8(a5)
ffffffc05020854c:	fc843783          	ld	a5,-56(s0)
ffffffc050208550:	853e                	mv	a0,a5
ffffffc050208552:	70e6                	ld	ra,120(sp)
ffffffc050208554:	7446                	ld	s0,112(sp)
ffffffc050208556:	6109                	addi	sp,sp,128
ffffffc050208558:	8082                	ret

ffffffc05020855a <do_exec>:
ffffffc05020855a:	bd010113          	addi	sp,sp,-1072 # fffffffffc053bd0 <__BSS_END__+0x3fabdf50f8>
ffffffc05020855e:	42113423          	sd	ra,1064(sp)
ffffffc050208562:	42813023          	sd	s0,1056(sp)
ffffffc050208566:	43010413          	addi	s0,sp,1072
ffffffc05020856a:	bea43423          	sd	a0,-1048(s0)
ffffffc05020856e:	87ae                	mv	a5,a1
ffffffc050208570:	bcc43c23          	sd	a2,-1064(s0)
ffffffc050208574:	bef42223          	sw	a5,-1052(s0)
ffffffc050208578:	be843503          	ld	a0,-1048(s0)
ffffffc05020857c:	e23ff0ef          	jal	ra,ffffffc05020839e <seek_task>
ffffffc050208580:	87aa                	mv	a5,a0
ffffffc050208582:	fcf42023          	sw	a5,-64(s0)
ffffffc050208586:	fc042783          	lw	a5,-64(s0)
ffffffc05020858a:	0007871b          	sext.w	a4,a5
ffffffc05020858e:	57fd                	li	a5,-1
ffffffc050208590:	00f71e63          	bne	a4,a5,ffffffc0502085ac <do_exec+0x52>
ffffffc050208594:	00005617          	auipc	a2,0x5
ffffffc050208598:	01460613          	addi	a2,a2,20 # ffffffc05020d5a8 <__FUNCTION__.1729>
ffffffc05020859c:	1ab00593          	li	a1,427
ffffffc0502085a0:	00005517          	auipc	a0,0x5
ffffffc0502085a4:	8f050513          	addi	a0,a0,-1808 # ffffffc05020ce90 <__FUNCTION__.1531+0x38>
ffffffc0502085a8:	8b4ff0ef          	jal	ra,ffffffc05020765c <_panic>
ffffffc0502085ac:	00055797          	auipc	a5,0x55
ffffffc0502085b0:	69478793          	addi	a5,a5,1684 # ffffffc05025dc40 <current_running>
ffffffc0502085b4:	639c                	ld	a5,0(a5)
ffffffc0502085b6:	0b47a783          	lw	a5,180(a5)
ffffffc0502085ba:	fef42623          	sw	a5,-20(s0)
ffffffc0502085be:	be442783          	lw	a5,-1052(s0)
ffffffc0502085c2:	37fd                	addiw	a5,a5,-1
ffffffc0502085c4:	fcf42e23          	sw	a5,-36(s0)
ffffffc0502085c8:	bd843783          	ld	a5,-1064(s0)
ffffffc0502085cc:	639c                	ld	a5,0(a5)
ffffffc0502085ce:	00005597          	auipc	a1,0x5
ffffffc0502085d2:	a3a58593          	addi	a1,a1,-1478 # ffffffc05020d008 <__FUNCTION__.1531+0x1b0>
ffffffc0502085d6:	853e                	mv	a0,a5
ffffffc0502085d8:	080040ef          	jal	ra,ffffffc05020c658 <strcmp>
ffffffc0502085dc:	87aa                	mv	a5,a0
ffffffc0502085de:	eb91                	bnez	a5,ffffffc0502085f2 <do_exec+0x98>
ffffffc0502085e0:	4785                	li	a5,1
ffffffc0502085e2:	fef42623          	sw	a5,-20(s0)
ffffffc0502085e6:	bd843783          	ld	a5,-1064(s0)
ffffffc0502085ea:	07a1                	addi	a5,a5,8
ffffffc0502085ec:	fef43023          	sd	a5,-32(s0)
ffffffc0502085f0:	a0a5                	j	ffffffc050208658 <do_exec+0xfe>
ffffffc0502085f2:	bd843783          	ld	a5,-1064(s0)
ffffffc0502085f6:	639c                	ld	a5,0(a5)
ffffffc0502085f8:	00005597          	auipc	a1,0x5
ffffffc0502085fc:	a1858593          	addi	a1,a1,-1512 # ffffffc05020d010 <__FUNCTION__.1531+0x1b8>
ffffffc050208600:	853e                	mv	a0,a5
ffffffc050208602:	056040ef          	jal	ra,ffffffc05020c658 <strcmp>
ffffffc050208606:	87aa                	mv	a5,a0
ffffffc050208608:	eb91                	bnez	a5,ffffffc05020861c <do_exec+0xc2>
ffffffc05020860a:	4789                	li	a5,2
ffffffc05020860c:	fef42623          	sw	a5,-20(s0)
ffffffc050208610:	bd843783          	ld	a5,-1064(s0)
ffffffc050208614:	07a1                	addi	a5,a5,8
ffffffc050208616:	fef43023          	sd	a5,-32(s0)
ffffffc05020861a:	a83d                	j	ffffffc050208658 <do_exec+0xfe>
ffffffc05020861c:	bd843783          	ld	a5,-1064(s0)
ffffffc050208620:	639c                	ld	a5,0(a5)
ffffffc050208622:	00005597          	auipc	a1,0x5
ffffffc050208626:	9f658593          	addi	a1,a1,-1546 # ffffffc05020d018 <__FUNCTION__.1531+0x1c0>
ffffffc05020862a:	853e                	mv	a0,a5
ffffffc05020862c:	02c040ef          	jal	ra,ffffffc05020c658 <strcmp>
ffffffc050208630:	87aa                	mv	a5,a0
ffffffc050208632:	eb91                	bnez	a5,ffffffc050208646 <do_exec+0xec>
ffffffc050208634:	478d                	li	a5,3
ffffffc050208636:	fef42623          	sw	a5,-20(s0)
ffffffc05020863a:	bd843783          	ld	a5,-1064(s0)
ffffffc05020863e:	07a1                	addi	a5,a5,8
ffffffc050208640:	fef43023          	sd	a5,-32(s0)
ffffffc050208644:	a811                	j	ffffffc050208658 <do_exec+0xfe>
ffffffc050208646:	fdc42783          	lw	a5,-36(s0)
ffffffc05020864a:	2785                	addiw	a5,a5,1
ffffffc05020864c:	fcf42e23          	sw	a5,-36(s0)
ffffffc050208650:	bd843783          	ld	a5,-1064(s0)
ffffffc050208654:	fef43023          	sd	a5,-32(s0)
ffffffc050208658:	fc042c23          	sw	zero,-40(s0)
ffffffc05020865c:	fc042a23          	sw	zero,-44(s0)
ffffffc050208660:	a8bd                	j	ffffffc0502086de <do_exec+0x184>
ffffffc050208662:	bf840713          	addi	a4,s0,-1032
ffffffc050208666:	fd842783          	lw	a5,-40(s0)
ffffffc05020866a:	973e                	add	a4,a4,a5
ffffffc05020866c:	fd442783          	lw	a5,-44(s0)
ffffffc050208670:	078e                	slli	a5,a5,0x3
ffffffc050208672:	ff040693          	addi	a3,s0,-16
ffffffc050208676:	97b6                	add	a5,a5,a3
ffffffc050208678:	c6e7b823          	sd	a4,-912(a5)
ffffffc05020867c:	fd442783          	lw	a5,-44(s0)
ffffffc050208680:	078e                	slli	a5,a5,0x3
ffffffc050208682:	fe043703          	ld	a4,-32(s0)
ffffffc050208686:	97ba                	add	a5,a5,a4
ffffffc050208688:	639c                	ld	a5,0(a5)
ffffffc05020868a:	fcf43423          	sd	a5,-56(s0)
ffffffc05020868e:	fc843783          	ld	a5,-56(s0)
ffffffc050208692:	00178713          	addi	a4,a5,1
ffffffc050208696:	fce43423          	sd	a4,-56(s0)
ffffffc05020869a:	0007c703          	lbu	a4,0(a5)
ffffffc05020869e:	fd842783          	lw	a5,-40(s0)
ffffffc0502086a2:	ff040693          	addi	a3,s0,-16
ffffffc0502086a6:	97b6                	add	a5,a5,a3
ffffffc0502086a8:	c0e78423          	sb	a4,-1016(a5)
ffffffc0502086ac:	fd842783          	lw	a5,-40(s0)
ffffffc0502086b0:	ff040713          	addi	a4,s0,-16
ffffffc0502086b4:	97ba                	add	a5,a5,a4
ffffffc0502086b6:	c087c783          	lbu	a5,-1016(a5)
ffffffc0502086ba:	e799                	bnez	a5,ffffffc0502086c8 <do_exec+0x16e>
ffffffc0502086bc:	fd842783          	lw	a5,-40(s0)
ffffffc0502086c0:	2785                	addiw	a5,a5,1
ffffffc0502086c2:	fcf42c23          	sw	a5,-40(s0)
ffffffc0502086c6:	a039                	j	ffffffc0502086d4 <do_exec+0x17a>
ffffffc0502086c8:	fd842783          	lw	a5,-40(s0)
ffffffc0502086cc:	2785                	addiw	a5,a5,1
ffffffc0502086ce:	fcf42c23          	sw	a5,-40(s0)
ffffffc0502086d2:	bf75                	j	ffffffc05020868e <do_exec+0x134>
ffffffc0502086d4:	fd442783          	lw	a5,-44(s0)
ffffffc0502086d8:	2785                	addiw	a5,a5,1
ffffffc0502086da:	fcf42a23          	sw	a5,-44(s0)
ffffffc0502086de:	fd442703          	lw	a4,-44(s0)
ffffffc0502086e2:	fdc42783          	lw	a5,-36(s0)
ffffffc0502086e6:	2701                	sext.w	a4,a4
ffffffc0502086e8:	2781                	sext.w	a5,a5
ffffffc0502086ea:	f6f74ce3          	blt	a4,a5,ffffffc050208662 <do_exec+0x108>
ffffffc0502086ee:	a93ff0ef          	jal	ra,ffffffc050208180 <alloc_pcb>
ffffffc0502086f2:	87aa                	mv	a5,a0
ffffffc0502086f4:	faf42e23          	sw	a5,-68(s0)
ffffffc0502086f8:	fbc42783          	lw	a5,-68(s0)
ffffffc0502086fc:	2781                	sext.w	a5,a5
ffffffc0502086fe:	0007d463          	bgez	a5,ffffffc050208706 <do_exec+0x1ac>
ffffffc050208702:	57fd                	li	a5,-1
ffffffc050208704:	a2f1                	j	ffffffc0502088d0 <do_exec+0x376>
ffffffc050208706:	fbc42703          	lw	a4,-68(s0)
ffffffc05020870a:	0b800793          	li	a5,184
ffffffc05020870e:	02f70733          	mul	a4,a4,a5
ffffffc050208712:	00055797          	auipc	a5,0x55
ffffffc050208716:	53e78793          	addi	a5,a5,1342 # ffffffc05025dc50 <pcb>
ffffffc05020871a:	97ba                	add	a5,a5,a4
ffffffc05020871c:	faf43823          	sd	a5,-80(s0)
ffffffc050208720:	4785                	li	a5,1
ffffffc050208722:	faf42623          	sw	a5,-84(s0)
ffffffc050208726:	fac42783          	lw	a5,-84(s0)
ffffffc05020872a:	4581                	li	a1,0
ffffffc05020872c:	853e                	mv	a0,a5
ffffffc05020872e:	cc9fc0ef          	jal	ra,ffffffc0502053f6 <allocFixedPage>
ffffffc050208732:	872a                	mv	a4,a0
ffffffc050208734:	fb043783          	ld	a5,-80(s0)
ffffffc050208738:	fb98                	sd	a4,48(a5)
ffffffc05020873a:	fb043783          	ld	a5,-80(s0)
ffffffc05020873e:	7b98                	ld	a4,48(a5)
ffffffc050208740:	fc0517b7          	lui	a5,0xfc051
ffffffc050208744:	00c79593          	slli	a1,a5,0xc
ffffffc050208748:	853a                	mv	a0,a4
ffffffc05020874a:	9f2fd0ef          	jal	ra,ffffffc05020593c <share_pgtable>
ffffffc05020874e:	fb043783          	ld	a5,-80(s0)
ffffffc050208752:	7b9c                	ld	a5,48(a5)
ffffffc050208754:	4681                	li	a3,0
ffffffc050208756:	4601                	li	a2,0
ffffffc050208758:	85be                	mv	a1,a5
ffffffc05020875a:	000f07b7          	lui	a5,0xf0
ffffffc05020875e:	0785                	addi	a5,a5,1
ffffffc050208760:	01079513          	slli	a0,a5,0x10
ffffffc050208764:	f15fc0ef          	jal	ra,ffffffc050205678 <alloc_page_helper>
ffffffc050208768:	faa43023          	sd	a0,-96(s0)
ffffffc05020876c:	fb043783          	ld	a5,-80(s0)
ffffffc050208770:	7b98                	ld	a4,48(a5)
ffffffc050208772:	fac42783          	lw	a5,-84(s0)
ffffffc050208776:	85ba                	mv	a1,a4
ffffffc050208778:	853e                	mv	a0,a5
ffffffc05020877a:	c7dfc0ef          	jal	ra,ffffffc0502053f6 <allocFixedPage>
ffffffc05020877e:	f8a43c23          	sd	a0,-104(s0)
ffffffc050208782:	000f07b7          	lui	a5,0xf0
ffffffc050208786:	0785                	addi	a5,a5,1
ffffffc050208788:	07c2                	slli	a5,a5,0x10
ffffffc05020878a:	f8f43823          	sd	a5,-112(s0)
ffffffc05020878e:	fb043783          	ld	a5,-80(s0)
ffffffc050208792:	f9843703          	ld	a4,-104(s0)
ffffffc050208796:	f3b8                	sd	a4,96(a5)
ffffffc050208798:	fb043783          	ld	a5,-80(s0)
ffffffc05020879c:	f9043703          	ld	a4,-112(s0)
ffffffc0502087a0:	f7b8                	sd	a4,104(a5)
ffffffc0502087a2:	fbc42703          	lw	a4,-68(s0)
ffffffc0502087a6:	fc042783          	lw	a5,-64(s0)
ffffffc0502087aa:	85ba                	mv	a1,a4
ffffffc0502087ac:	853e                	mv	a0,a5
ffffffc0502087ae:	eccfc0ef          	jal	ra,ffffffc050204e7a <load_task_img>
ffffffc0502087b2:	87aa                	mv	a5,a0
ffffffc0502087b4:	f8f43423          	sd	a5,-120(s0)
ffffffc0502087b8:	fac42783          	lw	a5,-84(s0)
ffffffc0502087bc:	00c7979b          	slliw	a5,a5,0xc
ffffffc0502087c0:	2781                	sext.w	a5,a5
ffffffc0502087c2:	873e                	mv	a4,a5
ffffffc0502087c4:	fa043783          	ld	a5,-96(s0)
ffffffc0502087c8:	00f70533          	add	a0,a4,a5
ffffffc0502087cc:	fac42783          	lw	a5,-84(s0)
ffffffc0502087d0:	00c7979b          	slliw	a5,a5,0xc
ffffffc0502087d4:	2781                	sext.w	a5,a5
ffffffc0502087d6:	873e                	mv	a4,a5
ffffffc0502087d8:	f9043783          	ld	a5,-112(s0)
ffffffc0502087dc:	97ba                	add	a5,a5,a4
ffffffc0502087de:	c6040713          	addi	a4,s0,-928
ffffffc0502087e2:	fdc42683          	lw	a3,-36(s0)
ffffffc0502087e6:	fb043603          	ld	a2,-80(s0)
ffffffc0502087ea:	85be                	mv	a1,a5
ffffffc0502087ec:	c47ff0ef          	jal	ra,ffffffc050208432 <init_user_stack>
ffffffc0502087f0:	f8a43023          	sd	a0,-128(s0)
ffffffc0502087f4:	fac42783          	lw	a5,-84(s0)
ffffffc0502087f8:	00c7979b          	slliw	a5,a5,0xc
ffffffc0502087fc:	2781                	sext.w	a5,a5
ffffffc0502087fe:	873e                	mv	a4,a5
ffffffc050208800:	f9843783          	ld	a5,-104(s0)
ffffffc050208804:	00f70533          	add	a0,a4,a5
ffffffc050208808:	00051697          	auipc	a3,0x51
ffffffc05020880c:	a8068693          	addi	a3,a3,-1408 # ffffffc050259288 <tasks>
ffffffc050208810:	fc042703          	lw	a4,-64(s0)
ffffffc050208814:	87ba                	mv	a5,a4
ffffffc050208816:	078e                	slli	a5,a5,0x3
ffffffc050208818:	97ba                	add	a5,a5,a4
ffffffc05020881a:	078a                	slli	a5,a5,0x2
ffffffc05020881c:	97b6                	add	a5,a5,a3
ffffffc05020881e:	539c                	lw	a5,32(a5)
ffffffc050208820:	863e                	mv	a2,a5
ffffffc050208822:	be442783          	lw	a5,-1052(s0)
ffffffc050208826:	873e                	mv	a4,a5
ffffffc050208828:	fb043683          	ld	a3,-80(s0)
ffffffc05020882c:	f8043583          	ld	a1,-128(s0)
ffffffc050208830:	a5fff0ef          	jal	ra,ffffffc05020828e <init_kernel_stack>
ffffffc050208834:	fb043783          	ld	a5,-80(s0)
ffffffc050208838:	fbc42703          	lw	a4,-68(s0)
ffffffc05020883c:	df98                	sw	a4,56(a5)
ffffffc05020883e:	fb043783          	ld	a5,-80(s0)
ffffffc050208842:	0407b423          	sd	zero,72(a5) # f0048 <boot_stack_top_base-0x50111fb8>
ffffffc050208846:	fb043783          	ld	a5,-80(s0)
ffffffc05020884a:	4709                	li	a4,2
ffffffc05020884c:	dfd8                	sw	a4,60(a5)
ffffffc05020884e:	fb043783          	ld	a5,-80(s0)
ffffffc050208852:	0407a023          	sw	zero,64(a5)
ffffffc050208856:	fb043783          	ld	a5,-80(s0)
ffffffc05020885a:	0407a223          	sw	zero,68(a5)
ffffffc05020885e:	fb043783          	ld	a5,-80(s0)
ffffffc050208862:	02078713          	addi	a4,a5,32
ffffffc050208866:	fb043783          	ld	a5,-80(s0)
ffffffc05020886a:	f398                	sd	a4,32(a5)
ffffffc05020886c:	fb043783          	ld	a5,-80(s0)
ffffffc050208870:	02078713          	addi	a4,a5,32
ffffffc050208874:	fb043783          	ld	a5,-80(s0)
ffffffc050208878:	f798                	sd	a4,40(a5)
ffffffc05020887a:	fc042223          	sw	zero,-60(s0)
ffffffc05020887e:	a839                	j	ffffffc05020889c <do_exec+0x342>
ffffffc050208880:	fb043703          	ld	a4,-80(s0)
ffffffc050208884:	fc442783          	lw	a5,-60(s0)
ffffffc050208888:	07f1                	addi	a5,a5,28
ffffffc05020888a:	078a                	slli	a5,a5,0x2
ffffffc05020888c:	97ba                	add	a5,a5,a4
ffffffc05020888e:	0007a023          	sw	zero,0(a5)
ffffffc050208892:	fc442783          	lw	a5,-60(s0)
ffffffc050208896:	2785                	addiw	a5,a5,1
ffffffc050208898:	fcf42223          	sw	a5,-60(s0)
ffffffc05020889c:	fc442783          	lw	a5,-60(s0)
ffffffc0502088a0:	0007871b          	sext.w	a4,a5
ffffffc0502088a4:	47bd                	li	a5,15
ffffffc0502088a6:	fce7dde3          	bge	a5,a4,ffffffc050208880 <do_exec+0x326>
ffffffc0502088aa:	fb043783          	ld	a5,-80(s0)
ffffffc0502088ae:	fec42703          	lw	a4,-20(s0)
ffffffc0502088b2:	0ae7aa23          	sw	a4,180(a5)
ffffffc0502088b6:	fb043783          	ld	a5,-80(s0)
ffffffc0502088ba:	07c1                	addi	a5,a5,16
ffffffc0502088bc:	85be                	mv	a1,a5
ffffffc0502088be:	00005517          	auipc	a0,0x5
ffffffc0502088c2:	c6a50513          	addi	a0,a0,-918 # ffffffc05020d528 <ready_queue>
ffffffc0502088c6:	c46ff0ef          	jal	ra,ffffffc050207d0c <en_queue>
ffffffc0502088ca:	fb043783          	ld	a5,-80(s0)
ffffffc0502088ce:	5f9c                	lw	a5,56(a5)
ffffffc0502088d0:	853e                	mv	a0,a5
ffffffc0502088d2:	42813083          	ld	ra,1064(sp)
ffffffc0502088d6:	42013403          	ld	s0,1056(sp)
ffffffc0502088da:	43010113          	addi	sp,sp,1072
ffffffc0502088de:	8082                	ret

ffffffc0502088e0 <do_exit>:
ffffffc0502088e0:	1141                	addi	sp,sp,-16
ffffffc0502088e2:	e406                	sd	ra,8(sp)
ffffffc0502088e4:	e022                	sd	s0,0(sp)
ffffffc0502088e6:	0800                	addi	s0,sp,16
ffffffc0502088e8:	00055797          	auipc	a5,0x55
ffffffc0502088ec:	35878793          	addi	a5,a5,856 # ffffffc05025dc40 <current_running>
ffffffc0502088f0:	639c                	ld	a5,0(a5)
ffffffc0502088f2:	470d                	li	a4,3
ffffffc0502088f4:	dfd8                	sw	a4,60(a5)
ffffffc0502088f6:	00055797          	auipc	a5,0x55
ffffffc0502088fa:	34a78793          	addi	a5,a5,842 # ffffffc05025dc40 <current_running>
ffffffc0502088fe:	639c                	ld	a5,0(a5)
ffffffc050208900:	02078793          	addi	a5,a5,32
ffffffc050208904:	853e                	mv	a0,a5
ffffffc050208906:	af2ff0ef          	jal	ra,ffffffc050207bf8 <do_all_unblock>
ffffffc05020890a:	00055797          	auipc	a5,0x55
ffffffc05020890e:	33678793          	addi	a5,a5,822 # ffffffc05025dc40 <current_running>
ffffffc050208912:	639c                	ld	a5,0(a5)
ffffffc050208914:	7b9c                	ld	a5,48(a5)
ffffffc050208916:	853e                	mv	a0,a5
ffffffc050208918:	bd7fc0ef          	jal	ra,ffffffc0502054ee <freePage>
ffffffc05020891c:	f11fe0ef          	jal	ra,ffffffc05020782c <do_scheduler>
ffffffc050208920:	0001                	nop
ffffffc050208922:	60a2                	ld	ra,8(sp)
ffffffc050208924:	6402                	ld	s0,0(sp)
ffffffc050208926:	0141                	addi	sp,sp,16
ffffffc050208928:	8082                	ret

ffffffc05020892a <do_kill>:
ffffffc05020892a:	7179                	addi	sp,sp,-48
ffffffc05020892c:	f406                	sd	ra,40(sp)
ffffffc05020892e:	f022                	sd	s0,32(sp)
ffffffc050208930:	1800                	addi	s0,sp,48
ffffffc050208932:	87aa                	mv	a5,a0
ffffffc050208934:	fcf42e23          	sw	a5,-36(s0)
ffffffc050208938:	fe042623          	sw	zero,-20(s0)
ffffffc05020893c:	aa21                	j	ffffffc050208a54 <do_kill+0x12a>
ffffffc05020893e:	00055717          	auipc	a4,0x55
ffffffc050208942:	31270713          	addi	a4,a4,786 # ffffffc05025dc50 <pcb>
ffffffc050208946:	fec42683          	lw	a3,-20(s0)
ffffffc05020894a:	0b800793          	li	a5,184
ffffffc05020894e:	02f687b3          	mul	a5,a3,a5
ffffffc050208952:	97ba                	add	a5,a5,a4
ffffffc050208954:	5f98                	lw	a4,56(a5)
ffffffc050208956:	fdc42783          	lw	a5,-36(s0)
ffffffc05020895a:	2781                	sext.w	a5,a5
ffffffc05020895c:	0ee79763          	bne	a5,a4,ffffffc050208a4a <do_kill+0x120>
ffffffc050208960:	00055717          	auipc	a4,0x55
ffffffc050208964:	2f070713          	addi	a4,a4,752 # ffffffc05025dc50 <pcb>
ffffffc050208968:	fec42683          	lw	a3,-20(s0)
ffffffc05020896c:	0b800793          	li	a5,184
ffffffc050208970:	02f687b3          	mul	a5,a3,a5
ffffffc050208974:	97ba                	add	a5,a5,a4
ffffffc050208976:	470d                	li	a4,3
ffffffc050208978:	dfd8                	sw	a4,60(a5)
ffffffc05020897a:	fec42703          	lw	a4,-20(s0)
ffffffc05020897e:	0b800793          	li	a5,184
ffffffc050208982:	02f707b3          	mul	a5,a4,a5
ffffffc050208986:	02078713          	addi	a4,a5,32
ffffffc05020898a:	00055797          	auipc	a5,0x55
ffffffc05020898e:	2c678793          	addi	a5,a5,710 # ffffffc05025dc50 <pcb>
ffffffc050208992:	97ba                	add	a5,a5,a4
ffffffc050208994:	853e                	mv	a0,a5
ffffffc050208996:	a62ff0ef          	jal	ra,ffffffc050207bf8 <do_all_unblock>
ffffffc05020899a:	fe042423          	sw	zero,-24(s0)
ffffffc05020899e:	a8b5                	j	ffffffc050208a1a <do_kill+0xf0>
ffffffc0502089a0:	00055717          	auipc	a4,0x55
ffffffc0502089a4:	2b070713          	addi	a4,a4,688 # ffffffc05025dc50 <pcb>
ffffffc0502089a8:	fe842783          	lw	a5,-24(s0)
ffffffc0502089ac:	fec42603          	lw	a2,-20(s0)
ffffffc0502089b0:	02e00693          	li	a3,46
ffffffc0502089b4:	02d606b3          	mul	a3,a2,a3
ffffffc0502089b8:	97b6                	add	a5,a5,a3
ffffffc0502089ba:	07f1                	addi	a5,a5,28
ffffffc0502089bc:	078a                	slli	a5,a5,0x2
ffffffc0502089be:	97ba                	add	a5,a5,a4
ffffffc0502089c0:	439c                	lw	a5,0(a5)
ffffffc0502089c2:	c7b9                	beqz	a5,ffffffc050208a10 <do_kill+0xe6>
ffffffc0502089c4:	00055717          	auipc	a4,0x55
ffffffc0502089c8:	28c70713          	addi	a4,a4,652 # ffffffc05025dc50 <pcb>
ffffffc0502089cc:	fe842783          	lw	a5,-24(s0)
ffffffc0502089d0:	fec42603          	lw	a2,-20(s0)
ffffffc0502089d4:	02e00693          	li	a3,46
ffffffc0502089d8:	02d606b3          	mul	a3,a2,a3
ffffffc0502089dc:	97b6                	add	a5,a5,a3
ffffffc0502089de:	07f1                	addi	a5,a5,28
ffffffc0502089e0:	078a                	slli	a5,a5,0x2
ffffffc0502089e2:	97ba                	add	a5,a5,a4
ffffffc0502089e4:	439c                	lw	a5,0(a5)
ffffffc0502089e6:	853e                	mv	a0,a5
ffffffc0502089e8:	91cfe0ef          	jal	ra,ffffffc050206b04 <kill_lock_release>
ffffffc0502089ec:	00055717          	auipc	a4,0x55
ffffffc0502089f0:	26470713          	addi	a4,a4,612 # ffffffc05025dc50 <pcb>
ffffffc0502089f4:	fe842783          	lw	a5,-24(s0)
ffffffc0502089f8:	fec42603          	lw	a2,-20(s0)
ffffffc0502089fc:	02e00693          	li	a3,46
ffffffc050208a00:	02d606b3          	mul	a3,a2,a3
ffffffc050208a04:	97b6                	add	a5,a5,a3
ffffffc050208a06:	07f1                	addi	a5,a5,28
ffffffc050208a08:	078a                	slli	a5,a5,0x2
ffffffc050208a0a:	97ba                	add	a5,a5,a4
ffffffc050208a0c:	0007a023          	sw	zero,0(a5)
ffffffc050208a10:	fe842783          	lw	a5,-24(s0)
ffffffc050208a14:	2785                	addiw	a5,a5,1
ffffffc050208a16:	fef42423          	sw	a5,-24(s0)
ffffffc050208a1a:	fe842783          	lw	a5,-24(s0)
ffffffc050208a1e:	0007871b          	sext.w	a4,a5
ffffffc050208a22:	47bd                	li	a5,15
ffffffc050208a24:	f6e7dee3          	bge	a5,a4,ffffffc0502089a0 <do_kill+0x76>
ffffffc050208a28:	00055717          	auipc	a4,0x55
ffffffc050208a2c:	22870713          	addi	a4,a4,552 # ffffffc05025dc50 <pcb>
ffffffc050208a30:	fec42683          	lw	a3,-20(s0)
ffffffc050208a34:	0b800793          	li	a5,184
ffffffc050208a38:	02f687b3          	mul	a5,a3,a5
ffffffc050208a3c:	97ba                	add	a5,a5,a4
ffffffc050208a3e:	7b9c                	ld	a5,48(a5)
ffffffc050208a40:	853e                	mv	a0,a5
ffffffc050208a42:	aadfc0ef          	jal	ra,ffffffc0502054ee <freePage>
ffffffc050208a46:	4785                	li	a5,1
ffffffc050208a48:	a831                	j	ffffffc050208a64 <do_kill+0x13a>
ffffffc050208a4a:	fec42783          	lw	a5,-20(s0)
ffffffc050208a4e:	2785                	addiw	a5,a5,1
ffffffc050208a50:	fef42623          	sw	a5,-20(s0)
ffffffc050208a54:	fec42783          	lw	a5,-20(s0)
ffffffc050208a58:	0007871b          	sext.w	a4,a5
ffffffc050208a5c:	47bd                	li	a5,15
ffffffc050208a5e:	eee7d0e3          	bge	a5,a4,ffffffc05020893e <do_kill+0x14>
ffffffc050208a62:	4781                	li	a5,0
ffffffc050208a64:	853e                	mv	a0,a5
ffffffc050208a66:	70a2                	ld	ra,40(sp)
ffffffc050208a68:	7402                	ld	s0,32(sp)
ffffffc050208a6a:	6145                	addi	sp,sp,48
ffffffc050208a6c:	8082                	ret

ffffffc050208a6e <do_waitpid>:
ffffffc050208a6e:	7179                	addi	sp,sp,-48
ffffffc050208a70:	f406                	sd	ra,40(sp)
ffffffc050208a72:	f022                	sd	s0,32(sp)
ffffffc050208a74:	1800                	addi	s0,sp,48
ffffffc050208a76:	87aa                	mv	a5,a0
ffffffc050208a78:	fcf42e23          	sw	a5,-36(s0)
ffffffc050208a7c:	fe042623          	sw	zero,-20(s0)
ffffffc050208a80:	a049                	j	ffffffc050208b02 <do_waitpid+0x94>
ffffffc050208a82:	00055717          	auipc	a4,0x55
ffffffc050208a86:	1ce70713          	addi	a4,a4,462 # ffffffc05025dc50 <pcb>
ffffffc050208a8a:	fec42683          	lw	a3,-20(s0)
ffffffc050208a8e:	0b800793          	li	a5,184
ffffffc050208a92:	02f687b3          	mul	a5,a3,a5
ffffffc050208a96:	97ba                	add	a5,a5,a4
ffffffc050208a98:	5f98                	lw	a4,56(a5)
ffffffc050208a9a:	fdc42783          	lw	a5,-36(s0)
ffffffc050208a9e:	2781                	sext.w	a5,a5
ffffffc050208aa0:	04e79c63          	bne	a5,a4,ffffffc050208af8 <do_waitpid+0x8a>
ffffffc050208aa4:	00055717          	auipc	a4,0x55
ffffffc050208aa8:	1ac70713          	addi	a4,a4,428 # ffffffc05025dc50 <pcb>
ffffffc050208aac:	fec42683          	lw	a3,-20(s0)
ffffffc050208ab0:	0b800793          	li	a5,184
ffffffc050208ab4:	02f687b3          	mul	a5,a3,a5
ffffffc050208ab8:	97ba                	add	a5,a5,a4
ffffffc050208aba:	5fdc                	lw	a5,60(a5)
ffffffc050208abc:	873e                	mv	a4,a5
ffffffc050208abe:	478d                	li	a5,3
ffffffc050208ac0:	02f70c63          	beq	a4,a5,ffffffc050208af8 <do_waitpid+0x8a>
ffffffc050208ac4:	fec42703          	lw	a4,-20(s0)
ffffffc050208ac8:	0b800793          	li	a5,184
ffffffc050208acc:	02f707b3          	mul	a5,a4,a5
ffffffc050208ad0:	02078713          	addi	a4,a5,32
ffffffc050208ad4:	00055797          	auipc	a5,0x55
ffffffc050208ad8:	17c78793          	addi	a5,a5,380 # ffffffc05025dc50 <pcb>
ffffffc050208adc:	973e                	add	a4,a4,a5
ffffffc050208ade:	00055797          	auipc	a5,0x55
ffffffc050208ae2:	16278793          	addi	a5,a5,354 # ffffffc05025dc40 <current_running>
ffffffc050208ae6:	639c                	ld	a5,0(a5)
ffffffc050208ae8:	07c1                	addi	a5,a5,16
ffffffc050208aea:	85be                	mv	a1,a5
ffffffc050208aec:	853a                	mv	a0,a4
ffffffc050208aee:	882ff0ef          	jal	ra,ffffffc050207b70 <do_block>
ffffffc050208af2:	fdc42783          	lw	a5,-36(s0)
ffffffc050208af6:	a831                	j	ffffffc050208b12 <do_waitpid+0xa4>
ffffffc050208af8:	fec42783          	lw	a5,-20(s0)
ffffffc050208afc:	2785                	addiw	a5,a5,1
ffffffc050208afe:	fef42623          	sw	a5,-20(s0)
ffffffc050208b02:	fec42783          	lw	a5,-20(s0)
ffffffc050208b06:	0007871b          	sext.w	a4,a5
ffffffc050208b0a:	47bd                	li	a5,15
ffffffc050208b0c:	f6e7dbe3          	bge	a5,a4,ffffffc050208a82 <do_waitpid+0x14>
ffffffc050208b10:	4781                	li	a5,0
ffffffc050208b12:	853e                	mv	a0,a5
ffffffc050208b14:	70a2                	ld	ra,40(sp)
ffffffc050208b16:	7402                	ld	s0,32(sp)
ffffffc050208b18:	6145                	addi	sp,sp,48
ffffffc050208b1a:	8082                	ret

ffffffc050208b1c <do_getpid>:
ffffffc050208b1c:	1141                	addi	sp,sp,-16
ffffffc050208b1e:	e422                	sd	s0,8(sp)
ffffffc050208b20:	0800                	addi	s0,sp,16
ffffffc050208b22:	00055797          	auipc	a5,0x55
ffffffc050208b26:	11e78793          	addi	a5,a5,286 # ffffffc05025dc40 <current_running>
ffffffc050208b2a:	639c                	ld	a5,0(a5)
ffffffc050208b2c:	5f9c                	lw	a5,56(a5)
ffffffc050208b2e:	853e                	mv	a0,a5
ffffffc050208b30:	6422                	ld	s0,8(sp)
ffffffc050208b32:	0141                	addi	sp,sp,16
ffffffc050208b34:	8082                	ret

ffffffc050208b36 <do_taskset>:
ffffffc050208b36:	1101                	addi	sp,sp,-32
ffffffc050208b38:	ec22                	sd	s0,24(sp)
ffffffc050208b3a:	1000                	addi	s0,sp,32
ffffffc050208b3c:	87aa                	mv	a5,a0
ffffffc050208b3e:	872e                	mv	a4,a1
ffffffc050208b40:	fef42623          	sw	a5,-20(s0)
ffffffc050208b44:	87ba                	mv	a5,a4
ffffffc050208b46:	fef42423          	sw	a5,-24(s0)
ffffffc050208b4a:	00055717          	auipc	a4,0x55
ffffffc050208b4e:	10670713          	addi	a4,a4,262 # ffffffc05025dc50 <pcb>
ffffffc050208b52:	fe842683          	lw	a3,-24(s0)
ffffffc050208b56:	0b800793          	li	a5,184
ffffffc050208b5a:	02f687b3          	mul	a5,a3,a5
ffffffc050208b5e:	97ba                	add	a5,a5,a4
ffffffc050208b60:	fec42703          	lw	a4,-20(s0)
ffffffc050208b64:	0ae7aa23          	sw	a4,180(a5)
ffffffc050208b68:	0001                	nop
ffffffc050208b6a:	6462                	ld	s0,24(sp)
ffffffc050208b6c:	6105                	addi	sp,sp,32
ffffffc050208b6e:	8082                	ret

ffffffc050208b70 <do_pagefault>:
ffffffc050208b70:	711d                	addi	sp,sp,-96
ffffffc050208b72:	ec86                	sd	ra,88(sp)
ffffffc050208b74:	e8a2                	sd	s0,80(sp)
ffffffc050208b76:	1080                	addi	s0,sp,96
ffffffc050208b78:	faa43423          	sd	a0,-88(s0)
ffffffc050208b7c:	fa843783          	ld	a5,-88(s0)
ffffffc050208b80:	0107d713          	srli	a4,a5,0x10
ffffffc050208b84:	07200793          	li	a5,114
ffffffc050208b88:	06e7f663          	bgeu	a5,a4,ffffffc050208bf4 <do_pagefault+0x84>
ffffffc050208b8c:	fa843783          	ld	a5,-88(s0)
ffffffc050208b90:	0107d713          	srli	a4,a5,0x10
ffffffc050208b94:	07500793          	li	a5,117
ffffffc050208b98:	04e7ee63          	bltu	a5,a4,ffffffc050208bf4 <do_pagefault+0x84>
ffffffc050208b9c:	00055797          	auipc	a5,0x55
ffffffc050208ba0:	0a478793          	addi	a5,a5,164 # ffffffc05025dc40 <current_running>
ffffffc050208ba4:	639c                	ld	a5,0(a5)
ffffffc050208ba6:	7b9c                	ld	a5,48(a5)
ffffffc050208ba8:	fef43023          	sd	a5,-32(s0)
ffffffc050208bac:	fa843503          	ld	a0,-88(s0)
ffffffc050208bb0:	e64fd0ef          	jal	ra,ffffffc050206214 <get_page_addr>
ffffffc050208bb4:	fca43c23          	sd	a0,-40(s0)
ffffffc050208bb8:	fd843503          	ld	a0,-40(s0)
ffffffc050208bbc:	b57fe0ef          	jal	ra,ffffffc050207712 <pa2kva>
ffffffc050208bc0:	fca43823          	sd	a0,-48(s0)
ffffffc050208bc4:	fe043583          	ld	a1,-32(s0)
ffffffc050208bc8:	fa843503          	ld	a0,-88(s0)
ffffffc050208bcc:	80cfd0ef          	jal	ra,ffffffc050205bd8 <clear_pagevalid>
ffffffc050208bd0:	4681                	li	a3,0
ffffffc050208bd2:	4601                	li	a2,0
ffffffc050208bd4:	fe043583          	ld	a1,-32(s0)
ffffffc050208bd8:	fa843503          	ld	a0,-88(s0)
ffffffc050208bdc:	a9dfc0ef          	jal	ra,ffffffc050205678 <alloc_page_helper>
ffffffc050208be0:	fca43423          	sd	a0,-56(s0)
ffffffc050208be4:	6605                	lui	a2,0x1
ffffffc050208be6:	fd043583          	ld	a1,-48(s0)
ffffffc050208bea:	fc843503          	ld	a0,-56(s0)
ffffffc050208bee:	165030ef          	jal	ra,ffffffc05020c552 <memcpy>
ffffffc050208bf2:	aaa9                	j	ffffffc050208d4c <do_pagefault+0x1dc>
ffffffc050208bf4:	fa843703          	ld	a4,-88(s0)
ffffffc050208bf8:	77fd                	lui	a5,0xfffff
ffffffc050208bfa:	8ff9                	and	a5,a5,a4
ffffffc050208bfc:	fcf43023          	sd	a5,-64(s0)
ffffffc050208c00:	fe042623          	sw	zero,-20(s0)
ffffffc050208c04:	aa31                	j	ffffffc050208d20 <do_pagefault+0x1b0>
ffffffc050208c06:	00051697          	auipc	a3,0x51
ffffffc050208c0a:	9c268693          	addi	a3,a3,-1598 # ffffffc0502595c8 <sdpage_array>
ffffffc050208c0e:	fec42703          	lw	a4,-20(s0)
ffffffc050208c12:	87ba                	mv	a5,a4
ffffffc050208c14:	0786                	slli	a5,a5,0x1
ffffffc050208c16:	97ba                	add	a5,a5,a4
ffffffc050208c18:	078e                	slli	a5,a5,0x3
ffffffc050208c1a:	97b6                	add	a5,a5,a3
ffffffc050208c1c:	47dc                	lw	a5,12(a5)
ffffffc050208c1e:	873e                	mv	a4,a5
ffffffc050208c20:	4785                	li	a5,1
ffffffc050208c22:	0ef71a63          	bne	a4,a5,ffffffc050208d16 <do_pagefault+0x1a6>
ffffffc050208c26:	00051697          	auipc	a3,0x51
ffffffc050208c2a:	9a268693          	addi	a3,a3,-1630 # ffffffc0502595c8 <sdpage_array>
ffffffc050208c2e:	fec42703          	lw	a4,-20(s0)
ffffffc050208c32:	87ba                	mv	a5,a4
ffffffc050208c34:	0786                	slli	a5,a5,0x1
ffffffc050208c36:	97ba                	add	a5,a5,a4
ffffffc050208c38:	078e                	slli	a5,a5,0x3
ffffffc050208c3a:	97b6                	add	a5,a5,a3
ffffffc050208c3c:	639c                	ld	a5,0(a5)
ffffffc050208c3e:	fc043703          	ld	a4,-64(s0)
ffffffc050208c42:	0cf71a63          	bne	a4,a5,ffffffc050208d16 <do_pagefault+0x1a6>
ffffffc050208c46:	00051697          	auipc	a3,0x51
ffffffc050208c4a:	98268693          	addi	a3,a3,-1662 # ffffffc0502595c8 <sdpage_array>
ffffffc050208c4e:	fec42703          	lw	a4,-20(s0)
ffffffc050208c52:	87ba                	mv	a5,a4
ffffffc050208c54:	0786                	slli	a5,a5,0x1
ffffffc050208c56:	97ba                	add	a5,a5,a4
ffffffc050208c58:	078e                	slli	a5,a5,0x3
ffffffc050208c5a:	97b6                	add	a5,a5,a3
ffffffc050208c5c:	6b98                	ld	a4,16(a5)
ffffffc050208c5e:	00055797          	auipc	a5,0x55
ffffffc050208c62:	fe278793          	addi	a5,a5,-30 # ffffffc05025dc40 <current_running>
ffffffc050208c66:	639c                	ld	a5,0(a5)
ffffffc050208c68:	7b9c                	ld	a5,48(a5)
ffffffc050208c6a:	0af71663          	bne	a4,a5,ffffffc050208d16 <do_pagefault+0x1a6>
ffffffc050208c6e:	00055797          	auipc	a5,0x55
ffffffc050208c72:	fd278793          	addi	a5,a5,-46 # ffffffc05025dc40 <current_running>
ffffffc050208c76:	639c                	ld	a5,0(a5)
ffffffc050208c78:	7b9c                	ld	a5,48(a5)
ffffffc050208c7a:	4685                	li	a3,1
ffffffc050208c7c:	4601                	li	a2,0
ffffffc050208c7e:	85be                	mv	a1,a5
ffffffc050208c80:	fc043503          	ld	a0,-64(s0)
ffffffc050208c84:	9f5fc0ef          	jal	ra,ffffffc050205678 <alloc_page_helper>
ffffffc050208c88:	faa43c23          	sd	a0,-72(s0)
ffffffc050208c8c:	fb843703          	ld	a4,-72(s0)
ffffffc050208c90:	6785                	lui	a5,0x1
ffffffc050208c92:	17fd                	addi	a5,a5,-1
ffffffc050208c94:	8ff9                	and	a5,a5,a4
ffffffc050208c96:	cf89                	beqz	a5,ffffffc050208cb0 <do_pagefault+0x140>
ffffffc050208c98:	00004617          	auipc	a2,0x4
ffffffc050208c9c:	3a860613          	addi	a2,a2,936 # ffffffc05020d040 <__FUNCTION__.1798>
ffffffc050208ca0:	24b00593          	li	a1,587
ffffffc050208ca4:	00004517          	auipc	a0,0x4
ffffffc050208ca8:	1ec50513          	addi	a0,a0,492 # ffffffc05020ce90 <__FUNCTION__.1531+0x38>
ffffffc050208cac:	9b1fe0ef          	jal	ra,ffffffc05020765c <_panic>
ffffffc050208cb0:	fb843503          	ld	a0,-72(s0)
ffffffc050208cb4:	a33fe0ef          	jal	ra,ffffffc0502076e6 <kva2pa>
ffffffc050208cb8:	87aa                	mv	a5,a0
ffffffc050208cba:	0007851b          	sext.w	a0,a5
ffffffc050208cbe:	00051697          	auipc	a3,0x51
ffffffc050208cc2:	90a68693          	addi	a3,a3,-1782 # ffffffc0502595c8 <sdpage_array>
ffffffc050208cc6:	fec42703          	lw	a4,-20(s0)
ffffffc050208cca:	87ba                	mv	a5,a4
ffffffc050208ccc:	0786                	slli	a5,a5,0x1
ffffffc050208cce:	97ba                	add	a5,a5,a4
ffffffc050208cd0:	078e                	slli	a5,a5,0x3
ffffffc050208cd2:	97b6                	add	a5,a5,a3
ffffffc050208cd4:	479c                	lw	a5,8(a5)
ffffffc050208cd6:	2781                	sext.w	a5,a5
ffffffc050208cd8:	863e                	mv	a2,a5
ffffffc050208cda:	45a1                	li	a1,8
ffffffc050208cdc:	abbfe0ef          	jal	ra,ffffffc050207796 <bios_sdread>
ffffffc050208ce0:	00051697          	auipc	a3,0x51
ffffffc050208ce4:	8e868693          	addi	a3,a3,-1816 # ffffffc0502595c8 <sdpage_array>
ffffffc050208ce8:	fec42703          	lw	a4,-20(s0)
ffffffc050208cec:	87ba                	mv	a5,a4
ffffffc050208cee:	0786                	slli	a5,a5,0x1
ffffffc050208cf0:	97ba                	add	a5,a5,a4
ffffffc050208cf2:	078e                	slli	a5,a5,0x3
ffffffc050208cf4:	97b6                	add	a5,a5,a3
ffffffc050208cf6:	0007a623          	sw	zero,12(a5) # 100c <boot_stack_top_base-0x50200ff4>
ffffffc050208cfa:	00005797          	auipc	a5,0x5
ffffffc050208cfe:	92e78793          	addi	a5,a5,-1746 # ffffffc05020d628 <used_sdpage>
ffffffc050208d02:	439c                	lw	a5,0(a5)
ffffffc050208d04:	37fd                	addiw	a5,a5,-1
ffffffc050208d06:	0007871b          	sext.w	a4,a5
ffffffc050208d0a:	00005797          	auipc	a5,0x5
ffffffc050208d0e:	91e78793          	addi	a5,a5,-1762 # ffffffc05020d628 <used_sdpage>
ffffffc050208d12:	c398                	sw	a4,0(a5)
ffffffc050208d14:	a825                	j	ffffffc050208d4c <do_pagefault+0x1dc>
ffffffc050208d16:	fec42783          	lw	a5,-20(s0)
ffffffc050208d1a:	2785                	addiw	a5,a5,1
ffffffc050208d1c:	fef42623          	sw	a5,-20(s0)
ffffffc050208d20:	fec42783          	lw	a5,-20(s0)
ffffffc050208d24:	0007871b          	sext.w	a4,a5
ffffffc050208d28:	07f00793          	li	a5,127
ffffffc050208d2c:	ece7dde3          	bge	a5,a4,ffffffc050208c06 <do_pagefault+0x96>
ffffffc050208d30:	00055797          	auipc	a5,0x55
ffffffc050208d34:	f1078793          	addi	a5,a5,-240 # ffffffc05025dc40 <current_running>
ffffffc050208d38:	639c                	ld	a5,0(a5)
ffffffc050208d3a:	7b9c                	ld	a5,48(a5)
ffffffc050208d3c:	4685                	li	a3,1
ffffffc050208d3e:	4601                	li	a2,0
ffffffc050208d40:	85be                	mv	a1,a5
ffffffc050208d42:	fa843503          	ld	a0,-88(s0)
ffffffc050208d46:	933fc0ef          	jal	ra,ffffffc050205678 <alloc_page_helper>
ffffffc050208d4a:	0001                	nop
ffffffc050208d4c:	60e6                	ld	ra,88(sp)
ffffffc050208d4e:	6446                	ld	s0,80(sp)
ffffffc050208d50:	6125                	addi	sp,sp,96
ffffffc050208d52:	8082                	ret

ffffffc050208d54 <init_kernel_stack_for_thread>:
ffffffc050208d54:	711d                	addi	sp,sp,-96
ffffffc050208d56:	eca2                	sd	s0,88(sp)
ffffffc050208d58:	1080                	addi	s0,sp,96
ffffffc050208d5a:	fca43423          	sd	a0,-56(s0)
ffffffc050208d5e:	fcb43023          	sd	a1,-64(s0)
ffffffc050208d62:	fac43c23          	sd	a2,-72(s0)
ffffffc050208d66:	fad43823          	sd	a3,-80(s0)
ffffffc050208d6a:	87ba                	mv	a5,a4
ffffffc050208d6c:	faf42623          	sw	a5,-84(s0)
ffffffc050208d70:	fc843783          	ld	a5,-56(s0)
ffffffc050208d74:	ee078793          	addi	a5,a5,-288
ffffffc050208d78:	fef43023          	sd	a5,-32(s0)
ffffffc050208d7c:	fe042623          	sw	zero,-20(s0)
ffffffc050208d80:	a831                	j	ffffffc050208d9c <init_kernel_stack_for_thread+0x48>
ffffffc050208d82:	fe043703          	ld	a4,-32(s0)
ffffffc050208d86:	fec42783          	lw	a5,-20(s0)
ffffffc050208d8a:	078e                	slli	a5,a5,0x3
ffffffc050208d8c:	97ba                	add	a5,a5,a4
ffffffc050208d8e:	0007b023          	sd	zero,0(a5)
ffffffc050208d92:	fec42783          	lw	a5,-20(s0)
ffffffc050208d96:	2785                	addiw	a5,a5,1
ffffffc050208d98:	fef42623          	sw	a5,-20(s0)
ffffffc050208d9c:	fec42783          	lw	a5,-20(s0)
ffffffc050208da0:	0007871b          	sext.w	a4,a5
ffffffc050208da4:	47fd                	li	a5,31
ffffffc050208da6:	fce7dee3          	bge	a5,a4,ffffffc050208d82 <init_kernel_stack_for_thread+0x2e>
ffffffc050208daa:	fe043783          	ld	a5,-32(s0)
ffffffc050208dae:	fc043703          	ld	a4,-64(s0)
ffffffc050208db2:	ebb8                	sd	a4,80(a5)
ffffffc050208db4:	fe043783          	ld	a5,-32(s0)
ffffffc050208db8:	fc043703          	ld	a4,-64(s0)
ffffffc050208dbc:	efb8                	sd	a4,88(a5)
ffffffc050208dbe:	fb043703          	ld	a4,-80(s0)
ffffffc050208dc2:	fe043783          	ld	a5,-32(s0)
ffffffc050208dc6:	f398                	sd	a4,32(a5)
ffffffc050208dc8:	fb043783          	ld	a5,-80(s0)
ffffffc050208dcc:	6798                	ld	a4,8(a5)
ffffffc050208dce:	fe043783          	ld	a5,-32(s0)
ffffffc050208dd2:	eb98                	sd	a4,16(a5)
ffffffc050208dd4:	ffff9717          	auipc	a4,0xffff9
ffffffc050208dd8:	35c70713          	addi	a4,a4,860 # ffffffc050202130 <exception_handler_entry>
ffffffc050208ddc:	fe043783          	ld	a5,-32(s0)
ffffffc050208de0:	e798                	sd	a4,8(a5)
ffffffc050208de2:	fe043783          	ld	a5,-32(s0)
ffffffc050208de6:	00046737          	lui	a4,0x46
ffffffc050208dea:	02070713          	addi	a4,a4,32 # 46020 <boot_stack_top_base-0x501bbfe0>
ffffffc050208dee:	10e7b023          	sd	a4,256(a5)
ffffffc050208df2:	fe043783          	ld	a5,-32(s0)
ffffffc050208df6:	fb843703          	ld	a4,-72(s0)
ffffffc050208dfa:	10e7b423          	sd	a4,264(a5)
ffffffc050208dfe:	fe043783          	ld	a5,-32(s0)
ffffffc050208e02:	f9078793          	addi	a5,a5,-112
ffffffc050208e06:	fcf43c23          	sd	a5,-40(s0)
ffffffc050208e0a:	fe042423          	sw	zero,-24(s0)
ffffffc050208e0e:	a831                	j	ffffffc050208e2a <init_kernel_stack_for_thread+0xd6>
ffffffc050208e10:	fd843703          	ld	a4,-40(s0)
ffffffc050208e14:	fe842783          	lw	a5,-24(s0)
ffffffc050208e18:	078e                	slli	a5,a5,0x3
ffffffc050208e1a:	97ba                	add	a5,a5,a4
ffffffc050208e1c:	0007b023          	sd	zero,0(a5)
ffffffc050208e20:	fe842783          	lw	a5,-24(s0)
ffffffc050208e24:	2785                	addiw	a5,a5,1
ffffffc050208e26:	fef42423          	sw	a5,-24(s0)
ffffffc050208e2a:	fe842783          	lw	a5,-24(s0)
ffffffc050208e2e:	0007871b          	sext.w	a4,a5
ffffffc050208e32:	47b5                	li	a5,13
ffffffc050208e34:	fce7dee3          	bge	a5,a4,ffffffc050208e10 <init_kernel_stack_for_thread+0xbc>
ffffffc050208e38:	ffff9717          	auipc	a4,0xffff9
ffffffc050208e3c:	29c70713          	addi	a4,a4,668 # ffffffc0502020d4 <ret_from_exception>
ffffffc050208e40:	fd843783          	ld	a5,-40(s0)
ffffffc050208e44:	e398                	sd	a4,0(a5)
ffffffc050208e46:	fd843703          	ld	a4,-40(s0)
ffffffc050208e4a:	fb043783          	ld	a5,-80(s0)
ffffffc050208e4e:	e398                	sd	a4,0(a5)
ffffffc050208e50:	fb043783          	ld	a5,-80(s0)
ffffffc050208e54:	6398                	ld	a4,0(a5)
ffffffc050208e56:	fd843783          	ld	a5,-40(s0)
ffffffc050208e5a:	e798                	sd	a4,8(a5)
ffffffc050208e5c:	0001                	nop
ffffffc050208e5e:	6466                	ld	s0,88(sp)
ffffffc050208e60:	6125                	addi	sp,sp,96
ffffffc050208e62:	8082                	ret

ffffffc050208e64 <thread_create>:
ffffffc050208e64:	7169                	addi	sp,sp,-304
ffffffc050208e66:	f606                	sd	ra,296(sp)
ffffffc050208e68:	f222                	sd	s0,288(sp)
ffffffc050208e6a:	1a00                	addi	s0,sp,304
ffffffc050208e6c:	eea43423          	sd	a0,-280(s0)
ffffffc050208e70:	eeb43023          	sd	a1,-288(s0)
ffffffc050208e74:	ecc43c23          	sd	a2,-296(s0)
ffffffc050208e78:	b08ff0ef          	jal	ra,ffffffc050208180 <alloc_pcb>
ffffffc050208e7c:	87aa                	mv	a5,a0
ffffffc050208e7e:	fcf42c23          	sw	a5,-40(s0)
ffffffc050208e82:	ee843783          	ld	a5,-280(s0)
ffffffc050208e86:	fd842703          	lw	a4,-40(s0)
ffffffc050208e8a:	c398                	sw	a4,0(a5)
ffffffc050208e8c:	fd842783          	lw	a5,-40(s0)
ffffffc050208e90:	2781                	sext.w	a5,a5
ffffffc050208e92:	0007de63          	bgez	a5,ffffffc050208eae <thread_create+0x4a>
ffffffc050208e96:	00004617          	auipc	a2,0x4
ffffffc050208e9a:	1ba60613          	addi	a2,a2,442 # ffffffc05020d050 <__FUNCTION__.1825>
ffffffc050208e9e:	27900593          	li	a1,633
ffffffc050208ea2:	00004517          	auipc	a0,0x4
ffffffc050208ea6:	fee50513          	addi	a0,a0,-18 # ffffffc05020ce90 <__FUNCTION__.1531+0x38>
ffffffc050208eaa:	fb2fe0ef          	jal	ra,ffffffc05020765c <_panic>
ffffffc050208eae:	fd842703          	lw	a4,-40(s0)
ffffffc050208eb2:	0b800793          	li	a5,184
ffffffc050208eb6:	02f70733          	mul	a4,a4,a5
ffffffc050208eba:	00055797          	auipc	a5,0x55
ffffffc050208ebe:	d9678793          	addi	a5,a5,-618 # ffffffc05025dc50 <pcb>
ffffffc050208ec2:	97ba                	add	a5,a5,a4
ffffffc050208ec4:	fcf43823          	sd	a5,-48(s0)
ffffffc050208ec8:	4785                	li	a5,1
ffffffc050208eca:	fcf42623          	sw	a5,-52(s0)
ffffffc050208ece:	00055797          	auipc	a5,0x55
ffffffc050208ed2:	d7278793          	addi	a5,a5,-654 # ffffffc05025dc40 <current_running>
ffffffc050208ed6:	639c                	ld	a5,0(a5)
ffffffc050208ed8:	7b98                	ld	a4,48(a5)
ffffffc050208eda:	fd043783          	ld	a5,-48(s0)
ffffffc050208ede:	fb98                	sd	a4,48(a5)
ffffffc050208ee0:	ee043783          	ld	a5,-288(s0)
ffffffc050208ee4:	fcf43023          	sd	a5,-64(s0)
ffffffc050208ee8:	4785                	li	a5,1
ffffffc050208eea:	faf42e23          	sw	a5,-68(s0)
ffffffc050208eee:	fe042623          	sw	zero,-20(s0)
ffffffc050208ef2:	ef840713          	addi	a4,s0,-264
ffffffc050208ef6:	fec42783          	lw	a5,-20(s0)
ffffffc050208efa:	97ba                	add	a5,a5,a4
ffffffc050208efc:	f6f43023          	sd	a5,-160(s0)
ffffffc050208f00:	ed843783          	ld	a5,-296(s0)
ffffffc050208f04:	639c                	ld	a5,0(a5)
ffffffc050208f06:	fef43023          	sd	a5,-32(s0)
ffffffc050208f0a:	fe043783          	ld	a5,-32(s0)
ffffffc050208f0e:	00178713          	addi	a4,a5,1
ffffffc050208f12:	fee43023          	sd	a4,-32(s0)
ffffffc050208f16:	0007c703          	lbu	a4,0(a5)
ffffffc050208f1a:	fec42783          	lw	a5,-20(s0)
ffffffc050208f1e:	ff040693          	addi	a3,s0,-16
ffffffc050208f22:	97b6                	add	a5,a5,a3
ffffffc050208f24:	f0e78423          	sb	a4,-248(a5)
ffffffc050208f28:	fec42783          	lw	a5,-20(s0)
ffffffc050208f2c:	ff040713          	addi	a4,s0,-16
ffffffc050208f30:	97ba                	add	a5,a5,a4
ffffffc050208f32:	f087c783          	lbu	a5,-248(a5)
ffffffc050208f36:	10079f63          	bnez	a5,ffffffc050209054 <thread_create+0x1f0>
ffffffc050208f3a:	fec42783          	lw	a5,-20(s0)
ffffffc050208f3e:	2785                	addiw	a5,a5,1
ffffffc050208f40:	fef42623          	sw	a5,-20(s0)
ffffffc050208f44:	0001                	nop
ffffffc050208f46:	fd043783          	ld	a5,-48(s0)
ffffffc050208f4a:	7b9c                	ld	a5,48(a5)
ffffffc050208f4c:	4681                	li	a3,0
ffffffc050208f4e:	4601                	li	a2,0
ffffffc050208f50:	85be                	mv	a1,a5
ffffffc050208f52:	780017b7          	lui	a5,0x78001
ffffffc050208f56:	00579513          	slli	a0,a5,0x5
ffffffc050208f5a:	f1efc0ef          	jal	ra,ffffffc050205678 <alloc_page_helper>
ffffffc050208f5e:	faa43823          	sd	a0,-80(s0)
ffffffc050208f62:	fd043783          	ld	a5,-48(s0)
ffffffc050208f66:	7b98                	ld	a4,48(a5)
ffffffc050208f68:	fcc42783          	lw	a5,-52(s0)
ffffffc050208f6c:	85ba                	mv	a1,a4
ffffffc050208f6e:	853e                	mv	a0,a5
ffffffc050208f70:	c86fc0ef          	jal	ra,ffffffc0502053f6 <allocFixedPage>
ffffffc050208f74:	faa43423          	sd	a0,-88(s0)
ffffffc050208f78:	780017b7          	lui	a5,0x78001
ffffffc050208f7c:	0796                	slli	a5,a5,0x5
ffffffc050208f7e:	faf43023          	sd	a5,-96(s0)
ffffffc050208f82:	fd043783          	ld	a5,-48(s0)
ffffffc050208f86:	fa843703          	ld	a4,-88(s0)
ffffffc050208f8a:	f3b8                	sd	a4,96(a5)
ffffffc050208f8c:	fd043783          	ld	a5,-48(s0)
ffffffc050208f90:	fa043703          	ld	a4,-96(s0)
ffffffc050208f94:	f7b8                	sd	a4,104(a5)
ffffffc050208f96:	fcc42783          	lw	a5,-52(s0)
ffffffc050208f9a:	00c7979b          	slliw	a5,a5,0xc
ffffffc050208f9e:	2781                	sext.w	a5,a5
ffffffc050208fa0:	873e                	mv	a4,a5
ffffffc050208fa2:	fb043783          	ld	a5,-80(s0)
ffffffc050208fa6:	00f70533          	add	a0,a4,a5
ffffffc050208faa:	fcc42783          	lw	a5,-52(s0)
ffffffc050208fae:	00c7979b          	slliw	a5,a5,0xc
ffffffc050208fb2:	2781                	sext.w	a5,a5
ffffffc050208fb4:	873e                	mv	a4,a5
ffffffc050208fb6:	fa043783          	ld	a5,-96(s0)
ffffffc050208fba:	97ba                	add	a5,a5,a4
ffffffc050208fbc:	f6040713          	addi	a4,s0,-160
ffffffc050208fc0:	fbc42683          	lw	a3,-68(s0)
ffffffc050208fc4:	fd043603          	ld	a2,-48(s0)
ffffffc050208fc8:	85be                	mv	a1,a5
ffffffc050208fca:	c68ff0ef          	jal	ra,ffffffc050208432 <init_user_stack>
ffffffc050208fce:	f8a43c23          	sd	a0,-104(s0)
ffffffc050208fd2:	f9843783          	ld	a5,-104(s0)
ffffffc050208fd6:	639c                	ld	a5,0(a5)
ffffffc050208fd8:	0007c783          	lbu	a5,0(a5) # 78001000 <boot_stack_top_base+0x27dff000>
ffffffc050208fdc:	f8f43823          	sd	a5,-112(s0)
ffffffc050208fe0:	fcc42783          	lw	a5,-52(s0)
ffffffc050208fe4:	00c7979b          	slliw	a5,a5,0xc
ffffffc050208fe8:	2781                	sext.w	a5,a5
ffffffc050208fea:	873e                	mv	a4,a5
ffffffc050208fec:	fa843783          	ld	a5,-88(s0)
ffffffc050208ff0:	97ba                	add	a5,a5,a4
ffffffc050208ff2:	fbc42703          	lw	a4,-68(s0)
ffffffc050208ff6:	fd043683          	ld	a3,-48(s0)
ffffffc050208ffa:	fc043603          	ld	a2,-64(s0)
ffffffc050208ffe:	f9043583          	ld	a1,-112(s0)
ffffffc050209002:	853e                	mv	a0,a5
ffffffc050209004:	d51ff0ef          	jal	ra,ffffffc050208d54 <init_kernel_stack_for_thread>
ffffffc050209008:	fd043783          	ld	a5,-48(s0)
ffffffc05020900c:	fd842703          	lw	a4,-40(s0)
ffffffc050209010:	df98                	sw	a4,56(a5)
ffffffc050209012:	fd043783          	ld	a5,-48(s0)
ffffffc050209016:	0407b423          	sd	zero,72(a5)
ffffffc05020901a:	fd043783          	ld	a5,-48(s0)
ffffffc05020901e:	4709                	li	a4,2
ffffffc050209020:	dfd8                	sw	a4,60(a5)
ffffffc050209022:	fd043783          	ld	a5,-48(s0)
ffffffc050209026:	0407a023          	sw	zero,64(a5)
ffffffc05020902a:	fd043783          	ld	a5,-48(s0)
ffffffc05020902e:	0407a223          	sw	zero,68(a5)
ffffffc050209032:	fd043783          	ld	a5,-48(s0)
ffffffc050209036:	02078713          	addi	a4,a5,32
ffffffc05020903a:	fd043783          	ld	a5,-48(s0)
ffffffc05020903e:	f398                	sd	a4,32(a5)
ffffffc050209040:	fd043783          	ld	a5,-48(s0)
ffffffc050209044:	02078713          	addi	a4,a5,32
ffffffc050209048:	fd043783          	ld	a5,-48(s0)
ffffffc05020904c:	f798                	sd	a4,40(a5)
ffffffc05020904e:	fc042e23          	sw	zero,-36(s0)
ffffffc050209052:	a02d                	j	ffffffc05020907c <thread_create+0x218>
ffffffc050209054:	fec42783          	lw	a5,-20(s0)
ffffffc050209058:	2785                	addiw	a5,a5,1
ffffffc05020905a:	fef42623          	sw	a5,-20(s0)
ffffffc05020905e:	b575                	j	ffffffc050208f0a <thread_create+0xa6>
ffffffc050209060:	fd043703          	ld	a4,-48(s0)
ffffffc050209064:	fdc42783          	lw	a5,-36(s0)
ffffffc050209068:	07f1                	addi	a5,a5,28
ffffffc05020906a:	078a                	slli	a5,a5,0x2
ffffffc05020906c:	97ba                	add	a5,a5,a4
ffffffc05020906e:	0007a023          	sw	zero,0(a5)
ffffffc050209072:	fdc42783          	lw	a5,-36(s0)
ffffffc050209076:	2785                	addiw	a5,a5,1
ffffffc050209078:	fcf42e23          	sw	a5,-36(s0)
ffffffc05020907c:	fdc42783          	lw	a5,-36(s0)
ffffffc050209080:	0007871b          	sext.w	a4,a5
ffffffc050209084:	47bd                	li	a5,15
ffffffc050209086:	fce7dde3          	bge	a5,a4,ffffffc050209060 <thread_create+0x1fc>
ffffffc05020908a:	00055797          	auipc	a5,0x55
ffffffc05020908e:	bb678793          	addi	a5,a5,-1098 # ffffffc05025dc40 <current_running>
ffffffc050209092:	639c                	ld	a5,0(a5)
ffffffc050209094:	0b47a703          	lw	a4,180(a5)
ffffffc050209098:	fd043783          	ld	a5,-48(s0)
ffffffc05020909c:	0ae7aa23          	sw	a4,180(a5)
ffffffc0502090a0:	fd043783          	ld	a5,-48(s0)
ffffffc0502090a4:	07c1                	addi	a5,a5,16
ffffffc0502090a6:	85be                	mv	a1,a5
ffffffc0502090a8:	00004517          	auipc	a0,0x4
ffffffc0502090ac:	48050513          	addi	a0,a0,1152 # ffffffc05020d528 <ready_queue>
ffffffc0502090b0:	c5dfe0ef          	jal	ra,ffffffc050207d0c <en_queue>
ffffffc0502090b4:	0001                	nop
ffffffc0502090b6:	70b2                	ld	ra,296(sp)
ffffffc0502090b8:	7412                	ld	s0,288(sp)
ffffffc0502090ba:	6155                	addi	sp,sp,304
ffffffc0502090bc:	8082                	ret

ffffffc0502090be <check_net_send>:
ffffffc0502090be:	1141                	addi	sp,sp,-16
ffffffc0502090c0:	e406                	sd	ra,8(sp)
ffffffc0502090c2:	e022                	sd	s0,0(sp)
ffffffc0502090c4:	0800                	addi	s0,sp,16
ffffffc0502090c6:	b4efb0ef          	jal	ra,ffffffc050204414 <check_send_valid>
ffffffc0502090ca:	87aa                	mv	a5,a0
ffffffc0502090cc:	c799                	beqz	a5,ffffffc0502090da <check_net_send+0x1c>
ffffffc0502090ce:	00004517          	auipc	a0,0x4
ffffffc0502090d2:	47a50513          	addi	a0,a0,1146 # ffffffc05020d548 <send_queue>
ffffffc0502090d6:	ad7fe0ef          	jal	ra,ffffffc050207bac <do_unblock>
ffffffc0502090da:	0001                	nop
ffffffc0502090dc:	60a2                	ld	ra,8(sp)
ffffffc0502090de:	6402                	ld	s0,0(sp)
ffffffc0502090e0:	0141                	addi	sp,sp,16
ffffffc0502090e2:	8082                	ret

ffffffc0502090e4 <check_net_recv>:
ffffffc0502090e4:	1141                	addi	sp,sp,-16
ffffffc0502090e6:	e406                	sd	ra,8(sp)
ffffffc0502090e8:	e022                	sd	s0,0(sp)
ffffffc0502090ea:	0800                	addi	s0,sp,16
ffffffc0502090ec:	b62fb0ef          	jal	ra,ffffffc05020444e <check_recv_valid>
ffffffc0502090f0:	87aa                	mv	a5,a0
ffffffc0502090f2:	c799                	beqz	a5,ffffffc050209100 <check_net_recv+0x1c>
ffffffc0502090f4:	00004517          	auipc	a0,0x4
ffffffc0502090f8:	46450513          	addi	a0,a0,1124 # ffffffc05020d558 <recv_queue>
ffffffc0502090fc:	ab1fe0ef          	jal	ra,ffffffc050207bac <do_unblock>
ffffffc050209100:	0001                	nop
ffffffc050209102:	60a2                	ld	ra,8(sp)
ffffffc050209104:	6402                	ld	s0,0(sp)
ffffffc050209106:	0141                	addi	sp,sp,16
ffffffc050209108:	8082                	ret

ffffffc05020910a <freeQueue>:
ffffffc05020910a:	1141                	addi	sp,sp,-16
ffffffc05020910c:	e422                	sd	s0,8(sp)
ffffffc05020910e:	0800                	addi	s0,sp,16
ffffffc050209110:	0001                	nop
ffffffc050209112:	6422                	ld	s0,8(sp)
ffffffc050209114:	0141                	addi	sp,sp,16
ffffffc050209116:	8082                	ret

ffffffc050209118 <_panic>:
ffffffc050209118:	7179                	addi	sp,sp,-48
ffffffc05020911a:	f406                	sd	ra,40(sp)
ffffffc05020911c:	f022                	sd	s0,32(sp)
ffffffc05020911e:	1800                	addi	s0,sp,48
ffffffc050209120:	fea43423          	sd	a0,-24(s0)
ffffffc050209124:	87ae                	mv	a5,a1
ffffffc050209126:	fcc43c23          	sd	a2,-40(s0)
ffffffc05020912a:	fef42223          	sw	a5,-28(s0)
ffffffc05020912e:	fe442783          	lw	a5,-28(s0)
ffffffc050209132:	86be                	mv	a3,a5
ffffffc050209134:	fe843603          	ld	a2,-24(s0)
ffffffc050209138:	fd843583          	ld	a1,-40(s0)
ffffffc05020913c:	00004517          	auipc	a0,0x4
ffffffc050209140:	f2450513          	addi	a0,a0,-220 # ffffffc05020d060 <__FUNCTION__.1825+0x10>
ffffffc050209144:	2a6030ef          	jal	ra,ffffffc05020c3ea <printk>
ffffffc050209148:	a001                	j	ffffffc050209148 <_panic+0x30>

ffffffc05020914a <kva2pa>:
ffffffc05020914a:	7179                	addi	sp,sp,-48
ffffffc05020914c:	f422                	sd	s0,40(sp)
ffffffc05020914e:	1800                	addi	s0,sp,48
ffffffc050209150:	fca43c23          	sd	a0,-40(s0)
ffffffc050209154:	57fd                	li	a5,-1
ffffffc050209156:	9381                	srli	a5,a5,0x20
ffffffc050209158:	fef43423          	sd	a5,-24(s0)
ffffffc05020915c:	fd843703          	ld	a4,-40(s0)
ffffffc050209160:	fe843783          	ld	a5,-24(s0)
ffffffc050209164:	8ff9                	and	a5,a5,a4
ffffffc050209166:	fef43023          	sd	a5,-32(s0)
ffffffc05020916a:	fe043783          	ld	a5,-32(s0)
ffffffc05020916e:	853e                	mv	a0,a5
ffffffc050209170:	7422                	ld	s0,40(sp)
ffffffc050209172:	6145                	addi	sp,sp,48
ffffffc050209174:	8082                	ret

ffffffc050209176 <call_jmptab>:
ffffffc050209176:	7139                	addi	sp,sp,-64
ffffffc050209178:	fc06                	sd	ra,56(sp)
ffffffc05020917a:	f822                	sd	s0,48(sp)
ffffffc05020917c:	0080                	addi	s0,sp,64
ffffffc05020917e:	fca43c23          	sd	a0,-40(s0)
ffffffc050209182:	fcb43823          	sd	a1,-48(s0)
ffffffc050209186:	fcc43423          	sd	a2,-56(s0)
ffffffc05020918a:	fcd43023          	sd	a3,-64(s0)
ffffffc05020918e:	fd843783          	ld	a5,-40(s0)
ffffffc050209192:	00379713          	slli	a4,a5,0x3
ffffffc050209196:	fe0297b7          	lui	a5,0xfe029
ffffffc05020919a:	07b6                	slli	a5,a5,0xd
ffffffc05020919c:	f0078793          	addi	a5,a5,-256 # fffffffffe028f00 <__BSS_END__+0x3faddca428>
ffffffc0502091a0:	97ba                	add	a5,a5,a4
ffffffc0502091a2:	639c                	ld	a5,0(a5)
ffffffc0502091a4:	fef43423          	sd	a5,-24(s0)
ffffffc0502091a8:	fe843783          	ld	a5,-24(s0)
ffffffc0502091ac:	fef43023          	sd	a5,-32(s0)
ffffffc0502091b0:	fe043783          	ld	a5,-32(s0)
ffffffc0502091b4:	fc043603          	ld	a2,-64(s0)
ffffffc0502091b8:	fc843583          	ld	a1,-56(s0)
ffffffc0502091bc:	fd043503          	ld	a0,-48(s0)
ffffffc0502091c0:	9782                	jalr	a5
ffffffc0502091c2:	87aa                	mv	a5,a0
ffffffc0502091c4:	853e                	mv	a0,a5
ffffffc0502091c6:	70e2                	ld	ra,56(sp)
ffffffc0502091c8:	7442                	ld	s0,48(sp)
ffffffc0502091ca:	6121                	addi	sp,sp,64
ffffffc0502091cc:	8082                	ret

ffffffc0502091ce <bios_sdread>:
ffffffc0502091ce:	1101                	addi	sp,sp,-32
ffffffc0502091d0:	ec06                	sd	ra,24(sp)
ffffffc0502091d2:	e822                	sd	s0,16(sp)
ffffffc0502091d4:	1000                	addi	s0,sp,32
ffffffc0502091d6:	87aa                	mv	a5,a0
ffffffc0502091d8:	86ae                	mv	a3,a1
ffffffc0502091da:	8732                	mv	a4,a2
ffffffc0502091dc:	fef42623          	sw	a5,-20(s0)
ffffffc0502091e0:	87b6                	mv	a5,a3
ffffffc0502091e2:	fef42423          	sw	a5,-24(s0)
ffffffc0502091e6:	87ba                	mv	a5,a4
ffffffc0502091e8:	fef42223          	sw	a5,-28(s0)
ffffffc0502091ec:	fec46783          	lwu	a5,-20(s0)
ffffffc0502091f0:	fe846703          	lwu	a4,-24(s0)
ffffffc0502091f4:	fe446683          	lwu	a3,-28(s0)
ffffffc0502091f8:	863a                	mv	a2,a4
ffffffc0502091fa:	85be                	mv	a1,a5
ffffffc0502091fc:	450d                	li	a0,3
ffffffc0502091fe:	f79ff0ef          	jal	ra,ffffffc050209176 <call_jmptab>
ffffffc050209202:	87aa                	mv	a5,a0
ffffffc050209204:	2781                	sext.w	a5,a5
ffffffc050209206:	853e                	mv	a0,a5
ffffffc050209208:	60e2                	ld	ra,24(sp)
ffffffc05020920a:	6442                	ld	s0,16(sp)
ffffffc05020920c:	6105                	addi	sp,sp,32
ffffffc05020920e:	8082                	ret

ffffffc050209210 <bios_sdwrite>:
ffffffc050209210:	1101                	addi	sp,sp,-32
ffffffc050209212:	ec06                	sd	ra,24(sp)
ffffffc050209214:	e822                	sd	s0,16(sp)
ffffffc050209216:	1000                	addi	s0,sp,32
ffffffc050209218:	87aa                	mv	a5,a0
ffffffc05020921a:	86ae                	mv	a3,a1
ffffffc05020921c:	8732                	mv	a4,a2
ffffffc05020921e:	fef42623          	sw	a5,-20(s0)
ffffffc050209222:	87b6                	mv	a5,a3
ffffffc050209224:	fef42423          	sw	a5,-24(s0)
ffffffc050209228:	87ba                	mv	a5,a4
ffffffc05020922a:	fef42223          	sw	a5,-28(s0)
ffffffc05020922e:	fec46783          	lwu	a5,-20(s0)
ffffffc050209232:	fe846703          	lwu	a4,-24(s0)
ffffffc050209236:	fe446683          	lwu	a3,-28(s0)
ffffffc05020923a:	863a                	mv	a2,a4
ffffffc05020923c:	85be                	mv	a1,a5
ffffffc05020923e:	4511                	li	a0,4
ffffffc050209240:	f37ff0ef          	jal	ra,ffffffc050209176 <call_jmptab>
ffffffc050209244:	87aa                	mv	a5,a0
ffffffc050209246:	2781                	sext.w	a5,a5
ffffffc050209248:	853e                	mv	a0,a5
ffffffc05020924a:	60e2                	ld	ra,24(sp)
ffffffc05020924c:	6442                	ld	s0,16(sp)
ffffffc05020924e:	6105                	addi	sp,sp,32
ffffffc050209250:	8082                	ret

ffffffc050209252 <do_mkfs>:
ffffffc050209252:	1101                	addi	sp,sp,-32
ffffffc050209254:	ec06                	sd	ra,24(sp)
ffffffc050209256:	e822                	sd	s0,16(sp)
ffffffc050209258:	1000                	addi	s0,sp,32
ffffffc05020925a:	00004517          	auipc	a0,0x4
ffffffc05020925e:	e2e50513          	addi	a0,a0,-466 # ffffffc05020d088 <__FUNCTION__.1825+0x38>
ffffffc050209262:	188030ef          	jal	ra,ffffffc05020c3ea <printk>
ffffffc050209266:	344010ef          	jal	ra,ffffffc05020a5aa <init_addr>
ffffffc05020926a:	00004517          	auipc	a0,0x4
ffffffc05020926e:	e4650513          	addi	a0,a0,-442 # ffffffc05020d0b0 <__FUNCTION__.1825+0x60>
ffffffc050209272:	178030ef          	jal	ra,ffffffc05020c3ea <printk>
ffffffc050209276:	3d0010ef          	jal	ra,ffffffc05020a646 <alloc_addr>
ffffffc05020927a:	fea43423          	sd	a0,-24(s0)
ffffffc05020927e:	fe843503          	ld	a0,-24(s0)
ffffffc050209282:	ec9ff0ef          	jal	ra,ffffffc05020914a <kva2pa>
ffffffc050209286:	87aa                	mv	a5,a0
ffffffc050209288:	2781                	sext.w	a5,a5
ffffffc05020928a:	00100637          	lui	a2,0x100
ffffffc05020928e:	4585                	li	a1,1
ffffffc050209290:	853e                	mv	a0,a5
ffffffc050209292:	f3dff0ef          	jal	ra,ffffffc0502091ce <bios_sdread>
ffffffc050209296:	fe843783          	ld	a5,-24(s0)
ffffffc05020929a:	fef43023          	sd	a5,-32(s0)
ffffffc05020929e:	fe043783          	ld	a5,-32(s0)
ffffffc0502092a2:	439c                	lw	a5,0(a5)
ffffffc0502092a4:	873e                	mv	a4,a5
ffffffc0502092a6:	202217b7          	lui	a5,0x20221
ffffffc0502092aa:	20678793          	addi	a5,a5,518 # 20221206 <boot_stack_top_base-0x2ffe0dfa>
ffffffc0502092ae:	02f71e63          	bne	a4,a5,ffffffc0502092ea <do_mkfs+0x98>
ffffffc0502092b2:	00004517          	auipc	a0,0x4
ffffffc0502092b6:	e2650513          	addi	a0,a0,-474 # ffffffc05020d0d8 <__FUNCTION__.1825+0x88>
ffffffc0502092ba:	130030ef          	jal	ra,ffffffc05020c3ea <printk>
ffffffc0502092be:	fe843783          	ld	a5,-24(s0)
ffffffc0502092c2:	02800613          	li	a2,40
ffffffc0502092c6:	85be                	mv	a1,a5
ffffffc0502092c8:	0004b517          	auipc	a0,0x4b
ffffffc0502092cc:	dc050513          	addi	a0,a0,-576 # ffffffc050254088 <superblock>
ffffffc0502092d0:	282030ef          	jal	ra,ffffffc05020c552 <memcpy>
ffffffc0502092d4:	fe843503          	ld	a0,-24(s0)
ffffffc0502092d8:	41a010ef          	jal	ra,ffffffc05020a6f2 <free_addr>
ffffffc0502092dc:	00004517          	auipc	a0,0x4
ffffffc0502092e0:	e1c50513          	addi	a0,a0,-484 # ffffffc05020d0f8 <__FUNCTION__.1825+0xa8>
ffffffc0502092e4:	106030ef          	jal	ra,ffffffc05020c3ea <printk>
ffffffc0502092e8:	aad1                	j	ffffffc0502094bc <do_mkfs+0x26a>
ffffffc0502092ea:	fe843503          	ld	a0,-24(s0)
ffffffc0502092ee:	404010ef          	jal	ra,ffffffc05020a6f2 <free_addr>
ffffffc0502092f2:	00004517          	auipc	a0,0x4
ffffffc0502092f6:	e2e50513          	addi	a0,a0,-466 # ffffffc05020d120 <__FUNCTION__.1825+0xd0>
ffffffc0502092fa:	0f0030ef          	jal	ra,ffffffc05020c3ea <printk>
ffffffc0502092fe:	00004517          	auipc	a0,0x4
ffffffc050209302:	e4a50513          	addi	a0,a0,-438 # ffffffc05020d148 <__FUNCTION__.1825+0xf8>
ffffffc050209306:	0e4030ef          	jal	ra,ffffffc05020c3ea <printk>
ffffffc05020930a:	0004b797          	auipc	a5,0x4b
ffffffc05020930e:	d7e78793          	addi	a5,a5,-642 # ffffffc050254088 <superblock>
ffffffc050209312:	20221737          	lui	a4,0x20221
ffffffc050209316:	20670713          	addi	a4,a4,518 # 20221206 <boot_stack_top_base-0x2ffe0dfa>
ffffffc05020931a:	c398                	sw	a4,0(a5)
ffffffc05020931c:	0004b797          	auipc	a5,0x4b
ffffffc050209320:	d6c78793          	addi	a5,a5,-660 # ffffffc050254088 <superblock>
ffffffc050209324:	439c                	lw	a5,0(a5)
ffffffc050209326:	85be                	mv	a1,a5
ffffffc050209328:	00004517          	auipc	a0,0x4
ffffffc05020932c:	e4050513          	addi	a0,a0,-448 # ffffffc05020d168 <__FUNCTION__.1825+0x118>
ffffffc050209330:	0ba030ef          	jal	ra,ffffffc05020c3ea <printk>
ffffffc050209334:	0004b797          	auipc	a5,0x4b
ffffffc050209338:	d5478793          	addi	a5,a5,-684 # ffffffc050254088 <superblock>
ffffffc05020933c:	20000737          	lui	a4,0x20000
ffffffc050209340:	c3d8                	sw	a4,4(a5)
ffffffc050209342:	0004b797          	auipc	a5,0x4b
ffffffc050209346:	d4678793          	addi	a5,a5,-698 # ffffffc050254088 <superblock>
ffffffc05020934a:	43dc                	lw	a5,4(a5)
ffffffc05020934c:	85be                	mv	a1,a5
ffffffc05020934e:	00004517          	auipc	a0,0x4
ffffffc050209352:	e3250513          	addi	a0,a0,-462 # ffffffc05020d180 <__FUNCTION__.1825+0x130>
ffffffc050209356:	094030ef          	jal	ra,ffffffc05020c3ea <printk>
ffffffc05020935a:	0004b797          	auipc	a5,0x4b
ffffffc05020935e:	d2e78793          	addi	a5,a5,-722 # ffffffc050254088 <superblock>
ffffffc050209362:	00100737          	lui	a4,0x100
ffffffc050209366:	0705                	addi	a4,a4,1
ffffffc050209368:	c798                	sw	a4,8(a5)
ffffffc05020936a:	0004b797          	auipc	a5,0x4b
ffffffc05020936e:	d1e78793          	addi	a5,a5,-738 # ffffffc050254088 <superblock>
ffffffc050209372:	02000713          	li	a4,32
ffffffc050209376:	c7d8                	sw	a4,12(a5)
ffffffc050209378:	0004b797          	auipc	a5,0x4b
ffffffc05020937c:	d1078793          	addi	a5,a5,-752 # ffffffc050254088 <superblock>
ffffffc050209380:	479c                	lw	a5,8(a5)
ffffffc050209382:	85be                	mv	a1,a5
ffffffc050209384:	00004517          	auipc	a0,0x4
ffffffc050209388:	e1450513          	addi	a0,a0,-492 # ffffffc05020d198 <__FUNCTION__.1825+0x148>
ffffffc05020938c:	05e030ef          	jal	ra,ffffffc05020c3ea <printk>
ffffffc050209390:	0004b797          	auipc	a5,0x4b
ffffffc050209394:	cf878793          	addi	a5,a5,-776 # ffffffc050254088 <superblock>
ffffffc050209398:	47dc                	lw	a5,12(a5)
ffffffc05020939a:	85be                	mv	a1,a5
ffffffc05020939c:	00004517          	auipc	a0,0x4
ffffffc0502093a0:	e1c50513          	addi	a0,a0,-484 # ffffffc05020d1b8 <__FUNCTION__.1825+0x168>
ffffffc0502093a4:	046030ef          	jal	ra,ffffffc05020c3ea <printk>
ffffffc0502093a8:	0004b797          	auipc	a5,0x4b
ffffffc0502093ac:	ce078793          	addi	a5,a5,-800 # ffffffc050254088 <superblock>
ffffffc0502093b0:	00100737          	lui	a4,0x100
ffffffc0502093b4:	02170713          	addi	a4,a4,33 # 100021 <boot_stack_top_base-0x50101fdf>
ffffffc0502093b8:	cb98                	sw	a4,16(a5)
ffffffc0502093ba:	0004b797          	auipc	a5,0x4b
ffffffc0502093be:	cce78793          	addi	a5,a5,-818 # ffffffc050254088 <superblock>
ffffffc0502093c2:	4705                	li	a4,1
ffffffc0502093c4:	cbd8                	sw	a4,20(a5)
ffffffc0502093c6:	0004b797          	auipc	a5,0x4b
ffffffc0502093ca:	cc278793          	addi	a5,a5,-830 # ffffffc050254088 <superblock>
ffffffc0502093ce:	00100737          	lui	a4,0x100
ffffffc0502093d2:	02270713          	addi	a4,a4,34 # 100022 <boot_stack_top_base-0x50101fde>
ffffffc0502093d6:	cf98                	sw	a4,24(a5)
ffffffc0502093d8:	0004b797          	auipc	a5,0x4b
ffffffc0502093dc:	cb078793          	addi	a5,a5,-848 # ffffffc050254088 <superblock>
ffffffc0502093e0:	6705                	lui	a4,0x1
ffffffc0502093e2:	80070713          	addi	a4,a4,-2048 # 800 <boot_stack_top_base-0x50201800>
ffffffc0502093e6:	cfd8                	sw	a4,28(a5)
ffffffc0502093e8:	0004b797          	auipc	a5,0x4b
ffffffc0502093ec:	ca078793          	addi	a5,a5,-864 # ffffffc050254088 <superblock>
ffffffc0502093f0:	00101737          	lui	a4,0x101
ffffffc0502093f4:	82270713          	addi	a4,a4,-2014 # 100822 <boot_stack_top_base-0x501017de>
ffffffc0502093f8:	d398                	sw	a4,32(a5)
ffffffc0502093fa:	0004b797          	auipc	a5,0x4b
ffffffc0502093fe:	c8e78793          	addi	a5,a5,-882 # ffffffc050254088 <superblock>
ffffffc050209402:	000ff737          	lui	a4,0xff
ffffffc050209406:	7de70713          	addi	a4,a4,2014 # ff7de <boot_stack_top_base-0x50102822>
ffffffc05020940a:	d3d8                	sw	a4,36(a5)
ffffffc05020940c:	20000613          	li	a2,512
ffffffc050209410:	4581                	li	a1,0
ffffffc050209412:	4501                	li	a0,0
ffffffc050209414:	327000ef          	jal	ra,ffffffc050209f3a <alloc_inode_helper>
ffffffc050209418:	87aa                	mv	a5,a0
ffffffc05020941a:	873e                	mv	a4,a5
ffffffc05020941c:	00050797          	auipc	a5,0x50
ffffffc050209420:	e4078793          	addi	a5,a5,-448 # ffffffc05025925c <currentfile>
ffffffc050209424:	c398                	sw	a4,0(a5)
ffffffc050209426:	00050797          	auipc	a5,0x50
ffffffc05020942a:	e3678793          	addi	a5,a5,-458 # ffffffc05025925c <currentfile>
ffffffc05020942e:	4398                	lw	a4,0(a5)
ffffffc050209430:	00050797          	auipc	a5,0x50
ffffffc050209434:	e3078793          	addi	a5,a5,-464 # ffffffc050259260 <basefile>
ffffffc050209438:	c398                	sw	a4,0(a5)
ffffffc05020943a:	00050797          	auipc	a5,0x50
ffffffc05020943e:	e2678793          	addi	a5,a5,-474 # ffffffc050259260 <basefile>
ffffffc050209442:	439c                	lw	a5,0(a5)
ffffffc050209444:	853e                	mv	a0,a5
ffffffc050209446:	2ea010ef          	jal	ra,ffffffc05020a730 <init_dir>
ffffffc05020944a:	00050797          	auipc	a5,0x50
ffffffc05020944e:	e1678793          	addi	a5,a5,-490 # ffffffc050259260 <basefile>
ffffffc050209452:	4398                	lw	a4,0(a5)
ffffffc050209454:	00050797          	auipc	a5,0x50
ffffffc050209458:	e0c78793          	addi	a5,a5,-500 # ffffffc050259260 <basefile>
ffffffc05020945c:	439c                	lw	a5,0(a5)
ffffffc05020945e:	00004617          	auipc	a2,0x4
ffffffc050209462:	d7260613          	addi	a2,a2,-654 # ffffffc05020d1d0 <__FUNCTION__.1825+0x180>
ffffffc050209466:	85be                	mv	a1,a5
ffffffc050209468:	853a                	mv	a0,a4
ffffffc05020946a:	7cd000ef          	jal	ra,ffffffc05020a436 <write_dir>
ffffffc05020946e:	00050797          	auipc	a5,0x50
ffffffc050209472:	df278793          	addi	a5,a5,-526 # ffffffc050259260 <basefile>
ffffffc050209476:	4398                	lw	a4,0(a5)
ffffffc050209478:	00050797          	auipc	a5,0x50
ffffffc05020947c:	de878793          	addi	a5,a5,-536 # ffffffc050259260 <basefile>
ffffffc050209480:	439c                	lw	a5,0(a5)
ffffffc050209482:	00004617          	auipc	a2,0x4
ffffffc050209486:	d5660613          	addi	a2,a2,-682 # ffffffc05020d1d8 <__FUNCTION__.1825+0x188>
ffffffc05020948a:	85be                	mv	a1,a5
ffffffc05020948c:	853a                	mv	a0,a4
ffffffc05020948e:	7a9000ef          	jal	ra,ffffffc05020a436 <write_dir>
ffffffc050209492:	0004b797          	auipc	a5,0x4b
ffffffc050209496:	bf678793          	addi	a5,a5,-1034 # ffffffc050254088 <superblock>
ffffffc05020949a:	853e                	mv	a0,a5
ffffffc05020949c:	cafff0ef          	jal	ra,ffffffc05020914a <kva2pa>
ffffffc0502094a0:	87aa                	mv	a5,a0
ffffffc0502094a2:	2781                	sext.w	a5,a5
ffffffc0502094a4:	00100637          	lui	a2,0x100
ffffffc0502094a8:	4585                	li	a1,1
ffffffc0502094aa:	853e                	mv	a0,a5
ffffffc0502094ac:	d65ff0ef          	jal	ra,ffffffc050209210 <bios_sdwrite>
ffffffc0502094b0:	00004517          	auipc	a0,0x4
ffffffc0502094b4:	c4850513          	addi	a0,a0,-952 # ffffffc05020d0f8 <__FUNCTION__.1825+0xa8>
ffffffc0502094b8:	733020ef          	jal	ra,ffffffc05020c3ea <printk>
ffffffc0502094bc:	4781                	li	a5,0
ffffffc0502094be:	853e                	mv	a0,a5
ffffffc0502094c0:	60e2                	ld	ra,24(sp)
ffffffc0502094c2:	6442                	ld	s0,16(sp)
ffffffc0502094c4:	6105                	addi	sp,sp,32
ffffffc0502094c6:	8082                	ret

ffffffc0502094c8 <do_statfs>:
ffffffc0502094c8:	1101                	addi	sp,sp,-32
ffffffc0502094ca:	ec06                	sd	ra,24(sp)
ffffffc0502094cc:	e822                	sd	s0,16(sp)
ffffffc0502094ce:	1000                	addi	s0,sp,32
ffffffc0502094d0:	0004b797          	auipc	a5,0x4b
ffffffc0502094d4:	bb878793          	addi	a5,a5,-1096 # ffffffc050254088 <superblock>
ffffffc0502094d8:	439c                	lw	a5,0(a5)
ffffffc0502094da:	85be                	mv	a1,a5
ffffffc0502094dc:	00004517          	auipc	a0,0x4
ffffffc0502094e0:	c8c50513          	addi	a0,a0,-884 # ffffffc05020d168 <__FUNCTION__.1825+0x118>
ffffffc0502094e4:	707020ef          	jal	ra,ffffffc05020c3ea <printk>
ffffffc0502094e8:	0004b797          	auipc	a5,0x4b
ffffffc0502094ec:	ba078793          	addi	a5,a5,-1120 # ffffffc050254088 <superblock>
ffffffc0502094f0:	479c                	lw	a5,8(a5)
ffffffc0502094f2:	85be                	mv	a1,a5
ffffffc0502094f4:	00004517          	auipc	a0,0x4
ffffffc0502094f8:	ca450513          	addi	a0,a0,-860 # ffffffc05020d198 <__FUNCTION__.1825+0x148>
ffffffc0502094fc:	6ef020ef          	jal	ra,ffffffc05020c3ea <printk>
ffffffc050209500:	0004b797          	auipc	a5,0x4b
ffffffc050209504:	b8878793          	addi	a5,a5,-1144 # ffffffc050254088 <superblock>
ffffffc050209508:	47dc                	lw	a5,12(a5)
ffffffc05020950a:	85be                	mv	a1,a5
ffffffc05020950c:	00004517          	auipc	a0,0x4
ffffffc050209510:	cac50513          	addi	a0,a0,-852 # ffffffc05020d1b8 <__FUNCTION__.1825+0x168>
ffffffc050209514:	6d7020ef          	jal	ra,ffffffc05020c3ea <printk>
ffffffc050209518:	fe042623          	sw	zero,-20(s0)
ffffffc05020951c:	fe042423          	sw	zero,-24(s0)
ffffffc050209520:	a025                	j	ffffffc050209548 <do_statfs+0x80>
ffffffc050209522:	00050717          	auipc	a4,0x50
ffffffc050209526:	d4670713          	addi	a4,a4,-698 # ffffffc050259268 <addr_valid>
ffffffc05020952a:	fe842783          	lw	a5,-24(s0)
ffffffc05020952e:	078a                	slli	a5,a5,0x2
ffffffc050209530:	97ba                	add	a5,a5,a4
ffffffc050209532:	439c                	lw	a5,0(a5)
ffffffc050209534:	fec42703          	lw	a4,-20(s0)
ffffffc050209538:	9fb9                	addw	a5,a5,a4
ffffffc05020953a:	fef42623          	sw	a5,-20(s0)
ffffffc05020953e:	fe842783          	lw	a5,-24(s0)
ffffffc050209542:	2785                	addiw	a5,a5,1
ffffffc050209544:	fef42423          	sw	a5,-24(s0)
ffffffc050209548:	fe842783          	lw	a5,-24(s0)
ffffffc05020954c:	0007871b          	sext.w	a4,a5
ffffffc050209550:	479d                	li	a5,7
ffffffc050209552:	fce7d8e3          	bge	a5,a4,ffffffc050209522 <do_statfs+0x5a>
ffffffc050209556:	fec42783          	lw	a5,-20(s0)
ffffffc05020955a:	4621                	li	a2,8
ffffffc05020955c:	85be                	mv	a1,a5
ffffffc05020955e:	00004517          	auipc	a0,0x4
ffffffc050209562:	c8250513          	addi	a0,a0,-894 # ffffffc05020d1e0 <__FUNCTION__.1825+0x190>
ffffffc050209566:	685020ef          	jal	ra,ffffffc05020c3ea <printk>
ffffffc05020956a:	4781                	li	a5,0
ffffffc05020956c:	853e                	mv	a0,a5
ffffffc05020956e:	60e2                	ld	ra,24(sp)
ffffffc050209570:	6442                	ld	s0,16(sp)
ffffffc050209572:	6105                	addi	sp,sp,32
ffffffc050209574:	8082                	ret

ffffffc050209576 <do_cd>:
ffffffc050209576:	7171                	addi	sp,sp,-176
ffffffc050209578:	f506                	sd	ra,168(sp)
ffffffc05020957a:	f122                	sd	s0,160(sp)
ffffffc05020957c:	1900                	addi	s0,sp,176
ffffffc05020957e:	f4a43c23          	sd	a0,-168(s0)
ffffffc050209582:	f6040793          	addi	a5,s0,-160
ffffffc050209586:	08000713          	li	a4,128
ffffffc05020958a:	863a                	mv	a2,a4
ffffffc05020958c:	4581                	li	a1,0
ffffffc05020958e:	853e                	mv	a0,a5
ffffffc050209590:	014030ef          	jal	ra,ffffffc05020c5a4 <memset>
ffffffc050209594:	fe042623          	sw	zero,-20(s0)
ffffffc050209598:	fe042423          	sw	zero,-24(s0)
ffffffc05020959c:	fec42783          	lw	a5,-20(s0)
ffffffc0502095a0:	f5843703          	ld	a4,-168(s0)
ffffffc0502095a4:	97ba                	add	a5,a5,a4
ffffffc0502095a6:	0007c783          	lbu	a5,0(a5)
ffffffc0502095aa:	cfd9                	beqz	a5,ffffffc050209648 <do_cd+0xd2>
ffffffc0502095ac:	fec42783          	lw	a5,-20(s0)
ffffffc0502095b0:	f5843703          	ld	a4,-168(s0)
ffffffc0502095b4:	97ba                	add	a5,a5,a4
ffffffc0502095b6:	873e                	mv	a4,a5
ffffffc0502095b8:	fe842783          	lw	a5,-24(s0)
ffffffc0502095bc:	078e                	slli	a5,a5,0x3
ffffffc0502095be:	ff040693          	addi	a3,s0,-16
ffffffc0502095c2:	97b6                	add	a5,a5,a3
ffffffc0502095c4:	f6e7b823          	sd	a4,-144(a5)
ffffffc0502095c8:	fec42783          	lw	a5,-20(s0)
ffffffc0502095cc:	f5843703          	ld	a4,-168(s0)
ffffffc0502095d0:	97ba                	add	a5,a5,a4
ffffffc0502095d2:	0007c783          	lbu	a5,0(a5)
ffffffc0502095d6:	c39d                	beqz	a5,ffffffc0502095fc <do_cd+0x86>
ffffffc0502095d8:	fec42783          	lw	a5,-20(s0)
ffffffc0502095dc:	f5843703          	ld	a4,-168(s0)
ffffffc0502095e0:	97ba                	add	a5,a5,a4
ffffffc0502095e2:	0007c783          	lbu	a5,0(a5)
ffffffc0502095e6:	873e                	mv	a4,a5
ffffffc0502095e8:	02f00793          	li	a5,47
ffffffc0502095ec:	00f70863          	beq	a4,a5,ffffffc0502095fc <do_cd+0x86>
ffffffc0502095f0:	fec42783          	lw	a5,-20(s0)
ffffffc0502095f4:	2785                	addiw	a5,a5,1
ffffffc0502095f6:	fef42623          	sw	a5,-20(s0)
ffffffc0502095fa:	b7f9                	j	ffffffc0502095c8 <do_cd+0x52>
ffffffc0502095fc:	fec42783          	lw	a5,-20(s0)
ffffffc050209600:	f5843703          	ld	a4,-168(s0)
ffffffc050209604:	97ba                	add	a5,a5,a4
ffffffc050209606:	0007c783          	lbu	a5,0(a5)
ffffffc05020960a:	c3a9                	beqz	a5,ffffffc05020964c <do_cd+0xd6>
ffffffc05020960c:	fec42783          	lw	a5,-20(s0)
ffffffc050209610:	f5843703          	ld	a4,-168(s0)
ffffffc050209614:	97ba                	add	a5,a5,a4
ffffffc050209616:	0007c783          	lbu	a5,0(a5)
ffffffc05020961a:	873e                	mv	a4,a5
ffffffc05020961c:	02f00793          	li	a5,47
ffffffc050209620:	00f71e63          	bne	a4,a5,ffffffc05020963c <do_cd+0xc6>
ffffffc050209624:	fec42783          	lw	a5,-20(s0)
ffffffc050209628:	f5843703          	ld	a4,-168(s0)
ffffffc05020962c:	97ba                	add	a5,a5,a4
ffffffc05020962e:	00078023          	sb	zero,0(a5)
ffffffc050209632:	fec42783          	lw	a5,-20(s0)
ffffffc050209636:	2785                	addiw	a5,a5,1
ffffffc050209638:	fef42623          	sw	a5,-20(s0)
ffffffc05020963c:	fe842783          	lw	a5,-24(s0)
ffffffc050209640:	2785                	addiw	a5,a5,1
ffffffc050209642:	fef42423          	sw	a5,-24(s0)
ffffffc050209646:	bf99                	j	ffffffc05020959c <do_cd+0x26>
ffffffc050209648:	0001                	nop
ffffffc05020964a:	a011                	j	ffffffc05020964e <do_cd+0xd8>
ffffffc05020964c:	0001                	nop
ffffffc05020964e:	fe042223          	sw	zero,-28(s0)
ffffffc050209652:	a805                	j	ffffffc050209682 <do_cd+0x10c>
ffffffc050209654:	fe442783          	lw	a5,-28(s0)
ffffffc050209658:	078e                	slli	a5,a5,0x3
ffffffc05020965a:	ff040713          	addi	a4,s0,-16
ffffffc05020965e:	97ba                	add	a5,a5,a4
ffffffc050209660:	f707b783          	ld	a5,-144(a5)
ffffffc050209664:	853e                	mv	a0,a5
ffffffc050209666:	26c010ef          	jal	ra,ffffffc05020a8d2 <enter_dir>
ffffffc05020966a:	87aa                	mv	a5,a0
ffffffc05020966c:	873e                	mv	a4,a5
ffffffc05020966e:	57fd                	li	a5,-1
ffffffc050209670:	00f71463          	bne	a4,a5,ffffffc050209678 <do_cd+0x102>
ffffffc050209674:	57fd                	li	a5,-1
ffffffc050209676:	a005                	j	ffffffc050209696 <do_cd+0x120>
ffffffc050209678:	fe442783          	lw	a5,-28(s0)
ffffffc05020967c:	2785                	addiw	a5,a5,1
ffffffc05020967e:	fef42223          	sw	a5,-28(s0)
ffffffc050209682:	fe442783          	lw	a5,-28(s0)
ffffffc050209686:	078e                	slli	a5,a5,0x3
ffffffc050209688:	ff040713          	addi	a4,s0,-16
ffffffc05020968c:	97ba                	add	a5,a5,a4
ffffffc05020968e:	f707b783          	ld	a5,-144(a5)
ffffffc050209692:	f3e9                	bnez	a5,ffffffc050209654 <do_cd+0xde>
ffffffc050209694:	4781                	li	a5,0
ffffffc050209696:	853e                	mv	a0,a5
ffffffc050209698:	70aa                	ld	ra,168(sp)
ffffffc05020969a:	740a                	ld	s0,160(sp)
ffffffc05020969c:	614d                	addi	sp,sp,176
ffffffc05020969e:	8082                	ret

ffffffc0502096a0 <do_mkdir>:
ffffffc0502096a0:	7179                	addi	sp,sp,-48
ffffffc0502096a2:	f406                	sd	ra,40(sp)
ffffffc0502096a4:	f022                	sd	s0,32(sp)
ffffffc0502096a6:	1800                	addi	s0,sp,48
ffffffc0502096a8:	fca43c23          	sd	a0,-40(s0)
ffffffc0502096ac:	fd843503          	ld	a0,-40(s0)
ffffffc0502096b0:	13c010ef          	jal	ra,ffffffc05020a7ec <search_dir>
ffffffc0502096b4:	87aa                	mv	a5,a0
ffffffc0502096b6:	873e                	mv	a4,a5
ffffffc0502096b8:	57fd                	li	a5,-1
ffffffc0502096ba:	06f71a63          	bne	a4,a5,ffffffc05020972e <do_mkdir+0x8e>
ffffffc0502096be:	20000613          	li	a2,512
ffffffc0502096c2:	4581                	li	a1,0
ffffffc0502096c4:	4501                	li	a0,0
ffffffc0502096c6:	075000ef          	jal	ra,ffffffc050209f3a <alloc_inode_helper>
ffffffc0502096ca:	87aa                	mv	a5,a0
ffffffc0502096cc:	fef42623          	sw	a5,-20(s0)
ffffffc0502096d0:	fec42783          	lw	a5,-20(s0)
ffffffc0502096d4:	853e                	mv	a0,a5
ffffffc0502096d6:	05a010ef          	jal	ra,ffffffc05020a730 <init_dir>
ffffffc0502096da:	fec42703          	lw	a4,-20(s0)
ffffffc0502096de:	fec42783          	lw	a5,-20(s0)
ffffffc0502096e2:	00004617          	auipc	a2,0x4
ffffffc0502096e6:	aee60613          	addi	a2,a2,-1298 # ffffffc05020d1d0 <__FUNCTION__.1825+0x180>
ffffffc0502096ea:	85ba                	mv	a1,a4
ffffffc0502096ec:	853e                	mv	a0,a5
ffffffc0502096ee:	549000ef          	jal	ra,ffffffc05020a436 <write_dir>
ffffffc0502096f2:	00050797          	auipc	a5,0x50
ffffffc0502096f6:	b6a78793          	addi	a5,a5,-1174 # ffffffc05025925c <currentfile>
ffffffc0502096fa:	4398                	lw	a4,0(a5)
ffffffc0502096fc:	fec42783          	lw	a5,-20(s0)
ffffffc050209700:	00004617          	auipc	a2,0x4
ffffffc050209704:	ad860613          	addi	a2,a2,-1320 # ffffffc05020d1d8 <__FUNCTION__.1825+0x188>
ffffffc050209708:	85ba                	mv	a1,a4
ffffffc05020970a:	853e                	mv	a0,a5
ffffffc05020970c:	52b000ef          	jal	ra,ffffffc05020a436 <write_dir>
ffffffc050209710:	00050797          	auipc	a5,0x50
ffffffc050209714:	b4c78793          	addi	a5,a5,-1204 # ffffffc05025925c <currentfile>
ffffffc050209718:	439c                	lw	a5,0(a5)
ffffffc05020971a:	fec42703          	lw	a4,-20(s0)
ffffffc05020971e:	fd843603          	ld	a2,-40(s0)
ffffffc050209722:	85ba                	mv	a1,a4
ffffffc050209724:	853e                	mv	a0,a5
ffffffc050209726:	511000ef          	jal	ra,ffffffc05020a436 <write_dir>
ffffffc05020972a:	4781                	li	a5,0
ffffffc05020972c:	a011                	j	ffffffc050209730 <do_mkdir+0x90>
ffffffc05020972e:	57fd                	li	a5,-1
ffffffc050209730:	853e                	mv	a0,a5
ffffffc050209732:	70a2                	ld	ra,40(sp)
ffffffc050209734:	7402                	ld	s0,32(sp)
ffffffc050209736:	6145                	addi	sp,sp,48
ffffffc050209738:	8082                	ret

ffffffc05020973a <do_rmdir>:
ffffffc05020973a:	1101                	addi	sp,sp,-32
ffffffc05020973c:	ec06                	sd	ra,24(sp)
ffffffc05020973e:	e822                	sd	s0,16(sp)
ffffffc050209740:	1000                	addi	s0,sp,32
ffffffc050209742:	fea43423          	sd	a0,-24(s0)
ffffffc050209746:	00004597          	auipc	a1,0x4
ffffffc05020974a:	a8a58593          	addi	a1,a1,-1398 # ffffffc05020d1d0 <__FUNCTION__.1825+0x180>
ffffffc05020974e:	fe843503          	ld	a0,-24(s0)
ffffffc050209752:	707020ef          	jal	ra,ffffffc05020c658 <strcmp>
ffffffc050209756:	87aa                	mv	a5,a0
ffffffc050209758:	cb99                	beqz	a5,ffffffc05020976e <do_rmdir+0x34>
ffffffc05020975a:	00004597          	auipc	a1,0x4
ffffffc05020975e:	a7e58593          	addi	a1,a1,-1410 # ffffffc05020d1d8 <__FUNCTION__.1825+0x188>
ffffffc050209762:	fe843503          	ld	a0,-24(s0)
ffffffc050209766:	6f3020ef          	jal	ra,ffffffc05020c658 <strcmp>
ffffffc05020976a:	87aa                	mv	a5,a0
ffffffc05020976c:	e399                	bnez	a5,ffffffc050209772 <do_rmdir+0x38>
ffffffc05020976e:	57fd                	li	a5,-1
ffffffc050209770:	a031                	j	ffffffc05020977c <do_rmdir+0x42>
ffffffc050209772:	fe843503          	ld	a0,-24(s0)
ffffffc050209776:	24e010ef          	jal	ra,ffffffc05020a9c4 <remove_dir>
ffffffc05020977a:	87aa                	mv	a5,a0
ffffffc05020977c:	853e                	mv	a0,a5
ffffffc05020977e:	60e2                	ld	ra,24(sp)
ffffffc050209780:	6442                	ld	s0,16(sp)
ffffffc050209782:	6105                	addi	sp,sp,32
ffffffc050209784:	8082                	ret

ffffffc050209786 <do_ls>:
ffffffc050209786:	7159                	addi	sp,sp,-112
ffffffc050209788:	f486                	sd	ra,104(sp)
ffffffc05020978a:	f0a2                	sd	s0,96(sp)
ffffffc05020978c:	1880                	addi	s0,sp,112
ffffffc05020978e:	f8a43c23          	sd	a0,-104(s0)
ffffffc050209792:	87ae                	mv	a5,a1
ffffffc050209794:	f8f42a23          	sw	a5,-108(s0)
ffffffc050209798:	6af000ef          	jal	ra,ffffffc05020a646 <alloc_addr>
ffffffc05020979c:	fea43023          	sd	a0,-32(s0)
ffffffc0502097a0:	00050797          	auipc	a5,0x50
ffffffc0502097a4:	abc78793          	addi	a5,a5,-1348 # ffffffc05025925c <currentfile>
ffffffc0502097a8:	439c                	lw	a5,0(a5)
ffffffc0502097aa:	fe043583          	ld	a1,-32(s0)
ffffffc0502097ae:	853e                	mv	a0,a5
ffffffc0502097b0:	76d010ef          	jal	ra,ffffffc05020b71c <rw_inode>
ffffffc0502097b4:	fca43c23          	sd	a0,-40(s0)
ffffffc0502097b8:	fd843783          	ld	a5,-40(s0)
ffffffc0502097bc:	fcf43823          	sd	a5,-48(s0)
ffffffc0502097c0:	fd043783          	ld	a5,-48(s0)
ffffffc0502097c4:	4bdc                	lw	a5,20(a5)
ffffffc0502097c6:	fcf42623          	sw	a5,-52(s0)
ffffffc0502097ca:	fe043503          	ld	a0,-32(s0)
ffffffc0502097ce:	725000ef          	jal	ra,ffffffc05020a6f2 <free_addr>
ffffffc0502097d2:	675000ef          	jal	ra,ffffffc05020a646 <alloc_addr>
ffffffc0502097d6:	fea43023          	sd	a0,-32(s0)
ffffffc0502097da:	fe043503          	ld	a0,-32(s0)
ffffffc0502097de:	96dff0ef          	jal	ra,ffffffc05020914a <kva2pa>
ffffffc0502097e2:	87aa                	mv	a5,a0
ffffffc0502097e4:	0007869b          	sext.w	a3,a5
ffffffc0502097e8:	fcc42703          	lw	a4,-52(s0)
ffffffc0502097ec:	001017b7          	lui	a5,0x101
ffffffc0502097f0:	8227879b          	addiw	a5,a5,-2014
ffffffc0502097f4:	9fb9                	addw	a5,a5,a4
ffffffc0502097f6:	2781                	sext.w	a5,a5
ffffffc0502097f8:	2781                	sext.w	a5,a5
ffffffc0502097fa:	863e                	mv	a2,a5
ffffffc0502097fc:	4585                	li	a1,1
ffffffc0502097fe:	8536                	mv	a0,a3
ffffffc050209800:	9cfff0ef          	jal	ra,ffffffc0502091ce <bios_sdread>
ffffffc050209804:	fe043783          	ld	a5,-32(s0)
ffffffc050209808:	fcf43023          	sd	a5,-64(s0)
ffffffc05020980c:	f9442783          	lw	a5,-108(s0)
ffffffc050209810:	0007871b          	sext.w	a4,a5
ffffffc050209814:	4785                	li	a5,1
ffffffc050209816:	10f71663          	bne	a4,a5,ffffffc050209922 <do_ls+0x19c>
ffffffc05020981a:	fe042623          	sw	zero,-20(s0)
ffffffc05020981e:	a8d5                	j	ffffffc050209912 <do_ls+0x18c>
ffffffc050209820:	fc043703          	ld	a4,-64(s0)
ffffffc050209824:	fec42783          	lw	a5,-20(s0)
ffffffc050209828:	078a                	slli	a5,a5,0x2
ffffffc05020982a:	97ba                	add	a5,a5,a4
ffffffc05020982c:	439c                	lw	a5,0(a5)
ffffffc05020982e:	873e                	mv	a4,a5
ffffffc050209830:	57fd                	li	a5,-1
ffffffc050209832:	0af70963          	beq	a4,a5,ffffffc0502098e4 <do_ls+0x15e>
ffffffc050209836:	fc043703          	ld	a4,-64(s0)
ffffffc05020983a:	fec42783          	lw	a5,-20(s0)
ffffffc05020983e:	078a                	slli	a5,a5,0x2
ffffffc050209840:	97ba                	add	a5,a5,a4
ffffffc050209842:	439c                	lw	a5,0(a5)
ffffffc050209844:	853e                	mv	a0,a5
ffffffc050209846:	747010ef          	jal	ra,ffffffc05020b78c <is_file>
ffffffc05020984a:	87aa                	mv	a5,a0
ffffffc05020984c:	cfd5                	beqz	a5,ffffffc050209908 <do_ls+0x182>
ffffffc05020984e:	5f9000ef          	jal	ra,ffffffc05020a646 <alloc_addr>
ffffffc050209852:	faa43c23          	sd	a0,-72(s0)
ffffffc050209856:	fc043703          	ld	a4,-64(s0)
ffffffc05020985a:	fec42783          	lw	a5,-20(s0)
ffffffc05020985e:	078a                	slli	a5,a5,0x2
ffffffc050209860:	97ba                	add	a5,a5,a4
ffffffc050209862:	439c                	lw	a5,0(a5)
ffffffc050209864:	fb843583          	ld	a1,-72(s0)
ffffffc050209868:	853e                	mv	a0,a5
ffffffc05020986a:	6b3010ef          	jal	ra,ffffffc05020b71c <rw_inode>
ffffffc05020986e:	faa43823          	sd	a0,-80(s0)
ffffffc050209872:	fb043783          	ld	a5,-80(s0)
ffffffc050209876:	faf43423          	sd	a5,-88(s0)
ffffffc05020987a:	fec42783          	lw	a5,-20(s0)
ffffffc05020987e:	0791                	addi	a5,a5,4
ffffffc050209880:	0792                	slli	a5,a5,0x4
ffffffc050209882:	fc043703          	ld	a4,-64(s0)
ffffffc050209886:	97ba                	add	a5,a5,a4
ffffffc050209888:	85be                	mv	a1,a5
ffffffc05020988a:	00004517          	auipc	a0,0x4
ffffffc05020988e:	97650513          	addi	a0,a0,-1674 # ffffffc05020d200 <__FUNCTION__.1825+0x1b0>
ffffffc050209892:	359020ef          	jal	ra,ffffffc05020c3ea <printk>
ffffffc050209896:	fc043703          	ld	a4,-64(s0)
ffffffc05020989a:	fec42783          	lw	a5,-20(s0)
ffffffc05020989e:	078a                	slli	a5,a5,0x2
ffffffc0502098a0:	97ba                	add	a5,a5,a4
ffffffc0502098a2:	439c                	lw	a5,0(a5)
ffffffc0502098a4:	85be                	mv	a1,a5
ffffffc0502098a6:	00004517          	auipc	a0,0x4
ffffffc0502098aa:	96250513          	addi	a0,a0,-1694 # ffffffc05020d208 <__FUNCTION__.1825+0x1b8>
ffffffc0502098ae:	33d020ef          	jal	ra,ffffffc05020c3ea <printk>
ffffffc0502098b2:	fa843783          	ld	a5,-88(s0)
ffffffc0502098b6:	47dc                	lw	a5,12(a5)
ffffffc0502098b8:	85be                	mv	a1,a5
ffffffc0502098ba:	00004517          	auipc	a0,0x4
ffffffc0502098be:	95e50513          	addi	a0,a0,-1698 # ffffffc05020d218 <__FUNCTION__.1825+0x1c8>
ffffffc0502098c2:	329020ef          	jal	ra,ffffffc05020c3ea <printk>
ffffffc0502098c6:	fa843783          	ld	a5,-88(s0)
ffffffc0502098ca:	53bc                	lw	a5,96(a5)
ffffffc0502098cc:	85be                	mv	a1,a5
ffffffc0502098ce:	00004517          	auipc	a0,0x4
ffffffc0502098d2:	95a50513          	addi	a0,a0,-1702 # ffffffc05020d228 <__FUNCTION__.1825+0x1d8>
ffffffc0502098d6:	315020ef          	jal	ra,ffffffc05020c3ea <printk>
ffffffc0502098da:	fb843503          	ld	a0,-72(s0)
ffffffc0502098de:	615000ef          	jal	ra,ffffffc05020a6f2 <free_addr>
ffffffc0502098e2:	a01d                	j	ffffffc050209908 <do_ls+0x182>
ffffffc0502098e4:	fec42783          	lw	a5,-20(s0)
ffffffc0502098e8:	2781                	sext.w	a5,a5
ffffffc0502098ea:	eb81                	bnez	a5,ffffffc0502098fa <do_ls+0x174>
ffffffc0502098ec:	00004517          	auipc	a0,0x4
ffffffc0502098f0:	94c50513          	addi	a0,a0,-1716 # ffffffc05020d238 <__FUNCTION__.1825+0x1e8>
ffffffc0502098f4:	2f7020ef          	jal	ra,ffffffc05020c3ea <printk>
ffffffc0502098f8:	a045                	j	ffffffc050209998 <do_ls+0x212>
ffffffc0502098fa:	00004517          	auipc	a0,0x4
ffffffc0502098fe:	94650513          	addi	a0,a0,-1722 # ffffffc05020d240 <__FUNCTION__.1825+0x1f0>
ffffffc050209902:	2e9020ef          	jal	ra,ffffffc05020c3ea <printk>
ffffffc050209906:	a849                	j	ffffffc050209998 <do_ls+0x212>
ffffffc050209908:	fec42783          	lw	a5,-20(s0)
ffffffc05020990c:	2785                	addiw	a5,a5,1
ffffffc05020990e:	fef42623          	sw	a5,-20(s0)
ffffffc050209912:	fec42783          	lw	a5,-20(s0)
ffffffc050209916:	0007871b          	sext.w	a4,a5
ffffffc05020991a:	47bd                	li	a5,15
ffffffc05020991c:	f0e7d2e3          	bge	a5,a4,ffffffc050209820 <do_ls+0x9a>
ffffffc050209920:	a8a5                	j	ffffffc050209998 <do_ls+0x212>
ffffffc050209922:	fe042423          	sw	zero,-24(s0)
ffffffc050209926:	a095                	j	ffffffc05020998a <do_ls+0x204>
ffffffc050209928:	fc043703          	ld	a4,-64(s0)
ffffffc05020992c:	fe842783          	lw	a5,-24(s0)
ffffffc050209930:	078a                	slli	a5,a5,0x2
ffffffc050209932:	97ba                	add	a5,a5,a4
ffffffc050209934:	439c                	lw	a5,0(a5)
ffffffc050209936:	873e                	mv	a4,a5
ffffffc050209938:	57fd                	li	a5,-1
ffffffc05020993a:	02f70163          	beq	a4,a5,ffffffc05020995c <do_ls+0x1d6>
ffffffc05020993e:	fe842783          	lw	a5,-24(s0)
ffffffc050209942:	0791                	addi	a5,a5,4
ffffffc050209944:	0792                	slli	a5,a5,0x4
ffffffc050209946:	fc043703          	ld	a4,-64(s0)
ffffffc05020994a:	97ba                	add	a5,a5,a4
ffffffc05020994c:	85be                	mv	a1,a5
ffffffc05020994e:	00004517          	auipc	a0,0x4
ffffffc050209952:	8b250513          	addi	a0,a0,-1870 # ffffffc05020d200 <__FUNCTION__.1825+0x1b0>
ffffffc050209956:	295020ef          	jal	ra,ffffffc05020c3ea <printk>
ffffffc05020995a:	a01d                	j	ffffffc050209980 <do_ls+0x1fa>
ffffffc05020995c:	fe842783          	lw	a5,-24(s0)
ffffffc050209960:	2781                	sext.w	a5,a5
ffffffc050209962:	eb81                	bnez	a5,ffffffc050209972 <do_ls+0x1ec>
ffffffc050209964:	00004517          	auipc	a0,0x4
ffffffc050209968:	8d450513          	addi	a0,a0,-1836 # ffffffc05020d238 <__FUNCTION__.1825+0x1e8>
ffffffc05020996c:	27f020ef          	jal	ra,ffffffc05020c3ea <printk>
ffffffc050209970:	a025                	j	ffffffc050209998 <do_ls+0x212>
ffffffc050209972:	00004517          	auipc	a0,0x4
ffffffc050209976:	8ce50513          	addi	a0,a0,-1842 # ffffffc05020d240 <__FUNCTION__.1825+0x1f0>
ffffffc05020997a:	271020ef          	jal	ra,ffffffc05020c3ea <printk>
ffffffc05020997e:	a829                	j	ffffffc050209998 <do_ls+0x212>
ffffffc050209980:	fe842783          	lw	a5,-24(s0)
ffffffc050209984:	2785                	addiw	a5,a5,1
ffffffc050209986:	fef42423          	sw	a5,-24(s0)
ffffffc05020998a:	fe842783          	lw	a5,-24(s0)
ffffffc05020998e:	0007871b          	sext.w	a4,a5
ffffffc050209992:	47bd                	li	a5,15
ffffffc050209994:	f8e7dae3          	bge	a5,a4,ffffffc050209928 <do_ls+0x1a2>
ffffffc050209998:	fe043503          	ld	a0,-32(s0)
ffffffc05020999c:	557000ef          	jal	ra,ffffffc05020a6f2 <free_addr>
ffffffc0502099a0:	4781                	li	a5,0
ffffffc0502099a2:	853e                	mv	a0,a5
ffffffc0502099a4:	70a6                	ld	ra,104(sp)
ffffffc0502099a6:	7406                	ld	s0,96(sp)
ffffffc0502099a8:	6165                	addi	sp,sp,112
ffffffc0502099aa:	8082                	ret

ffffffc0502099ac <do_touch>:
ffffffc0502099ac:	7179                	addi	sp,sp,-48
ffffffc0502099ae:	f406                	sd	ra,40(sp)
ffffffc0502099b0:	f022                	sd	s0,32(sp)
ffffffc0502099b2:	1800                	addi	s0,sp,48
ffffffc0502099b4:	fca43c23          	sd	a0,-40(s0)
ffffffc0502099b8:	fd843503          	ld	a0,-40(s0)
ffffffc0502099bc:	631000ef          	jal	ra,ffffffc05020a7ec <search_dir>
ffffffc0502099c0:	87aa                	mv	a5,a0
ffffffc0502099c2:	873e                	mv	a4,a5
ffffffc0502099c4:	57fd                	li	a5,-1
ffffffc0502099c6:	02f71963          	bne	a4,a5,ffffffc0502099f8 <do_touch+0x4c>
ffffffc0502099ca:	6605                	lui	a2,0x1
ffffffc0502099cc:	458d                	li	a1,3
ffffffc0502099ce:	4505                	li	a0,1
ffffffc0502099d0:	56a000ef          	jal	ra,ffffffc050209f3a <alloc_inode_helper>
ffffffc0502099d4:	87aa                	mv	a5,a0
ffffffc0502099d6:	fef42623          	sw	a5,-20(s0)
ffffffc0502099da:	00050797          	auipc	a5,0x50
ffffffc0502099de:	88278793          	addi	a5,a5,-1918 # ffffffc05025925c <currentfile>
ffffffc0502099e2:	439c                	lw	a5,0(a5)
ffffffc0502099e4:	fec42703          	lw	a4,-20(s0)
ffffffc0502099e8:	fd843603          	ld	a2,-40(s0)
ffffffc0502099ec:	85ba                	mv	a1,a4
ffffffc0502099ee:	853e                	mv	a0,a5
ffffffc0502099f0:	247000ef          	jal	ra,ffffffc05020a436 <write_dir>
ffffffc0502099f4:	4781                	li	a5,0
ffffffc0502099f6:	a011                	j	ffffffc0502099fa <do_touch+0x4e>
ffffffc0502099f8:	57fd                	li	a5,-1
ffffffc0502099fa:	853e                	mv	a0,a5
ffffffc0502099fc:	70a2                	ld	ra,40(sp)
ffffffc0502099fe:	7402                	ld	s0,32(sp)
ffffffc050209a00:	6145                	addi	sp,sp,48
ffffffc050209a02:	8082                	ret

ffffffc050209a04 <do_cat>:
ffffffc050209a04:	7179                	addi	sp,sp,-48
ffffffc050209a06:	f406                	sd	ra,40(sp)
ffffffc050209a08:	f022                	sd	s0,32(sp)
ffffffc050209a0a:	1800                	addi	s0,sp,48
ffffffc050209a0c:	fca43c23          	sd	a0,-40(s0)
ffffffc050209a10:	fd843503          	ld	a0,-40(s0)
ffffffc050209a14:	5d9000ef          	jal	ra,ffffffc05020a7ec <search_dir>
ffffffc050209a18:	87aa                	mv	a5,a0
ffffffc050209a1a:	fef42623          	sw	a5,-20(s0)
ffffffc050209a1e:	fec42783          	lw	a5,-20(s0)
ffffffc050209a22:	0007871b          	sext.w	a4,a5
ffffffc050209a26:	57fd                	li	a5,-1
ffffffc050209a28:	02f70f63          	beq	a4,a5,ffffffc050209a66 <do_cat+0x62>
ffffffc050209a2c:	41b000ef          	jal	ra,ffffffc05020a646 <alloc_addr>
ffffffc050209a30:	fea43023          	sd	a0,-32(s0)
ffffffc050209a34:	fe043783          	ld	a5,-32(s0)
ffffffc050209a38:	fec42703          	lw	a4,-20(s0)
ffffffc050209a3c:	4681                	li	a3,0
ffffffc050209a3e:	863a                	mv	a2,a4
ffffffc050209a40:	6585                	lui	a1,0x1
ffffffc050209a42:	853e                	mv	a0,a5
ffffffc050209a44:	094010ef          	jal	ra,ffffffc05020aad8 <read_file>
ffffffc050209a48:	fe043783          	ld	a5,-32(s0)
ffffffc050209a4c:	85be                	mv	a1,a5
ffffffc050209a4e:	00003517          	auipc	a0,0x3
ffffffc050209a52:	7fa50513          	addi	a0,a0,2042 # ffffffc05020d248 <__FUNCTION__.1825+0x1f8>
ffffffc050209a56:	195020ef          	jal	ra,ffffffc05020c3ea <printk>
ffffffc050209a5a:	fe043503          	ld	a0,-32(s0)
ffffffc050209a5e:	495000ef          	jal	ra,ffffffc05020a6f2 <free_addr>
ffffffc050209a62:	4781                	li	a5,0
ffffffc050209a64:	a011                	j	ffffffc050209a68 <do_cat+0x64>
ffffffc050209a66:	57fd                	li	a5,-1
ffffffc050209a68:	853e                	mv	a0,a5
ffffffc050209a6a:	70a2                	ld	ra,40(sp)
ffffffc050209a6c:	7402                	ld	s0,32(sp)
ffffffc050209a6e:	6145                	addi	sp,sp,48
ffffffc050209a70:	8082                	ret

ffffffc050209a72 <do_fopen>:
ffffffc050209a72:	7179                	addi	sp,sp,-48
ffffffc050209a74:	f406                	sd	ra,40(sp)
ffffffc050209a76:	f022                	sd	s0,32(sp)
ffffffc050209a78:	1800                	addi	s0,sp,48
ffffffc050209a7a:	fca43c23          	sd	a0,-40(s0)
ffffffc050209a7e:	87ae                	mv	a5,a1
ffffffc050209a80:	fcf42a23          	sw	a5,-44(s0)
ffffffc050209a84:	fe042623          	sw	zero,-20(s0)
ffffffc050209a88:	a86d                	j	ffffffc050209b42 <do_fopen+0xd0>
ffffffc050209a8a:	0004a697          	auipc	a3,0x4a
ffffffc050209a8e:	62668693          	addi	a3,a3,1574 # ffffffc0502540b0 <fdesc_array>
ffffffc050209a92:	fec42703          	lw	a4,-20(s0)
ffffffc050209a96:	87ba                	mv	a5,a4
ffffffc050209a98:	078a                	slli	a5,a5,0x2
ffffffc050209a9a:	97ba                	add	a5,a5,a4
ffffffc050209a9c:	078a                	slli	a5,a5,0x2
ffffffc050209a9e:	97b6                	add	a5,a5,a3
ffffffc050209aa0:	4b9c                	lw	a5,16(a5)
ffffffc050209aa2:	ebd9                	bnez	a5,ffffffc050209b38 <do_fopen+0xc6>
ffffffc050209aa4:	fd843503          	ld	a0,-40(s0)
ffffffc050209aa8:	545000ef          	jal	ra,ffffffc05020a7ec <search_dir>
ffffffc050209aac:	87aa                	mv	a5,a0
ffffffc050209aae:	863e                	mv	a2,a5
ffffffc050209ab0:	0004a697          	auipc	a3,0x4a
ffffffc050209ab4:	60068693          	addi	a3,a3,1536 # ffffffc0502540b0 <fdesc_array>
ffffffc050209ab8:	fec42703          	lw	a4,-20(s0)
ffffffc050209abc:	87ba                	mv	a5,a4
ffffffc050209abe:	078a                	slli	a5,a5,0x2
ffffffc050209ac0:	97ba                	add	a5,a5,a4
ffffffc050209ac2:	078a                	slli	a5,a5,0x2
ffffffc050209ac4:	97b6                	add	a5,a5,a3
ffffffc050209ac6:	c390                	sw	a2,0(a5)
ffffffc050209ac8:	0004a697          	auipc	a3,0x4a
ffffffc050209acc:	5e868693          	addi	a3,a3,1512 # ffffffc0502540b0 <fdesc_array>
ffffffc050209ad0:	fec42703          	lw	a4,-20(s0)
ffffffc050209ad4:	87ba                	mv	a5,a4
ffffffc050209ad6:	078a                	slli	a5,a5,0x2
ffffffc050209ad8:	97ba                	add	a5,a5,a4
ffffffc050209ada:	078a                	slli	a5,a5,0x2
ffffffc050209adc:	97b6                	add	a5,a5,a3
ffffffc050209ade:	fd442703          	lw	a4,-44(s0)
ffffffc050209ae2:	c3d8                	sw	a4,4(a5)
ffffffc050209ae4:	0004a697          	auipc	a3,0x4a
ffffffc050209ae8:	5cc68693          	addi	a3,a3,1484 # ffffffc0502540b0 <fdesc_array>
ffffffc050209aec:	fec42703          	lw	a4,-20(s0)
ffffffc050209af0:	87ba                	mv	a5,a4
ffffffc050209af2:	078a                	slli	a5,a5,0x2
ffffffc050209af4:	97ba                	add	a5,a5,a4
ffffffc050209af6:	078a                	slli	a5,a5,0x2
ffffffc050209af8:	97b6                	add	a5,a5,a3
ffffffc050209afa:	0007a423          	sw	zero,8(a5)
ffffffc050209afe:	0004a697          	auipc	a3,0x4a
ffffffc050209b02:	5b268693          	addi	a3,a3,1458 # ffffffc0502540b0 <fdesc_array>
ffffffc050209b06:	fec42703          	lw	a4,-20(s0)
ffffffc050209b0a:	87ba                	mv	a5,a4
ffffffc050209b0c:	078a                	slli	a5,a5,0x2
ffffffc050209b0e:	97ba                	add	a5,a5,a4
ffffffc050209b10:	078a                	slli	a5,a5,0x2
ffffffc050209b12:	97b6                	add	a5,a5,a3
ffffffc050209b14:	0007a623          	sw	zero,12(a5)
ffffffc050209b18:	0004a697          	auipc	a3,0x4a
ffffffc050209b1c:	59868693          	addi	a3,a3,1432 # ffffffc0502540b0 <fdesc_array>
ffffffc050209b20:	fec42703          	lw	a4,-20(s0)
ffffffc050209b24:	87ba                	mv	a5,a4
ffffffc050209b26:	078a                	slli	a5,a5,0x2
ffffffc050209b28:	97ba                	add	a5,a5,a4
ffffffc050209b2a:	078a                	slli	a5,a5,0x2
ffffffc050209b2c:	97b6                	add	a5,a5,a3
ffffffc050209b2e:	4705                	li	a4,1
ffffffc050209b30:	cb98                	sw	a4,16(a5)
ffffffc050209b32:	fec42783          	lw	a5,-20(s0)
ffffffc050209b36:	a815                	j	ffffffc050209b6a <do_fopen+0xf8>
ffffffc050209b38:	fec42783          	lw	a5,-20(s0)
ffffffc050209b3c:	2785                	addiw	a5,a5,1
ffffffc050209b3e:	fef42623          	sw	a5,-20(s0)
ffffffc050209b42:	fec42783          	lw	a5,-20(s0)
ffffffc050209b46:	0007871b          	sext.w	a4,a5
ffffffc050209b4a:	47bd                	li	a5,15
ffffffc050209b4c:	f2e7dfe3          	bge	a5,a4,ffffffc050209a8a <do_fopen+0x18>
ffffffc050209b50:	00003617          	auipc	a2,0x3
ffffffc050209b54:	79860613          	addi	a2,a2,1944 # ffffffc05020d2e8 <__FUNCTION__.1515>
ffffffc050209b58:	13100593          	li	a1,305
ffffffc050209b5c:	00003517          	auipc	a0,0x3
ffffffc050209b60:	6f450513          	addi	a0,a0,1780 # ffffffc05020d250 <__FUNCTION__.1825+0x200>
ffffffc050209b64:	db4ff0ef          	jal	ra,ffffffc050209118 <_panic>
ffffffc050209b68:	4781                	li	a5,0
ffffffc050209b6a:	853e                	mv	a0,a5
ffffffc050209b6c:	70a2                	ld	ra,40(sp)
ffffffc050209b6e:	7402                	ld	s0,32(sp)
ffffffc050209b70:	6145                	addi	sp,sp,48
ffffffc050209b72:	8082                	ret

ffffffc050209b74 <do_fread>:
ffffffc050209b74:	1101                	addi	sp,sp,-32
ffffffc050209b76:	ec06                	sd	ra,24(sp)
ffffffc050209b78:	e822                	sd	s0,16(sp)
ffffffc050209b7a:	1000                	addi	s0,sp,32
ffffffc050209b7c:	87aa                	mv	a5,a0
ffffffc050209b7e:	feb43023          	sd	a1,-32(s0)
ffffffc050209b82:	8732                	mv	a4,a2
ffffffc050209b84:	fef42623          	sw	a5,-20(s0)
ffffffc050209b88:	87ba                	mv	a5,a4
ffffffc050209b8a:	fef42423          	sw	a5,-24(s0)
ffffffc050209b8e:	0004a697          	auipc	a3,0x4a
ffffffc050209b92:	52268693          	addi	a3,a3,1314 # ffffffc0502540b0 <fdesc_array>
ffffffc050209b96:	fec42703          	lw	a4,-20(s0)
ffffffc050209b9a:	87ba                	mv	a5,a4
ffffffc050209b9c:	078a                	slli	a5,a5,0x2
ffffffc050209b9e:	97ba                	add	a5,a5,a4
ffffffc050209ba0:	078a                	slli	a5,a5,0x2
ffffffc050209ba2:	97b6                	add	a5,a5,a3
ffffffc050209ba4:	479c                	lw	a5,8(a5)
ffffffc050209ba6:	fe842703          	lw	a4,-24(s0)
ffffffc050209baa:	9fb9                	addw	a5,a5,a4
ffffffc050209bac:	0007869b          	sext.w	a3,a5
ffffffc050209bb0:	0004a617          	auipc	a2,0x4a
ffffffc050209bb4:	50060613          	addi	a2,a2,1280 # ffffffc0502540b0 <fdesc_array>
ffffffc050209bb8:	fec42703          	lw	a4,-20(s0)
ffffffc050209bbc:	87ba                	mv	a5,a4
ffffffc050209bbe:	078a                	slli	a5,a5,0x2
ffffffc050209bc0:	97ba                	add	a5,a5,a4
ffffffc050209bc2:	078a                	slli	a5,a5,0x2
ffffffc050209bc4:	97b2                	add	a5,a5,a2
ffffffc050209bc6:	c794                	sw	a3,8(a5)
ffffffc050209bc8:	0004a697          	auipc	a3,0x4a
ffffffc050209bcc:	4e868693          	addi	a3,a3,1256 # ffffffc0502540b0 <fdesc_array>
ffffffc050209bd0:	fec42703          	lw	a4,-20(s0)
ffffffc050209bd4:	87ba                	mv	a5,a4
ffffffc050209bd6:	078a                	slli	a5,a5,0x2
ffffffc050209bd8:	97ba                	add	a5,a5,a4
ffffffc050209bda:	078a                	slli	a5,a5,0x2
ffffffc050209bdc:	97b6                	add	a5,a5,a3
ffffffc050209bde:	4390                	lw	a2,0(a5)
ffffffc050209be0:	0004a697          	auipc	a3,0x4a
ffffffc050209be4:	4d068693          	addi	a3,a3,1232 # ffffffc0502540b0 <fdesc_array>
ffffffc050209be8:	fec42703          	lw	a4,-20(s0)
ffffffc050209bec:	87ba                	mv	a5,a4
ffffffc050209bee:	078a                	slli	a5,a5,0x2
ffffffc050209bf0:	97ba                	add	a5,a5,a4
ffffffc050209bf2:	078a                	slli	a5,a5,0x2
ffffffc050209bf4:	97b6                	add	a5,a5,a3
ffffffc050209bf6:	4798                	lw	a4,8(a5)
ffffffc050209bf8:	fe842783          	lw	a5,-24(s0)
ffffffc050209bfc:	40f707bb          	subw	a5,a4,a5
ffffffc050209c00:	0007871b          	sext.w	a4,a5
ffffffc050209c04:	fe842783          	lw	a5,-24(s0)
ffffffc050209c08:	86ba                	mv	a3,a4
ffffffc050209c0a:	85be                	mv	a1,a5
ffffffc050209c0c:	fe043503          	ld	a0,-32(s0)
ffffffc050209c10:	6c9000ef          	jal	ra,ffffffc05020aad8 <read_file>
ffffffc050209c14:	87aa                	mv	a5,a0
ffffffc050209c16:	853e                	mv	a0,a5
ffffffc050209c18:	60e2                	ld	ra,24(sp)
ffffffc050209c1a:	6442                	ld	s0,16(sp)
ffffffc050209c1c:	6105                	addi	sp,sp,32
ffffffc050209c1e:	8082                	ret

ffffffc050209c20 <do_fwrite>:
ffffffc050209c20:	1101                	addi	sp,sp,-32
ffffffc050209c22:	ec06                	sd	ra,24(sp)
ffffffc050209c24:	e822                	sd	s0,16(sp)
ffffffc050209c26:	1000                	addi	s0,sp,32
ffffffc050209c28:	87aa                	mv	a5,a0
ffffffc050209c2a:	feb43023          	sd	a1,-32(s0)
ffffffc050209c2e:	8732                	mv	a4,a2
ffffffc050209c30:	fef42623          	sw	a5,-20(s0)
ffffffc050209c34:	87ba                	mv	a5,a4
ffffffc050209c36:	fef42423          	sw	a5,-24(s0)
ffffffc050209c3a:	0004a697          	auipc	a3,0x4a
ffffffc050209c3e:	47668693          	addi	a3,a3,1142 # ffffffc0502540b0 <fdesc_array>
ffffffc050209c42:	fec42703          	lw	a4,-20(s0)
ffffffc050209c46:	87ba                	mv	a5,a4
ffffffc050209c48:	078a                	slli	a5,a5,0x2
ffffffc050209c4a:	97ba                	add	a5,a5,a4
ffffffc050209c4c:	078a                	slli	a5,a5,0x2
ffffffc050209c4e:	97b6                	add	a5,a5,a3
ffffffc050209c50:	47dc                	lw	a5,12(a5)
ffffffc050209c52:	fe842703          	lw	a4,-24(s0)
ffffffc050209c56:	9fb9                	addw	a5,a5,a4
ffffffc050209c58:	0007869b          	sext.w	a3,a5
ffffffc050209c5c:	0004a617          	auipc	a2,0x4a
ffffffc050209c60:	45460613          	addi	a2,a2,1108 # ffffffc0502540b0 <fdesc_array>
ffffffc050209c64:	fec42703          	lw	a4,-20(s0)
ffffffc050209c68:	87ba                	mv	a5,a4
ffffffc050209c6a:	078a                	slli	a5,a5,0x2
ffffffc050209c6c:	97ba                	add	a5,a5,a4
ffffffc050209c6e:	078a                	slli	a5,a5,0x2
ffffffc050209c70:	97b2                	add	a5,a5,a2
ffffffc050209c72:	c7d4                	sw	a3,12(a5)
ffffffc050209c74:	0004a697          	auipc	a3,0x4a
ffffffc050209c78:	43c68693          	addi	a3,a3,1084 # ffffffc0502540b0 <fdesc_array>
ffffffc050209c7c:	fec42703          	lw	a4,-20(s0)
ffffffc050209c80:	87ba                	mv	a5,a4
ffffffc050209c82:	078a                	slli	a5,a5,0x2
ffffffc050209c84:	97ba                	add	a5,a5,a4
ffffffc050209c86:	078a                	slli	a5,a5,0x2
ffffffc050209c88:	97b6                	add	a5,a5,a3
ffffffc050209c8a:	4390                	lw	a2,0(a5)
ffffffc050209c8c:	0004a697          	auipc	a3,0x4a
ffffffc050209c90:	42468693          	addi	a3,a3,1060 # ffffffc0502540b0 <fdesc_array>
ffffffc050209c94:	fec42703          	lw	a4,-20(s0)
ffffffc050209c98:	87ba                	mv	a5,a4
ffffffc050209c9a:	078a                	slli	a5,a5,0x2
ffffffc050209c9c:	97ba                	add	a5,a5,a4
ffffffc050209c9e:	078a                	slli	a5,a5,0x2
ffffffc050209ca0:	97b6                	add	a5,a5,a3
ffffffc050209ca2:	47d8                	lw	a4,12(a5)
ffffffc050209ca4:	fe842783          	lw	a5,-24(s0)
ffffffc050209ca8:	40f707bb          	subw	a5,a4,a5
ffffffc050209cac:	0007871b          	sext.w	a4,a5
ffffffc050209cb0:	fe842783          	lw	a5,-24(s0)
ffffffc050209cb4:	86ba                	mv	a3,a4
ffffffc050209cb6:	85be                	mv	a1,a5
ffffffc050209cb8:	fe043503          	ld	a0,-32(s0)
ffffffc050209cbc:	3ae010ef          	jal	ra,ffffffc05020b06a <write_file>
ffffffc050209cc0:	87aa                	mv	a5,a0
ffffffc050209cc2:	853e                	mv	a0,a5
ffffffc050209cc4:	60e2                	ld	ra,24(sp)
ffffffc050209cc6:	6442                	ld	s0,16(sp)
ffffffc050209cc8:	6105                	addi	sp,sp,32
ffffffc050209cca:	8082                	ret

ffffffc050209ccc <do_fclose>:
ffffffc050209ccc:	1101                	addi	sp,sp,-32
ffffffc050209cce:	ec22                	sd	s0,24(sp)
ffffffc050209cd0:	1000                	addi	s0,sp,32
ffffffc050209cd2:	87aa                	mv	a5,a0
ffffffc050209cd4:	fef42623          	sw	a5,-20(s0)
ffffffc050209cd8:	0004a697          	auipc	a3,0x4a
ffffffc050209cdc:	3d868693          	addi	a3,a3,984 # ffffffc0502540b0 <fdesc_array>
ffffffc050209ce0:	fec42703          	lw	a4,-20(s0)
ffffffc050209ce4:	87ba                	mv	a5,a4
ffffffc050209ce6:	078a                	slli	a5,a5,0x2
ffffffc050209ce8:	97ba                	add	a5,a5,a4
ffffffc050209cea:	078a                	slli	a5,a5,0x2
ffffffc050209cec:	97b6                	add	a5,a5,a3
ffffffc050209cee:	0007a823          	sw	zero,16(a5)
ffffffc050209cf2:	4781                	li	a5,0
ffffffc050209cf4:	853e                	mv	a0,a5
ffffffc050209cf6:	6462                	ld	s0,24(sp)
ffffffc050209cf8:	6105                	addi	sp,sp,32
ffffffc050209cfa:	8082                	ret

ffffffc050209cfc <do_ln>:
ffffffc050209cfc:	7139                	addi	sp,sp,-64
ffffffc050209cfe:	fc06                	sd	ra,56(sp)
ffffffc050209d00:	f822                	sd	s0,48(sp)
ffffffc050209d02:	0080                	addi	s0,sp,64
ffffffc050209d04:	fca43423          	sd	a0,-56(s0)
ffffffc050209d08:	fcb43023          	sd	a1,-64(s0)
ffffffc050209d0c:	fc843503          	ld	a0,-56(s0)
ffffffc050209d10:	2dd000ef          	jal	ra,ffffffc05020a7ec <search_dir>
ffffffc050209d14:	87aa                	mv	a5,a0
ffffffc050209d16:	fef42623          	sw	a5,-20(s0)
ffffffc050209d1a:	fec42783          	lw	a5,-20(s0)
ffffffc050209d1e:	0007871b          	sext.w	a4,a5
ffffffc050209d22:	57fd                	li	a5,-1
ffffffc050209d24:	04f70f63          	beq	a4,a5,ffffffc050209d82 <do_ln+0x86>
ffffffc050209d28:	11f000ef          	jal	ra,ffffffc05020a646 <alloc_addr>
ffffffc050209d2c:	fea43023          	sd	a0,-32(s0)
ffffffc050209d30:	fec42783          	lw	a5,-20(s0)
ffffffc050209d34:	fe043583          	ld	a1,-32(s0)
ffffffc050209d38:	853e                	mv	a0,a5
ffffffc050209d3a:	1e3010ef          	jal	ra,ffffffc05020b71c <rw_inode>
ffffffc050209d3e:	fca43c23          	sd	a0,-40(s0)
ffffffc050209d42:	fd843783          	ld	a5,-40(s0)
ffffffc050209d46:	fcf43823          	sd	a5,-48(s0)
ffffffc050209d4a:	fd043783          	ld	a5,-48(s0)
ffffffc050209d4e:	53bc                	lw	a5,96(a5)
ffffffc050209d50:	2785                	addiw	a5,a5,1
ffffffc050209d52:	0007871b          	sext.w	a4,a5
ffffffc050209d56:	fd043783          	ld	a5,-48(s0)
ffffffc050209d5a:	d3b8                	sw	a4,96(a5)
ffffffc050209d5c:	fe043503          	ld	a0,-32(s0)
ffffffc050209d60:	193000ef          	jal	ra,ffffffc05020a6f2 <free_addr>
ffffffc050209d64:	0004f797          	auipc	a5,0x4f
ffffffc050209d68:	4f878793          	addi	a5,a5,1272 # ffffffc05025925c <currentfile>
ffffffc050209d6c:	439c                	lw	a5,0(a5)
ffffffc050209d6e:	fec42703          	lw	a4,-20(s0)
ffffffc050209d72:	fc043603          	ld	a2,-64(s0)
ffffffc050209d76:	85ba                	mv	a1,a4
ffffffc050209d78:	853e                	mv	a0,a5
ffffffc050209d7a:	6bc000ef          	jal	ra,ffffffc05020a436 <write_dir>
ffffffc050209d7e:	4785                	li	a5,1
ffffffc050209d80:	a011                	j	ffffffc050209d84 <do_ln+0x88>
ffffffc050209d82:	57fd                	li	a5,-1
ffffffc050209d84:	853e                	mv	a0,a5
ffffffc050209d86:	70e2                	ld	ra,56(sp)
ffffffc050209d88:	7442                	ld	s0,48(sp)
ffffffc050209d8a:	6121                	addi	sp,sp,64
ffffffc050209d8c:	8082                	ret

ffffffc050209d8e <do_rm>:
ffffffc050209d8e:	1101                	addi	sp,sp,-32
ffffffc050209d90:	ec06                	sd	ra,24(sp)
ffffffc050209d92:	e822                	sd	s0,16(sp)
ffffffc050209d94:	1000                	addi	s0,sp,32
ffffffc050209d96:	fea43423          	sd	a0,-24(s0)
ffffffc050209d9a:	fe843503          	ld	a0,-24(s0)
ffffffc050209d9e:	24f010ef          	jal	ra,ffffffc05020b7ec <remove_file>
ffffffc050209da2:	87aa                	mv	a5,a0
ffffffc050209da4:	853e                	mv	a0,a5
ffffffc050209da6:	60e2                	ld	ra,24(sp)
ffffffc050209da8:	6442                	ld	s0,16(sp)
ffffffc050209daa:	6105                	addi	sp,sp,32
ffffffc050209dac:	8082                	ret

ffffffc050209dae <do_lseek>:
ffffffc050209dae:	7139                	addi	sp,sp,-64
ffffffc050209db0:	fc06                	sd	ra,56(sp)
ffffffc050209db2:	f822                	sd	s0,48(sp)
ffffffc050209db4:	0080                	addi	s0,sp,64
ffffffc050209db6:	87aa                	mv	a5,a0
ffffffc050209db8:	86ae                	mv	a3,a1
ffffffc050209dba:	8732                	mv	a4,a2
ffffffc050209dbc:	fcf42623          	sw	a5,-52(s0)
ffffffc050209dc0:	87b6                	mv	a5,a3
ffffffc050209dc2:	fcf42423          	sw	a5,-56(s0)
ffffffc050209dc6:	87ba                	mv	a5,a4
ffffffc050209dc8:	fcf42223          	sw	a5,-60(s0)
ffffffc050209dcc:	fc442783          	lw	a5,-60(s0)
ffffffc050209dd0:	2781                	sext.w	a5,a5
ffffffc050209dd2:	ef95                	bnez	a5,ffffffc050209e0e <do_lseek+0x60>
ffffffc050209dd4:	0004a697          	auipc	a3,0x4a
ffffffc050209dd8:	2dc68693          	addi	a3,a3,732 # ffffffc0502540b0 <fdesc_array>
ffffffc050209ddc:	fcc42703          	lw	a4,-52(s0)
ffffffc050209de0:	87ba                	mv	a5,a4
ffffffc050209de2:	078a                	slli	a5,a5,0x2
ffffffc050209de4:	97ba                	add	a5,a5,a4
ffffffc050209de6:	078a                	slli	a5,a5,0x2
ffffffc050209de8:	97b6                	add	a5,a5,a3
ffffffc050209dea:	fc842703          	lw	a4,-56(s0)
ffffffc050209dee:	c7d8                	sw	a4,12(a5)
ffffffc050209df0:	0004a697          	auipc	a3,0x4a
ffffffc050209df4:	2c068693          	addi	a3,a3,704 # ffffffc0502540b0 <fdesc_array>
ffffffc050209df8:	fcc42703          	lw	a4,-52(s0)
ffffffc050209dfc:	87ba                	mv	a5,a4
ffffffc050209dfe:	078a                	slli	a5,a5,0x2
ffffffc050209e00:	97ba                	add	a5,a5,a4
ffffffc050209e02:	078a                	slli	a5,a5,0x2
ffffffc050209e04:	97b6                	add	a5,a5,a3
ffffffc050209e06:	fc842703          	lw	a4,-56(s0)
ffffffc050209e0a:	c798                	sw	a4,8(a5)
ffffffc050209e0c:	a20d                	j	ffffffc050209f2e <do_lseek+0x180>
ffffffc050209e0e:	fc442783          	lw	a5,-60(s0)
ffffffc050209e12:	0007871b          	sext.w	a4,a5
ffffffc050209e16:	4785                	li	a5,1
ffffffc050209e18:	06f71d63          	bne	a4,a5,ffffffc050209e92 <do_lseek+0xe4>
ffffffc050209e1c:	0004a697          	auipc	a3,0x4a
ffffffc050209e20:	29468693          	addi	a3,a3,660 # ffffffc0502540b0 <fdesc_array>
ffffffc050209e24:	fcc42703          	lw	a4,-52(s0)
ffffffc050209e28:	87ba                	mv	a5,a4
ffffffc050209e2a:	078a                	slli	a5,a5,0x2
ffffffc050209e2c:	97ba                	add	a5,a5,a4
ffffffc050209e2e:	078a                	slli	a5,a5,0x2
ffffffc050209e30:	97b6                	add	a5,a5,a3
ffffffc050209e32:	47dc                	lw	a5,12(a5)
ffffffc050209e34:	fc842703          	lw	a4,-56(s0)
ffffffc050209e38:	9fb9                	addw	a5,a5,a4
ffffffc050209e3a:	0007869b          	sext.w	a3,a5
ffffffc050209e3e:	0004a617          	auipc	a2,0x4a
ffffffc050209e42:	27260613          	addi	a2,a2,626 # ffffffc0502540b0 <fdesc_array>
ffffffc050209e46:	fcc42703          	lw	a4,-52(s0)
ffffffc050209e4a:	87ba                	mv	a5,a4
ffffffc050209e4c:	078a                	slli	a5,a5,0x2
ffffffc050209e4e:	97ba                	add	a5,a5,a4
ffffffc050209e50:	078a                	slli	a5,a5,0x2
ffffffc050209e52:	97b2                	add	a5,a5,a2
ffffffc050209e54:	c7d4                	sw	a3,12(a5)
ffffffc050209e56:	0004a697          	auipc	a3,0x4a
ffffffc050209e5a:	25a68693          	addi	a3,a3,602 # ffffffc0502540b0 <fdesc_array>
ffffffc050209e5e:	fcc42703          	lw	a4,-52(s0)
ffffffc050209e62:	87ba                	mv	a5,a4
ffffffc050209e64:	078a                	slli	a5,a5,0x2
ffffffc050209e66:	97ba                	add	a5,a5,a4
ffffffc050209e68:	078a                	slli	a5,a5,0x2
ffffffc050209e6a:	97b6                	add	a5,a5,a3
ffffffc050209e6c:	479c                	lw	a5,8(a5)
ffffffc050209e6e:	fc842703          	lw	a4,-56(s0)
ffffffc050209e72:	9fb9                	addw	a5,a5,a4
ffffffc050209e74:	0007869b          	sext.w	a3,a5
ffffffc050209e78:	0004a617          	auipc	a2,0x4a
ffffffc050209e7c:	23860613          	addi	a2,a2,568 # ffffffc0502540b0 <fdesc_array>
ffffffc050209e80:	fcc42703          	lw	a4,-52(s0)
ffffffc050209e84:	87ba                	mv	a5,a4
ffffffc050209e86:	078a                	slli	a5,a5,0x2
ffffffc050209e88:	97ba                	add	a5,a5,a4
ffffffc050209e8a:	078a                	slli	a5,a5,0x2
ffffffc050209e8c:	97b2                	add	a5,a5,a2
ffffffc050209e8e:	c794                	sw	a3,8(a5)
ffffffc050209e90:	a879                	j	ffffffc050209f2e <do_lseek+0x180>
ffffffc050209e92:	fc442783          	lw	a5,-60(s0)
ffffffc050209e96:	0007871b          	sext.w	a4,a5
ffffffc050209e9a:	4789                	li	a5,2
ffffffc050209e9c:	08f71963          	bne	a4,a5,ffffffc050209f2e <do_lseek+0x180>
ffffffc050209ea0:	7a6000ef          	jal	ra,ffffffc05020a646 <alloc_addr>
ffffffc050209ea4:	fea43423          	sd	a0,-24(s0)
ffffffc050209ea8:	0004a697          	auipc	a3,0x4a
ffffffc050209eac:	20868693          	addi	a3,a3,520 # ffffffc0502540b0 <fdesc_array>
ffffffc050209eb0:	fcc42703          	lw	a4,-52(s0)
ffffffc050209eb4:	87ba                	mv	a5,a4
ffffffc050209eb6:	078a                	slli	a5,a5,0x2
ffffffc050209eb8:	97ba                	add	a5,a5,a4
ffffffc050209eba:	078a                	slli	a5,a5,0x2
ffffffc050209ebc:	97b6                	add	a5,a5,a3
ffffffc050209ebe:	439c                	lw	a5,0(a5)
ffffffc050209ec0:	fe843583          	ld	a1,-24(s0)
ffffffc050209ec4:	853e                	mv	a0,a5
ffffffc050209ec6:	057010ef          	jal	ra,ffffffc05020b71c <rw_inode>
ffffffc050209eca:	87aa                	mv	a5,a0
ffffffc050209ecc:	fef43023          	sd	a5,-32(s0)
ffffffc050209ed0:	fe043783          	ld	a5,-32(s0)
ffffffc050209ed4:	47dc                	lw	a5,12(a5)
ffffffc050209ed6:	fcf42e23          	sw	a5,-36(s0)
ffffffc050209eda:	fdc42703          	lw	a4,-36(s0)
ffffffc050209ede:	fc842783          	lw	a5,-56(s0)
ffffffc050209ee2:	9fb9                	addw	a5,a5,a4
ffffffc050209ee4:	0007869b          	sext.w	a3,a5
ffffffc050209ee8:	0004a617          	auipc	a2,0x4a
ffffffc050209eec:	1c860613          	addi	a2,a2,456 # ffffffc0502540b0 <fdesc_array>
ffffffc050209ef0:	fcc42703          	lw	a4,-52(s0)
ffffffc050209ef4:	87ba                	mv	a5,a4
ffffffc050209ef6:	078a                	slli	a5,a5,0x2
ffffffc050209ef8:	97ba                	add	a5,a5,a4
ffffffc050209efa:	078a                	slli	a5,a5,0x2
ffffffc050209efc:	97b2                	add	a5,a5,a2
ffffffc050209efe:	c7d4                	sw	a3,12(a5)
ffffffc050209f00:	fdc42703          	lw	a4,-36(s0)
ffffffc050209f04:	fc842783          	lw	a5,-56(s0)
ffffffc050209f08:	9fb9                	addw	a5,a5,a4
ffffffc050209f0a:	0007869b          	sext.w	a3,a5
ffffffc050209f0e:	0004a617          	auipc	a2,0x4a
ffffffc050209f12:	1a260613          	addi	a2,a2,418 # ffffffc0502540b0 <fdesc_array>
ffffffc050209f16:	fcc42703          	lw	a4,-52(s0)
ffffffc050209f1a:	87ba                	mv	a5,a4
ffffffc050209f1c:	078a                	slli	a5,a5,0x2
ffffffc050209f1e:	97ba                	add	a5,a5,a4
ffffffc050209f20:	078a                	slli	a5,a5,0x2
ffffffc050209f22:	97b2                	add	a5,a5,a2
ffffffc050209f24:	c794                	sw	a3,8(a5)
ffffffc050209f26:	fe843503          	ld	a0,-24(s0)
ffffffc050209f2a:	7c8000ef          	jal	ra,ffffffc05020a6f2 <free_addr>
ffffffc050209f2e:	4781                	li	a5,0
ffffffc050209f30:	853e                	mv	a0,a5
ffffffc050209f32:	70e2                	ld	ra,56(sp)
ffffffc050209f34:	7442                	ld	s0,48(sp)
ffffffc050209f36:	6121                	addi	sp,sp,64
ffffffc050209f38:	8082                	ret

ffffffc050209f3a <alloc_inode_helper>:
ffffffc050209f3a:	7139                	addi	sp,sp,-64
ffffffc050209f3c:	fc06                	sd	ra,56(sp)
ffffffc050209f3e:	f822                	sd	s0,48(sp)
ffffffc050209f40:	0080                	addi	s0,sp,64
ffffffc050209f42:	87aa                	mv	a5,a0
ffffffc050209f44:	86ae                	mv	a3,a1
ffffffc050209f46:	8732                	mv	a4,a2
ffffffc050209f48:	fcf42623          	sw	a5,-52(s0)
ffffffc050209f4c:	87b6                	mv	a5,a3
ffffffc050209f4e:	fcf42423          	sw	a5,-56(s0)
ffffffc050209f52:	87ba                	mv	a5,a4
ffffffc050209f54:	fcf42223          	sw	a5,-60(s0)
ffffffc050209f58:	10e000ef          	jal	ra,ffffffc05020a066 <alloc_inode>
ffffffc050209f5c:	87aa                	mv	a5,a0
ffffffc050209f5e:	fef42423          	sw	a5,-24(s0)
ffffffc050209f62:	6e4000ef          	jal	ra,ffffffc05020a646 <alloc_addr>
ffffffc050209f66:	fea43023          	sd	a0,-32(s0)
ffffffc050209f6a:	fe842783          	lw	a5,-24(s0)
ffffffc050209f6e:	853e                	mv	a0,a5
ffffffc050209f70:	76e010ef          	jal	ra,ffffffc05020b6de <get_inode_block>
ffffffc050209f74:	87aa                	mv	a5,a0
ffffffc050209f76:	fcf42e23          	sw	a5,-36(s0)
ffffffc050209f7a:	fe842783          	lw	a5,-24(s0)
ffffffc050209f7e:	fe043583          	ld	a1,-32(s0)
ffffffc050209f82:	853e                	mv	a0,a5
ffffffc050209f84:	798010ef          	jal	ra,ffffffc05020b71c <rw_inode>
ffffffc050209f88:	87aa                	mv	a5,a0
ffffffc050209f8a:	fcf43823          	sd	a5,-48(s0)
ffffffc050209f8e:	fd043783          	ld	a5,-48(s0)
ffffffc050209f92:	fcc42703          	lw	a4,-52(s0)
ffffffc050209f96:	c398                	sw	a4,0(a5)
ffffffc050209f98:	fd043783          	ld	a5,-48(s0)
ffffffc050209f9c:	fc842703          	lw	a4,-56(s0)
ffffffc050209fa0:	c3d8                	sw	a4,4(a5)
ffffffc050209fa2:	fcc42783          	lw	a5,-52(s0)
ffffffc050209fa6:	0007871b          	sext.w	a4,a5
ffffffc050209faa:	4785                	li	a5,1
ffffffc050209fac:	00f70563          	beq	a4,a5,ffffffc050209fb6 <alloc_inode_helper+0x7c>
ffffffc050209fb0:	fc442783          	lw	a5,-60(s0)
ffffffc050209fb4:	a011                	j	ffffffc050209fb8 <alloc_inode_helper+0x7e>
ffffffc050209fb6:	4781                	li	a5,0
ffffffc050209fb8:	fd043703          	ld	a4,-48(s0)
ffffffc050209fbc:	c75c                	sw	a5,12(a4)
ffffffc050209fbe:	fe042623          	sw	zero,-20(s0)
ffffffc050209fc2:	a015                	j	ffffffc050209fe6 <alloc_inode_helper+0xac>
ffffffc050209fc4:	11c000ef          	jal	ra,ffffffc05020a0e0 <alloc_data>
ffffffc050209fc8:	87aa                	mv	a5,a0
ffffffc050209fca:	86be                	mv	a3,a5
ffffffc050209fcc:	fd043703          	ld	a4,-48(s0)
ffffffc050209fd0:	fec42783          	lw	a5,-20(s0)
ffffffc050209fd4:	0791                	addi	a5,a5,4
ffffffc050209fd6:	078a                	slli	a5,a5,0x2
ffffffc050209fd8:	97ba                	add	a5,a5,a4
ffffffc050209fda:	c3d4                	sw	a3,4(a5)
ffffffc050209fdc:	fec42783          	lw	a5,-20(s0)
ffffffc050209fe0:	2785                	addiw	a5,a5,1
ffffffc050209fe2:	fef42623          	sw	a5,-20(s0)
ffffffc050209fe6:	fec42783          	lw	a5,-20(s0)
ffffffc050209fea:	0007871b          	sext.w	a4,a5
ffffffc050209fee:	47a5                	li	a5,9
ffffffc050209ff0:	fce7dae3          	bge	a5,a4,ffffffc050209fc4 <alloc_inode_helper+0x8a>
ffffffc050209ff4:	0ec000ef          	jal	ra,ffffffc05020a0e0 <alloc_data>
ffffffc050209ff8:	87aa                	mv	a5,a0
ffffffc050209ffa:	873e                	mv	a4,a5
ffffffc050209ffc:	fd043783          	ld	a5,-48(s0)
ffffffc05020a000:	c7b8                	sw	a4,72(a5)
ffffffc05020a002:	0de000ef          	jal	ra,ffffffc05020a0e0 <alloc_data>
ffffffc05020a006:	87aa                	mv	a5,a0
ffffffc05020a008:	873e                	mv	a4,a5
ffffffc05020a00a:	fd043783          	ld	a5,-48(s0)
ffffffc05020a00e:	c7f8                	sw	a4,76(a5)
ffffffc05020a010:	0d0000ef          	jal	ra,ffffffc05020a0e0 <alloc_data>
ffffffc05020a014:	87aa                	mv	a5,a0
ffffffc05020a016:	873e                	mv	a4,a5
ffffffc05020a018:	fd043783          	ld	a5,-48(s0)
ffffffc05020a01c:	cbb8                	sw	a4,80(a5)
ffffffc05020a01e:	fd043783          	ld	a5,-48(s0)
ffffffc05020a022:	4705                	li	a4,1
ffffffc05020a024:	d3b8                	sw	a4,96(a5)
ffffffc05020a026:	fe043503          	ld	a0,-32(s0)
ffffffc05020a02a:	920ff0ef          	jal	ra,ffffffc05020914a <kva2pa>
ffffffc05020a02e:	87aa                	mv	a5,a0
ffffffc05020a030:	0007869b          	sext.w	a3,a5
ffffffc05020a034:	fdc42703          	lw	a4,-36(s0)
ffffffc05020a038:	001007b7          	lui	a5,0x100
ffffffc05020a03c:	0227879b          	addiw	a5,a5,34
ffffffc05020a040:	9fb9                	addw	a5,a5,a4
ffffffc05020a042:	2781                	sext.w	a5,a5
ffffffc05020a044:	2781                	sext.w	a5,a5
ffffffc05020a046:	863e                	mv	a2,a5
ffffffc05020a048:	4589                	li	a1,2
ffffffc05020a04a:	8536                	mv	a0,a3
ffffffc05020a04c:	9c4ff0ef          	jal	ra,ffffffc050209210 <bios_sdwrite>
ffffffc05020a050:	fe043503          	ld	a0,-32(s0)
ffffffc05020a054:	69e000ef          	jal	ra,ffffffc05020a6f2 <free_addr>
ffffffc05020a058:	fe842783          	lw	a5,-24(s0)
ffffffc05020a05c:	853e                	mv	a0,a5
ffffffc05020a05e:	70e2                	ld	ra,56(sp)
ffffffc05020a060:	7442                	ld	s0,48(sp)
ffffffc05020a062:	6121                	addi	sp,sp,64
ffffffc05020a064:	8082                	ret

ffffffc05020a066 <alloc_inode>:
ffffffc05020a066:	1101                	addi	sp,sp,-32
ffffffc05020a068:	ec06                	sd	ra,24(sp)
ffffffc05020a06a:	e822                	sd	s0,16(sp)
ffffffc05020a06c:	1000                	addi	s0,sp,32
ffffffc05020a06e:	5d8000ef          	jal	ra,ffffffc05020a646 <alloc_addr>
ffffffc05020a072:	fea43423          	sd	a0,-24(s0)
ffffffc05020a076:	fe843503          	ld	a0,-24(s0)
ffffffc05020a07a:	8d0ff0ef          	jal	ra,ffffffc05020914a <kva2pa>
ffffffc05020a07e:	87aa                	mv	a5,a0
ffffffc05020a080:	0007871b          	sext.w	a4,a5
ffffffc05020a084:	001007b7          	lui	a5,0x100
ffffffc05020a088:	02178613          	addi	a2,a5,33 # 100021 <boot_stack_top_base-0x50101fdf>
ffffffc05020a08c:	4585                	li	a1,1
ffffffc05020a08e:	853a                	mv	a0,a4
ffffffc05020a090:	93eff0ef          	jal	ra,ffffffc0502091ce <bios_sdread>
ffffffc05020a094:	55fd                	li	a1,-1
ffffffc05020a096:	fe843503          	ld	a0,-24(s0)
ffffffc05020a09a:	12a000ef          	jal	ra,ffffffc05020a1c4 <alloc_map>
ffffffc05020a09e:	87aa                	mv	a5,a0
ffffffc05020a0a0:	fef42223          	sw	a5,-28(s0)
ffffffc05020a0a4:	fe442783          	lw	a5,-28(s0)
ffffffc05020a0a8:	0007871b          	sext.w	a4,a5
ffffffc05020a0ac:	57fd                	li	a5,-1
ffffffc05020a0ae:	00f71e63          	bne	a4,a5,ffffffc05020a0ca <alloc_inode+0x64>
ffffffc05020a0b2:	00003617          	auipc	a2,0x3
ffffffc05020a0b6:	24660613          	addi	a2,a2,582 # ffffffc05020d2f8 <__FUNCTION__.1565>
ffffffc05020a0ba:	19a00593          	li	a1,410
ffffffc05020a0be:	00003517          	auipc	a0,0x3
ffffffc05020a0c2:	19250513          	addi	a0,a0,402 # ffffffc05020d250 <__FUNCTION__.1825+0x200>
ffffffc05020a0c6:	852ff0ef          	jal	ra,ffffffc050209118 <_panic>
ffffffc05020a0ca:	fe843503          	ld	a0,-24(s0)
ffffffc05020a0ce:	624000ef          	jal	ra,ffffffc05020a6f2 <free_addr>
ffffffc05020a0d2:	fe442783          	lw	a5,-28(s0)
ffffffc05020a0d6:	853e                	mv	a0,a5
ffffffc05020a0d8:	60e2                	ld	ra,24(sp)
ffffffc05020a0da:	6442                	ld	s0,16(sp)
ffffffc05020a0dc:	6105                	addi	sp,sp,32
ffffffc05020a0de:	8082                	ret

ffffffc05020a0e0 <alloc_data>:
ffffffc05020a0e0:	7179                	addi	sp,sp,-48
ffffffc05020a0e2:	f406                	sd	ra,40(sp)
ffffffc05020a0e4:	f022                	sd	s0,32(sp)
ffffffc05020a0e6:	1800                	addi	s0,sp,48
ffffffc05020a0e8:	57fd                	li	a5,-1
ffffffc05020a0ea:	fef42623          	sw	a5,-20(s0)
ffffffc05020a0ee:	558000ef          	jal	ra,ffffffc05020a646 <alloc_addr>
ffffffc05020a0f2:	fea43023          	sd	a0,-32(s0)
ffffffc05020a0f6:	fe042423          	sw	zero,-24(s0)
ffffffc05020a0fa:	a0bd                	j	ffffffc05020a168 <alloc_data+0x88>
ffffffc05020a0fc:	fe043503          	ld	a0,-32(s0)
ffffffc05020a100:	84aff0ef          	jal	ra,ffffffc05020914a <kva2pa>
ffffffc05020a104:	87aa                	mv	a5,a0
ffffffc05020a106:	0007869b          	sext.w	a3,a5
ffffffc05020a10a:	fe842703          	lw	a4,-24(s0)
ffffffc05020a10e:	001007b7          	lui	a5,0x100
ffffffc05020a112:	2785                	addiw	a5,a5,1
ffffffc05020a114:	9fb9                	addw	a5,a5,a4
ffffffc05020a116:	2781                	sext.w	a5,a5
ffffffc05020a118:	2781                	sext.w	a5,a5
ffffffc05020a11a:	863e                	mv	a2,a5
ffffffc05020a11c:	4585                	li	a1,1
ffffffc05020a11e:	8536                	mv	a0,a3
ffffffc05020a120:	8aeff0ef          	jal	ra,ffffffc0502091ce <bios_sdread>
ffffffc05020a124:	fe842783          	lw	a5,-24(s0)
ffffffc05020a128:	85be                	mv	a1,a5
ffffffc05020a12a:	fe043503          	ld	a0,-32(s0)
ffffffc05020a12e:	096000ef          	jal	ra,ffffffc05020a1c4 <alloc_map>
ffffffc05020a132:	87aa                	mv	a5,a0
ffffffc05020a134:	fcf42e23          	sw	a5,-36(s0)
ffffffc05020a138:	fdc42783          	lw	a5,-36(s0)
ffffffc05020a13c:	0007871b          	sext.w	a4,a5
ffffffc05020a140:	57fd                	li	a5,-1
ffffffc05020a142:	00f71863          	bne	a4,a5,ffffffc05020a152 <alloc_data+0x72>
ffffffc05020a146:	fe842783          	lw	a5,-24(s0)
ffffffc05020a14a:	2785                	addiw	a5,a5,1
ffffffc05020a14c:	fef42423          	sw	a5,-24(s0)
ffffffc05020a150:	a821                	j	ffffffc05020a168 <alloc_data+0x88>
ffffffc05020a152:	fe842783          	lw	a5,-24(s0)
ffffffc05020a156:	00c7979b          	slliw	a5,a5,0xc
ffffffc05020a15a:	2781                	sext.w	a5,a5
ffffffc05020a15c:	fdc42703          	lw	a4,-36(s0)
ffffffc05020a160:	9fb9                	addw	a5,a5,a4
ffffffc05020a162:	fef42623          	sw	a5,-20(s0)
ffffffc05020a166:	a801                	j	ffffffc05020a176 <alloc_data+0x96>
ffffffc05020a168:	fe842783          	lw	a5,-24(s0)
ffffffc05020a16c:	0007871b          	sext.w	a4,a5
ffffffc05020a170:	47fd                	li	a5,31
ffffffc05020a172:	f8e7d5e3          	bge	a5,a4,ffffffc05020a0fc <alloc_data+0x1c>
ffffffc05020a176:	fe043783          	ld	a5,-32(s0)
ffffffc05020a17a:	6605                	lui	a2,0x1
ffffffc05020a17c:	4581                	li	a1,0
ffffffc05020a17e:	853e                	mv	a0,a5
ffffffc05020a180:	424020ef          	jal	ra,ffffffc05020c5a4 <memset>
ffffffc05020a184:	fe043503          	ld	a0,-32(s0)
ffffffc05020a188:	fc3fe0ef          	jal	ra,ffffffc05020914a <kva2pa>
ffffffc05020a18c:	87aa                	mv	a5,a0
ffffffc05020a18e:	0007869b          	sext.w	a3,a5
ffffffc05020a192:	fec42703          	lw	a4,-20(s0)
ffffffc05020a196:	001017b7          	lui	a5,0x101
ffffffc05020a19a:	8227879b          	addiw	a5,a5,-2014
ffffffc05020a19e:	9fb9                	addw	a5,a5,a4
ffffffc05020a1a0:	2781                	sext.w	a5,a5
ffffffc05020a1a2:	2781                	sext.w	a5,a5
ffffffc05020a1a4:	863e                	mv	a2,a5
ffffffc05020a1a6:	45a1                	li	a1,8
ffffffc05020a1a8:	8536                	mv	a0,a3
ffffffc05020a1aa:	866ff0ef          	jal	ra,ffffffc050209210 <bios_sdwrite>
ffffffc05020a1ae:	fe043503          	ld	a0,-32(s0)
ffffffc05020a1b2:	540000ef          	jal	ra,ffffffc05020a6f2 <free_addr>
ffffffc05020a1b6:	fec42783          	lw	a5,-20(s0)
ffffffc05020a1ba:	853e                	mv	a0,a5
ffffffc05020a1bc:	70a2                	ld	ra,40(sp)
ffffffc05020a1be:	7402                	ld	s0,32(sp)
ffffffc05020a1c0:	6145                	addi	sp,sp,48
ffffffc05020a1c2:	8082                	ret

ffffffc05020a1c4 <alloc_map>:
ffffffc05020a1c4:	7179                	addi	sp,sp,-48
ffffffc05020a1c6:	f406                	sd	ra,40(sp)
ffffffc05020a1c8:	f022                	sd	s0,32(sp)
ffffffc05020a1ca:	1800                	addi	s0,sp,48
ffffffc05020a1cc:	fca43c23          	sd	a0,-40(s0)
ffffffc05020a1d0:	87ae                	mv	a5,a1
ffffffc05020a1d2:	fcf42a23          	sw	a5,-44(s0)
ffffffc05020a1d6:	fd843783          	ld	a5,-40(s0)
ffffffc05020a1da:	fef43023          	sd	a5,-32(s0)
ffffffc05020a1de:	57fd                	li	a5,-1
ffffffc05020a1e0:	fef42623          	sw	a5,-20(s0)
ffffffc05020a1e4:	fe043783          	ld	a5,-32(s0)
ffffffc05020a1e8:	1ff78793          	addi	a5,a5,511 # 1011ff <boot_stack_top_base-0x50100e01>
ffffffc05020a1ec:	0007c783          	lbu	a5,0(a5)
ffffffc05020a1f0:	873e                	mv	a4,a5
ffffffc05020a1f2:	0ff00793          	li	a5,255
ffffffc05020a1f6:	22f70a63          	beq	a4,a5,ffffffc05020a42a <alloc_map+0x266>
ffffffc05020a1fa:	fe042423          	sw	zero,-24(s0)
ffffffc05020a1fe:	ac31                	j	ffffffc05020a41a <alloc_map+0x256>
ffffffc05020a200:	fe842783          	lw	a5,-24(s0)
ffffffc05020a204:	fe043703          	ld	a4,-32(s0)
ffffffc05020a208:	97ba                	add	a5,a5,a4
ffffffc05020a20a:	0007c783          	lbu	a5,0(a5)
ffffffc05020a20e:	873e                	mv	a4,a5
ffffffc05020a210:	0ff00793          	li	a5,255
ffffffc05020a214:	00f71863          	bne	a4,a5,ffffffc05020a224 <alloc_map+0x60>
ffffffc05020a218:	fe842783          	lw	a5,-24(s0)
ffffffc05020a21c:	2785                	addiw	a5,a5,1
ffffffc05020a21e:	fef42423          	sw	a5,-24(s0)
ffffffc05020a222:	aae5                	j	ffffffc05020a41a <alloc_map+0x256>
ffffffc05020a224:	fe842783          	lw	a5,-24(s0)
ffffffc05020a228:	fe043703          	ld	a4,-32(s0)
ffffffc05020a22c:	97ba                	add	a5,a5,a4
ffffffc05020a22e:	0007c783          	lbu	a5,0(a5)
ffffffc05020a232:	2781                	sext.w	a5,a5
ffffffc05020a234:	86be                	mv	a3,a5
ffffffc05020a236:	07f00713          	li	a4,127
ffffffc05020a23a:	12e68f63          	beq	a3,a4,ffffffc05020a378 <alloc_map+0x1b4>
ffffffc05020a23e:	86be                	mv	a3,a5
ffffffc05020a240:	07f00713          	li	a4,127
ffffffc05020a244:	14d74b63          	blt	a4,a3,ffffffc05020a39a <alloc_map+0x1d6>
ffffffc05020a248:	86be                	mv	a3,a5
ffffffc05020a24a:	477d                	li	a4,31
ffffffc05020a24c:	02d74963          	blt	a4,a3,ffffffc05020a27e <alloc_map+0xba>
ffffffc05020a250:	873e                	mv	a4,a5
ffffffc05020a252:	14074463          	bltz	a4,ffffffc05020a39a <alloc_map+0x1d6>
ffffffc05020a256:	86be                	mv	a3,a5
ffffffc05020a258:	477d                	li	a4,31
ffffffc05020a25a:	14d76063          	bltu	a4,a3,ffffffc05020a39a <alloc_map+0x1d6>
ffffffc05020a25e:	00279713          	slli	a4,a5,0x2
ffffffc05020a262:	00003797          	auipc	a5,0x3
ffffffc05020a266:	00278793          	addi	a5,a5,2 # ffffffc05020d264 <__FUNCTION__.1825+0x214>
ffffffc05020a26a:	97ba                	add	a5,a5,a4
ffffffc05020a26c:	439c                	lw	a5,0(a5)
ffffffc05020a26e:	0007871b          	sext.w	a4,a5
ffffffc05020a272:	00003797          	auipc	a5,0x3
ffffffc05020a276:	ff278793          	addi	a5,a5,-14 # ffffffc05020d264 <__FUNCTION__.1825+0x214>
ffffffc05020a27a:	97ba                	add	a5,a5,a4
ffffffc05020a27c:	8782                	jr	a5
ffffffc05020a27e:	873e                	mv	a4,a5
ffffffc05020a280:	03f00793          	li	a5,63
ffffffc05020a284:	0cf70863          	beq	a4,a5,ffffffc05020a354 <alloc_map+0x190>
ffffffc05020a288:	aa09                	j	ffffffc05020a39a <alloc_map+0x1d6>
ffffffc05020a28a:	fe842783          	lw	a5,-24(s0)
ffffffc05020a28e:	fe043703          	ld	a4,-32(s0)
ffffffc05020a292:	97ba                	add	a5,a5,a4
ffffffc05020a294:	4705                	li	a4,1
ffffffc05020a296:	00e78023          	sb	a4,0(a5)
ffffffc05020a29a:	fe842783          	lw	a5,-24(s0)
ffffffc05020a29e:	0037979b          	slliw	a5,a5,0x3
ffffffc05020a2a2:	fef42623          	sw	a5,-20(s0)
ffffffc05020a2a6:	aa31                	j	ffffffc05020a3c2 <alloc_map+0x1fe>
ffffffc05020a2a8:	fe842783          	lw	a5,-24(s0)
ffffffc05020a2ac:	fe043703          	ld	a4,-32(s0)
ffffffc05020a2b0:	97ba                	add	a5,a5,a4
ffffffc05020a2b2:	470d                	li	a4,3
ffffffc05020a2b4:	00e78023          	sb	a4,0(a5)
ffffffc05020a2b8:	fe842783          	lw	a5,-24(s0)
ffffffc05020a2bc:	0037979b          	slliw	a5,a5,0x3
ffffffc05020a2c0:	2781                	sext.w	a5,a5
ffffffc05020a2c2:	2785                	addiw	a5,a5,1
ffffffc05020a2c4:	fef42623          	sw	a5,-20(s0)
ffffffc05020a2c8:	a8ed                	j	ffffffc05020a3c2 <alloc_map+0x1fe>
ffffffc05020a2ca:	fe842783          	lw	a5,-24(s0)
ffffffc05020a2ce:	fe043703          	ld	a4,-32(s0)
ffffffc05020a2d2:	97ba                	add	a5,a5,a4
ffffffc05020a2d4:	471d                	li	a4,7
ffffffc05020a2d6:	00e78023          	sb	a4,0(a5)
ffffffc05020a2da:	fe842783          	lw	a5,-24(s0)
ffffffc05020a2de:	0037979b          	slliw	a5,a5,0x3
ffffffc05020a2e2:	2781                	sext.w	a5,a5
ffffffc05020a2e4:	2789                	addiw	a5,a5,2
ffffffc05020a2e6:	fef42623          	sw	a5,-20(s0)
ffffffc05020a2ea:	a8e1                	j	ffffffc05020a3c2 <alloc_map+0x1fe>
ffffffc05020a2ec:	fe842783          	lw	a5,-24(s0)
ffffffc05020a2f0:	fe043703          	ld	a4,-32(s0)
ffffffc05020a2f4:	97ba                	add	a5,a5,a4
ffffffc05020a2f6:	473d                	li	a4,15
ffffffc05020a2f8:	00e78023          	sb	a4,0(a5)
ffffffc05020a2fc:	fe842783          	lw	a5,-24(s0)
ffffffc05020a300:	0037979b          	slliw	a5,a5,0x3
ffffffc05020a304:	2781                	sext.w	a5,a5
ffffffc05020a306:	278d                	addiw	a5,a5,3
ffffffc05020a308:	fef42623          	sw	a5,-20(s0)
ffffffc05020a30c:	a85d                	j	ffffffc05020a3c2 <alloc_map+0x1fe>
ffffffc05020a30e:	fe842783          	lw	a5,-24(s0)
ffffffc05020a312:	fe043703          	ld	a4,-32(s0)
ffffffc05020a316:	97ba                	add	a5,a5,a4
ffffffc05020a318:	477d                	li	a4,31
ffffffc05020a31a:	00e78023          	sb	a4,0(a5)
ffffffc05020a31e:	fe842783          	lw	a5,-24(s0)
ffffffc05020a322:	0037979b          	slliw	a5,a5,0x3
ffffffc05020a326:	2781                	sext.w	a5,a5
ffffffc05020a328:	2791                	addiw	a5,a5,4
ffffffc05020a32a:	fef42623          	sw	a5,-20(s0)
ffffffc05020a32e:	a851                	j	ffffffc05020a3c2 <alloc_map+0x1fe>
ffffffc05020a330:	fe842783          	lw	a5,-24(s0)
ffffffc05020a334:	fe043703          	ld	a4,-32(s0)
ffffffc05020a338:	97ba                	add	a5,a5,a4
ffffffc05020a33a:	03f00713          	li	a4,63
ffffffc05020a33e:	00e78023          	sb	a4,0(a5)
ffffffc05020a342:	fe842783          	lw	a5,-24(s0)
ffffffc05020a346:	0037979b          	slliw	a5,a5,0x3
ffffffc05020a34a:	2781                	sext.w	a5,a5
ffffffc05020a34c:	2795                	addiw	a5,a5,5
ffffffc05020a34e:	fef42623          	sw	a5,-20(s0)
ffffffc05020a352:	a885                	j	ffffffc05020a3c2 <alloc_map+0x1fe>
ffffffc05020a354:	fe842783          	lw	a5,-24(s0)
ffffffc05020a358:	fe043703          	ld	a4,-32(s0)
ffffffc05020a35c:	97ba                	add	a5,a5,a4
ffffffc05020a35e:	07f00713          	li	a4,127
ffffffc05020a362:	00e78023          	sb	a4,0(a5)
ffffffc05020a366:	fe842783          	lw	a5,-24(s0)
ffffffc05020a36a:	0037979b          	slliw	a5,a5,0x3
ffffffc05020a36e:	2781                	sext.w	a5,a5
ffffffc05020a370:	2799                	addiw	a5,a5,6
ffffffc05020a372:	fef42623          	sw	a5,-20(s0)
ffffffc05020a376:	a0b1                	j	ffffffc05020a3c2 <alloc_map+0x1fe>
ffffffc05020a378:	fe842783          	lw	a5,-24(s0)
ffffffc05020a37c:	fe043703          	ld	a4,-32(s0)
ffffffc05020a380:	97ba                	add	a5,a5,a4
ffffffc05020a382:	577d                	li	a4,-1
ffffffc05020a384:	00e78023          	sb	a4,0(a5)
ffffffc05020a388:	fe842783          	lw	a5,-24(s0)
ffffffc05020a38c:	0037979b          	slliw	a5,a5,0x3
ffffffc05020a390:	2781                	sext.w	a5,a5
ffffffc05020a392:	279d                	addiw	a5,a5,7
ffffffc05020a394:	fef42623          	sw	a5,-20(s0)
ffffffc05020a398:	a02d                	j	ffffffc05020a3c2 <alloc_map+0x1fe>
ffffffc05020a39a:	fec42783          	lw	a5,-20(s0)
ffffffc05020a39e:	0007871b          	sext.w	a4,a5
ffffffc05020a3a2:	57fd                	li	a5,-1
ffffffc05020a3a4:	00f71e63          	bne	a4,a5,ffffffc05020a3c0 <alloc_map+0x1fc>
ffffffc05020a3a8:	00003617          	auipc	a2,0x3
ffffffc05020a3ac:	f6060613          	addi	a2,a2,-160 # ffffffc05020d308 <__FUNCTION__.1594>
ffffffc05020a3b0:	1e400593          	li	a1,484
ffffffc05020a3b4:	00003517          	auipc	a0,0x3
ffffffc05020a3b8:	e9c50513          	addi	a0,a0,-356 # ffffffc05020d250 <__FUNCTION__.1825+0x200>
ffffffc05020a3bc:	d5dfe0ef          	jal	ra,ffffffc050209118 <_panic>
ffffffc05020a3c0:	0001                	nop
ffffffc05020a3c2:	fd442783          	lw	a5,-44(s0)
ffffffc05020a3c6:	2781                	sext.w	a5,a5
ffffffc05020a3c8:	0207d263          	bgez	a5,ffffffc05020a3ec <alloc_map+0x228>
ffffffc05020a3cc:	fd843503          	ld	a0,-40(s0)
ffffffc05020a3d0:	d7bfe0ef          	jal	ra,ffffffc05020914a <kva2pa>
ffffffc05020a3d4:	87aa                	mv	a5,a0
ffffffc05020a3d6:	0007871b          	sext.w	a4,a5
ffffffc05020a3da:	001007b7          	lui	a5,0x100
ffffffc05020a3de:	02178613          	addi	a2,a5,33 # 100021 <boot_stack_top_base-0x50101fdf>
ffffffc05020a3e2:	4585                	li	a1,1
ffffffc05020a3e4:	853a                	mv	a0,a4
ffffffc05020a3e6:	e2bfe0ef          	jal	ra,ffffffc050209210 <bios_sdwrite>
ffffffc05020a3ea:	a02d                	j	ffffffc05020a414 <alloc_map+0x250>
ffffffc05020a3ec:	fd843503          	ld	a0,-40(s0)
ffffffc05020a3f0:	d5bfe0ef          	jal	ra,ffffffc05020914a <kva2pa>
ffffffc05020a3f4:	87aa                	mv	a5,a0
ffffffc05020a3f6:	0007869b          	sext.w	a3,a5
ffffffc05020a3fa:	fd442703          	lw	a4,-44(s0)
ffffffc05020a3fe:	001007b7          	lui	a5,0x100
ffffffc05020a402:	2785                	addiw	a5,a5,1
ffffffc05020a404:	9fb9                	addw	a5,a5,a4
ffffffc05020a406:	2781                	sext.w	a5,a5
ffffffc05020a408:	2781                	sext.w	a5,a5
ffffffc05020a40a:	863e                	mv	a2,a5
ffffffc05020a40c:	4585                	li	a1,1
ffffffc05020a40e:	8536                	mv	a0,a3
ffffffc05020a410:	e01fe0ef          	jal	ra,ffffffc050209210 <bios_sdwrite>
ffffffc05020a414:	fec42783          	lw	a5,-20(s0)
ffffffc05020a418:	a811                	j	ffffffc05020a42c <alloc_map+0x268>
ffffffc05020a41a:	fe842783          	lw	a5,-24(s0)
ffffffc05020a41e:	0007871b          	sext.w	a4,a5
ffffffc05020a422:	1ff00793          	li	a5,511
ffffffc05020a426:	dce7dde3          	bge	a5,a4,ffffffc05020a200 <alloc_map+0x3c>
ffffffc05020a42a:	57fd                	li	a5,-1
ffffffc05020a42c:	853e                	mv	a0,a5
ffffffc05020a42e:	70a2                	ld	ra,40(sp)
ffffffc05020a430:	7402                	ld	s0,32(sp)
ffffffc05020a432:	6145                	addi	sp,sp,48
ffffffc05020a434:	8082                	ret

ffffffc05020a436 <write_dir>:
ffffffc05020a436:	715d                	addi	sp,sp,-80
ffffffc05020a438:	e486                	sd	ra,72(sp)
ffffffc05020a43a:	e0a2                	sd	s0,64(sp)
ffffffc05020a43c:	0880                	addi	s0,sp,80
ffffffc05020a43e:	87aa                	mv	a5,a0
ffffffc05020a440:	872e                	mv	a4,a1
ffffffc05020a442:	fac43823          	sd	a2,-80(s0)
ffffffc05020a446:	faf42e23          	sw	a5,-68(s0)
ffffffc05020a44a:	87ba                	mv	a5,a4
ffffffc05020a44c:	faf42c23          	sw	a5,-72(s0)
ffffffc05020a450:	1f6000ef          	jal	ra,ffffffc05020a646 <alloc_addr>
ffffffc05020a454:	fea43023          	sd	a0,-32(s0)
ffffffc05020a458:	fbc42783          	lw	a5,-68(s0)
ffffffc05020a45c:	fe043583          	ld	a1,-32(s0)
ffffffc05020a460:	853e                	mv	a0,a5
ffffffc05020a462:	2ba010ef          	jal	ra,ffffffc05020b71c <rw_inode>
ffffffc05020a466:	fca43c23          	sd	a0,-40(s0)
ffffffc05020a46a:	fd843783          	ld	a5,-40(s0)
ffffffc05020a46e:	fcf43823          	sd	a5,-48(s0)
ffffffc05020a472:	fd043783          	ld	a5,-48(s0)
ffffffc05020a476:	4bdc                	lw	a5,20(a5)
ffffffc05020a478:	fcf42623          	sw	a5,-52(s0)
ffffffc05020a47c:	fe043503          	ld	a0,-32(s0)
ffffffc05020a480:	272000ef          	jal	ra,ffffffc05020a6f2 <free_addr>
ffffffc05020a484:	1c2000ef          	jal	ra,ffffffc05020a646 <alloc_addr>
ffffffc05020a488:	fea43023          	sd	a0,-32(s0)
ffffffc05020a48c:	fe043503          	ld	a0,-32(s0)
ffffffc05020a490:	cbbfe0ef          	jal	ra,ffffffc05020914a <kva2pa>
ffffffc05020a494:	87aa                	mv	a5,a0
ffffffc05020a496:	0007869b          	sext.w	a3,a5
ffffffc05020a49a:	fcc42703          	lw	a4,-52(s0)
ffffffc05020a49e:	001017b7          	lui	a5,0x101
ffffffc05020a4a2:	8227879b          	addiw	a5,a5,-2014
ffffffc05020a4a6:	9fb9                	addw	a5,a5,a4
ffffffc05020a4a8:	2781                	sext.w	a5,a5
ffffffc05020a4aa:	2781                	sext.w	a5,a5
ffffffc05020a4ac:	863e                	mv	a2,a5
ffffffc05020a4ae:	4585                	li	a1,1
ffffffc05020a4b0:	8536                	mv	a0,a3
ffffffc05020a4b2:	d1dfe0ef          	jal	ra,ffffffc0502091ce <bios_sdread>
ffffffc05020a4b6:	fe043783          	ld	a5,-32(s0)
ffffffc05020a4ba:	fcf43023          	sd	a5,-64(s0)
ffffffc05020a4be:	fe042623          	sw	zero,-20(s0)
ffffffc05020a4c2:	a86d                	j	ffffffc05020a57c <write_dir+0x146>
ffffffc05020a4c4:	fc043703          	ld	a4,-64(s0)
ffffffc05020a4c8:	fec42783          	lw	a5,-20(s0)
ffffffc05020a4cc:	078a                	slli	a5,a5,0x2
ffffffc05020a4ce:	97ba                	add	a5,a5,a4
ffffffc05020a4d0:	439c                	lw	a5,0(a5)
ffffffc05020a4d2:	0207c563          	bltz	a5,ffffffc05020a4fc <write_dir+0xc6>
ffffffc05020a4d6:	fec42783          	lw	a5,-20(s0)
ffffffc05020a4da:	0791                	addi	a5,a5,4
ffffffc05020a4dc:	0792                	slli	a5,a5,0x4
ffffffc05020a4de:	fc043703          	ld	a4,-64(s0)
ffffffc05020a4e2:	97ba                	add	a5,a5,a4
ffffffc05020a4e4:	85be                	mv	a1,a5
ffffffc05020a4e6:	fb043503          	ld	a0,-80(s0)
ffffffc05020a4ea:	16e020ef          	jal	ra,ffffffc05020c658 <strcmp>
ffffffc05020a4ee:	87aa                	mv	a5,a0
ffffffc05020a4f0:	e791                	bnez	a5,ffffffc05020a4fc <write_dir+0xc6>
ffffffc05020a4f2:	fe043503          	ld	a0,-32(s0)
ffffffc05020a4f6:	1fc000ef          	jal	ra,ffffffc05020a6f2 <free_addr>
ffffffc05020a4fa:	a065                	j	ffffffc05020a5a2 <write_dir+0x16c>
ffffffc05020a4fc:	fc043703          	ld	a4,-64(s0)
ffffffc05020a500:	fec42783          	lw	a5,-20(s0)
ffffffc05020a504:	078a                	slli	a5,a5,0x2
ffffffc05020a506:	97ba                	add	a5,a5,a4
ffffffc05020a508:	439c                	lw	a5,0(a5)
ffffffc05020a50a:	873e                	mv	a4,a5
ffffffc05020a50c:	57fd                	li	a5,-1
ffffffc05020a50e:	06f71263          	bne	a4,a5,ffffffc05020a572 <write_dir+0x13c>
ffffffc05020a512:	fc043703          	ld	a4,-64(s0)
ffffffc05020a516:	fec42783          	lw	a5,-20(s0)
ffffffc05020a51a:	078a                	slli	a5,a5,0x2
ffffffc05020a51c:	97ba                	add	a5,a5,a4
ffffffc05020a51e:	fb842703          	lw	a4,-72(s0)
ffffffc05020a522:	c398                	sw	a4,0(a5)
ffffffc05020a524:	fec42783          	lw	a5,-20(s0)
ffffffc05020a528:	0791                	addi	a5,a5,4
ffffffc05020a52a:	0792                	slli	a5,a5,0x4
ffffffc05020a52c:	fc043703          	ld	a4,-64(s0)
ffffffc05020a530:	97ba                	add	a5,a5,a4
ffffffc05020a532:	4641                	li	a2,16
ffffffc05020a534:	fb043583          	ld	a1,-80(s0)
ffffffc05020a538:	853e                	mv	a0,a5
ffffffc05020a53a:	018020ef          	jal	ra,ffffffc05020c552 <memcpy>
ffffffc05020a53e:	fe043503          	ld	a0,-32(s0)
ffffffc05020a542:	c09fe0ef          	jal	ra,ffffffc05020914a <kva2pa>
ffffffc05020a546:	87aa                	mv	a5,a0
ffffffc05020a548:	0007869b          	sext.w	a3,a5
ffffffc05020a54c:	fcc42703          	lw	a4,-52(s0)
ffffffc05020a550:	001017b7          	lui	a5,0x101
ffffffc05020a554:	8227879b          	addiw	a5,a5,-2014
ffffffc05020a558:	9fb9                	addw	a5,a5,a4
ffffffc05020a55a:	2781                	sext.w	a5,a5
ffffffc05020a55c:	2781                	sext.w	a5,a5
ffffffc05020a55e:	863e                	mv	a2,a5
ffffffc05020a560:	4585                	li	a1,1
ffffffc05020a562:	8536                	mv	a0,a3
ffffffc05020a564:	cadfe0ef          	jal	ra,ffffffc050209210 <bios_sdwrite>
ffffffc05020a568:	fe043503          	ld	a0,-32(s0)
ffffffc05020a56c:	186000ef          	jal	ra,ffffffc05020a6f2 <free_addr>
ffffffc05020a570:	a80d                	j	ffffffc05020a5a2 <write_dir+0x16c>
ffffffc05020a572:	fec42783          	lw	a5,-20(s0)
ffffffc05020a576:	2785                	addiw	a5,a5,1
ffffffc05020a578:	fef42623          	sw	a5,-20(s0)
ffffffc05020a57c:	fec42783          	lw	a5,-20(s0)
ffffffc05020a580:	0007871b          	sext.w	a4,a5
ffffffc05020a584:	47bd                	li	a5,15
ffffffc05020a586:	f2e7dfe3          	bge	a5,a4,ffffffc05020a4c4 <write_dir+0x8e>
ffffffc05020a58a:	00003617          	auipc	a2,0x3
ffffffc05020a58e:	d8e60613          	addi	a2,a2,-626 # ffffffc05020d318 <__FUNCTION__.1612>
ffffffc05020a592:	21000593          	li	a1,528
ffffffc05020a596:	00003517          	auipc	a0,0x3
ffffffc05020a59a:	cba50513          	addi	a0,a0,-838 # ffffffc05020d250 <__FUNCTION__.1825+0x200>
ffffffc05020a59e:	b7bfe0ef          	jal	ra,ffffffc050209118 <_panic>
ffffffc05020a5a2:	60a6                	ld	ra,72(sp)
ffffffc05020a5a4:	6406                	ld	s0,64(sp)
ffffffc05020a5a6:	6161                	addi	sp,sp,80
ffffffc05020a5a8:	8082                	ret

ffffffc05020a5aa <init_addr>:
ffffffc05020a5aa:	1101                	addi	sp,sp,-32
ffffffc05020a5ac:	ec06                	sd	ra,24(sp)
ffffffc05020a5ae:	e822                	sd	s0,16(sp)
ffffffc05020a5b0:	1000                	addi	s0,sp,32
ffffffc05020a5b2:	00053797          	auipc	a5,0x53
ffffffc05020a5b6:	68e78793          	addi	a5,a5,1678 # ffffffc05025dc40 <current_running>
ffffffc05020a5ba:	639c                	ld	a5,0(a5)
ffffffc05020a5bc:	7b9c                	ld	a5,48(a5)
ffffffc05020a5be:	85be                	mv	a1,a5
ffffffc05020a5c0:	4505                	li	a0,1
ffffffc05020a5c2:	e35fa0ef          	jal	ra,ffffffc0502053f6 <allocFixedPage>
ffffffc05020a5c6:	87aa                	mv	a5,a0
ffffffc05020a5c8:	873e                	mv	a4,a5
ffffffc05020a5ca:	0004f797          	auipc	a5,0x4f
ffffffc05020a5ce:	c2678793          	addi	a5,a5,-986 # ffffffc0502591f0 <global_addr>
ffffffc05020a5d2:	e398                	sd	a4,0(a5)
ffffffc05020a5d4:	4785                	li	a5,1
ffffffc05020a5d6:	fef42623          	sw	a5,-20(s0)
ffffffc05020a5da:	a005                	j	ffffffc05020a5fa <init_addr+0x50>
ffffffc05020a5dc:	00053797          	auipc	a5,0x53
ffffffc05020a5e0:	66478793          	addi	a5,a5,1636 # ffffffc05025dc40 <current_running>
ffffffc05020a5e4:	639c                	ld	a5,0(a5)
ffffffc05020a5e6:	7b9c                	ld	a5,48(a5)
ffffffc05020a5e8:	85be                	mv	a1,a5
ffffffc05020a5ea:	4505                	li	a0,1
ffffffc05020a5ec:	e0bfa0ef          	jal	ra,ffffffc0502053f6 <allocFixedPage>
ffffffc05020a5f0:	fec42783          	lw	a5,-20(s0)
ffffffc05020a5f4:	2785                	addiw	a5,a5,1
ffffffc05020a5f6:	fef42623          	sw	a5,-20(s0)
ffffffc05020a5fa:	fec42783          	lw	a5,-20(s0)
ffffffc05020a5fe:	0007871b          	sext.w	a4,a5
ffffffc05020a602:	479d                	li	a5,7
ffffffc05020a604:	fce7dce3          	bge	a5,a4,ffffffc05020a5dc <init_addr+0x32>
ffffffc05020a608:	fe042423          	sw	zero,-24(s0)
ffffffc05020a60c:	a005                	j	ffffffc05020a62c <init_addr+0x82>
ffffffc05020a60e:	0004f717          	auipc	a4,0x4f
ffffffc05020a612:	c5a70713          	addi	a4,a4,-934 # ffffffc050259268 <addr_valid>
ffffffc05020a616:	fe842783          	lw	a5,-24(s0)
ffffffc05020a61a:	078a                	slli	a5,a5,0x2
ffffffc05020a61c:	97ba                	add	a5,a5,a4
ffffffc05020a61e:	0007a023          	sw	zero,0(a5)
ffffffc05020a622:	fe842783          	lw	a5,-24(s0)
ffffffc05020a626:	2785                	addiw	a5,a5,1
ffffffc05020a628:	fef42423          	sw	a5,-24(s0)
ffffffc05020a62c:	fe842783          	lw	a5,-24(s0)
ffffffc05020a630:	0007871b          	sext.w	a4,a5
ffffffc05020a634:	479d                	li	a5,7
ffffffc05020a636:	fce7dce3          	bge	a5,a4,ffffffc05020a60e <init_addr+0x64>
ffffffc05020a63a:	0001                	nop
ffffffc05020a63c:	0001                	nop
ffffffc05020a63e:	60e2                	ld	ra,24(sp)
ffffffc05020a640:	6442                	ld	s0,16(sp)
ffffffc05020a642:	6105                	addi	sp,sp,32
ffffffc05020a644:	8082                	ret

ffffffc05020a646 <alloc_addr>:
ffffffc05020a646:	1101                	addi	sp,sp,-32
ffffffc05020a648:	ec06                	sd	ra,24(sp)
ffffffc05020a64a:	e822                	sd	s0,16(sp)
ffffffc05020a64c:	1000                	addi	s0,sp,32
ffffffc05020a64e:	fe042623          	sw	zero,-20(s0)
ffffffc05020a652:	a885                	j	ffffffc05020a6c2 <alloc_addr+0x7c>
ffffffc05020a654:	0004f717          	auipc	a4,0x4f
ffffffc05020a658:	c1470713          	addi	a4,a4,-1004 # ffffffc050259268 <addr_valid>
ffffffc05020a65c:	fec42783          	lw	a5,-20(s0)
ffffffc05020a660:	078a                	slli	a5,a5,0x2
ffffffc05020a662:	97ba                	add	a5,a5,a4
ffffffc05020a664:	439c                	lw	a5,0(a5)
ffffffc05020a666:	eba9                	bnez	a5,ffffffc05020a6b8 <alloc_addr+0x72>
ffffffc05020a668:	0004f717          	auipc	a4,0x4f
ffffffc05020a66c:	c0070713          	addi	a4,a4,-1024 # ffffffc050259268 <addr_valid>
ffffffc05020a670:	fec42783          	lw	a5,-20(s0)
ffffffc05020a674:	078a                	slli	a5,a5,0x2
ffffffc05020a676:	97ba                	add	a5,a5,a4
ffffffc05020a678:	4705                	li	a4,1
ffffffc05020a67a:	c398                	sw	a4,0(a5)
ffffffc05020a67c:	fec42783          	lw	a5,-20(s0)
ffffffc05020a680:	00c7979b          	slliw	a5,a5,0xc
ffffffc05020a684:	2781                	sext.w	a5,a5
ffffffc05020a686:	873e                	mv	a4,a5
ffffffc05020a688:	0004f797          	auipc	a5,0x4f
ffffffc05020a68c:	b6878793          	addi	a5,a5,-1176 # ffffffc0502591f0 <global_addr>
ffffffc05020a690:	639c                	ld	a5,0(a5)
ffffffc05020a692:	97ba                	add	a5,a5,a4
ffffffc05020a694:	6605                	lui	a2,0x1
ffffffc05020a696:	4581                	li	a1,0
ffffffc05020a698:	853e                	mv	a0,a5
ffffffc05020a69a:	70b010ef          	jal	ra,ffffffc05020c5a4 <memset>
ffffffc05020a69e:	fec42783          	lw	a5,-20(s0)
ffffffc05020a6a2:	00c7979b          	slliw	a5,a5,0xc
ffffffc05020a6a6:	2781                	sext.w	a5,a5
ffffffc05020a6a8:	873e                	mv	a4,a5
ffffffc05020a6aa:	0004f797          	auipc	a5,0x4f
ffffffc05020a6ae:	b4678793          	addi	a5,a5,-1210 # ffffffc0502591f0 <global_addr>
ffffffc05020a6b2:	639c                	ld	a5,0(a5)
ffffffc05020a6b4:	97ba                	add	a5,a5,a4
ffffffc05020a6b6:	a80d                	j	ffffffc05020a6e8 <alloc_addr+0xa2>
ffffffc05020a6b8:	fec42783          	lw	a5,-20(s0)
ffffffc05020a6bc:	2785                	addiw	a5,a5,1
ffffffc05020a6be:	fef42623          	sw	a5,-20(s0)
ffffffc05020a6c2:	fec42783          	lw	a5,-20(s0)
ffffffc05020a6c6:	0007871b          	sext.w	a4,a5
ffffffc05020a6ca:	479d                	li	a5,7
ffffffc05020a6cc:	f8e7d4e3          	bge	a5,a4,ffffffc05020a654 <alloc_addr+0xe>
ffffffc05020a6d0:	00003617          	auipc	a2,0x3
ffffffc05020a6d4:	c5860613          	addi	a2,a2,-936 # ffffffc05020d328 <__FUNCTION__.1631>
ffffffc05020a6d8:	22b00593          	li	a1,555
ffffffc05020a6dc:	00003517          	auipc	a0,0x3
ffffffc05020a6e0:	b7450513          	addi	a0,a0,-1164 # ffffffc05020d250 <__FUNCTION__.1825+0x200>
ffffffc05020a6e4:	a35fe0ef          	jal	ra,ffffffc050209118 <_panic>
ffffffc05020a6e8:	853e                	mv	a0,a5
ffffffc05020a6ea:	60e2                	ld	ra,24(sp)
ffffffc05020a6ec:	6442                	ld	s0,16(sp)
ffffffc05020a6ee:	6105                	addi	sp,sp,32
ffffffc05020a6f0:	8082                	ret

ffffffc05020a6f2 <free_addr>:
ffffffc05020a6f2:	7179                	addi	sp,sp,-48
ffffffc05020a6f4:	f422                	sd	s0,40(sp)
ffffffc05020a6f6:	1800                	addi	s0,sp,48
ffffffc05020a6f8:	fca43c23          	sd	a0,-40(s0)
ffffffc05020a6fc:	0004f797          	auipc	a5,0x4f
ffffffc05020a700:	af478793          	addi	a5,a5,-1292 # ffffffc0502591f0 <global_addr>
ffffffc05020a704:	639c                	ld	a5,0(a5)
ffffffc05020a706:	fd843703          	ld	a4,-40(s0)
ffffffc05020a70a:	40f707b3          	sub	a5,a4,a5
ffffffc05020a70e:	83b1                	srli	a5,a5,0xc
ffffffc05020a710:	fef42623          	sw	a5,-20(s0)
ffffffc05020a714:	0004f717          	auipc	a4,0x4f
ffffffc05020a718:	b5470713          	addi	a4,a4,-1196 # ffffffc050259268 <addr_valid>
ffffffc05020a71c:	fec42783          	lw	a5,-20(s0)
ffffffc05020a720:	078a                	slli	a5,a5,0x2
ffffffc05020a722:	97ba                	add	a5,a5,a4
ffffffc05020a724:	0007a023          	sw	zero,0(a5)
ffffffc05020a728:	0001                	nop
ffffffc05020a72a:	7422                	ld	s0,40(sp)
ffffffc05020a72c:	6145                	addi	sp,sp,48
ffffffc05020a72e:	8082                	ret

ffffffc05020a730 <init_dir>:
ffffffc05020a730:	715d                	addi	sp,sp,-80
ffffffc05020a732:	e486                	sd	ra,72(sp)
ffffffc05020a734:	e0a2                	sd	s0,64(sp)
ffffffc05020a736:	0880                	addi	s0,sp,80
ffffffc05020a738:	87aa                	mv	a5,a0
ffffffc05020a73a:	faf42e23          	sw	a5,-68(s0)
ffffffc05020a73e:	f09ff0ef          	jal	ra,ffffffc05020a646 <alloc_addr>
ffffffc05020a742:	fea43023          	sd	a0,-32(s0)
ffffffc05020a746:	fbc42783          	lw	a5,-68(s0)
ffffffc05020a74a:	fe043583          	ld	a1,-32(s0)
ffffffc05020a74e:	853e                	mv	a0,a5
ffffffc05020a750:	7cd000ef          	jal	ra,ffffffc05020b71c <rw_inode>
ffffffc05020a754:	fca43c23          	sd	a0,-40(s0)
ffffffc05020a758:	fd843783          	ld	a5,-40(s0)
ffffffc05020a75c:	fcf43823          	sd	a5,-48(s0)
ffffffc05020a760:	fd043783          	ld	a5,-48(s0)
ffffffc05020a764:	4bdc                	lw	a5,20(a5)
ffffffc05020a766:	fcf42623          	sw	a5,-52(s0)
ffffffc05020a76a:	fe043503          	ld	a0,-32(s0)
ffffffc05020a76e:	f85ff0ef          	jal	ra,ffffffc05020a6f2 <free_addr>
ffffffc05020a772:	ed5ff0ef          	jal	ra,ffffffc05020a646 <alloc_addr>
ffffffc05020a776:	fea43023          	sd	a0,-32(s0)
ffffffc05020a77a:	fe043783          	ld	a5,-32(s0)
ffffffc05020a77e:	fcf43023          	sd	a5,-64(s0)
ffffffc05020a782:	fe042623          	sw	zero,-20(s0)
ffffffc05020a786:	a831                	j	ffffffc05020a7a2 <init_dir+0x72>
ffffffc05020a788:	fc043703          	ld	a4,-64(s0)
ffffffc05020a78c:	fec42783          	lw	a5,-20(s0)
ffffffc05020a790:	078a                	slli	a5,a5,0x2
ffffffc05020a792:	97ba                	add	a5,a5,a4
ffffffc05020a794:	577d                	li	a4,-1
ffffffc05020a796:	c398                	sw	a4,0(a5)
ffffffc05020a798:	fec42783          	lw	a5,-20(s0)
ffffffc05020a79c:	2785                	addiw	a5,a5,1
ffffffc05020a79e:	fef42623          	sw	a5,-20(s0)
ffffffc05020a7a2:	fec42783          	lw	a5,-20(s0)
ffffffc05020a7a6:	0007871b          	sext.w	a4,a5
ffffffc05020a7aa:	47bd                	li	a5,15
ffffffc05020a7ac:	fce7dee3          	bge	a5,a4,ffffffc05020a788 <init_dir+0x58>
ffffffc05020a7b0:	fe043503          	ld	a0,-32(s0)
ffffffc05020a7b4:	997fe0ef          	jal	ra,ffffffc05020914a <kva2pa>
ffffffc05020a7b8:	87aa                	mv	a5,a0
ffffffc05020a7ba:	0007869b          	sext.w	a3,a5
ffffffc05020a7be:	fcc42703          	lw	a4,-52(s0)
ffffffc05020a7c2:	001017b7          	lui	a5,0x101
ffffffc05020a7c6:	8227879b          	addiw	a5,a5,-2014
ffffffc05020a7ca:	9fb9                	addw	a5,a5,a4
ffffffc05020a7cc:	2781                	sext.w	a5,a5
ffffffc05020a7ce:	2781                	sext.w	a5,a5
ffffffc05020a7d0:	863e                	mv	a2,a5
ffffffc05020a7d2:	4585                	li	a1,1
ffffffc05020a7d4:	8536                	mv	a0,a3
ffffffc05020a7d6:	a3bfe0ef          	jal	ra,ffffffc050209210 <bios_sdwrite>
ffffffc05020a7da:	fe043503          	ld	a0,-32(s0)
ffffffc05020a7de:	f15ff0ef          	jal	ra,ffffffc05020a6f2 <free_addr>
ffffffc05020a7e2:	0001                	nop
ffffffc05020a7e4:	60a6                	ld	ra,72(sp)
ffffffc05020a7e6:	6406                	ld	s0,64(sp)
ffffffc05020a7e8:	6161                	addi	sp,sp,80
ffffffc05020a7ea:	8082                	ret

ffffffc05020a7ec <search_dir>:
ffffffc05020a7ec:	715d                	addi	sp,sp,-80
ffffffc05020a7ee:	e486                	sd	ra,72(sp)
ffffffc05020a7f0:	e0a2                	sd	s0,64(sp)
ffffffc05020a7f2:	0880                	addi	s0,sp,80
ffffffc05020a7f4:	faa43c23          	sd	a0,-72(s0)
ffffffc05020a7f8:	e4fff0ef          	jal	ra,ffffffc05020a646 <alloc_addr>
ffffffc05020a7fc:	fea43023          	sd	a0,-32(s0)
ffffffc05020a800:	0004f797          	auipc	a5,0x4f
ffffffc05020a804:	a5c78793          	addi	a5,a5,-1444 # ffffffc05025925c <currentfile>
ffffffc05020a808:	439c                	lw	a5,0(a5)
ffffffc05020a80a:	fe043583          	ld	a1,-32(s0)
ffffffc05020a80e:	853e                	mv	a0,a5
ffffffc05020a810:	70d000ef          	jal	ra,ffffffc05020b71c <rw_inode>
ffffffc05020a814:	fca43c23          	sd	a0,-40(s0)
ffffffc05020a818:	fd843783          	ld	a5,-40(s0)
ffffffc05020a81c:	fcf43823          	sd	a5,-48(s0)
ffffffc05020a820:	fd043783          	ld	a5,-48(s0)
ffffffc05020a824:	4bdc                	lw	a5,20(a5)
ffffffc05020a826:	fcf42623          	sw	a5,-52(s0)
ffffffc05020a82a:	fe043503          	ld	a0,-32(s0)
ffffffc05020a82e:	ec5ff0ef          	jal	ra,ffffffc05020a6f2 <free_addr>
ffffffc05020a832:	e15ff0ef          	jal	ra,ffffffc05020a646 <alloc_addr>
ffffffc05020a836:	fea43023          	sd	a0,-32(s0)
ffffffc05020a83a:	fe043783          	ld	a5,-32(s0)
ffffffc05020a83e:	fcf43023          	sd	a5,-64(s0)
ffffffc05020a842:	fe043503          	ld	a0,-32(s0)
ffffffc05020a846:	905fe0ef          	jal	ra,ffffffc05020914a <kva2pa>
ffffffc05020a84a:	87aa                	mv	a5,a0
ffffffc05020a84c:	0007869b          	sext.w	a3,a5
ffffffc05020a850:	fcc42703          	lw	a4,-52(s0)
ffffffc05020a854:	001017b7          	lui	a5,0x101
ffffffc05020a858:	8227879b          	addiw	a5,a5,-2014
ffffffc05020a85c:	9fb9                	addw	a5,a5,a4
ffffffc05020a85e:	2781                	sext.w	a5,a5
ffffffc05020a860:	2781                	sext.w	a5,a5
ffffffc05020a862:	863e                	mv	a2,a5
ffffffc05020a864:	4585                	li	a1,1
ffffffc05020a866:	8536                	mv	a0,a3
ffffffc05020a868:	967fe0ef          	jal	ra,ffffffc0502091ce <bios_sdread>
ffffffc05020a86c:	fe042623          	sw	zero,-20(s0)
ffffffc05020a870:	a081                	j	ffffffc05020a8b0 <search_dir+0xc4>
ffffffc05020a872:	fec42783          	lw	a5,-20(s0)
ffffffc05020a876:	0791                	addi	a5,a5,4
ffffffc05020a878:	0792                	slli	a5,a5,0x4
ffffffc05020a87a:	fc043703          	ld	a4,-64(s0)
ffffffc05020a87e:	97ba                	add	a5,a5,a4
ffffffc05020a880:	fb843583          	ld	a1,-72(s0)
ffffffc05020a884:	853e                	mv	a0,a5
ffffffc05020a886:	5d3010ef          	jal	ra,ffffffc05020c658 <strcmp>
ffffffc05020a88a:	87aa                	mv	a5,a0
ffffffc05020a88c:	ef89                	bnez	a5,ffffffc05020a8a6 <search_dir+0xba>
ffffffc05020a88e:	fe043503          	ld	a0,-32(s0)
ffffffc05020a892:	e61ff0ef          	jal	ra,ffffffc05020a6f2 <free_addr>
ffffffc05020a896:	fc043703          	ld	a4,-64(s0)
ffffffc05020a89a:	fec42783          	lw	a5,-20(s0)
ffffffc05020a89e:	078a                	slli	a5,a5,0x2
ffffffc05020a8a0:	97ba                	add	a5,a5,a4
ffffffc05020a8a2:	439c                	lw	a5,0(a5)
ffffffc05020a8a4:	a015                	j	ffffffc05020a8c8 <search_dir+0xdc>
ffffffc05020a8a6:	fec42783          	lw	a5,-20(s0)
ffffffc05020a8aa:	2785                	addiw	a5,a5,1
ffffffc05020a8ac:	fef42623          	sw	a5,-20(s0)
ffffffc05020a8b0:	fec42783          	lw	a5,-20(s0)
ffffffc05020a8b4:	0007871b          	sext.w	a4,a5
ffffffc05020a8b8:	47bd                	li	a5,15
ffffffc05020a8ba:	fae7dce3          	bge	a5,a4,ffffffc05020a872 <search_dir+0x86>
ffffffc05020a8be:	fe043503          	ld	a0,-32(s0)
ffffffc05020a8c2:	e31ff0ef          	jal	ra,ffffffc05020a6f2 <free_addr>
ffffffc05020a8c6:	57fd                	li	a5,-1
ffffffc05020a8c8:	853e                	mv	a0,a5
ffffffc05020a8ca:	60a6                	ld	ra,72(sp)
ffffffc05020a8cc:	6406                	ld	s0,64(sp)
ffffffc05020a8ce:	6161                	addi	sp,sp,80
ffffffc05020a8d0:	8082                	ret

ffffffc05020a8d2 <enter_dir>:
ffffffc05020a8d2:	715d                	addi	sp,sp,-80
ffffffc05020a8d4:	e486                	sd	ra,72(sp)
ffffffc05020a8d6:	e0a2                	sd	s0,64(sp)
ffffffc05020a8d8:	0880                	addi	s0,sp,80
ffffffc05020a8da:	faa43c23          	sd	a0,-72(s0)
ffffffc05020a8de:	d69ff0ef          	jal	ra,ffffffc05020a646 <alloc_addr>
ffffffc05020a8e2:	fea43023          	sd	a0,-32(s0)
ffffffc05020a8e6:	0004f797          	auipc	a5,0x4f
ffffffc05020a8ea:	97678793          	addi	a5,a5,-1674 # ffffffc05025925c <currentfile>
ffffffc05020a8ee:	439c                	lw	a5,0(a5)
ffffffc05020a8f0:	fe043583          	ld	a1,-32(s0)
ffffffc05020a8f4:	853e                	mv	a0,a5
ffffffc05020a8f6:	627000ef          	jal	ra,ffffffc05020b71c <rw_inode>
ffffffc05020a8fa:	fca43c23          	sd	a0,-40(s0)
ffffffc05020a8fe:	fd843783          	ld	a5,-40(s0)
ffffffc05020a902:	fcf43823          	sd	a5,-48(s0)
ffffffc05020a906:	fd043783          	ld	a5,-48(s0)
ffffffc05020a90a:	4bdc                	lw	a5,20(a5)
ffffffc05020a90c:	fcf42623          	sw	a5,-52(s0)
ffffffc05020a910:	fe043503          	ld	a0,-32(s0)
ffffffc05020a914:	ddfff0ef          	jal	ra,ffffffc05020a6f2 <free_addr>
ffffffc05020a918:	d2fff0ef          	jal	ra,ffffffc05020a646 <alloc_addr>
ffffffc05020a91c:	fea43023          	sd	a0,-32(s0)
ffffffc05020a920:	fe043503          	ld	a0,-32(s0)
ffffffc05020a924:	827fe0ef          	jal	ra,ffffffc05020914a <kva2pa>
ffffffc05020a928:	87aa                	mv	a5,a0
ffffffc05020a92a:	0007869b          	sext.w	a3,a5
ffffffc05020a92e:	fcc42703          	lw	a4,-52(s0)
ffffffc05020a932:	001017b7          	lui	a5,0x101
ffffffc05020a936:	8227879b          	addiw	a5,a5,-2014
ffffffc05020a93a:	9fb9                	addw	a5,a5,a4
ffffffc05020a93c:	2781                	sext.w	a5,a5
ffffffc05020a93e:	2781                	sext.w	a5,a5
ffffffc05020a940:	863e                	mv	a2,a5
ffffffc05020a942:	4585                	li	a1,1
ffffffc05020a944:	8536                	mv	a0,a3
ffffffc05020a946:	889fe0ef          	jal	ra,ffffffc0502091ce <bios_sdread>
ffffffc05020a94a:	fe043783          	ld	a5,-32(s0)
ffffffc05020a94e:	fcf43023          	sd	a5,-64(s0)
ffffffc05020a952:	fe042623          	sw	zero,-20(s0)
ffffffc05020a956:	a0b1                	j	ffffffc05020a9a2 <enter_dir+0xd0>
ffffffc05020a958:	fec42783          	lw	a5,-20(s0)
ffffffc05020a95c:	0791                	addi	a5,a5,4
ffffffc05020a95e:	0792                	slli	a5,a5,0x4
ffffffc05020a960:	fc043703          	ld	a4,-64(s0)
ffffffc05020a964:	97ba                	add	a5,a5,a4
ffffffc05020a966:	fb843583          	ld	a1,-72(s0)
ffffffc05020a96a:	853e                	mv	a0,a5
ffffffc05020a96c:	4ed010ef          	jal	ra,ffffffc05020c658 <strcmp>
ffffffc05020a970:	87aa                	mv	a5,a0
ffffffc05020a972:	e39d                	bnez	a5,ffffffc05020a998 <enter_dir+0xc6>
ffffffc05020a974:	fc043703          	ld	a4,-64(s0)
ffffffc05020a978:	fec42783          	lw	a5,-20(s0)
ffffffc05020a97c:	078a                	slli	a5,a5,0x2
ffffffc05020a97e:	97ba                	add	a5,a5,a4
ffffffc05020a980:	4398                	lw	a4,0(a5)
ffffffc05020a982:	0004f797          	auipc	a5,0x4f
ffffffc05020a986:	8da78793          	addi	a5,a5,-1830 # ffffffc05025925c <currentfile>
ffffffc05020a98a:	c398                	sw	a4,0(a5)
ffffffc05020a98c:	fe043503          	ld	a0,-32(s0)
ffffffc05020a990:	d63ff0ef          	jal	ra,ffffffc05020a6f2 <free_addr>
ffffffc05020a994:	4785                	li	a5,1
ffffffc05020a996:	a015                	j	ffffffc05020a9ba <enter_dir+0xe8>
ffffffc05020a998:	fec42783          	lw	a5,-20(s0)
ffffffc05020a99c:	2785                	addiw	a5,a5,1
ffffffc05020a99e:	fef42623          	sw	a5,-20(s0)
ffffffc05020a9a2:	fec42783          	lw	a5,-20(s0)
ffffffc05020a9a6:	0007871b          	sext.w	a4,a5
ffffffc05020a9aa:	47bd                	li	a5,15
ffffffc05020a9ac:	fae7d6e3          	bge	a5,a4,ffffffc05020a958 <enter_dir+0x86>
ffffffc05020a9b0:	fe043503          	ld	a0,-32(s0)
ffffffc05020a9b4:	d3fff0ef          	jal	ra,ffffffc05020a6f2 <free_addr>
ffffffc05020a9b8:	57fd                	li	a5,-1
ffffffc05020a9ba:	853e                	mv	a0,a5
ffffffc05020a9bc:	60a6                	ld	ra,72(sp)
ffffffc05020a9be:	6406                	ld	s0,64(sp)
ffffffc05020a9c0:	6161                	addi	sp,sp,80
ffffffc05020a9c2:	8082                	ret

ffffffc05020a9c4 <remove_dir>:
ffffffc05020a9c4:	715d                	addi	sp,sp,-80
ffffffc05020a9c6:	e486                	sd	ra,72(sp)
ffffffc05020a9c8:	e0a2                	sd	s0,64(sp)
ffffffc05020a9ca:	0880                	addi	s0,sp,80
ffffffc05020a9cc:	faa43c23          	sd	a0,-72(s0)
ffffffc05020a9d0:	c77ff0ef          	jal	ra,ffffffc05020a646 <alloc_addr>
ffffffc05020a9d4:	fea43023          	sd	a0,-32(s0)
ffffffc05020a9d8:	0004f797          	auipc	a5,0x4f
ffffffc05020a9dc:	88478793          	addi	a5,a5,-1916 # ffffffc05025925c <currentfile>
ffffffc05020a9e0:	439c                	lw	a5,0(a5)
ffffffc05020a9e2:	fe043583          	ld	a1,-32(s0)
ffffffc05020a9e6:	853e                	mv	a0,a5
ffffffc05020a9e8:	535000ef          	jal	ra,ffffffc05020b71c <rw_inode>
ffffffc05020a9ec:	fca43c23          	sd	a0,-40(s0)
ffffffc05020a9f0:	fd843783          	ld	a5,-40(s0)
ffffffc05020a9f4:	fcf43823          	sd	a5,-48(s0)
ffffffc05020a9f8:	fd043783          	ld	a5,-48(s0)
ffffffc05020a9fc:	4bdc                	lw	a5,20(a5)
ffffffc05020a9fe:	fcf42623          	sw	a5,-52(s0)
ffffffc05020aa02:	fe043503          	ld	a0,-32(s0)
ffffffc05020aa06:	cedff0ef          	jal	ra,ffffffc05020a6f2 <free_addr>
ffffffc05020aa0a:	c3dff0ef          	jal	ra,ffffffc05020a646 <alloc_addr>
ffffffc05020aa0e:	fea43023          	sd	a0,-32(s0)
ffffffc05020aa12:	fe043503          	ld	a0,-32(s0)
ffffffc05020aa16:	f34fe0ef          	jal	ra,ffffffc05020914a <kva2pa>
ffffffc05020aa1a:	87aa                	mv	a5,a0
ffffffc05020aa1c:	0007869b          	sext.w	a3,a5
ffffffc05020aa20:	fcc42703          	lw	a4,-52(s0)
ffffffc05020aa24:	001017b7          	lui	a5,0x101
ffffffc05020aa28:	8227879b          	addiw	a5,a5,-2014
ffffffc05020aa2c:	9fb9                	addw	a5,a5,a4
ffffffc05020aa2e:	2781                	sext.w	a5,a5
ffffffc05020aa30:	2781                	sext.w	a5,a5
ffffffc05020aa32:	863e                	mv	a2,a5
ffffffc05020aa34:	4585                	li	a1,1
ffffffc05020aa36:	8536                	mv	a0,a3
ffffffc05020aa38:	f96fe0ef          	jal	ra,ffffffc0502091ce <bios_sdread>
ffffffc05020aa3c:	fe043783          	ld	a5,-32(s0)
ffffffc05020aa40:	fcf43023          	sd	a5,-64(s0)
ffffffc05020aa44:	fe042623          	sw	zero,-20(s0)
ffffffc05020aa48:	a0bd                	j	ffffffc05020aab6 <remove_dir+0xf2>
ffffffc05020aa4a:	fec42783          	lw	a5,-20(s0)
ffffffc05020aa4e:	0791                	addi	a5,a5,4
ffffffc05020aa50:	0792                	slli	a5,a5,0x4
ffffffc05020aa52:	fc043703          	ld	a4,-64(s0)
ffffffc05020aa56:	97ba                	add	a5,a5,a4
ffffffc05020aa58:	fb843583          	ld	a1,-72(s0)
ffffffc05020aa5c:	853e                	mv	a0,a5
ffffffc05020aa5e:	3fb010ef          	jal	ra,ffffffc05020c658 <strcmp>
ffffffc05020aa62:	87aa                	mv	a5,a0
ffffffc05020aa64:	e7a1                	bnez	a5,ffffffc05020aaac <remove_dir+0xe8>
ffffffc05020aa66:	fc043703          	ld	a4,-64(s0)
ffffffc05020aa6a:	fec42783          	lw	a5,-20(s0)
ffffffc05020aa6e:	078a                	slli	a5,a5,0x2
ffffffc05020aa70:	97ba                	add	a5,a5,a4
ffffffc05020aa72:	577d                	li	a4,-1
ffffffc05020aa74:	c398                	sw	a4,0(a5)
ffffffc05020aa76:	fe043503          	ld	a0,-32(s0)
ffffffc05020aa7a:	ed0fe0ef          	jal	ra,ffffffc05020914a <kva2pa>
ffffffc05020aa7e:	87aa                	mv	a5,a0
ffffffc05020aa80:	0007869b          	sext.w	a3,a5
ffffffc05020aa84:	fcc42703          	lw	a4,-52(s0)
ffffffc05020aa88:	001017b7          	lui	a5,0x101
ffffffc05020aa8c:	8227879b          	addiw	a5,a5,-2014
ffffffc05020aa90:	9fb9                	addw	a5,a5,a4
ffffffc05020aa92:	2781                	sext.w	a5,a5
ffffffc05020aa94:	2781                	sext.w	a5,a5
ffffffc05020aa96:	863e                	mv	a2,a5
ffffffc05020aa98:	4585                	li	a1,1
ffffffc05020aa9a:	8536                	mv	a0,a3
ffffffc05020aa9c:	f74fe0ef          	jal	ra,ffffffc050209210 <bios_sdwrite>
ffffffc05020aaa0:	fe043503          	ld	a0,-32(s0)
ffffffc05020aaa4:	c4fff0ef          	jal	ra,ffffffc05020a6f2 <free_addr>
ffffffc05020aaa8:	4781                	li	a5,0
ffffffc05020aaaa:	a015                	j	ffffffc05020aace <remove_dir+0x10a>
ffffffc05020aaac:	fec42783          	lw	a5,-20(s0)
ffffffc05020aab0:	2785                	addiw	a5,a5,1
ffffffc05020aab2:	fef42623          	sw	a5,-20(s0)
ffffffc05020aab6:	fec42783          	lw	a5,-20(s0)
ffffffc05020aaba:	0007871b          	sext.w	a4,a5
ffffffc05020aabe:	47bd                	li	a5,15
ffffffc05020aac0:	f8e7d5e3          	bge	a5,a4,ffffffc05020aa4a <remove_dir+0x86>
ffffffc05020aac4:	fe043503          	ld	a0,-32(s0)
ffffffc05020aac8:	c2bff0ef          	jal	ra,ffffffc05020a6f2 <free_addr>
ffffffc05020aacc:	57fd                	li	a5,-1
ffffffc05020aace:	853e                	mv	a0,a5
ffffffc05020aad0:	60a6                	ld	ra,72(sp)
ffffffc05020aad2:	6406                	ld	s0,64(sp)
ffffffc05020aad4:	6161                	addi	sp,sp,80
ffffffc05020aad6:	8082                	ret

ffffffc05020aad8 <read_file>:
ffffffc05020aad8:	7175                	addi	sp,sp,-144
ffffffc05020aada:	e506                	sd	ra,136(sp)
ffffffc05020aadc:	e122                	sd	s0,128(sp)
ffffffc05020aade:	0900                	addi	s0,sp,144
ffffffc05020aae0:	f8a43423          	sd	a0,-120(s0)
ffffffc05020aae4:	87ae                	mv	a5,a1
ffffffc05020aae6:	8736                	mv	a4,a3
ffffffc05020aae8:	f8f42223          	sw	a5,-124(s0)
ffffffc05020aaec:	87b2                	mv	a5,a2
ffffffc05020aaee:	f8f42023          	sw	a5,-128(s0)
ffffffc05020aaf2:	87ba                	mv	a5,a4
ffffffc05020aaf4:	f6f42e23          	sw	a5,-132(s0)
ffffffc05020aaf8:	b4fff0ef          	jal	ra,ffffffc05020a646 <alloc_addr>
ffffffc05020aafc:	fea43023          	sd	a0,-32(s0)
ffffffc05020ab00:	f8042783          	lw	a5,-128(s0)
ffffffc05020ab04:	fe043583          	ld	a1,-32(s0)
ffffffc05020ab08:	853e                	mv	a0,a5
ffffffc05020ab0a:	413000ef          	jal	ra,ffffffc05020b71c <rw_inode>
ffffffc05020ab0e:	fca43c23          	sd	a0,-40(s0)
ffffffc05020ab12:	fd843783          	ld	a5,-40(s0)
ffffffc05020ab16:	fcf43823          	sd	a5,-48(s0)
ffffffc05020ab1a:	f7c42783          	lw	a5,-132(s0)
ffffffc05020ab1e:	853e                	mv	a0,a5
ffffffc05020ab20:	673000ef          	jal	ra,ffffffc05020b992 <loc_datablock>
ffffffc05020ab24:	87aa                	mv	a5,a0
ffffffc05020ab26:	fcf42623          	sw	a5,-52(s0)
ffffffc05020ab2a:	f7c42703          	lw	a4,-132(s0)
ffffffc05020ab2e:	f8442783          	lw	a5,-124(s0)
ffffffc05020ab32:	9fb9                	addw	a5,a5,a4
ffffffc05020ab34:	2781                	sext.w	a5,a5
ffffffc05020ab36:	37fd                	addiw	a5,a5,-1
ffffffc05020ab38:	2781                	sext.w	a5,a5
ffffffc05020ab3a:	853e                	mv	a0,a5
ffffffc05020ab3c:	657000ef          	jal	ra,ffffffc05020b992 <loc_datablock>
ffffffc05020ab40:	87aa                	mv	a5,a0
ffffffc05020ab42:	fcf42423          	sw	a5,-56(s0)
ffffffc05020ab46:	fcc42783          	lw	a5,-52(s0)
ffffffc05020ab4a:	fef42623          	sw	a5,-20(s0)
ffffffc05020ab4e:	a9dd                	j	ffffffc05020b044 <read_file+0x56c>
ffffffc05020ab50:	fec42783          	lw	a5,-20(s0)
ffffffc05020ab54:	0007871b          	sext.w	a4,a5
ffffffc05020ab58:	47b1                	li	a5,12
ffffffc05020ab5a:	1ee7cb63          	blt	a5,a4,ffffffc05020ad50 <read_file+0x278>
ffffffc05020ab5e:	fd043703          	ld	a4,-48(s0)
ffffffc05020ab62:	fec42783          	lw	a5,-20(s0)
ffffffc05020ab66:	0791                	addi	a5,a5,4
ffffffc05020ab68:	078a                	slli	a5,a5,0x2
ffffffc05020ab6a:	97ba                	add	a5,a5,a4
ffffffc05020ab6c:	43dc                	lw	a5,4(a5)
ffffffc05020ab6e:	faf42023          	sw	a5,-96(s0)
ffffffc05020ab72:	ad5ff0ef          	jal	ra,ffffffc05020a646 <alloc_addr>
ffffffc05020ab76:	f8a43c23          	sd	a0,-104(s0)
ffffffc05020ab7a:	f9843503          	ld	a0,-104(s0)
ffffffc05020ab7e:	dccfe0ef          	jal	ra,ffffffc05020914a <kva2pa>
ffffffc05020ab82:	87aa                	mv	a5,a0
ffffffc05020ab84:	0007869b          	sext.w	a3,a5
ffffffc05020ab88:	fa042703          	lw	a4,-96(s0)
ffffffc05020ab8c:	001017b7          	lui	a5,0x101
ffffffc05020ab90:	8227879b          	addiw	a5,a5,-2014
ffffffc05020ab94:	9fb9                	addw	a5,a5,a4
ffffffc05020ab96:	2781                	sext.w	a5,a5
ffffffc05020ab98:	2781                	sext.w	a5,a5
ffffffc05020ab9a:	863e                	mv	a2,a5
ffffffc05020ab9c:	45a1                	li	a1,8
ffffffc05020ab9e:	8536                	mv	a0,a3
ffffffc05020aba0:	e2efe0ef          	jal	ra,ffffffc0502091ce <bios_sdread>
ffffffc05020aba4:	fec42703          	lw	a4,-20(s0)
ffffffc05020aba8:	fcc42783          	lw	a5,-52(s0)
ffffffc05020abac:	2701                	sext.w	a4,a4
ffffffc05020abae:	2781                	sext.w	a5,a5
ffffffc05020abb0:	08f71763          	bne	a4,a5,ffffffc05020ac3e <read_file+0x166>
ffffffc05020abb4:	fec42703          	lw	a4,-20(s0)
ffffffc05020abb8:	fc842783          	lw	a5,-56(s0)
ffffffc05020abbc:	2701                	sext.w	a4,a4
ffffffc05020abbe:	2781                	sext.w	a5,a5
ffffffc05020abc0:	02f71e63          	bne	a4,a5,ffffffc05020abfc <read_file+0x124>
ffffffc05020abc4:	f7c42703          	lw	a4,-132(s0)
ffffffc05020abc8:	41f7579b          	sraiw	a5,a4,0x1f
ffffffc05020abcc:	0147d79b          	srliw	a5,a5,0x14
ffffffc05020abd0:	00f706bb          	addw	a3,a4,a5
ffffffc05020abd4:	6705                	lui	a4,0x1
ffffffc05020abd6:	177d                	addi	a4,a4,-1
ffffffc05020abd8:	8f75                	and	a4,a4,a3
ffffffc05020abda:	40f707bb          	subw	a5,a4,a5
ffffffc05020abde:	2781                	sext.w	a5,a5
ffffffc05020abe0:	873e                	mv	a4,a5
ffffffc05020abe2:	f9843783          	ld	a5,-104(s0)
ffffffc05020abe6:	97ba                	add	a5,a5,a4
ffffffc05020abe8:	873e                	mv	a4,a5
ffffffc05020abea:	f8442783          	lw	a5,-124(s0)
ffffffc05020abee:	863e                	mv	a2,a5
ffffffc05020abf0:	85ba                	mv	a1,a4
ffffffc05020abf2:	f8843503          	ld	a0,-120(s0)
ffffffc05020abf6:	15d010ef          	jal	ra,ffffffc05020c552 <memcpy>
ffffffc05020abfa:	a2b1                	j	ffffffc05020ad46 <read_file+0x26e>
ffffffc05020abfc:	f7c42703          	lw	a4,-132(s0)
ffffffc05020ac00:	41f7579b          	sraiw	a5,a4,0x1f
ffffffc05020ac04:	0147d79b          	srliw	a5,a5,0x14
ffffffc05020ac08:	00f706bb          	addw	a3,a4,a5
ffffffc05020ac0c:	6705                	lui	a4,0x1
ffffffc05020ac0e:	177d                	addi	a4,a4,-1
ffffffc05020ac10:	8f75                	and	a4,a4,a3
ffffffc05020ac12:	40f707bb          	subw	a5,a4,a5
ffffffc05020ac16:	2781                	sext.w	a5,a5
ffffffc05020ac18:	873e                	mv	a4,a5
ffffffc05020ac1a:	f9843783          	ld	a5,-104(s0)
ffffffc05020ac1e:	97ba                	add	a5,a5,a4
ffffffc05020ac20:	86be                	mv	a3,a5
ffffffc05020ac22:	6705                	lui	a4,0x1
ffffffc05020ac24:	f7c42783          	lw	a5,-132(s0)
ffffffc05020ac28:	40f707bb          	subw	a5,a4,a5
ffffffc05020ac2c:	2781                	sext.w	a5,a5
ffffffc05020ac2e:	2781                	sext.w	a5,a5
ffffffc05020ac30:	863e                	mv	a2,a5
ffffffc05020ac32:	85b6                	mv	a1,a3
ffffffc05020ac34:	f8843503          	ld	a0,-120(s0)
ffffffc05020ac38:	11b010ef          	jal	ra,ffffffc05020c552 <memcpy>
ffffffc05020ac3c:	a229                	j	ffffffc05020ad46 <read_file+0x26e>
ffffffc05020ac3e:	fec42703          	lw	a4,-20(s0)
ffffffc05020ac42:	fc842783          	lw	a5,-56(s0)
ffffffc05020ac46:	2701                	sext.w	a4,a4
ffffffc05020ac48:	2781                	sext.w	a5,a5
ffffffc05020ac4a:	04f70d63          	beq	a4,a5,ffffffc05020aca4 <read_file+0x1cc>
ffffffc05020ac4e:	f7c42703          	lw	a4,-132(s0)
ffffffc05020ac52:	41f7579b          	sraiw	a5,a4,0x1f
ffffffc05020ac56:	0147d79b          	srliw	a5,a5,0x14
ffffffc05020ac5a:	00f706bb          	addw	a3,a4,a5
ffffffc05020ac5e:	6705                	lui	a4,0x1
ffffffc05020ac60:	177d                	addi	a4,a4,-1
ffffffc05020ac62:	8f75                	and	a4,a4,a3
ffffffc05020ac64:	40f707bb          	subw	a5,a4,a5
ffffffc05020ac68:	2781                	sext.w	a5,a5
ffffffc05020ac6a:	6705                	lui	a4,0x1
ffffffc05020ac6c:	40f707bb          	subw	a5,a4,a5
ffffffc05020ac70:	2781                	sext.w	a5,a5
ffffffc05020ac72:	86be                	mv	a3,a5
ffffffc05020ac74:	fec42703          	lw	a4,-20(s0)
ffffffc05020ac78:	fcc42783          	lw	a5,-52(s0)
ffffffc05020ac7c:	40f707bb          	subw	a5,a4,a5
ffffffc05020ac80:	2781                	sext.w	a5,a5
ffffffc05020ac82:	37fd                	addiw	a5,a5,-1
ffffffc05020ac84:	2781                	sext.w	a5,a5
ffffffc05020ac86:	00c7979b          	slliw	a5,a5,0xc
ffffffc05020ac8a:	2781                	sext.w	a5,a5
ffffffc05020ac8c:	97b6                	add	a5,a5,a3
ffffffc05020ac8e:	f8843703          	ld	a4,-120(s0)
ffffffc05020ac92:	97ba                	add	a5,a5,a4
ffffffc05020ac94:	f9843703          	ld	a4,-104(s0)
ffffffc05020ac98:	6605                	lui	a2,0x1
ffffffc05020ac9a:	85ba                	mv	a1,a4
ffffffc05020ac9c:	853e                	mv	a0,a5
ffffffc05020ac9e:	0b5010ef          	jal	ra,ffffffc05020c552 <memcpy>
ffffffc05020aca2:	a055                	j	ffffffc05020ad46 <read_file+0x26e>
ffffffc05020aca4:	f7c42703          	lw	a4,-132(s0)
ffffffc05020aca8:	41f7579b          	sraiw	a5,a4,0x1f
ffffffc05020acac:	0147d79b          	srliw	a5,a5,0x14
ffffffc05020acb0:	00f706bb          	addw	a3,a4,a5
ffffffc05020acb4:	6705                	lui	a4,0x1
ffffffc05020acb6:	177d                	addi	a4,a4,-1
ffffffc05020acb8:	8f75                	and	a4,a4,a3
ffffffc05020acba:	40f707bb          	subw	a5,a4,a5
ffffffc05020acbe:	2781                	sext.w	a5,a5
ffffffc05020acc0:	6705                	lui	a4,0x1
ffffffc05020acc2:	40f707bb          	subw	a5,a4,a5
ffffffc05020acc6:	2781                	sext.w	a5,a5
ffffffc05020acc8:	86be                	mv	a3,a5
ffffffc05020acca:	fec42703          	lw	a4,-20(s0)
ffffffc05020acce:	fcc42783          	lw	a5,-52(s0)
ffffffc05020acd2:	40f707bb          	subw	a5,a4,a5
ffffffc05020acd6:	2781                	sext.w	a5,a5
ffffffc05020acd8:	37fd                	addiw	a5,a5,-1
ffffffc05020acda:	2781                	sext.w	a5,a5
ffffffc05020acdc:	00c7979b          	slliw	a5,a5,0xc
ffffffc05020ace0:	2781                	sext.w	a5,a5
ffffffc05020ace2:	97b6                	add	a5,a5,a3
ffffffc05020ace4:	f8843703          	ld	a4,-120(s0)
ffffffc05020ace8:	00f70533          	add	a0,a4,a5
ffffffc05020acec:	f9843583          	ld	a1,-104(s0)
ffffffc05020acf0:	f7c42703          	lw	a4,-132(s0)
ffffffc05020acf4:	41f7579b          	sraiw	a5,a4,0x1f
ffffffc05020acf8:	0147d79b          	srliw	a5,a5,0x14
ffffffc05020acfc:	00f706bb          	addw	a3,a4,a5
ffffffc05020ad00:	6705                	lui	a4,0x1
ffffffc05020ad02:	177d                	addi	a4,a4,-1
ffffffc05020ad04:	8f75                	and	a4,a4,a3
ffffffc05020ad06:	40f707bb          	subw	a5,a4,a5
ffffffc05020ad0a:	2781                	sext.w	a5,a5
ffffffc05020ad0c:	6705                	lui	a4,0x1
ffffffc05020ad0e:	40f707bb          	subw	a5,a4,a5
ffffffc05020ad12:	2781                	sext.w	a5,a5
ffffffc05020ad14:	f8442703          	lw	a4,-124(s0)
ffffffc05020ad18:	40f707bb          	subw	a5,a4,a5
ffffffc05020ad1c:	0007871b          	sext.w	a4,a5
ffffffc05020ad20:	fc842683          	lw	a3,-56(s0)
ffffffc05020ad24:	fcc42783          	lw	a5,-52(s0)
ffffffc05020ad28:	40f687bb          	subw	a5,a3,a5
ffffffc05020ad2c:	2781                	sext.w	a5,a5
ffffffc05020ad2e:	37fd                	addiw	a5,a5,-1
ffffffc05020ad30:	2781                	sext.w	a5,a5
ffffffc05020ad32:	00c7979b          	slliw	a5,a5,0xc
ffffffc05020ad36:	2781                	sext.w	a5,a5
ffffffc05020ad38:	40f707bb          	subw	a5,a4,a5
ffffffc05020ad3c:	2781                	sext.w	a5,a5
ffffffc05020ad3e:	2781                	sext.w	a5,a5
ffffffc05020ad40:	863e                	mv	a2,a5
ffffffc05020ad42:	011010ef          	jal	ra,ffffffc05020c552 <memcpy>
ffffffc05020ad46:	f9843503          	ld	a0,-104(s0)
ffffffc05020ad4a:	9a9ff0ef          	jal	ra,ffffffc05020a6f2 <free_addr>
ffffffc05020ad4e:	a4f5                	j	ffffffc05020b03a <read_file+0x562>
ffffffc05020ad50:	fec42783          	lw	a5,-20(s0)
ffffffc05020ad54:	37cd                	addiw	a5,a5,-13
ffffffc05020ad56:	2781                	sext.w	a5,a5
ffffffc05020ad58:	41f7d71b          	sraiw	a4,a5,0x1f
ffffffc05020ad5c:	0167571b          	srliw	a4,a4,0x16
ffffffc05020ad60:	9fb9                	addw	a5,a5,a4
ffffffc05020ad62:	40a7d79b          	sraiw	a5,a5,0xa
ffffffc05020ad66:	fcf42223          	sw	a5,-60(s0)
ffffffc05020ad6a:	fd043703          	ld	a4,-48(s0)
ffffffc05020ad6e:	fc442783          	lw	a5,-60(s0)
ffffffc05020ad72:	07c1                	addi	a5,a5,16
ffffffc05020ad74:	078a                	slli	a5,a5,0x2
ffffffc05020ad76:	97ba                	add	a5,a5,a4
ffffffc05020ad78:	479c                	lw	a5,8(a5)
ffffffc05020ad7a:	fcf42023          	sw	a5,-64(s0)
ffffffc05020ad7e:	8c9ff0ef          	jal	ra,ffffffc05020a646 <alloc_addr>
ffffffc05020ad82:	faa43c23          	sd	a0,-72(s0)
ffffffc05020ad86:	fb843503          	ld	a0,-72(s0)
ffffffc05020ad8a:	bc0fe0ef          	jal	ra,ffffffc05020914a <kva2pa>
ffffffc05020ad8e:	87aa                	mv	a5,a0
ffffffc05020ad90:	0007869b          	sext.w	a3,a5
ffffffc05020ad94:	fc042703          	lw	a4,-64(s0)
ffffffc05020ad98:	001017b7          	lui	a5,0x101
ffffffc05020ad9c:	8227879b          	addiw	a5,a5,-2014
ffffffc05020ada0:	9fb9                	addw	a5,a5,a4
ffffffc05020ada2:	2781                	sext.w	a5,a5
ffffffc05020ada4:	2781                	sext.w	a5,a5
ffffffc05020ada6:	863e                	mv	a2,a5
ffffffc05020ada8:	45a1                	li	a1,8
ffffffc05020adaa:	8536                	mv	a0,a3
ffffffc05020adac:	c22fe0ef          	jal	ra,ffffffc0502091ce <bios_sdread>
ffffffc05020adb0:	fb843783          	ld	a5,-72(s0)
ffffffc05020adb4:	faf43823          	sd	a5,-80(s0)
ffffffc05020adb8:	fec42783          	lw	a5,-20(s0)
ffffffc05020adbc:	37cd                	addiw	a5,a5,-13
ffffffc05020adbe:	2781                	sext.w	a5,a5
ffffffc05020adc0:	873e                	mv	a4,a5
ffffffc05020adc2:	41f7579b          	sraiw	a5,a4,0x1f
ffffffc05020adc6:	0167d79b          	srliw	a5,a5,0x16
ffffffc05020adca:	9f3d                	addw	a4,a4,a5
ffffffc05020adcc:	3ff77713          	andi	a4,a4,1023
ffffffc05020add0:	40f707bb          	subw	a5,a4,a5
ffffffc05020add4:	faf42623          	sw	a5,-84(s0)
ffffffc05020add8:	fac42783          	lw	a5,-84(s0)
ffffffc05020addc:	078a                	slli	a5,a5,0x2
ffffffc05020adde:	fb043703          	ld	a4,-80(s0)
ffffffc05020ade2:	97ba                	add	a5,a5,a4
ffffffc05020ade4:	439c                	lw	a5,0(a5)
ffffffc05020ade6:	e7a1                	bnez	a5,ffffffc05020ae2e <read_file+0x356>
ffffffc05020ade8:	af8ff0ef          	jal	ra,ffffffc05020a0e0 <alloc_data>
ffffffc05020adec:	87aa                	mv	a5,a0
ffffffc05020adee:	faf42423          	sw	a5,-88(s0)
ffffffc05020adf2:	fac42783          	lw	a5,-84(s0)
ffffffc05020adf6:	078a                	slli	a5,a5,0x2
ffffffc05020adf8:	fb043703          	ld	a4,-80(s0)
ffffffc05020adfc:	97ba                	add	a5,a5,a4
ffffffc05020adfe:	fa842703          	lw	a4,-88(s0)
ffffffc05020ae02:	c398                	sw	a4,0(a5)
ffffffc05020ae04:	fb843503          	ld	a0,-72(s0)
ffffffc05020ae08:	b42fe0ef          	jal	ra,ffffffc05020914a <kva2pa>
ffffffc05020ae0c:	87aa                	mv	a5,a0
ffffffc05020ae0e:	0007869b          	sext.w	a3,a5
ffffffc05020ae12:	fc042703          	lw	a4,-64(s0)
ffffffc05020ae16:	001017b7          	lui	a5,0x101
ffffffc05020ae1a:	8227879b          	addiw	a5,a5,-2014
ffffffc05020ae1e:	9fb9                	addw	a5,a5,a4
ffffffc05020ae20:	2781                	sext.w	a5,a5
ffffffc05020ae22:	2781                	sext.w	a5,a5
ffffffc05020ae24:	863e                	mv	a2,a5
ffffffc05020ae26:	45a1                	li	a1,8
ffffffc05020ae28:	8536                	mv	a0,a3
ffffffc05020ae2a:	be6fe0ef          	jal	ra,ffffffc050209210 <bios_sdwrite>
ffffffc05020ae2e:	fac42783          	lw	a5,-84(s0)
ffffffc05020ae32:	078a                	slli	a5,a5,0x2
ffffffc05020ae34:	fb043703          	ld	a4,-80(s0)
ffffffc05020ae38:	97ba                	add	a5,a5,a4
ffffffc05020ae3a:	439c                	lw	a5,0(a5)
ffffffc05020ae3c:	faf42223          	sw	a5,-92(s0)
ffffffc05020ae40:	fb843503          	ld	a0,-72(s0)
ffffffc05020ae44:	8afff0ef          	jal	ra,ffffffc05020a6f2 <free_addr>
ffffffc05020ae48:	ffeff0ef          	jal	ra,ffffffc05020a646 <alloc_addr>
ffffffc05020ae4c:	faa43c23          	sd	a0,-72(s0)
ffffffc05020ae50:	fb843503          	ld	a0,-72(s0)
ffffffc05020ae54:	af6fe0ef          	jal	ra,ffffffc05020914a <kva2pa>
ffffffc05020ae58:	87aa                	mv	a5,a0
ffffffc05020ae5a:	0007869b          	sext.w	a3,a5
ffffffc05020ae5e:	fa442703          	lw	a4,-92(s0)
ffffffc05020ae62:	001017b7          	lui	a5,0x101
ffffffc05020ae66:	8227879b          	addiw	a5,a5,-2014
ffffffc05020ae6a:	9fb9                	addw	a5,a5,a4
ffffffc05020ae6c:	2781                	sext.w	a5,a5
ffffffc05020ae6e:	2781                	sext.w	a5,a5
ffffffc05020ae70:	863e                	mv	a2,a5
ffffffc05020ae72:	45a1                	li	a1,8
ffffffc05020ae74:	8536                	mv	a0,a3
ffffffc05020ae76:	b58fe0ef          	jal	ra,ffffffc0502091ce <bios_sdread>
ffffffc05020ae7a:	fec42703          	lw	a4,-20(s0)
ffffffc05020ae7e:	fcc42783          	lw	a5,-52(s0)
ffffffc05020ae82:	2701                	sext.w	a4,a4
ffffffc05020ae84:	2781                	sext.w	a5,a5
ffffffc05020ae86:	0af71263          	bne	a4,a5,ffffffc05020af2a <read_file+0x452>
ffffffc05020ae8a:	fec42703          	lw	a4,-20(s0)
ffffffc05020ae8e:	fc842783          	lw	a5,-56(s0)
ffffffc05020ae92:	2701                	sext.w	a4,a4
ffffffc05020ae94:	2781                	sext.w	a5,a5
ffffffc05020ae96:	02f71e63          	bne	a4,a5,ffffffc05020aed2 <read_file+0x3fa>
ffffffc05020ae9a:	f7c42703          	lw	a4,-132(s0)
ffffffc05020ae9e:	41f7579b          	sraiw	a5,a4,0x1f
ffffffc05020aea2:	0147d79b          	srliw	a5,a5,0x14
ffffffc05020aea6:	00f706bb          	addw	a3,a4,a5
ffffffc05020aeaa:	6705                	lui	a4,0x1
ffffffc05020aeac:	177d                	addi	a4,a4,-1
ffffffc05020aeae:	8f75                	and	a4,a4,a3
ffffffc05020aeb0:	40f707bb          	subw	a5,a4,a5
ffffffc05020aeb4:	2781                	sext.w	a5,a5
ffffffc05020aeb6:	873e                	mv	a4,a5
ffffffc05020aeb8:	fb843783          	ld	a5,-72(s0)
ffffffc05020aebc:	97ba                	add	a5,a5,a4
ffffffc05020aebe:	873e                	mv	a4,a5
ffffffc05020aec0:	f8442783          	lw	a5,-124(s0)
ffffffc05020aec4:	863e                	mv	a2,a5
ffffffc05020aec6:	85ba                	mv	a1,a4
ffffffc05020aec8:	f8843503          	ld	a0,-120(s0)
ffffffc05020aecc:	686010ef          	jal	ra,ffffffc05020c552 <memcpy>
ffffffc05020aed0:	a28d                	j	ffffffc05020b032 <read_file+0x55a>
ffffffc05020aed2:	f7c42703          	lw	a4,-132(s0)
ffffffc05020aed6:	41f7579b          	sraiw	a5,a4,0x1f
ffffffc05020aeda:	0147d79b          	srliw	a5,a5,0x14
ffffffc05020aede:	00f706bb          	addw	a3,a4,a5
ffffffc05020aee2:	6705                	lui	a4,0x1
ffffffc05020aee4:	177d                	addi	a4,a4,-1
ffffffc05020aee6:	8f75                	and	a4,a4,a3
ffffffc05020aee8:	40f707bb          	subw	a5,a4,a5
ffffffc05020aeec:	2781                	sext.w	a5,a5
ffffffc05020aeee:	873e                	mv	a4,a5
ffffffc05020aef0:	fb843783          	ld	a5,-72(s0)
ffffffc05020aef4:	97ba                	add	a5,a5,a4
ffffffc05020aef6:	85be                	mv	a1,a5
ffffffc05020aef8:	f7c42703          	lw	a4,-132(s0)
ffffffc05020aefc:	41f7579b          	sraiw	a5,a4,0x1f
ffffffc05020af00:	0147d79b          	srliw	a5,a5,0x14
ffffffc05020af04:	00f706bb          	addw	a3,a4,a5
ffffffc05020af08:	6705                	lui	a4,0x1
ffffffc05020af0a:	177d                	addi	a4,a4,-1
ffffffc05020af0c:	8f75                	and	a4,a4,a3
ffffffc05020af0e:	40f707bb          	subw	a5,a4,a5
ffffffc05020af12:	2781                	sext.w	a5,a5
ffffffc05020af14:	6705                	lui	a4,0x1
ffffffc05020af16:	40f707bb          	subw	a5,a4,a5
ffffffc05020af1a:	2781                	sext.w	a5,a5
ffffffc05020af1c:	2781                	sext.w	a5,a5
ffffffc05020af1e:	863e                	mv	a2,a5
ffffffc05020af20:	f8843503          	ld	a0,-120(s0)
ffffffc05020af24:	62e010ef          	jal	ra,ffffffc05020c552 <memcpy>
ffffffc05020af28:	a229                	j	ffffffc05020b032 <read_file+0x55a>
ffffffc05020af2a:	fec42703          	lw	a4,-20(s0)
ffffffc05020af2e:	fc842783          	lw	a5,-56(s0)
ffffffc05020af32:	2701                	sext.w	a4,a4
ffffffc05020af34:	2781                	sext.w	a5,a5
ffffffc05020af36:	04f70d63          	beq	a4,a5,ffffffc05020af90 <read_file+0x4b8>
ffffffc05020af3a:	f7c42703          	lw	a4,-132(s0)
ffffffc05020af3e:	41f7579b          	sraiw	a5,a4,0x1f
ffffffc05020af42:	0147d79b          	srliw	a5,a5,0x14
ffffffc05020af46:	00f706bb          	addw	a3,a4,a5
ffffffc05020af4a:	6705                	lui	a4,0x1
ffffffc05020af4c:	177d                	addi	a4,a4,-1
ffffffc05020af4e:	8f75                	and	a4,a4,a3
ffffffc05020af50:	40f707bb          	subw	a5,a4,a5
ffffffc05020af54:	2781                	sext.w	a5,a5
ffffffc05020af56:	6705                	lui	a4,0x1
ffffffc05020af58:	40f707bb          	subw	a5,a4,a5
ffffffc05020af5c:	2781                	sext.w	a5,a5
ffffffc05020af5e:	86be                	mv	a3,a5
ffffffc05020af60:	fec42703          	lw	a4,-20(s0)
ffffffc05020af64:	fcc42783          	lw	a5,-52(s0)
ffffffc05020af68:	40f707bb          	subw	a5,a4,a5
ffffffc05020af6c:	2781                	sext.w	a5,a5
ffffffc05020af6e:	37fd                	addiw	a5,a5,-1
ffffffc05020af70:	2781                	sext.w	a5,a5
ffffffc05020af72:	00c7979b          	slliw	a5,a5,0xc
ffffffc05020af76:	2781                	sext.w	a5,a5
ffffffc05020af78:	97b6                	add	a5,a5,a3
ffffffc05020af7a:	f8843703          	ld	a4,-120(s0)
ffffffc05020af7e:	97ba                	add	a5,a5,a4
ffffffc05020af80:	fb843703          	ld	a4,-72(s0)
ffffffc05020af84:	6605                	lui	a2,0x1
ffffffc05020af86:	85ba                	mv	a1,a4
ffffffc05020af88:	853e                	mv	a0,a5
ffffffc05020af8a:	5c8010ef          	jal	ra,ffffffc05020c552 <memcpy>
ffffffc05020af8e:	a055                	j	ffffffc05020b032 <read_file+0x55a>
ffffffc05020af90:	f7c42703          	lw	a4,-132(s0)
ffffffc05020af94:	41f7579b          	sraiw	a5,a4,0x1f
ffffffc05020af98:	0147d79b          	srliw	a5,a5,0x14
ffffffc05020af9c:	00f706bb          	addw	a3,a4,a5
ffffffc05020afa0:	6705                	lui	a4,0x1
ffffffc05020afa2:	177d                	addi	a4,a4,-1
ffffffc05020afa4:	8f75                	and	a4,a4,a3
ffffffc05020afa6:	40f707bb          	subw	a5,a4,a5
ffffffc05020afaa:	2781                	sext.w	a5,a5
ffffffc05020afac:	6705                	lui	a4,0x1
ffffffc05020afae:	40f707bb          	subw	a5,a4,a5
ffffffc05020afb2:	2781                	sext.w	a5,a5
ffffffc05020afb4:	86be                	mv	a3,a5
ffffffc05020afb6:	fec42703          	lw	a4,-20(s0)
ffffffc05020afba:	fcc42783          	lw	a5,-52(s0)
ffffffc05020afbe:	40f707bb          	subw	a5,a4,a5
ffffffc05020afc2:	2781                	sext.w	a5,a5
ffffffc05020afc4:	37fd                	addiw	a5,a5,-1
ffffffc05020afc6:	2781                	sext.w	a5,a5
ffffffc05020afc8:	00c7979b          	slliw	a5,a5,0xc
ffffffc05020afcc:	2781                	sext.w	a5,a5
ffffffc05020afce:	97b6                	add	a5,a5,a3
ffffffc05020afd0:	f8843703          	ld	a4,-120(s0)
ffffffc05020afd4:	00f70533          	add	a0,a4,a5
ffffffc05020afd8:	fb843583          	ld	a1,-72(s0)
ffffffc05020afdc:	f7c42703          	lw	a4,-132(s0)
ffffffc05020afe0:	41f7579b          	sraiw	a5,a4,0x1f
ffffffc05020afe4:	0147d79b          	srliw	a5,a5,0x14
ffffffc05020afe8:	00f706bb          	addw	a3,a4,a5
ffffffc05020afec:	6705                	lui	a4,0x1
ffffffc05020afee:	177d                	addi	a4,a4,-1
ffffffc05020aff0:	8f75                	and	a4,a4,a3
ffffffc05020aff2:	40f707bb          	subw	a5,a4,a5
ffffffc05020aff6:	2781                	sext.w	a5,a5
ffffffc05020aff8:	6705                	lui	a4,0x1
ffffffc05020affa:	40f707bb          	subw	a5,a4,a5
ffffffc05020affe:	2781                	sext.w	a5,a5
ffffffc05020b000:	f8442703          	lw	a4,-124(s0)
ffffffc05020b004:	40f707bb          	subw	a5,a4,a5
ffffffc05020b008:	0007871b          	sext.w	a4,a5
ffffffc05020b00c:	fc842683          	lw	a3,-56(s0)
ffffffc05020b010:	fcc42783          	lw	a5,-52(s0)
ffffffc05020b014:	40f687bb          	subw	a5,a3,a5
ffffffc05020b018:	2781                	sext.w	a5,a5
ffffffc05020b01a:	37fd                	addiw	a5,a5,-1
ffffffc05020b01c:	2781                	sext.w	a5,a5
ffffffc05020b01e:	00c7979b          	slliw	a5,a5,0xc
ffffffc05020b022:	2781                	sext.w	a5,a5
ffffffc05020b024:	40f707bb          	subw	a5,a4,a5
ffffffc05020b028:	2781                	sext.w	a5,a5
ffffffc05020b02a:	2781                	sext.w	a5,a5
ffffffc05020b02c:	863e                	mv	a2,a5
ffffffc05020b02e:	524010ef          	jal	ra,ffffffc05020c552 <memcpy>
ffffffc05020b032:	fb843503          	ld	a0,-72(s0)
ffffffc05020b036:	ebcff0ef          	jal	ra,ffffffc05020a6f2 <free_addr>
ffffffc05020b03a:	fec42783          	lw	a5,-20(s0)
ffffffc05020b03e:	2785                	addiw	a5,a5,1
ffffffc05020b040:	fef42623          	sw	a5,-20(s0)
ffffffc05020b044:	fec42703          	lw	a4,-20(s0)
ffffffc05020b048:	fc842783          	lw	a5,-56(s0)
ffffffc05020b04c:	2701                	sext.w	a4,a4
ffffffc05020b04e:	2781                	sext.w	a5,a5
ffffffc05020b050:	b0e7d0e3          	bge	a5,a4,ffffffc05020ab50 <read_file+0x78>
ffffffc05020b054:	fe043503          	ld	a0,-32(s0)
ffffffc05020b058:	e9aff0ef          	jal	ra,ffffffc05020a6f2 <free_addr>
ffffffc05020b05c:	f8442783          	lw	a5,-124(s0)
ffffffc05020b060:	853e                	mv	a0,a5
ffffffc05020b062:	60aa                	ld	ra,136(sp)
ffffffc05020b064:	640a                	ld	s0,128(sp)
ffffffc05020b066:	6149                	addi	sp,sp,144
ffffffc05020b068:	8082                	ret

ffffffc05020b06a <write_file>:
ffffffc05020b06a:	7175                	addi	sp,sp,-144
ffffffc05020b06c:	e506                	sd	ra,136(sp)
ffffffc05020b06e:	e122                	sd	s0,128(sp)
ffffffc05020b070:	0900                	addi	s0,sp,144
ffffffc05020b072:	f8a43423          	sd	a0,-120(s0)
ffffffc05020b076:	87ae                	mv	a5,a1
ffffffc05020b078:	8736                	mv	a4,a3
ffffffc05020b07a:	f8f42223          	sw	a5,-124(s0)
ffffffc05020b07e:	87b2                	mv	a5,a2
ffffffc05020b080:	f8f42023          	sw	a5,-128(s0)
ffffffc05020b084:	87ba                	mv	a5,a4
ffffffc05020b086:	f6f42e23          	sw	a5,-132(s0)
ffffffc05020b08a:	dbcff0ef          	jal	ra,ffffffc05020a646 <alloc_addr>
ffffffc05020b08e:	fea43023          	sd	a0,-32(s0)
ffffffc05020b092:	f8042783          	lw	a5,-128(s0)
ffffffc05020b096:	853e                	mv	a0,a5
ffffffc05020b098:	646000ef          	jal	ra,ffffffc05020b6de <get_inode_block>
ffffffc05020b09c:	87aa                	mv	a5,a0
ffffffc05020b09e:	fcf42e23          	sw	a5,-36(s0)
ffffffc05020b0a2:	f8042783          	lw	a5,-128(s0)
ffffffc05020b0a6:	fe043583          	ld	a1,-32(s0)
ffffffc05020b0aa:	853e                	mv	a0,a5
ffffffc05020b0ac:	670000ef          	jal	ra,ffffffc05020b71c <rw_inode>
ffffffc05020b0b0:	fca43823          	sd	a0,-48(s0)
ffffffc05020b0b4:	fd043783          	ld	a5,-48(s0)
ffffffc05020b0b8:	fcf43423          	sd	a5,-56(s0)
ffffffc05020b0bc:	f7c42783          	lw	a5,-132(s0)
ffffffc05020b0c0:	853e                	mv	a0,a5
ffffffc05020b0c2:	0d1000ef          	jal	ra,ffffffc05020b992 <loc_datablock>
ffffffc05020b0c6:	87aa                	mv	a5,a0
ffffffc05020b0c8:	fcf42223          	sw	a5,-60(s0)
ffffffc05020b0cc:	f7c42703          	lw	a4,-132(s0)
ffffffc05020b0d0:	f8442783          	lw	a5,-124(s0)
ffffffc05020b0d4:	9fb9                	addw	a5,a5,a4
ffffffc05020b0d6:	2781                	sext.w	a5,a5
ffffffc05020b0d8:	37fd                	addiw	a5,a5,-1
ffffffc05020b0da:	2781                	sext.w	a5,a5
ffffffc05020b0dc:	853e                	mv	a0,a5
ffffffc05020b0de:	0b5000ef          	jal	ra,ffffffc05020b992 <loc_datablock>
ffffffc05020b0e2:	87aa                	mv	a5,a0
ffffffc05020b0e4:	fcf42023          	sw	a5,-64(s0)
ffffffc05020b0e8:	f7c42703          	lw	a4,-132(s0)
ffffffc05020b0ec:	f8442783          	lw	a5,-124(s0)
ffffffc05020b0f0:	9fb9                	addw	a5,a5,a4
ffffffc05020b0f2:	0007871b          	sext.w	a4,a5
ffffffc05020b0f6:	fc843783          	ld	a5,-56(s0)
ffffffc05020b0fa:	47dc                	lw	a5,12(a5)
ffffffc05020b0fc:	00e7dc63          	bge	a5,a4,ffffffc05020b114 <write_file+0xaa>
ffffffc05020b100:	f7c42703          	lw	a4,-132(s0)
ffffffc05020b104:	f8442783          	lw	a5,-124(s0)
ffffffc05020b108:	9fb9                	addw	a5,a5,a4
ffffffc05020b10a:	0007871b          	sext.w	a4,a5
ffffffc05020b10e:	fc843783          	ld	a5,-56(s0)
ffffffc05020b112:	c7d8                	sw	a4,12(a5)
ffffffc05020b114:	fc442783          	lw	a5,-60(s0)
ffffffc05020b118:	fef42623          	sw	a5,-20(s0)
ffffffc05020b11c:	ab05                	j	ffffffc05020b64c <write_file+0x5e2>
ffffffc05020b11e:	fec42783          	lw	a5,-20(s0)
ffffffc05020b122:	0007871b          	sext.w	a4,a5
ffffffc05020b126:	47b1                	li	a5,12
ffffffc05020b128:	20e7cf63          	blt	a5,a4,ffffffc05020b346 <write_file+0x2dc>
ffffffc05020b12c:	fc843703          	ld	a4,-56(s0)
ffffffc05020b130:	fec42783          	lw	a5,-20(s0)
ffffffc05020b134:	0791                	addi	a5,a5,4
ffffffc05020b136:	078a                	slli	a5,a5,0x2
ffffffc05020b138:	97ba                	add	a5,a5,a4
ffffffc05020b13a:	43dc                	lw	a5,4(a5)
ffffffc05020b13c:	f8f42c23          	sw	a5,-104(s0)
ffffffc05020b140:	d06ff0ef          	jal	ra,ffffffc05020a646 <alloc_addr>
ffffffc05020b144:	f8a43823          	sd	a0,-112(s0)
ffffffc05020b148:	f9043503          	ld	a0,-112(s0)
ffffffc05020b14c:	ffffd0ef          	jal	ra,ffffffc05020914a <kva2pa>
ffffffc05020b150:	87aa                	mv	a5,a0
ffffffc05020b152:	0007869b          	sext.w	a3,a5
ffffffc05020b156:	f9842703          	lw	a4,-104(s0)
ffffffc05020b15a:	001017b7          	lui	a5,0x101
ffffffc05020b15e:	8227879b          	addiw	a5,a5,-2014
ffffffc05020b162:	9fb9                	addw	a5,a5,a4
ffffffc05020b164:	2781                	sext.w	a5,a5
ffffffc05020b166:	2781                	sext.w	a5,a5
ffffffc05020b168:	863e                	mv	a2,a5
ffffffc05020b16a:	45a1                	li	a1,8
ffffffc05020b16c:	8536                	mv	a0,a3
ffffffc05020b16e:	860fe0ef          	jal	ra,ffffffc0502091ce <bios_sdread>
ffffffc05020b172:	fec42703          	lw	a4,-20(s0)
ffffffc05020b176:	fc442783          	lw	a5,-60(s0)
ffffffc05020b17a:	2701                	sext.w	a4,a4
ffffffc05020b17c:	2781                	sext.w	a5,a5
ffffffc05020b17e:	08f71763          	bne	a4,a5,ffffffc05020b20c <write_file+0x1a2>
ffffffc05020b182:	fec42703          	lw	a4,-20(s0)
ffffffc05020b186:	fc042783          	lw	a5,-64(s0)
ffffffc05020b18a:	2701                	sext.w	a4,a4
ffffffc05020b18c:	2781                	sext.w	a5,a5
ffffffc05020b18e:	02f71e63          	bne	a4,a5,ffffffc05020b1ca <write_file+0x160>
ffffffc05020b192:	f7c42703          	lw	a4,-132(s0)
ffffffc05020b196:	41f7579b          	sraiw	a5,a4,0x1f
ffffffc05020b19a:	0147d79b          	srliw	a5,a5,0x14
ffffffc05020b19e:	00f706bb          	addw	a3,a4,a5
ffffffc05020b1a2:	6705                	lui	a4,0x1
ffffffc05020b1a4:	177d                	addi	a4,a4,-1
ffffffc05020b1a6:	8f75                	and	a4,a4,a3
ffffffc05020b1a8:	40f707bb          	subw	a5,a4,a5
ffffffc05020b1ac:	2781                	sext.w	a5,a5
ffffffc05020b1ae:	873e                	mv	a4,a5
ffffffc05020b1b0:	f9043783          	ld	a5,-112(s0)
ffffffc05020b1b4:	97ba                	add	a5,a5,a4
ffffffc05020b1b6:	873e                	mv	a4,a5
ffffffc05020b1b8:	f8442783          	lw	a5,-124(s0)
ffffffc05020b1bc:	863e                	mv	a2,a5
ffffffc05020b1be:	f8843583          	ld	a1,-120(s0)
ffffffc05020b1c2:	853a                	mv	a0,a4
ffffffc05020b1c4:	38e010ef          	jal	ra,ffffffc05020c552 <memcpy>
ffffffc05020b1c8:	a2a9                	j	ffffffc05020b312 <write_file+0x2a8>
ffffffc05020b1ca:	f7c42703          	lw	a4,-132(s0)
ffffffc05020b1ce:	41f7579b          	sraiw	a5,a4,0x1f
ffffffc05020b1d2:	0147d79b          	srliw	a5,a5,0x14
ffffffc05020b1d6:	00f706bb          	addw	a3,a4,a5
ffffffc05020b1da:	6705                	lui	a4,0x1
ffffffc05020b1dc:	177d                	addi	a4,a4,-1
ffffffc05020b1de:	8f75                	and	a4,a4,a3
ffffffc05020b1e0:	40f707bb          	subw	a5,a4,a5
ffffffc05020b1e4:	2781                	sext.w	a5,a5
ffffffc05020b1e6:	873e                	mv	a4,a5
ffffffc05020b1e8:	f9043783          	ld	a5,-112(s0)
ffffffc05020b1ec:	97ba                	add	a5,a5,a4
ffffffc05020b1ee:	86be                	mv	a3,a5
ffffffc05020b1f0:	6705                	lui	a4,0x1
ffffffc05020b1f2:	f7c42783          	lw	a5,-132(s0)
ffffffc05020b1f6:	40f707bb          	subw	a5,a4,a5
ffffffc05020b1fa:	2781                	sext.w	a5,a5
ffffffc05020b1fc:	2781                	sext.w	a5,a5
ffffffc05020b1fe:	863e                	mv	a2,a5
ffffffc05020b200:	f8843583          	ld	a1,-120(s0)
ffffffc05020b204:	8536                	mv	a0,a3
ffffffc05020b206:	34c010ef          	jal	ra,ffffffc05020c552 <memcpy>
ffffffc05020b20a:	a221                	j	ffffffc05020b312 <write_file+0x2a8>
ffffffc05020b20c:	fec42703          	lw	a4,-20(s0)
ffffffc05020b210:	fc042783          	lw	a5,-64(s0)
ffffffc05020b214:	2701                	sext.w	a4,a4
ffffffc05020b216:	2781                	sext.w	a5,a5
ffffffc05020b218:	04f70c63          	beq	a4,a5,ffffffc05020b270 <write_file+0x206>
ffffffc05020b21c:	f9043503          	ld	a0,-112(s0)
ffffffc05020b220:	f7c42703          	lw	a4,-132(s0)
ffffffc05020b224:	41f7579b          	sraiw	a5,a4,0x1f
ffffffc05020b228:	0147d79b          	srliw	a5,a5,0x14
ffffffc05020b22c:	00f706bb          	addw	a3,a4,a5
ffffffc05020b230:	6705                	lui	a4,0x1
ffffffc05020b232:	177d                	addi	a4,a4,-1
ffffffc05020b234:	8f75                	and	a4,a4,a3
ffffffc05020b236:	40f707bb          	subw	a5,a4,a5
ffffffc05020b23a:	2781                	sext.w	a5,a5
ffffffc05020b23c:	6705                	lui	a4,0x1
ffffffc05020b23e:	40f707bb          	subw	a5,a4,a5
ffffffc05020b242:	2781                	sext.w	a5,a5
ffffffc05020b244:	86be                	mv	a3,a5
ffffffc05020b246:	fec42703          	lw	a4,-20(s0)
ffffffc05020b24a:	fc442783          	lw	a5,-60(s0)
ffffffc05020b24e:	40f707bb          	subw	a5,a4,a5
ffffffc05020b252:	2781                	sext.w	a5,a5
ffffffc05020b254:	37fd                	addiw	a5,a5,-1
ffffffc05020b256:	2781                	sext.w	a5,a5
ffffffc05020b258:	00c7979b          	slliw	a5,a5,0xc
ffffffc05020b25c:	2781                	sext.w	a5,a5
ffffffc05020b25e:	97b6                	add	a5,a5,a3
ffffffc05020b260:	f8843703          	ld	a4,-120(s0)
ffffffc05020b264:	97ba                	add	a5,a5,a4
ffffffc05020b266:	6605                	lui	a2,0x1
ffffffc05020b268:	85be                	mv	a1,a5
ffffffc05020b26a:	2e8010ef          	jal	ra,ffffffc05020c552 <memcpy>
ffffffc05020b26e:	a055                	j	ffffffc05020b312 <write_file+0x2a8>
ffffffc05020b270:	f9043503          	ld	a0,-112(s0)
ffffffc05020b274:	f7c42703          	lw	a4,-132(s0)
ffffffc05020b278:	41f7579b          	sraiw	a5,a4,0x1f
ffffffc05020b27c:	0147d79b          	srliw	a5,a5,0x14
ffffffc05020b280:	00f706bb          	addw	a3,a4,a5
ffffffc05020b284:	6705                	lui	a4,0x1
ffffffc05020b286:	177d                	addi	a4,a4,-1
ffffffc05020b288:	8f75                	and	a4,a4,a3
ffffffc05020b28a:	40f707bb          	subw	a5,a4,a5
ffffffc05020b28e:	2781                	sext.w	a5,a5
ffffffc05020b290:	6705                	lui	a4,0x1
ffffffc05020b292:	40f707bb          	subw	a5,a4,a5
ffffffc05020b296:	2781                	sext.w	a5,a5
ffffffc05020b298:	86be                	mv	a3,a5
ffffffc05020b29a:	fec42703          	lw	a4,-20(s0)
ffffffc05020b29e:	fc442783          	lw	a5,-60(s0)
ffffffc05020b2a2:	40f707bb          	subw	a5,a4,a5
ffffffc05020b2a6:	2781                	sext.w	a5,a5
ffffffc05020b2a8:	37fd                	addiw	a5,a5,-1
ffffffc05020b2aa:	2781                	sext.w	a5,a5
ffffffc05020b2ac:	00c7979b          	slliw	a5,a5,0xc
ffffffc05020b2b0:	2781                	sext.w	a5,a5
ffffffc05020b2b2:	97b6                	add	a5,a5,a3
ffffffc05020b2b4:	f8843703          	ld	a4,-120(s0)
ffffffc05020b2b8:	00f705b3          	add	a1,a4,a5
ffffffc05020b2bc:	f7c42703          	lw	a4,-132(s0)
ffffffc05020b2c0:	41f7579b          	sraiw	a5,a4,0x1f
ffffffc05020b2c4:	0147d79b          	srliw	a5,a5,0x14
ffffffc05020b2c8:	00f706bb          	addw	a3,a4,a5
ffffffc05020b2cc:	6705                	lui	a4,0x1
ffffffc05020b2ce:	177d                	addi	a4,a4,-1
ffffffc05020b2d0:	8f75                	and	a4,a4,a3
ffffffc05020b2d2:	40f707bb          	subw	a5,a4,a5
ffffffc05020b2d6:	2781                	sext.w	a5,a5
ffffffc05020b2d8:	6705                	lui	a4,0x1
ffffffc05020b2da:	40f707bb          	subw	a5,a4,a5
ffffffc05020b2de:	2781                	sext.w	a5,a5
ffffffc05020b2e0:	f8442703          	lw	a4,-124(s0)
ffffffc05020b2e4:	40f707bb          	subw	a5,a4,a5
ffffffc05020b2e8:	0007871b          	sext.w	a4,a5
ffffffc05020b2ec:	fc042683          	lw	a3,-64(s0)
ffffffc05020b2f0:	fc442783          	lw	a5,-60(s0)
ffffffc05020b2f4:	40f687bb          	subw	a5,a3,a5
ffffffc05020b2f8:	2781                	sext.w	a5,a5
ffffffc05020b2fa:	37fd                	addiw	a5,a5,-1
ffffffc05020b2fc:	2781                	sext.w	a5,a5
ffffffc05020b2fe:	00c7979b          	slliw	a5,a5,0xc
ffffffc05020b302:	2781                	sext.w	a5,a5
ffffffc05020b304:	40f707bb          	subw	a5,a4,a5
ffffffc05020b308:	2781                	sext.w	a5,a5
ffffffc05020b30a:	2781                	sext.w	a5,a5
ffffffc05020b30c:	863e                	mv	a2,a5
ffffffc05020b30e:	244010ef          	jal	ra,ffffffc05020c552 <memcpy>
ffffffc05020b312:	f9043503          	ld	a0,-112(s0)
ffffffc05020b316:	e35fd0ef          	jal	ra,ffffffc05020914a <kva2pa>
ffffffc05020b31a:	87aa                	mv	a5,a0
ffffffc05020b31c:	0007869b          	sext.w	a3,a5
ffffffc05020b320:	f9842703          	lw	a4,-104(s0)
ffffffc05020b324:	001017b7          	lui	a5,0x101
ffffffc05020b328:	8227879b          	addiw	a5,a5,-2014
ffffffc05020b32c:	9fb9                	addw	a5,a5,a4
ffffffc05020b32e:	2781                	sext.w	a5,a5
ffffffc05020b330:	2781                	sext.w	a5,a5
ffffffc05020b332:	863e                	mv	a2,a5
ffffffc05020b334:	45a1                	li	a1,8
ffffffc05020b336:	8536                	mv	a0,a3
ffffffc05020b338:	ed9fd0ef          	jal	ra,ffffffc050209210 <bios_sdwrite>
ffffffc05020b33c:	f9043503          	ld	a0,-112(s0)
ffffffc05020b340:	bb2ff0ef          	jal	ra,ffffffc05020a6f2 <free_addr>
ffffffc05020b344:	acfd                	j	ffffffc05020b642 <write_file+0x5d8>
ffffffc05020b346:	fec42783          	lw	a5,-20(s0)
ffffffc05020b34a:	37cd                	addiw	a5,a5,-13
ffffffc05020b34c:	2781                	sext.w	a5,a5
ffffffc05020b34e:	41f7d71b          	sraiw	a4,a5,0x1f
ffffffc05020b352:	0167571b          	srliw	a4,a4,0x16
ffffffc05020b356:	9fb9                	addw	a5,a5,a4
ffffffc05020b358:	40a7d79b          	sraiw	a5,a5,0xa
ffffffc05020b35c:	faf42e23          	sw	a5,-68(s0)
ffffffc05020b360:	fc843703          	ld	a4,-56(s0)
ffffffc05020b364:	fbc42783          	lw	a5,-68(s0)
ffffffc05020b368:	07c1                	addi	a5,a5,16
ffffffc05020b36a:	078a                	slli	a5,a5,0x2
ffffffc05020b36c:	97ba                	add	a5,a5,a4
ffffffc05020b36e:	479c                	lw	a5,8(a5)
ffffffc05020b370:	faf42c23          	sw	a5,-72(s0)
ffffffc05020b374:	ad2ff0ef          	jal	ra,ffffffc05020a646 <alloc_addr>
ffffffc05020b378:	faa43823          	sd	a0,-80(s0)
ffffffc05020b37c:	fb043503          	ld	a0,-80(s0)
ffffffc05020b380:	dcbfd0ef          	jal	ra,ffffffc05020914a <kva2pa>
ffffffc05020b384:	87aa                	mv	a5,a0
ffffffc05020b386:	0007869b          	sext.w	a3,a5
ffffffc05020b38a:	fb842703          	lw	a4,-72(s0)
ffffffc05020b38e:	001017b7          	lui	a5,0x101
ffffffc05020b392:	8227879b          	addiw	a5,a5,-2014
ffffffc05020b396:	9fb9                	addw	a5,a5,a4
ffffffc05020b398:	2781                	sext.w	a5,a5
ffffffc05020b39a:	2781                	sext.w	a5,a5
ffffffc05020b39c:	863e                	mv	a2,a5
ffffffc05020b39e:	45a1                	li	a1,8
ffffffc05020b3a0:	8536                	mv	a0,a3
ffffffc05020b3a2:	e2dfd0ef          	jal	ra,ffffffc0502091ce <bios_sdread>
ffffffc05020b3a6:	fb043783          	ld	a5,-80(s0)
ffffffc05020b3aa:	faf43423          	sd	a5,-88(s0)
ffffffc05020b3ae:	fec42783          	lw	a5,-20(s0)
ffffffc05020b3b2:	37cd                	addiw	a5,a5,-13
ffffffc05020b3b4:	2781                	sext.w	a5,a5
ffffffc05020b3b6:	873e                	mv	a4,a5
ffffffc05020b3b8:	41f7579b          	sraiw	a5,a4,0x1f
ffffffc05020b3bc:	0167d79b          	srliw	a5,a5,0x16
ffffffc05020b3c0:	9f3d                	addw	a4,a4,a5
ffffffc05020b3c2:	3ff77713          	andi	a4,a4,1023
ffffffc05020b3c6:	40f707bb          	subw	a5,a4,a5
ffffffc05020b3ca:	faf42223          	sw	a5,-92(s0)
ffffffc05020b3ce:	fa442783          	lw	a5,-92(s0)
ffffffc05020b3d2:	078a                	slli	a5,a5,0x2
ffffffc05020b3d4:	fa843703          	ld	a4,-88(s0)
ffffffc05020b3d8:	97ba                	add	a5,a5,a4
ffffffc05020b3da:	439c                	lw	a5,0(a5)
ffffffc05020b3dc:	ef99                	bnez	a5,ffffffc05020b3fa <write_file+0x390>
ffffffc05020b3de:	d03fe0ef          	jal	ra,ffffffc05020a0e0 <alloc_data>
ffffffc05020b3e2:	87aa                	mv	a5,a0
ffffffc05020b3e4:	faf42023          	sw	a5,-96(s0)
ffffffc05020b3e8:	fa442783          	lw	a5,-92(s0)
ffffffc05020b3ec:	078a                	slli	a5,a5,0x2
ffffffc05020b3ee:	fa843703          	ld	a4,-88(s0)
ffffffc05020b3f2:	97ba                	add	a5,a5,a4
ffffffc05020b3f4:	fa042703          	lw	a4,-96(s0)
ffffffc05020b3f8:	c398                	sw	a4,0(a5)
ffffffc05020b3fa:	fa442783          	lw	a5,-92(s0)
ffffffc05020b3fe:	078a                	slli	a5,a5,0x2
ffffffc05020b400:	fa843703          	ld	a4,-88(s0)
ffffffc05020b404:	97ba                	add	a5,a5,a4
ffffffc05020b406:	439c                	lw	a5,0(a5)
ffffffc05020b408:	f8f42e23          	sw	a5,-100(s0)
ffffffc05020b40c:	fb043503          	ld	a0,-80(s0)
ffffffc05020b410:	d3bfd0ef          	jal	ra,ffffffc05020914a <kva2pa>
ffffffc05020b414:	87aa                	mv	a5,a0
ffffffc05020b416:	0007869b          	sext.w	a3,a5
ffffffc05020b41a:	fb842703          	lw	a4,-72(s0)
ffffffc05020b41e:	001017b7          	lui	a5,0x101
ffffffc05020b422:	8227879b          	addiw	a5,a5,-2014
ffffffc05020b426:	9fb9                	addw	a5,a5,a4
ffffffc05020b428:	2781                	sext.w	a5,a5
ffffffc05020b42a:	2781                	sext.w	a5,a5
ffffffc05020b42c:	863e                	mv	a2,a5
ffffffc05020b42e:	45a1                	li	a1,8
ffffffc05020b430:	8536                	mv	a0,a3
ffffffc05020b432:	ddffd0ef          	jal	ra,ffffffc050209210 <bios_sdwrite>
ffffffc05020b436:	fb043503          	ld	a0,-80(s0)
ffffffc05020b43a:	ab8ff0ef          	jal	ra,ffffffc05020a6f2 <free_addr>
ffffffc05020b43e:	a08ff0ef          	jal	ra,ffffffc05020a646 <alloc_addr>
ffffffc05020b442:	faa43823          	sd	a0,-80(s0)
ffffffc05020b446:	fb043503          	ld	a0,-80(s0)
ffffffc05020b44a:	d01fd0ef          	jal	ra,ffffffc05020914a <kva2pa>
ffffffc05020b44e:	87aa                	mv	a5,a0
ffffffc05020b450:	0007869b          	sext.w	a3,a5
ffffffc05020b454:	f9c42703          	lw	a4,-100(s0)
ffffffc05020b458:	001017b7          	lui	a5,0x101
ffffffc05020b45c:	8227879b          	addiw	a5,a5,-2014
ffffffc05020b460:	9fb9                	addw	a5,a5,a4
ffffffc05020b462:	2781                	sext.w	a5,a5
ffffffc05020b464:	2781                	sext.w	a5,a5
ffffffc05020b466:	863e                	mv	a2,a5
ffffffc05020b468:	45a1                	li	a1,8
ffffffc05020b46a:	8536                	mv	a0,a3
ffffffc05020b46c:	d63fd0ef          	jal	ra,ffffffc0502091ce <bios_sdread>
ffffffc05020b470:	fec42703          	lw	a4,-20(s0)
ffffffc05020b474:	fc442783          	lw	a5,-60(s0)
ffffffc05020b478:	2701                	sext.w	a4,a4
ffffffc05020b47a:	2781                	sext.w	a5,a5
ffffffc05020b47c:	0af71263          	bne	a4,a5,ffffffc05020b520 <write_file+0x4b6>
ffffffc05020b480:	fec42703          	lw	a4,-20(s0)
ffffffc05020b484:	fc042783          	lw	a5,-64(s0)
ffffffc05020b488:	2701                	sext.w	a4,a4
ffffffc05020b48a:	2781                	sext.w	a5,a5
ffffffc05020b48c:	02f71e63          	bne	a4,a5,ffffffc05020b4c8 <write_file+0x45e>
ffffffc05020b490:	f7c42703          	lw	a4,-132(s0)
ffffffc05020b494:	41f7579b          	sraiw	a5,a4,0x1f
ffffffc05020b498:	0147d79b          	srliw	a5,a5,0x14
ffffffc05020b49c:	00f706bb          	addw	a3,a4,a5
ffffffc05020b4a0:	6705                	lui	a4,0x1
ffffffc05020b4a2:	177d                	addi	a4,a4,-1
ffffffc05020b4a4:	8f75                	and	a4,a4,a3
ffffffc05020b4a6:	40f707bb          	subw	a5,a4,a5
ffffffc05020b4aa:	2781                	sext.w	a5,a5
ffffffc05020b4ac:	873e                	mv	a4,a5
ffffffc05020b4ae:	fb043783          	ld	a5,-80(s0)
ffffffc05020b4b2:	97ba                	add	a5,a5,a4
ffffffc05020b4b4:	873e                	mv	a4,a5
ffffffc05020b4b6:	f8442783          	lw	a5,-124(s0)
ffffffc05020b4ba:	863e                	mv	a2,a5
ffffffc05020b4bc:	f8843583          	ld	a1,-120(s0)
ffffffc05020b4c0:	853a                	mv	a0,a4
ffffffc05020b4c2:	090010ef          	jal	ra,ffffffc05020c552 <memcpy>
ffffffc05020b4c6:	a2a9                	j	ffffffc05020b610 <write_file+0x5a6>
ffffffc05020b4c8:	f7c42703          	lw	a4,-132(s0)
ffffffc05020b4cc:	41f7579b          	sraiw	a5,a4,0x1f
ffffffc05020b4d0:	0147d79b          	srliw	a5,a5,0x14
ffffffc05020b4d4:	00f706bb          	addw	a3,a4,a5
ffffffc05020b4d8:	6705                	lui	a4,0x1
ffffffc05020b4da:	177d                	addi	a4,a4,-1
ffffffc05020b4dc:	8f75                	and	a4,a4,a3
ffffffc05020b4de:	40f707bb          	subw	a5,a4,a5
ffffffc05020b4e2:	2781                	sext.w	a5,a5
ffffffc05020b4e4:	873e                	mv	a4,a5
ffffffc05020b4e6:	fb043783          	ld	a5,-80(s0)
ffffffc05020b4ea:	97ba                	add	a5,a5,a4
ffffffc05020b4ec:	853e                	mv	a0,a5
ffffffc05020b4ee:	f7c42703          	lw	a4,-132(s0)
ffffffc05020b4f2:	41f7579b          	sraiw	a5,a4,0x1f
ffffffc05020b4f6:	0147d79b          	srliw	a5,a5,0x14
ffffffc05020b4fa:	00f706bb          	addw	a3,a4,a5
ffffffc05020b4fe:	6705                	lui	a4,0x1
ffffffc05020b500:	177d                	addi	a4,a4,-1
ffffffc05020b502:	8f75                	and	a4,a4,a3
ffffffc05020b504:	40f707bb          	subw	a5,a4,a5
ffffffc05020b508:	2781                	sext.w	a5,a5
ffffffc05020b50a:	6705                	lui	a4,0x1
ffffffc05020b50c:	40f707bb          	subw	a5,a4,a5
ffffffc05020b510:	2781                	sext.w	a5,a5
ffffffc05020b512:	2781                	sext.w	a5,a5
ffffffc05020b514:	863e                	mv	a2,a5
ffffffc05020b516:	f8843583          	ld	a1,-120(s0)
ffffffc05020b51a:	038010ef          	jal	ra,ffffffc05020c552 <memcpy>
ffffffc05020b51e:	a8cd                	j	ffffffc05020b610 <write_file+0x5a6>
ffffffc05020b520:	fec42703          	lw	a4,-20(s0)
ffffffc05020b524:	fc042783          	lw	a5,-64(s0)
ffffffc05020b528:	2701                	sext.w	a4,a4
ffffffc05020b52a:	2781                	sext.w	a5,a5
ffffffc05020b52c:	04f70163          	beq	a4,a5,ffffffc05020b56e <write_file+0x504>
ffffffc05020b530:	fb043683          	ld	a3,-80(s0)
ffffffc05020b534:	6705                	lui	a4,0x1
ffffffc05020b536:	f7c42783          	lw	a5,-132(s0)
ffffffc05020b53a:	40f707bb          	subw	a5,a4,a5
ffffffc05020b53e:	2781                	sext.w	a5,a5
ffffffc05020b540:	863e                	mv	a2,a5
ffffffc05020b542:	fec42703          	lw	a4,-20(s0)
ffffffc05020b546:	fc442783          	lw	a5,-60(s0)
ffffffc05020b54a:	40f707bb          	subw	a5,a4,a5
ffffffc05020b54e:	2781                	sext.w	a5,a5
ffffffc05020b550:	37fd                	addiw	a5,a5,-1
ffffffc05020b552:	2781                	sext.w	a5,a5
ffffffc05020b554:	00c7979b          	slliw	a5,a5,0xc
ffffffc05020b558:	2781                	sext.w	a5,a5
ffffffc05020b55a:	97b2                	add	a5,a5,a2
ffffffc05020b55c:	f8843703          	ld	a4,-120(s0)
ffffffc05020b560:	97ba                	add	a5,a5,a4
ffffffc05020b562:	6605                	lui	a2,0x1
ffffffc05020b564:	85be                	mv	a1,a5
ffffffc05020b566:	8536                	mv	a0,a3
ffffffc05020b568:	7eb000ef          	jal	ra,ffffffc05020c552 <memcpy>
ffffffc05020b56c:	a055                	j	ffffffc05020b610 <write_file+0x5a6>
ffffffc05020b56e:	fb043503          	ld	a0,-80(s0)
ffffffc05020b572:	f7c42703          	lw	a4,-132(s0)
ffffffc05020b576:	41f7579b          	sraiw	a5,a4,0x1f
ffffffc05020b57a:	0147d79b          	srliw	a5,a5,0x14
ffffffc05020b57e:	00f706bb          	addw	a3,a4,a5
ffffffc05020b582:	6705                	lui	a4,0x1
ffffffc05020b584:	177d                	addi	a4,a4,-1
ffffffc05020b586:	8f75                	and	a4,a4,a3
ffffffc05020b588:	40f707bb          	subw	a5,a4,a5
ffffffc05020b58c:	2781                	sext.w	a5,a5
ffffffc05020b58e:	6705                	lui	a4,0x1
ffffffc05020b590:	40f707bb          	subw	a5,a4,a5
ffffffc05020b594:	2781                	sext.w	a5,a5
ffffffc05020b596:	86be                	mv	a3,a5
ffffffc05020b598:	fec42703          	lw	a4,-20(s0)
ffffffc05020b59c:	fc442783          	lw	a5,-60(s0)
ffffffc05020b5a0:	40f707bb          	subw	a5,a4,a5
ffffffc05020b5a4:	2781                	sext.w	a5,a5
ffffffc05020b5a6:	37fd                	addiw	a5,a5,-1
ffffffc05020b5a8:	2781                	sext.w	a5,a5
ffffffc05020b5aa:	00c7979b          	slliw	a5,a5,0xc
ffffffc05020b5ae:	2781                	sext.w	a5,a5
ffffffc05020b5b0:	97b6                	add	a5,a5,a3
ffffffc05020b5b2:	f8843703          	ld	a4,-120(s0)
ffffffc05020b5b6:	00f705b3          	add	a1,a4,a5
ffffffc05020b5ba:	f7c42703          	lw	a4,-132(s0)
ffffffc05020b5be:	41f7579b          	sraiw	a5,a4,0x1f
ffffffc05020b5c2:	0147d79b          	srliw	a5,a5,0x14
ffffffc05020b5c6:	00f706bb          	addw	a3,a4,a5
ffffffc05020b5ca:	6705                	lui	a4,0x1
ffffffc05020b5cc:	177d                	addi	a4,a4,-1
ffffffc05020b5ce:	8f75                	and	a4,a4,a3
ffffffc05020b5d0:	40f707bb          	subw	a5,a4,a5
ffffffc05020b5d4:	2781                	sext.w	a5,a5
ffffffc05020b5d6:	6705                	lui	a4,0x1
ffffffc05020b5d8:	40f707bb          	subw	a5,a4,a5
ffffffc05020b5dc:	2781                	sext.w	a5,a5
ffffffc05020b5de:	f8442703          	lw	a4,-124(s0)
ffffffc05020b5e2:	40f707bb          	subw	a5,a4,a5
ffffffc05020b5e6:	0007871b          	sext.w	a4,a5
ffffffc05020b5ea:	fc042683          	lw	a3,-64(s0)
ffffffc05020b5ee:	fc442783          	lw	a5,-60(s0)
ffffffc05020b5f2:	40f687bb          	subw	a5,a3,a5
ffffffc05020b5f6:	2781                	sext.w	a5,a5
ffffffc05020b5f8:	37fd                	addiw	a5,a5,-1
ffffffc05020b5fa:	2781                	sext.w	a5,a5
ffffffc05020b5fc:	00c7979b          	slliw	a5,a5,0xc
ffffffc05020b600:	2781                	sext.w	a5,a5
ffffffc05020b602:	40f707bb          	subw	a5,a4,a5
ffffffc05020b606:	2781                	sext.w	a5,a5
ffffffc05020b608:	2781                	sext.w	a5,a5
ffffffc05020b60a:	863e                	mv	a2,a5
ffffffc05020b60c:	747000ef          	jal	ra,ffffffc05020c552 <memcpy>
ffffffc05020b610:	fb043503          	ld	a0,-80(s0)
ffffffc05020b614:	b37fd0ef          	jal	ra,ffffffc05020914a <kva2pa>
ffffffc05020b618:	87aa                	mv	a5,a0
ffffffc05020b61a:	0007869b          	sext.w	a3,a5
ffffffc05020b61e:	f9c42703          	lw	a4,-100(s0)
ffffffc05020b622:	001017b7          	lui	a5,0x101
ffffffc05020b626:	8227879b          	addiw	a5,a5,-2014
ffffffc05020b62a:	9fb9                	addw	a5,a5,a4
ffffffc05020b62c:	2781                	sext.w	a5,a5
ffffffc05020b62e:	2781                	sext.w	a5,a5
ffffffc05020b630:	863e                	mv	a2,a5
ffffffc05020b632:	45a1                	li	a1,8
ffffffc05020b634:	8536                	mv	a0,a3
ffffffc05020b636:	bdbfd0ef          	jal	ra,ffffffc050209210 <bios_sdwrite>
ffffffc05020b63a:	fb043503          	ld	a0,-80(s0)
ffffffc05020b63e:	8b4ff0ef          	jal	ra,ffffffc05020a6f2 <free_addr>
ffffffc05020b642:	fec42783          	lw	a5,-20(s0)
ffffffc05020b646:	2785                	addiw	a5,a5,1
ffffffc05020b648:	fef42623          	sw	a5,-20(s0)
ffffffc05020b64c:	fec42703          	lw	a4,-20(s0)
ffffffc05020b650:	fc042783          	lw	a5,-64(s0)
ffffffc05020b654:	2701                	sext.w	a4,a4
ffffffc05020b656:	2781                	sext.w	a5,a5
ffffffc05020b658:	ace7d3e3          	bge	a5,a4,ffffffc05020b11e <write_file+0xb4>
ffffffc05020b65c:	fe043503          	ld	a0,-32(s0)
ffffffc05020b660:	aebfd0ef          	jal	ra,ffffffc05020914a <kva2pa>
ffffffc05020b664:	87aa                	mv	a5,a0
ffffffc05020b666:	0007869b          	sext.w	a3,a5
ffffffc05020b66a:	fdc42703          	lw	a4,-36(s0)
ffffffc05020b66e:	001007b7          	lui	a5,0x100
ffffffc05020b672:	0227879b          	addiw	a5,a5,34
ffffffc05020b676:	9fb9                	addw	a5,a5,a4
ffffffc05020b678:	2781                	sext.w	a5,a5
ffffffc05020b67a:	2781                	sext.w	a5,a5
ffffffc05020b67c:	863e                	mv	a2,a5
ffffffc05020b67e:	4589                	li	a1,2
ffffffc05020b680:	8536                	mv	a0,a3
ffffffc05020b682:	b8ffd0ef          	jal	ra,ffffffc050209210 <bios_sdwrite>
ffffffc05020b686:	fe043503          	ld	a0,-32(s0)
ffffffc05020b68a:	868ff0ef          	jal	ra,ffffffc05020a6f2 <free_addr>
ffffffc05020b68e:	f8442783          	lw	a5,-124(s0)
ffffffc05020b692:	853e                	mv	a0,a5
ffffffc05020b694:	60aa                	ld	ra,136(sp)
ffffffc05020b696:	640a                	ld	s0,128(sp)
ffffffc05020b698:	6149                	addi	sp,sp,144
ffffffc05020b69a:	8082                	ret

ffffffc05020b69c <get_inode_offset>:
ffffffc05020b69c:	7179                	addi	sp,sp,-48
ffffffc05020b69e:	f422                	sd	s0,40(sp)
ffffffc05020b6a0:	1800                	addi	s0,sp,48
ffffffc05020b6a2:	87aa                	mv	a5,a0
ffffffc05020b6a4:	fcf42e23          	sw	a5,-36(s0)
ffffffc05020b6a8:	fdc42783          	lw	a5,-36(s0)
ffffffc05020b6ac:	0007871b          	sext.w	a4,a5
ffffffc05020b6b0:	06400793          	li	a5,100
ffffffc05020b6b4:	02f707bb          	mulw	a5,a4,a5
ffffffc05020b6b8:	2781                	sext.w	a5,a5
ffffffc05020b6ba:	fef42623          	sw	a5,-20(s0)
ffffffc05020b6be:	fec42703          	lw	a4,-20(s0)
ffffffc05020b6c2:	41f7579b          	sraiw	a5,a4,0x1f
ffffffc05020b6c6:	0177d79b          	srliw	a5,a5,0x17
ffffffc05020b6ca:	9f3d                	addw	a4,a4,a5
ffffffc05020b6cc:	1ff77713          	andi	a4,a4,511
ffffffc05020b6d0:	40f707bb          	subw	a5,a4,a5
ffffffc05020b6d4:	2781                	sext.w	a5,a5
ffffffc05020b6d6:	853e                	mv	a0,a5
ffffffc05020b6d8:	7422                	ld	s0,40(sp)
ffffffc05020b6da:	6145                	addi	sp,sp,48
ffffffc05020b6dc:	8082                	ret

ffffffc05020b6de <get_inode_block>:
ffffffc05020b6de:	7179                	addi	sp,sp,-48
ffffffc05020b6e0:	f422                	sd	s0,40(sp)
ffffffc05020b6e2:	1800                	addi	s0,sp,48
ffffffc05020b6e4:	87aa                	mv	a5,a0
ffffffc05020b6e6:	fcf42e23          	sw	a5,-36(s0)
ffffffc05020b6ea:	fdc42783          	lw	a5,-36(s0)
ffffffc05020b6ee:	0007871b          	sext.w	a4,a5
ffffffc05020b6f2:	06400793          	li	a5,100
ffffffc05020b6f6:	02f707bb          	mulw	a5,a4,a5
ffffffc05020b6fa:	2781                	sext.w	a5,a5
ffffffc05020b6fc:	fef42623          	sw	a5,-20(s0)
ffffffc05020b700:	fec42783          	lw	a5,-20(s0)
ffffffc05020b704:	41f7d71b          	sraiw	a4,a5,0x1f
ffffffc05020b708:	0177571b          	srliw	a4,a4,0x17
ffffffc05020b70c:	9fb9                	addw	a5,a5,a4
ffffffc05020b70e:	4097d79b          	sraiw	a5,a5,0x9
ffffffc05020b712:	2781                	sext.w	a5,a5
ffffffc05020b714:	853e                	mv	a0,a5
ffffffc05020b716:	7422                	ld	s0,40(sp)
ffffffc05020b718:	6145                	addi	sp,sp,48
ffffffc05020b71a:	8082                	ret

ffffffc05020b71c <rw_inode>:
ffffffc05020b71c:	7179                	addi	sp,sp,-48
ffffffc05020b71e:	f406                	sd	ra,40(sp)
ffffffc05020b720:	f022                	sd	s0,32(sp)
ffffffc05020b722:	1800                	addi	s0,sp,48
ffffffc05020b724:	87aa                	mv	a5,a0
ffffffc05020b726:	fcb43823          	sd	a1,-48(s0)
ffffffc05020b72a:	fcf42e23          	sw	a5,-36(s0)
ffffffc05020b72e:	fdc42783          	lw	a5,-36(s0)
ffffffc05020b732:	853e                	mv	a0,a5
ffffffc05020b734:	fabff0ef          	jal	ra,ffffffc05020b6de <get_inode_block>
ffffffc05020b738:	87aa                	mv	a5,a0
ffffffc05020b73a:	fef42623          	sw	a5,-20(s0)
ffffffc05020b73e:	fdc42783          	lw	a5,-36(s0)
ffffffc05020b742:	853e                	mv	a0,a5
ffffffc05020b744:	f59ff0ef          	jal	ra,ffffffc05020b69c <get_inode_offset>
ffffffc05020b748:	87aa                	mv	a5,a0
ffffffc05020b74a:	fef42423          	sw	a5,-24(s0)
ffffffc05020b74e:	fd043503          	ld	a0,-48(s0)
ffffffc05020b752:	9f9fd0ef          	jal	ra,ffffffc05020914a <kva2pa>
ffffffc05020b756:	87aa                	mv	a5,a0
ffffffc05020b758:	0007869b          	sext.w	a3,a5
ffffffc05020b75c:	fec42703          	lw	a4,-20(s0)
ffffffc05020b760:	001007b7          	lui	a5,0x100
ffffffc05020b764:	0227879b          	addiw	a5,a5,34
ffffffc05020b768:	9fb9                	addw	a5,a5,a4
ffffffc05020b76a:	2781                	sext.w	a5,a5
ffffffc05020b76c:	2781                	sext.w	a5,a5
ffffffc05020b76e:	863e                	mv	a2,a5
ffffffc05020b770:	4589                	li	a1,2
ffffffc05020b772:	8536                	mv	a0,a3
ffffffc05020b774:	a5bfd0ef          	jal	ra,ffffffc0502091ce <bios_sdread>
ffffffc05020b778:	fe842703          	lw	a4,-24(s0)
ffffffc05020b77c:	fd043783          	ld	a5,-48(s0)
ffffffc05020b780:	97ba                	add	a5,a5,a4
ffffffc05020b782:	853e                	mv	a0,a5
ffffffc05020b784:	70a2                	ld	ra,40(sp)
ffffffc05020b786:	7402                	ld	s0,32(sp)
ffffffc05020b788:	6145                	addi	sp,sp,48
ffffffc05020b78a:	8082                	ret

ffffffc05020b78c <is_file>:
ffffffc05020b78c:	7139                	addi	sp,sp,-64
ffffffc05020b78e:	fc06                	sd	ra,56(sp)
ffffffc05020b790:	f822                	sd	s0,48(sp)
ffffffc05020b792:	0080                	addi	s0,sp,64
ffffffc05020b794:	87aa                	mv	a5,a0
ffffffc05020b796:	fcf42623          	sw	a5,-52(s0)
ffffffc05020b79a:	eadfe0ef          	jal	ra,ffffffc05020a646 <alloc_addr>
ffffffc05020b79e:	fea43423          	sd	a0,-24(s0)
ffffffc05020b7a2:	fcc42783          	lw	a5,-52(s0)
ffffffc05020b7a6:	fe843583          	ld	a1,-24(s0)
ffffffc05020b7aa:	853e                	mv	a0,a5
ffffffc05020b7ac:	f71ff0ef          	jal	ra,ffffffc05020b71c <rw_inode>
ffffffc05020b7b0:	fea43023          	sd	a0,-32(s0)
ffffffc05020b7b4:	fe043783          	ld	a5,-32(s0)
ffffffc05020b7b8:	fcf43c23          	sd	a5,-40(s0)
ffffffc05020b7bc:	fd843783          	ld	a5,-40(s0)
ffffffc05020b7c0:	439c                	lw	a5,0(a5)
ffffffc05020b7c2:	873e                	mv	a4,a5
ffffffc05020b7c4:	4785                	li	a5,1
ffffffc05020b7c6:	40f707b3          	sub	a5,a4,a5
ffffffc05020b7ca:	0017b793          	seqz	a5,a5
ffffffc05020b7ce:	0ff7f793          	andi	a5,a5,255
ffffffc05020b7d2:	fcf42a23          	sw	a5,-44(s0)
ffffffc05020b7d6:	fe843503          	ld	a0,-24(s0)
ffffffc05020b7da:	f19fe0ef          	jal	ra,ffffffc05020a6f2 <free_addr>
ffffffc05020b7de:	fd442783          	lw	a5,-44(s0)
ffffffc05020b7e2:	853e                	mv	a0,a5
ffffffc05020b7e4:	70e2                	ld	ra,56(sp)
ffffffc05020b7e6:	7442                	ld	s0,48(sp)
ffffffc05020b7e8:	6121                	addi	sp,sp,64
ffffffc05020b7ea:	8082                	ret

ffffffc05020b7ec <remove_file>:
ffffffc05020b7ec:	7159                	addi	sp,sp,-112
ffffffc05020b7ee:	f486                	sd	ra,104(sp)
ffffffc05020b7f0:	f0a2                	sd	s0,96(sp)
ffffffc05020b7f2:	1880                	addi	s0,sp,112
ffffffc05020b7f4:	f8a43c23          	sd	a0,-104(s0)
ffffffc05020b7f8:	e4ffe0ef          	jal	ra,ffffffc05020a646 <alloc_addr>
ffffffc05020b7fc:	fea43023          	sd	a0,-32(s0)
ffffffc05020b800:	0004e797          	auipc	a5,0x4e
ffffffc05020b804:	a5c78793          	addi	a5,a5,-1444 # ffffffc05025925c <currentfile>
ffffffc05020b808:	439c                	lw	a5,0(a5)
ffffffc05020b80a:	fe043583          	ld	a1,-32(s0)
ffffffc05020b80e:	853e                	mv	a0,a5
ffffffc05020b810:	f0dff0ef          	jal	ra,ffffffc05020b71c <rw_inode>
ffffffc05020b814:	fca43c23          	sd	a0,-40(s0)
ffffffc05020b818:	fd843783          	ld	a5,-40(s0)
ffffffc05020b81c:	fcf43823          	sd	a5,-48(s0)
ffffffc05020b820:	fd043783          	ld	a5,-48(s0)
ffffffc05020b824:	4bdc                	lw	a5,20(a5)
ffffffc05020b826:	fcf42623          	sw	a5,-52(s0)
ffffffc05020b82a:	fe043503          	ld	a0,-32(s0)
ffffffc05020b82e:	ec5fe0ef          	jal	ra,ffffffc05020a6f2 <free_addr>
ffffffc05020b832:	e15fe0ef          	jal	ra,ffffffc05020a646 <alloc_addr>
ffffffc05020b836:	fea43023          	sd	a0,-32(s0)
ffffffc05020b83a:	fe043503          	ld	a0,-32(s0)
ffffffc05020b83e:	90dfd0ef          	jal	ra,ffffffc05020914a <kva2pa>
ffffffc05020b842:	87aa                	mv	a5,a0
ffffffc05020b844:	0007869b          	sext.w	a3,a5
ffffffc05020b848:	fcc42703          	lw	a4,-52(s0)
ffffffc05020b84c:	001017b7          	lui	a5,0x101
ffffffc05020b850:	8227879b          	addiw	a5,a5,-2014
ffffffc05020b854:	9fb9                	addw	a5,a5,a4
ffffffc05020b856:	2781                	sext.w	a5,a5
ffffffc05020b858:	2781                	sext.w	a5,a5
ffffffc05020b85a:	863e                	mv	a2,a5
ffffffc05020b85c:	4585                	li	a1,1
ffffffc05020b85e:	8536                	mv	a0,a3
ffffffc05020b860:	96ffd0ef          	jal	ra,ffffffc0502091ce <bios_sdread>
ffffffc05020b864:	fe043783          	ld	a5,-32(s0)
ffffffc05020b868:	fcf43023          	sd	a5,-64(s0)
ffffffc05020b86c:	fe042623          	sw	zero,-20(s0)
ffffffc05020b870:	a8d1                	j	ffffffc05020b944 <remove_file+0x158>
ffffffc05020b872:	fec42783          	lw	a5,-20(s0)
ffffffc05020b876:	0791                	addi	a5,a5,4
ffffffc05020b878:	0792                	slli	a5,a5,0x4
ffffffc05020b87a:	fc043703          	ld	a4,-64(s0)
ffffffc05020b87e:	97ba                	add	a5,a5,a4
ffffffc05020b880:	f9843583          	ld	a1,-104(s0)
ffffffc05020b884:	853e                	mv	a0,a5
ffffffc05020b886:	5d3000ef          	jal	ra,ffffffc05020c658 <strcmp>
ffffffc05020b88a:	87aa                	mv	a5,a0
ffffffc05020b88c:	e7dd                	bnez	a5,ffffffc05020b93a <remove_file+0x14e>
ffffffc05020b88e:	fc043703          	ld	a4,-64(s0)
ffffffc05020b892:	fec42783          	lw	a5,-20(s0)
ffffffc05020b896:	078a                	slli	a5,a5,0x2
ffffffc05020b898:	97ba                	add	a5,a5,a4
ffffffc05020b89a:	439c                	lw	a5,0(a5)
ffffffc05020b89c:	853e                	mv	a0,a5
ffffffc05020b89e:	eefff0ef          	jal	ra,ffffffc05020b78c <is_file>
ffffffc05020b8a2:	87aa                	mv	a5,a0
ffffffc05020b8a4:	cbd9                	beqz	a5,ffffffc05020b93a <remove_file+0x14e>
ffffffc05020b8a6:	fc043703          	ld	a4,-64(s0)
ffffffc05020b8aa:	fec42783          	lw	a5,-20(s0)
ffffffc05020b8ae:	078a                	slli	a5,a5,0x2
ffffffc05020b8b0:	97ba                	add	a5,a5,a4
ffffffc05020b8b2:	439c                	lw	a5,0(a5)
ffffffc05020b8b4:	faf42e23          	sw	a5,-68(s0)
ffffffc05020b8b8:	fc043703          	ld	a4,-64(s0)
ffffffc05020b8bc:	fec42783          	lw	a5,-20(s0)
ffffffc05020b8c0:	078a                	slli	a5,a5,0x2
ffffffc05020b8c2:	97ba                	add	a5,a5,a4
ffffffc05020b8c4:	577d                	li	a4,-1
ffffffc05020b8c6:	c398                	sw	a4,0(a5)
ffffffc05020b8c8:	fe043503          	ld	a0,-32(s0)
ffffffc05020b8cc:	87ffd0ef          	jal	ra,ffffffc05020914a <kva2pa>
ffffffc05020b8d0:	87aa                	mv	a5,a0
ffffffc05020b8d2:	0007869b          	sext.w	a3,a5
ffffffc05020b8d6:	fcc42703          	lw	a4,-52(s0)
ffffffc05020b8da:	001017b7          	lui	a5,0x101
ffffffc05020b8de:	8227879b          	addiw	a5,a5,-2014
ffffffc05020b8e2:	9fb9                	addw	a5,a5,a4
ffffffc05020b8e4:	2781                	sext.w	a5,a5
ffffffc05020b8e6:	2781                	sext.w	a5,a5
ffffffc05020b8e8:	863e                	mv	a2,a5
ffffffc05020b8ea:	4585                	li	a1,1
ffffffc05020b8ec:	8536                	mv	a0,a3
ffffffc05020b8ee:	923fd0ef          	jal	ra,ffffffc050209210 <bios_sdwrite>
ffffffc05020b8f2:	fe043503          	ld	a0,-32(s0)
ffffffc05020b8f6:	dfdfe0ef          	jal	ra,ffffffc05020a6f2 <free_addr>
ffffffc05020b8fa:	d4dfe0ef          	jal	ra,ffffffc05020a646 <alloc_addr>
ffffffc05020b8fe:	fea43023          	sd	a0,-32(s0)
ffffffc05020b902:	fbc42783          	lw	a5,-68(s0)
ffffffc05020b906:	fe043583          	ld	a1,-32(s0)
ffffffc05020b90a:	853e                	mv	a0,a5
ffffffc05020b90c:	e11ff0ef          	jal	ra,ffffffc05020b71c <rw_inode>
ffffffc05020b910:	faa43823          	sd	a0,-80(s0)
ffffffc05020b914:	fb043783          	ld	a5,-80(s0)
ffffffc05020b918:	faf43423          	sd	a5,-88(s0)
ffffffc05020b91c:	fa843783          	ld	a5,-88(s0)
ffffffc05020b920:	53bc                	lw	a5,96(a5)
ffffffc05020b922:	37fd                	addiw	a5,a5,-1
ffffffc05020b924:	0007871b          	sext.w	a4,a5
ffffffc05020b928:	fa843783          	ld	a5,-88(s0)
ffffffc05020b92c:	d3b8                	sw	a4,96(a5)
ffffffc05020b92e:	fe043503          	ld	a0,-32(s0)
ffffffc05020b932:	dc1fe0ef          	jal	ra,ffffffc05020a6f2 <free_addr>
ffffffc05020b936:	4781                	li	a5,0
ffffffc05020b938:	a015                	j	ffffffc05020b95c <remove_file+0x170>
ffffffc05020b93a:	fec42783          	lw	a5,-20(s0)
ffffffc05020b93e:	2785                	addiw	a5,a5,1
ffffffc05020b940:	fef42623          	sw	a5,-20(s0)
ffffffc05020b944:	fec42783          	lw	a5,-20(s0)
ffffffc05020b948:	0007871b          	sext.w	a4,a5
ffffffc05020b94c:	47bd                	li	a5,15
ffffffc05020b94e:	f2e7d2e3          	bge	a5,a4,ffffffc05020b872 <remove_file+0x86>
ffffffc05020b952:	fe043503          	ld	a0,-32(s0)
ffffffc05020b956:	d9dfe0ef          	jal	ra,ffffffc05020a6f2 <free_addr>
ffffffc05020b95a:	57fd                	li	a5,-1
ffffffc05020b95c:	853e                	mv	a0,a5
ffffffc05020b95e:	70a6                	ld	ra,104(sp)
ffffffc05020b960:	7406                	ld	s0,96(sp)
ffffffc05020b962:	6165                	addi	sp,sp,112
ffffffc05020b964:	8082                	ret

ffffffc05020b966 <free_inode>:
ffffffc05020b966:	1101                	addi	sp,sp,-32
ffffffc05020b968:	ec22                	sd	s0,24(sp)
ffffffc05020b96a:	1000                	addi	s0,sp,32
ffffffc05020b96c:	87aa                	mv	a5,a0
ffffffc05020b96e:	fef42623          	sw	a5,-20(s0)
ffffffc05020b972:	0001                	nop
ffffffc05020b974:	853e                	mv	a0,a5
ffffffc05020b976:	6462                	ld	s0,24(sp)
ffffffc05020b978:	6105                	addi	sp,sp,32
ffffffc05020b97a:	8082                	ret

ffffffc05020b97c <free_data>:
ffffffc05020b97c:	1101                	addi	sp,sp,-32
ffffffc05020b97e:	ec22                	sd	s0,24(sp)
ffffffc05020b980:	1000                	addi	s0,sp,32
ffffffc05020b982:	87aa                	mv	a5,a0
ffffffc05020b984:	fef42623          	sw	a5,-20(s0)
ffffffc05020b988:	0001                	nop
ffffffc05020b98a:	853e                	mv	a0,a5
ffffffc05020b98c:	6462                	ld	s0,24(sp)
ffffffc05020b98e:	6105                	addi	sp,sp,32
ffffffc05020b990:	8082                	ret

ffffffc05020b992 <loc_datablock>:
ffffffc05020b992:	1101                	addi	sp,sp,-32
ffffffc05020b994:	ec22                	sd	s0,24(sp)
ffffffc05020b996:	1000                	addi	s0,sp,32
ffffffc05020b998:	87aa                	mv	a5,a0
ffffffc05020b99a:	fef42623          	sw	a5,-20(s0)
ffffffc05020b99e:	fec42783          	lw	a5,-20(s0)
ffffffc05020b9a2:	41f7d71b          	sraiw	a4,a5,0x1f
ffffffc05020b9a6:	0147571b          	srliw	a4,a4,0x14
ffffffc05020b9aa:	9fb9                	addw	a5,a5,a4
ffffffc05020b9ac:	40c7d79b          	sraiw	a5,a5,0xc
ffffffc05020b9b0:	2781                	sext.w	a5,a5
ffffffc05020b9b2:	853e                	mv	a0,a5
ffffffc05020b9b4:	6462                	ld	s0,24(sp)
ffffffc05020b9b6:	6105                	addi	sp,sp,32
ffffffc05020b9b8:	8082                	ret

ffffffc05020b9ba <do_clearSD>:
ffffffc05020b9ba:	1101                	addi	sp,sp,-32
ffffffc05020b9bc:	ec06                	sd	ra,24(sp)
ffffffc05020b9be:	e822                	sd	s0,16(sp)
ffffffc05020b9c0:	1000                	addi	s0,sp,32
ffffffc05020b9c2:	c85fe0ef          	jal	ra,ffffffc05020a646 <alloc_addr>
ffffffc05020b9c6:	fea43023          	sd	a0,-32(s0)
ffffffc05020b9ca:	001007b7          	lui	a5,0x100
ffffffc05020b9ce:	fef42623          	sw	a5,-20(s0)
ffffffc05020b9d2:	a015                	j	ffffffc05020b9f6 <do_clearSD+0x3c>
ffffffc05020b9d4:	fe043783          	ld	a5,-32(s0)
ffffffc05020b9d8:	2781                	sext.w	a5,a5
ffffffc05020b9da:	fec42703          	lw	a4,-20(s0)
ffffffc05020b9de:	863a                	mv	a2,a4
ffffffc05020b9e0:	04000593          	li	a1,64
ffffffc05020b9e4:	853e                	mv	a0,a5
ffffffc05020b9e6:	82bfd0ef          	jal	ra,ffffffc050209210 <bios_sdwrite>
ffffffc05020b9ea:	fec42783          	lw	a5,-20(s0)
ffffffc05020b9ee:	0407879b          	addiw	a5,a5,64
ffffffc05020b9f2:	fef42623          	sw	a5,-20(s0)
ffffffc05020b9f6:	fec42783          	lw	a5,-20(s0)
ffffffc05020b9fa:	0007871b          	sext.w	a4,a5
ffffffc05020b9fe:	002007b7          	lui	a5,0x200
ffffffc05020ba02:	fcf749e3          	blt	a4,a5,ffffffc05020b9d4 <do_clearSD+0x1a>
ffffffc05020ba06:	fe043503          	ld	a0,-32(s0)
ffffffc05020ba0a:	ce9fe0ef          	jal	ra,ffffffc05020a6f2 <free_addr>
ffffffc05020ba0e:	0001                	nop
ffffffc05020ba10:	60e2                	ld	ra,24(sp)
ffffffc05020ba12:	6442                	ld	s0,16(sp)
ffffffc05020ba14:	6105                	addi	sp,sp,32
ffffffc05020ba16:	8082                	ret

ffffffc05020ba18 <handle_syscall>:
ffffffc05020ba18:	711d                	addi	sp,sp,-96
ffffffc05020ba1a:	ec86                	sd	ra,88(sp)
ffffffc05020ba1c:	e8a2                	sd	s0,80(sp)
ffffffc05020ba1e:	1080                	addi	s0,sp,96
ffffffc05020ba20:	faa43c23          	sd	a0,-72(s0)
ffffffc05020ba24:	fab43823          	sd	a1,-80(s0)
ffffffc05020ba28:	fac43423          	sd	a2,-88(s0)
ffffffc05020ba2c:	fb843783          	ld	a5,-72(s0)
ffffffc05020ba30:	67dc                	ld	a5,136(a5)
ffffffc05020ba32:	fef43423          	sd	a5,-24(s0)
ffffffc05020ba36:	fb843783          	ld	a5,-72(s0)
ffffffc05020ba3a:	6bbc                	ld	a5,80(a5)
ffffffc05020ba3c:	fef43023          	sd	a5,-32(s0)
ffffffc05020ba40:	fb843783          	ld	a5,-72(s0)
ffffffc05020ba44:	6fbc                	ld	a5,88(a5)
ffffffc05020ba46:	fcf43c23          	sd	a5,-40(s0)
ffffffc05020ba4a:	fb843783          	ld	a5,-72(s0)
ffffffc05020ba4e:	73bc                	ld	a5,96(a5)
ffffffc05020ba50:	fcf43823          	sd	a5,-48(s0)
ffffffc05020ba54:	fb843783          	ld	a5,-72(s0)
ffffffc05020ba58:	77bc                	ld	a5,104(a5)
ffffffc05020ba5a:	fcf43423          	sd	a5,-56(s0)
ffffffc05020ba5e:	fb843783          	ld	a5,-72(s0)
ffffffc05020ba62:	7bbc                	ld	a5,112(a5)
ffffffc05020ba64:	fcf43023          	sd	a5,-64(s0)
ffffffc05020ba68:	00053717          	auipc	a4,0x53
ffffffc05020ba6c:	d7070713          	addi	a4,a4,-656 # ffffffc05025e7d8 <syscall>
ffffffc05020ba70:	fe843783          	ld	a5,-24(s0)
ffffffc05020ba74:	078e                	slli	a5,a5,0x3
ffffffc05020ba76:	97ba                	add	a5,a5,a4
ffffffc05020ba78:	639c                	ld	a5,0(a5)
ffffffc05020ba7a:	fc043703          	ld	a4,-64(s0)
ffffffc05020ba7e:	fc843683          	ld	a3,-56(s0)
ffffffc05020ba82:	fd043603          	ld	a2,-48(s0)
ffffffc05020ba86:	fd843583          	ld	a1,-40(s0)
ffffffc05020ba8a:	fe043503          	ld	a0,-32(s0)
ffffffc05020ba8e:	9782                	jalr	a5
ffffffc05020ba90:	87aa                	mv	a5,a0
ffffffc05020ba92:	873e                	mv	a4,a5
ffffffc05020ba94:	fb843783          	ld	a5,-72(s0)
ffffffc05020ba98:	ebb8                	sd	a4,80(a5)
ffffffc05020ba9a:	fb843783          	ld	a5,-72(s0)
ffffffc05020ba9e:	1087b783          	ld	a5,264(a5) # 200108 <boot_stack_top_base-0x50001ef8>
ffffffc05020baa2:	00478713          	addi	a4,a5,4
ffffffc05020baa6:	fb843783          	ld	a5,-72(s0)
ffffffc05020baaa:	10e7b423          	sd	a4,264(a5)
ffffffc05020baae:	0001                	nop
ffffffc05020bab0:	60e6                	ld	ra,88(sp)
ffffffc05020bab2:	6446                	ld	s0,80(sp)
ffffffc05020bab4:	6125                	addi	sp,sp,96
ffffffc05020bab6:	8082                	ret

ffffffc05020bab8 <do_net_send>:
ffffffc05020bab8:	7179                	addi	sp,sp,-48
ffffffc05020baba:	f406                	sd	ra,40(sp)
ffffffc05020babc:	f022                	sd	s0,32(sp)
ffffffc05020babe:	1800                	addi	s0,sp,48
ffffffc05020bac0:	fca43c23          	sd	a0,-40(s0)
ffffffc05020bac4:	87ae                	mv	a5,a1
ffffffc05020bac6:	fcf42a23          	sw	a5,-44(s0)
ffffffc05020baca:	fd442783          	lw	a5,-44(s0)
ffffffc05020bace:	85be                	mv	a1,a5
ffffffc05020bad0:	fd843503          	ld	a0,-40(s0)
ffffffc05020bad4:	e98f80ef          	jal	ra,ffffffc05020416c <e1000_transmit>
ffffffc05020bad8:	87aa                	mv	a5,a0
ffffffc05020bada:	fef42623          	sw	a5,-20(s0)
ffffffc05020bade:	fec42783          	lw	a5,-20(s0)
ffffffc05020bae2:	853e                	mv	a0,a5
ffffffc05020bae4:	70a2                	ld	ra,40(sp)
ffffffc05020bae6:	7402                	ld	s0,32(sp)
ffffffc05020bae8:	6145                	addi	sp,sp,48
ffffffc05020baea:	8082                	ret

ffffffc05020baec <do_net_recv>:
ffffffc05020baec:	711d                	addi	sp,sp,-96
ffffffc05020baee:	ec86                	sd	ra,88(sp)
ffffffc05020baf0:	e8a2                	sd	s0,80(sp)
ffffffc05020baf2:	e4a6                	sd	s1,72(sp)
ffffffc05020baf4:	1080                	addi	s0,sp,96
ffffffc05020baf6:	faa43c23          	sd	a0,-72(s0)
ffffffc05020bafa:	87ae                	mv	a5,a1
ffffffc05020bafc:	fac43423          	sd	a2,-88(s0)
ffffffc05020bb00:	faf42a23          	sw	a5,-76(s0)
ffffffc05020bb04:	fc042e23          	sw	zero,-36(s0)
ffffffc05020bb08:	fb843783          	ld	a5,-72(s0)
ffffffc05020bb0c:	fcf43823          	sd	a5,-48(s0)
ffffffc05020bb10:	fc042623          	sw	zero,-52(s0)
ffffffc05020bb14:	a8a1                	j	ffffffc05020bb6c <do_net_recv+0x80>
ffffffc05020bb16:	fcc42783          	lw	a5,-52(s0)
ffffffc05020bb1a:	078a                	slli	a5,a5,0x2
ffffffc05020bb1c:	fa843703          	ld	a4,-88(s0)
ffffffc05020bb20:	00f704b3          	add	s1,a4,a5
ffffffc05020bb24:	fd043503          	ld	a0,-48(s0)
ffffffc05020bb28:	fb2f80ef          	jal	ra,ffffffc0502042da <e1000_poll>
ffffffc05020bb2c:	87aa                	mv	a5,a0
ffffffc05020bb2e:	c09c                	sw	a5,0(s1)
ffffffc05020bb30:	fcc42783          	lw	a5,-52(s0)
ffffffc05020bb34:	078a                	slli	a5,a5,0x2
ffffffc05020bb36:	fa843703          	ld	a4,-88(s0)
ffffffc05020bb3a:	97ba                	add	a5,a5,a4
ffffffc05020bb3c:	439c                	lw	a5,0(a5)
ffffffc05020bb3e:	fdc42703          	lw	a4,-36(s0)
ffffffc05020bb42:	9fb9                	addw	a5,a5,a4
ffffffc05020bb44:	fcf42e23          	sw	a5,-36(s0)
ffffffc05020bb48:	fcc42783          	lw	a5,-52(s0)
ffffffc05020bb4c:	078a                	slli	a5,a5,0x2
ffffffc05020bb4e:	fa843703          	ld	a4,-88(s0)
ffffffc05020bb52:	97ba                	add	a5,a5,a4
ffffffc05020bb54:	439c                	lw	a5,0(a5)
ffffffc05020bb56:	873e                	mv	a4,a5
ffffffc05020bb58:	fd043783          	ld	a5,-48(s0)
ffffffc05020bb5c:	97ba                	add	a5,a5,a4
ffffffc05020bb5e:	fcf43823          	sd	a5,-48(s0)
ffffffc05020bb62:	fcc42783          	lw	a5,-52(s0)
ffffffc05020bb66:	2785                	addiw	a5,a5,1
ffffffc05020bb68:	fcf42623          	sw	a5,-52(s0)
ffffffc05020bb6c:	fcc42703          	lw	a4,-52(s0)
ffffffc05020bb70:	fb442783          	lw	a5,-76(s0)
ffffffc05020bb74:	2701                	sext.w	a4,a4
ffffffc05020bb76:	2781                	sext.w	a5,a5
ffffffc05020bb78:	f8f74fe3          	blt	a4,a5,ffffffc05020bb16 <do_net_recv+0x2a>
ffffffc05020bb7c:	fdc42783          	lw	a5,-36(s0)
ffffffc05020bb80:	853e                	mv	a0,a5
ffffffc05020bb82:	60e6                	ld	ra,88(sp)
ffffffc05020bb84:	6446                	ld	s0,80(sp)
ffffffc05020bb86:	64a6                	ld	s1,72(sp)
ffffffc05020bb88:	6125                	addi	sp,sp,96
ffffffc05020bb8a:	8082                	ret

ffffffc05020bb8c <net_handle_irq>:
ffffffc05020bb8c:	1141                	addi	sp,sp,-16
ffffffc05020bb8e:	e422                	sd	s0,8(sp)
ffffffc05020bb90:	0800                	addi	s0,sp,16
ffffffc05020bb92:	0001                	nop
ffffffc05020bb94:	6422                	ld	s0,8(sp)
ffffffc05020bb96:	0141                	addi	sp,sp,16
ffffffc05020bb98:	8082                	ret

ffffffc05020bb9a <kva2pa>:
ffffffc05020bb9a:	7179                	addi	sp,sp,-48
ffffffc05020bb9c:	f422                	sd	s0,40(sp)
ffffffc05020bb9e:	1800                	addi	s0,sp,48
ffffffc05020bba0:	fca43c23          	sd	a0,-40(s0)
ffffffc05020bba4:	57fd                	li	a5,-1
ffffffc05020bba6:	9381                	srli	a5,a5,0x20
ffffffc05020bba8:	fef43423          	sd	a5,-24(s0)
ffffffc05020bbac:	fd843703          	ld	a4,-40(s0)
ffffffc05020bbb0:	fe843783          	ld	a5,-24(s0)
ffffffc05020bbb4:	8ff9                	and	a5,a5,a4
ffffffc05020bbb6:	fef43023          	sd	a5,-32(s0)
ffffffc05020bbba:	fe043783          	ld	a5,-32(s0)
ffffffc05020bbbe:	853e                	mv	a0,a5
ffffffc05020bbc0:	7422                	ld	s0,40(sp)
ffffffc05020bbc2:	6145                	addi	sp,sp,48
ffffffc05020bbc4:	8082                	ret

ffffffc05020bbc6 <call_jmptab>:
ffffffc05020bbc6:	7139                	addi	sp,sp,-64
ffffffc05020bbc8:	fc06                	sd	ra,56(sp)
ffffffc05020bbca:	f822                	sd	s0,48(sp)
ffffffc05020bbcc:	0080                	addi	s0,sp,64
ffffffc05020bbce:	fca43c23          	sd	a0,-40(s0)
ffffffc05020bbd2:	fcb43823          	sd	a1,-48(s0)
ffffffc05020bbd6:	fcc43423          	sd	a2,-56(s0)
ffffffc05020bbda:	fcd43023          	sd	a3,-64(s0)
ffffffc05020bbde:	fd843783          	ld	a5,-40(s0)
ffffffc05020bbe2:	00379713          	slli	a4,a5,0x3
ffffffc05020bbe6:	fe0297b7          	lui	a5,0xfe029
ffffffc05020bbea:	07b6                	slli	a5,a5,0xd
ffffffc05020bbec:	f0078793          	addi	a5,a5,-256 # fffffffffe028f00 <__BSS_END__+0x3faddca428>
ffffffc05020bbf0:	97ba                	add	a5,a5,a4
ffffffc05020bbf2:	639c                	ld	a5,0(a5)
ffffffc05020bbf4:	fef43423          	sd	a5,-24(s0)
ffffffc05020bbf8:	fe843783          	ld	a5,-24(s0)
ffffffc05020bbfc:	fef43023          	sd	a5,-32(s0)
ffffffc05020bc00:	fe043783          	ld	a5,-32(s0)
ffffffc05020bc04:	fc043603          	ld	a2,-64(s0)
ffffffc05020bc08:	fc843583          	ld	a1,-56(s0)
ffffffc05020bc0c:	fd043503          	ld	a0,-48(s0)
ffffffc05020bc10:	9782                	jalr	a5
ffffffc05020bc12:	87aa                	mv	a5,a0
ffffffc05020bc14:	853e                	mv	a0,a5
ffffffc05020bc16:	70e2                	ld	ra,56(sp)
ffffffc05020bc18:	7442                	ld	s0,48(sp)
ffffffc05020bc1a:	6121                	addi	sp,sp,64
ffffffc05020bc1c:	8082                	ret

ffffffc05020bc1e <bios_putstr>:
ffffffc05020bc1e:	1101                	addi	sp,sp,-32
ffffffc05020bc20:	ec06                	sd	ra,24(sp)
ffffffc05020bc22:	e822                	sd	s0,16(sp)
ffffffc05020bc24:	1000                	addi	s0,sp,32
ffffffc05020bc26:	fea43423          	sd	a0,-24(s0)
ffffffc05020bc2a:	fe843783          	ld	a5,-24(s0)
ffffffc05020bc2e:	853e                	mv	a0,a5
ffffffc05020bc30:	f6bff0ef          	jal	ra,ffffffc05020bb9a <kva2pa>
ffffffc05020bc34:	87aa                	mv	a5,a0
ffffffc05020bc36:	4681                	li	a3,0
ffffffc05020bc38:	4601                	li	a2,0
ffffffc05020bc3a:	85be                	mv	a1,a5
ffffffc05020bc3c:	4501                	li	a0,0
ffffffc05020bc3e:	f89ff0ef          	jal	ra,ffffffc05020bbc6 <call_jmptab>
ffffffc05020bc42:	0001                	nop
ffffffc05020bc44:	60e2                	ld	ra,24(sp)
ffffffc05020bc46:	6442                	ld	s0,16(sp)
ffffffc05020bc48:	6105                	addi	sp,sp,32
ffffffc05020bc4a:	8082                	ret

ffffffc05020bc4c <bios_logging>:
ffffffc05020bc4c:	1101                	addi	sp,sp,-32
ffffffc05020bc4e:	ec06                	sd	ra,24(sp)
ffffffc05020bc50:	e822                	sd	s0,16(sp)
ffffffc05020bc52:	1000                	addi	s0,sp,32
ffffffc05020bc54:	fea43423          	sd	a0,-24(s0)
ffffffc05020bc58:	fe843783          	ld	a5,-24(s0)
ffffffc05020bc5c:	853e                	mv	a0,a5
ffffffc05020bc5e:	f3dff0ef          	jal	ra,ffffffc05020bb9a <kva2pa>
ffffffc05020bc62:	87aa                	mv	a5,a0
ffffffc05020bc64:	4681                	li	a3,0
ffffffc05020bc66:	4601                	li	a2,0
ffffffc05020bc68:	85be                	mv	a1,a5
ffffffc05020bc6a:	4515                	li	a0,5
ffffffc05020bc6c:	f5bff0ef          	jal	ra,ffffffc05020bbc6 <call_jmptab>
ffffffc05020bc70:	0001                	nop
ffffffc05020bc72:	60e2                	ld	ra,24(sp)
ffffffc05020bc74:	6442                	ld	s0,16(sp)
ffffffc05020bc76:	6105                	addi	sp,sp,32
ffffffc05020bc78:	8082                	ret

ffffffc05020bc7a <mini_strlen>:
ffffffc05020bc7a:	7179                	addi	sp,sp,-48
ffffffc05020bc7c:	f422                	sd	s0,40(sp)
ffffffc05020bc7e:	1800                	addi	s0,sp,48
ffffffc05020bc80:	fca43c23          	sd	a0,-40(s0)
ffffffc05020bc84:	fe042623          	sw	zero,-20(s0)
ffffffc05020bc88:	a031                	j	ffffffc05020bc94 <mini_strlen+0x1a>
ffffffc05020bc8a:	fec42783          	lw	a5,-20(s0)
ffffffc05020bc8e:	2785                	addiw	a5,a5,1
ffffffc05020bc90:	fef42623          	sw	a5,-20(s0)
ffffffc05020bc94:	fec46783          	lwu	a5,-20(s0)
ffffffc05020bc98:	fd843703          	ld	a4,-40(s0)
ffffffc05020bc9c:	97ba                	add	a5,a5,a4
ffffffc05020bc9e:	0007c783          	lbu	a5,0(a5)
ffffffc05020bca2:	f7e5                	bnez	a5,ffffffc05020bc8a <mini_strlen+0x10>
ffffffc05020bca4:	fec42783          	lw	a5,-20(s0)
ffffffc05020bca8:	853e                	mv	a0,a5
ffffffc05020bcaa:	7422                	ld	s0,40(sp)
ffffffc05020bcac:	6145                	addi	sp,sp,48
ffffffc05020bcae:	8082                	ret

ffffffc05020bcb0 <mini_itoa>:
ffffffc05020bcb0:	715d                	addi	sp,sp,-80
ffffffc05020bcb2:	e4a2                	sd	s0,72(sp)
ffffffc05020bcb4:	0880                	addi	s0,sp,80
ffffffc05020bcb6:	fca43423          	sd	a0,-56(s0)
ffffffc05020bcba:	fae43823          	sd	a4,-80(s0)
ffffffc05020bcbe:	873e                	mv	a4,a5
ffffffc05020bcc0:	87ae                	mv	a5,a1
ffffffc05020bcc2:	fcf42223          	sw	a5,-60(s0)
ffffffc05020bcc6:	87b2                	mv	a5,a2
ffffffc05020bcc8:	fcf42023          	sw	a5,-64(s0)
ffffffc05020bccc:	87b6                	mv	a5,a3
ffffffc05020bcce:	faf42e23          	sw	a5,-68(s0)
ffffffc05020bcd2:	87ba                	mv	a5,a4
ffffffc05020bcd4:	faf42c23          	sw	a5,-72(s0)
ffffffc05020bcd8:	fb043783          	ld	a5,-80(s0)
ffffffc05020bcdc:	fef43423          	sd	a5,-24(s0)
ffffffc05020bce0:	fe042223          	sw	zero,-28(s0)
ffffffc05020bce4:	fc442783          	lw	a5,-60(s0)
ffffffc05020bce8:	0007871b          	sext.w	a4,a5
ffffffc05020bcec:	47c1                	li	a5,16
ffffffc05020bcee:	00e7f463          	bgeu	a5,a4,ffffffc05020bcf6 <mini_itoa+0x46>
ffffffc05020bcf2:	4781                	li	a5,0
ffffffc05020bcf4:	aae9                	j	ffffffc05020bece <mini_itoa+0x21e>
ffffffc05020bcf6:	fc843783          	ld	a5,-56(s0)
ffffffc05020bcfa:	0007df63          	bgez	a5,ffffffc05020bd18 <mini_itoa+0x68>
ffffffc05020bcfe:	fbc42783          	lw	a5,-68(s0)
ffffffc05020bd02:	2781                	sext.w	a5,a5
ffffffc05020bd04:	eb91                	bnez	a5,ffffffc05020bd18 <mini_itoa+0x68>
ffffffc05020bd06:	4785                	li	a5,1
ffffffc05020bd08:	fef42223          	sw	a5,-28(s0)
ffffffc05020bd0c:	fc843783          	ld	a5,-56(s0)
ffffffc05020bd10:	40f007b3          	neg	a5,a5
ffffffc05020bd14:	fcf43423          	sd	a5,-56(s0)
ffffffc05020bd18:	fc042e23          	sw	zero,-36(s0)
ffffffc05020bd1c:	fbc42783          	lw	a5,-68(s0)
ffffffc05020bd20:	2781                	sext.w	a5,a5
ffffffc05020bd22:	cb91                	beqz	a5,ffffffc05020bd36 <mini_itoa+0x86>
ffffffc05020bd24:	fc843703          	ld	a4,-56(s0)
ffffffc05020bd28:	fc446783          	lwu	a5,-60(s0)
ffffffc05020bd2c:	02f777b3          	remu	a5,a4,a5
ffffffc05020bd30:	fcf42e23          	sw	a5,-36(s0)
ffffffc05020bd34:	a809                	j	ffffffc05020bd46 <mini_itoa+0x96>
ffffffc05020bd36:	fc446783          	lwu	a5,-60(s0)
ffffffc05020bd3a:	fc843703          	ld	a4,-56(s0)
ffffffc05020bd3e:	02f767b3          	rem	a5,a4,a5
ffffffc05020bd42:	fcf42e23          	sw	a5,-36(s0)
ffffffc05020bd46:	fdc42783          	lw	a5,-36(s0)
ffffffc05020bd4a:	0007871b          	sext.w	a4,a5
ffffffc05020bd4e:	47a5                	li	a5,9
ffffffc05020bd50:	00e7cb63          	blt	a5,a4,ffffffc05020bd66 <mini_itoa+0xb6>
ffffffc05020bd54:	fdc42783          	lw	a5,-36(s0)
ffffffc05020bd58:	0ff7f793          	andi	a5,a5,255
ffffffc05020bd5c:	0307879b          	addiw	a5,a5,48
ffffffc05020bd60:	0ff7f713          	andi	a4,a5,255
ffffffc05020bd64:	a025                	j	ffffffc05020bd8c <mini_itoa+0xdc>
ffffffc05020bd66:	fc042783          	lw	a5,-64(s0)
ffffffc05020bd6a:	2781                	sext.w	a5,a5
ffffffc05020bd6c:	c781                	beqz	a5,ffffffc05020bd74 <mini_itoa+0xc4>
ffffffc05020bd6e:	04100793          	li	a5,65
ffffffc05020bd72:	a019                	j	ffffffc05020bd78 <mini_itoa+0xc8>
ffffffc05020bd74:	06100793          	li	a5,97
ffffffc05020bd78:	fdc42703          	lw	a4,-36(s0)
ffffffc05020bd7c:	0ff77713          	andi	a4,a4,255
ffffffc05020bd80:	9fb9                	addw	a5,a5,a4
ffffffc05020bd82:	0ff7f793          	andi	a5,a5,255
ffffffc05020bd86:	37d9                	addiw	a5,a5,-10
ffffffc05020bd88:	0ff7f713          	andi	a4,a5,255
ffffffc05020bd8c:	fe843783          	ld	a5,-24(s0)
ffffffc05020bd90:	00178693          	addi	a3,a5,1
ffffffc05020bd94:	fed43423          	sd	a3,-24(s0)
ffffffc05020bd98:	00e78023          	sb	a4,0(a5)
ffffffc05020bd9c:	fbc42783          	lw	a5,-68(s0)
ffffffc05020bda0:	2781                	sext.w	a5,a5
ffffffc05020bda2:	cb91                	beqz	a5,ffffffc05020bdb6 <mini_itoa+0x106>
ffffffc05020bda4:	fc843703          	ld	a4,-56(s0)
ffffffc05020bda8:	fc446783          	lwu	a5,-60(s0)
ffffffc05020bdac:	02f757b3          	divu	a5,a4,a5
ffffffc05020bdb0:	fcf43423          	sd	a5,-56(s0)
ffffffc05020bdb4:	a809                	j	ffffffc05020bdc6 <mini_itoa+0x116>
ffffffc05020bdb6:	fc446783          	lwu	a5,-60(s0)
ffffffc05020bdba:	fc843703          	ld	a4,-56(s0)
ffffffc05020bdbe:	02f747b3          	div	a5,a4,a5
ffffffc05020bdc2:	fcf43423          	sd	a5,-56(s0)
ffffffc05020bdc6:	fc843783          	ld	a5,-56(s0)
ffffffc05020bdca:	f7b9                	bnez	a5,ffffffc05020bd18 <mini_itoa+0x68>
ffffffc05020bdcc:	fe843703          	ld	a4,-24(s0)
ffffffc05020bdd0:	fb043783          	ld	a5,-80(s0)
ffffffc05020bdd4:	40f707b3          	sub	a5,a4,a5
ffffffc05020bdd8:	fef42023          	sw	a5,-32(s0)
ffffffc05020bddc:	a005                	j	ffffffc05020bdfc <mini_itoa+0x14c>
ffffffc05020bdde:	fe843783          	ld	a5,-24(s0)
ffffffc05020bde2:	00178713          	addi	a4,a5,1
ffffffc05020bde6:	fee43423          	sd	a4,-24(s0)
ffffffc05020bdea:	03000713          	li	a4,48
ffffffc05020bdee:	00e78023          	sb	a4,0(a5)
ffffffc05020bdf2:	fe042783          	lw	a5,-32(s0)
ffffffc05020bdf6:	2785                	addiw	a5,a5,1
ffffffc05020bdf8:	fef42023          	sw	a5,-32(s0)
ffffffc05020bdfc:	fe042703          	lw	a4,-32(s0)
ffffffc05020be00:	fb842783          	lw	a5,-72(s0)
ffffffc05020be04:	2701                	sext.w	a4,a4
ffffffc05020be06:	2781                	sext.w	a5,a5
ffffffc05020be08:	fcf76be3          	bltu	a4,a5,ffffffc05020bdde <mini_itoa+0x12e>
ffffffc05020be0c:	fe442783          	lw	a5,-28(s0)
ffffffc05020be10:	2781                	sext.w	a5,a5
ffffffc05020be12:	cb99                	beqz	a5,ffffffc05020be28 <mini_itoa+0x178>
ffffffc05020be14:	fe843783          	ld	a5,-24(s0)
ffffffc05020be18:	00178713          	addi	a4,a5,1
ffffffc05020be1c:	fee43423          	sd	a4,-24(s0)
ffffffc05020be20:	02d00713          	li	a4,45
ffffffc05020be24:	00e78023          	sb	a4,0(a5)
ffffffc05020be28:	fe843783          	ld	a5,-24(s0)
ffffffc05020be2c:	00078023          	sb	zero,0(a5)
ffffffc05020be30:	fe843703          	ld	a4,-24(s0)
ffffffc05020be34:	fb043783          	ld	a5,-80(s0)
ffffffc05020be38:	40f707b3          	sub	a5,a4,a5
ffffffc05020be3c:	fcf42c23          	sw	a5,-40(s0)
ffffffc05020be40:	fe042023          	sw	zero,-32(s0)
ffffffc05020be44:	a885                	j	ffffffc05020beb4 <mini_itoa+0x204>
ffffffc05020be46:	fe046783          	lwu	a5,-32(s0)
ffffffc05020be4a:	fb043703          	ld	a4,-80(s0)
ffffffc05020be4e:	97ba                	add	a5,a5,a4
ffffffc05020be50:	0007c783          	lbu	a5,0(a5)
ffffffc05020be54:	fcf40ba3          	sb	a5,-41(s0)
ffffffc05020be58:	fd842703          	lw	a4,-40(s0)
ffffffc05020be5c:	fe042783          	lw	a5,-32(s0)
ffffffc05020be60:	40f707bb          	subw	a5,a4,a5
ffffffc05020be64:	2781                	sext.w	a5,a5
ffffffc05020be66:	37fd                	addiw	a5,a5,-1
ffffffc05020be68:	2781                	sext.w	a5,a5
ffffffc05020be6a:	1782                	slli	a5,a5,0x20
ffffffc05020be6c:	9381                	srli	a5,a5,0x20
ffffffc05020be6e:	fb043703          	ld	a4,-80(s0)
ffffffc05020be72:	973e                	add	a4,a4,a5
ffffffc05020be74:	fe046783          	lwu	a5,-32(s0)
ffffffc05020be78:	fb043683          	ld	a3,-80(s0)
ffffffc05020be7c:	97b6                	add	a5,a5,a3
ffffffc05020be7e:	00074703          	lbu	a4,0(a4)
ffffffc05020be82:	00e78023          	sb	a4,0(a5)
ffffffc05020be86:	fd842703          	lw	a4,-40(s0)
ffffffc05020be8a:	fe042783          	lw	a5,-32(s0)
ffffffc05020be8e:	40f707bb          	subw	a5,a4,a5
ffffffc05020be92:	2781                	sext.w	a5,a5
ffffffc05020be94:	37fd                	addiw	a5,a5,-1
ffffffc05020be96:	2781                	sext.w	a5,a5
ffffffc05020be98:	1782                	slli	a5,a5,0x20
ffffffc05020be9a:	9381                	srli	a5,a5,0x20
ffffffc05020be9c:	fb043703          	ld	a4,-80(s0)
ffffffc05020bea0:	97ba                	add	a5,a5,a4
ffffffc05020bea2:	fd744703          	lbu	a4,-41(s0)
ffffffc05020bea6:	00e78023          	sb	a4,0(a5)
ffffffc05020beaa:	fe042783          	lw	a5,-32(s0)
ffffffc05020beae:	2785                	addiw	a5,a5,1
ffffffc05020beb0:	fef42023          	sw	a5,-32(s0)
ffffffc05020beb4:	fd842783          	lw	a5,-40(s0)
ffffffc05020beb8:	0017d79b          	srliw	a5,a5,0x1
ffffffc05020bebc:	0007871b          	sext.w	a4,a5
ffffffc05020bec0:	fe042783          	lw	a5,-32(s0)
ffffffc05020bec4:	2781                	sext.w	a5,a5
ffffffc05020bec6:	f8e7e0e3          	bltu	a5,a4,ffffffc05020be46 <mini_itoa+0x196>
ffffffc05020beca:	fd842783          	lw	a5,-40(s0)
ffffffc05020bece:	853e                	mv	a0,a5
ffffffc05020bed0:	6426                	ld	s0,72(sp)
ffffffc05020bed2:	6161                	addi	sp,sp,80
ffffffc05020bed4:	8082                	ret

ffffffc05020bed6 <_putc>:
ffffffc05020bed6:	1101                	addi	sp,sp,-32
ffffffc05020bed8:	ec22                	sd	s0,24(sp)
ffffffc05020beda:	1000                	addi	s0,sp,32
ffffffc05020bedc:	87aa                	mv	a5,a0
ffffffc05020bede:	feb43023          	sd	a1,-32(s0)
ffffffc05020bee2:	fef42623          	sw	a5,-20(s0)
ffffffc05020bee6:	fe043783          	ld	a5,-32(s0)
ffffffc05020beea:	6798                	ld	a4,8(a5)
ffffffc05020beec:	fe043783          	ld	a5,-32(s0)
ffffffc05020bef0:	639c                	ld	a5,0(a5)
ffffffc05020bef2:	40f707b3          	sub	a5,a4,a5
ffffffc05020bef6:	2781                	sext.w	a5,a5
ffffffc05020bef8:	2785                	addiw	a5,a5,1
ffffffc05020befa:	0007871b          	sext.w	a4,a5
ffffffc05020befe:	fe043783          	ld	a5,-32(s0)
ffffffc05020bf02:	4b9c                	lw	a5,16(a5)
ffffffc05020bf04:	00f76463          	bltu	a4,a5,ffffffc05020bf0c <_putc+0x36>
ffffffc05020bf08:	4781                	li	a5,0
ffffffc05020bf0a:	a02d                	j	ffffffc05020bf34 <_putc+0x5e>
ffffffc05020bf0c:	fe043783          	ld	a5,-32(s0)
ffffffc05020bf10:	679c                	ld	a5,8(a5)
ffffffc05020bf12:	00178693          	addi	a3,a5,1
ffffffc05020bf16:	fe043703          	ld	a4,-32(s0)
ffffffc05020bf1a:	e714                	sd	a3,8(a4)
ffffffc05020bf1c:	fec42703          	lw	a4,-20(s0)
ffffffc05020bf20:	0ff77713          	andi	a4,a4,255
ffffffc05020bf24:	00e78023          	sb	a4,0(a5)
ffffffc05020bf28:	fe043783          	ld	a5,-32(s0)
ffffffc05020bf2c:	679c                	ld	a5,8(a5)
ffffffc05020bf2e:	00078023          	sb	zero,0(a5)
ffffffc05020bf32:	4785                	li	a5,1
ffffffc05020bf34:	853e                	mv	a0,a5
ffffffc05020bf36:	6462                	ld	s0,24(sp)
ffffffc05020bf38:	6105                	addi	sp,sp,32
ffffffc05020bf3a:	8082                	ret

ffffffc05020bf3c <_puts>:
ffffffc05020bf3c:	7139                	addi	sp,sp,-64
ffffffc05020bf3e:	fc22                	sd	s0,56(sp)
ffffffc05020bf40:	0080                	addi	s0,sp,64
ffffffc05020bf42:	fca43c23          	sd	a0,-40(s0)
ffffffc05020bf46:	87ae                	mv	a5,a1
ffffffc05020bf48:	fcc43423          	sd	a2,-56(s0)
ffffffc05020bf4c:	fcf42a23          	sw	a5,-44(s0)
ffffffc05020bf50:	fc843783          	ld	a5,-56(s0)
ffffffc05020bf54:	4b9c                	lw	a5,16(a5)
ffffffc05020bf56:	02079713          	slli	a4,a5,0x20
ffffffc05020bf5a:	9301                	srli	a4,a4,0x20
ffffffc05020bf5c:	fc843783          	ld	a5,-56(s0)
ffffffc05020bf60:	6794                	ld	a3,8(a5)
ffffffc05020bf62:	fc843783          	ld	a5,-56(s0)
ffffffc05020bf66:	639c                	ld	a5,0(a5)
ffffffc05020bf68:	40f687b3          	sub	a5,a3,a5
ffffffc05020bf6c:	8f1d                	sub	a4,a4,a5
ffffffc05020bf6e:	fd446783          	lwu	a5,-44(s0)
ffffffc05020bf72:	02e7c463          	blt	a5,a4,ffffffc05020bf9a <_puts+0x5e>
ffffffc05020bf76:	fc843783          	ld	a5,-56(s0)
ffffffc05020bf7a:	4b98                	lw	a4,16(a5)
ffffffc05020bf7c:	fc843783          	ld	a5,-56(s0)
ffffffc05020bf80:	6794                	ld	a3,8(a5)
ffffffc05020bf82:	fc843783          	ld	a5,-56(s0)
ffffffc05020bf86:	639c                	ld	a5,0(a5)
ffffffc05020bf88:	40f687b3          	sub	a5,a3,a5
ffffffc05020bf8c:	2781                	sext.w	a5,a5
ffffffc05020bf8e:	40f707bb          	subw	a5,a4,a5
ffffffc05020bf92:	2781                	sext.w	a5,a5
ffffffc05020bf94:	37fd                	addiw	a5,a5,-1
ffffffc05020bf96:	fcf42a23          	sw	a5,-44(s0)
ffffffc05020bf9a:	fe042623          	sw	zero,-20(s0)
ffffffc05020bf9e:	a03d                	j	ffffffc05020bfcc <_puts+0x90>
ffffffc05020bfa0:	fec46783          	lwu	a5,-20(s0)
ffffffc05020bfa4:	fd843703          	ld	a4,-40(s0)
ffffffc05020bfa8:	973e                	add	a4,a4,a5
ffffffc05020bfaa:	fc843783          	ld	a5,-56(s0)
ffffffc05020bfae:	679c                	ld	a5,8(a5)
ffffffc05020bfb0:	00178613          	addi	a2,a5,1
ffffffc05020bfb4:	fc843683          	ld	a3,-56(s0)
ffffffc05020bfb8:	e690                	sd	a2,8(a3)
ffffffc05020bfba:	00074703          	lbu	a4,0(a4)
ffffffc05020bfbe:	00e78023          	sb	a4,0(a5)
ffffffc05020bfc2:	fec42783          	lw	a5,-20(s0)
ffffffc05020bfc6:	2785                	addiw	a5,a5,1
ffffffc05020bfc8:	fef42623          	sw	a5,-20(s0)
ffffffc05020bfcc:	fec42703          	lw	a4,-20(s0)
ffffffc05020bfd0:	fd442783          	lw	a5,-44(s0)
ffffffc05020bfd4:	2701                	sext.w	a4,a4
ffffffc05020bfd6:	2781                	sext.w	a5,a5
ffffffc05020bfd8:	fcf764e3          	bltu	a4,a5,ffffffc05020bfa0 <_puts+0x64>
ffffffc05020bfdc:	fc843783          	ld	a5,-56(s0)
ffffffc05020bfe0:	679c                	ld	a5,8(a5)
ffffffc05020bfe2:	00078023          	sb	zero,0(a5)
ffffffc05020bfe6:	fd442783          	lw	a5,-44(s0)
ffffffc05020bfea:	853e                	mv	a0,a5
ffffffc05020bfec:	7462                	ld	s0,56(sp)
ffffffc05020bfee:	6121                	addi	sp,sp,64
ffffffc05020bff0:	8082                	ret

ffffffc05020bff2 <mini_vsnprintf>:
ffffffc05020bff2:	7119                	addi	sp,sp,-128
ffffffc05020bff4:	fc86                	sd	ra,120(sp)
ffffffc05020bff6:	f8a2                	sd	s0,112(sp)
ffffffc05020bff8:	0100                	addi	s0,sp,128
ffffffc05020bffa:	f8a43c23          	sd	a0,-104(s0)
ffffffc05020bffe:	87ae                	mv	a5,a1
ffffffc05020c000:	f8c43423          	sd	a2,-120(s0)
ffffffc05020c004:	f8d43023          	sd	a3,-128(s0)
ffffffc05020c008:	f8f42a23          	sw	a5,-108(s0)
ffffffc05020c00c:	f9843783          	ld	a5,-104(s0)
ffffffc05020c010:	fcf43023          	sd	a5,-64(s0)
ffffffc05020c014:	f9843783          	ld	a5,-104(s0)
ffffffc05020c018:	fcf43423          	sd	a5,-56(s0)
ffffffc05020c01c:	f9442783          	lw	a5,-108(s0)
ffffffc05020c020:	fcf42823          	sw	a5,-48(s0)
ffffffc05020c024:	a4f9                	j	ffffffc05020c2f2 <mini_vsnprintf+0x300>
ffffffc05020c026:	fc843703          	ld	a4,-56(s0)
ffffffc05020c02a:	fc043783          	ld	a5,-64(s0)
ffffffc05020c02e:	40f707b3          	sub	a5,a4,a5
ffffffc05020c032:	2781                	sext.w	a5,a5
ffffffc05020c034:	2785                	addiw	a5,a5,1
ffffffc05020c036:	0007871b          	sext.w	a4,a5
ffffffc05020c03a:	fd042783          	lw	a5,-48(s0)
ffffffc05020c03e:	2cf77b63          	bgeu	a4,a5,ffffffc05020c314 <mini_vsnprintf+0x322>
ffffffc05020c042:	fef44783          	lbu	a5,-17(s0)
ffffffc05020c046:	0ff7f713          	andi	a4,a5,255
ffffffc05020c04a:	02500793          	li	a5,37
ffffffc05020c04e:	00f70c63          	beq	a4,a5,ffffffc05020c066 <mini_vsnprintf+0x74>
ffffffc05020c052:	fef44783          	lbu	a5,-17(s0)
ffffffc05020c056:	2781                	sext.w	a5,a5
ffffffc05020c058:	fc040713          	addi	a4,s0,-64
ffffffc05020c05c:	85ba                	mv	a1,a4
ffffffc05020c05e:	853e                	mv	a0,a5
ffffffc05020c060:	e77ff0ef          	jal	ra,ffffffc05020bed6 <_putc>
ffffffc05020c064:	a479                	j	ffffffc05020c2f2 <mini_vsnprintf+0x300>
ffffffc05020c066:	fe040723          	sb	zero,-18(s0)
ffffffc05020c06a:	fe042423          	sw	zero,-24(s0)
ffffffc05020c06e:	f8843783          	ld	a5,-120(s0)
ffffffc05020c072:	00178713          	addi	a4,a5,1
ffffffc05020c076:	f8e43423          	sd	a4,-120(s0)
ffffffc05020c07a:	0007c783          	lbu	a5,0(a5)
ffffffc05020c07e:	fef407a3          	sb	a5,-17(s0)
ffffffc05020c082:	fef44783          	lbu	a5,-17(s0)
ffffffc05020c086:	0ff7f713          	andi	a4,a5,255
ffffffc05020c08a:	03000793          	li	a5,48
ffffffc05020c08e:	06f71b63          	bne	a4,a5,ffffffc05020c104 <mini_vsnprintf+0x112>
ffffffc05020c092:	a891                	j	ffffffc05020c0e6 <mini_vsnprintf+0xf4>
ffffffc05020c094:	fef44783          	lbu	a5,-17(s0)
ffffffc05020c098:	0ff7f793          	andi	a5,a5,255
ffffffc05020c09c:	26078e63          	beqz	a5,ffffffc05020c318 <mini_vsnprintf+0x326>
ffffffc05020c0a0:	fef44783          	lbu	a5,-17(s0)
ffffffc05020c0a4:	0ff7f713          	andi	a4,a5,255
ffffffc05020c0a8:	02f00793          	li	a5,47
ffffffc05020c0ac:	04e7fc63          	bgeu	a5,a4,ffffffc05020c104 <mini_vsnprintf+0x112>
ffffffc05020c0b0:	fef44783          	lbu	a5,-17(s0)
ffffffc05020c0b4:	0ff7f713          	andi	a4,a5,255
ffffffc05020c0b8:	03900793          	li	a5,57
ffffffc05020c0bc:	04e7e463          	bltu	a5,a4,ffffffc05020c104 <mini_vsnprintf+0x112>
ffffffc05020c0c0:	fee44703          	lbu	a4,-18(s0)
ffffffc05020c0c4:	87ba                	mv	a5,a4
ffffffc05020c0c6:	0027979b          	slliw	a5,a5,0x2
ffffffc05020c0ca:	9fb9                	addw	a5,a5,a4
ffffffc05020c0cc:	0017979b          	slliw	a5,a5,0x1
ffffffc05020c0d0:	0ff7f793          	andi	a5,a5,255
ffffffc05020c0d4:	fef44703          	lbu	a4,-17(s0)
ffffffc05020c0d8:	9fb9                	addw	a5,a5,a4
ffffffc05020c0da:	0ff7f793          	andi	a5,a5,255
ffffffc05020c0de:	fd07879b          	addiw	a5,a5,-48
ffffffc05020c0e2:	fef40723          	sb	a5,-18(s0)
ffffffc05020c0e6:	f8843783          	ld	a5,-120(s0)
ffffffc05020c0ea:	00178713          	addi	a4,a5,1
ffffffc05020c0ee:	f8e43423          	sd	a4,-120(s0)
ffffffc05020c0f2:	0007c783          	lbu	a5,0(a5)
ffffffc05020c0f6:	fef407a3          	sb	a5,-17(s0)
ffffffc05020c0fa:	fef44783          	lbu	a5,-17(s0)
ffffffc05020c0fe:	0ff7f793          	andi	a5,a5,255
ffffffc05020c102:	fbc9                	bnez	a5,ffffffc05020c094 <mini_vsnprintf+0xa2>
ffffffc05020c104:	fef44783          	lbu	a5,-17(s0)
ffffffc05020c108:	0ff7f713          	andi	a4,a5,255
ffffffc05020c10c:	06c00793          	li	a5,108
ffffffc05020c110:	00f71f63          	bne	a4,a5,ffffffc05020c12e <mini_vsnprintf+0x13c>
ffffffc05020c114:	4785                	li	a5,1
ffffffc05020c116:	fef42423          	sw	a5,-24(s0)
ffffffc05020c11a:	f8843783          	ld	a5,-120(s0)
ffffffc05020c11e:	00178713          	addi	a4,a5,1
ffffffc05020c122:	f8e43423          	sd	a4,-120(s0)
ffffffc05020c126:	0007c783          	lbu	a5,0(a5)
ffffffc05020c12a:	fef407a3          	sb	a5,-17(s0)
ffffffc05020c12e:	fef44783          	lbu	a5,-17(s0)
ffffffc05020c132:	2781                	sext.w	a5,a5
ffffffc05020c134:	1e078463          	beqz	a5,ffffffc05020c31c <mini_vsnprintf+0x32a>
ffffffc05020c138:	873e                	mv	a4,a5
ffffffc05020c13a:	1a074263          	bltz	a4,ffffffc05020c2de <mini_vsnprintf+0x2ec>
ffffffc05020c13e:	86be                	mv	a3,a5
ffffffc05020c140:	07800713          	li	a4,120
ffffffc05020c144:	18d74d63          	blt	a4,a3,ffffffc05020c2de <mini_vsnprintf+0x2ec>
ffffffc05020c148:	86be                	mv	a3,a5
ffffffc05020c14a:	05800713          	li	a4,88
ffffffc05020c14e:	18e6c863          	blt	a3,a4,ffffffc05020c2de <mini_vsnprintf+0x2ec>
ffffffc05020c152:	fa87869b          	addiw	a3,a5,-88
ffffffc05020c156:	0006871b          	sext.w	a4,a3
ffffffc05020c15a:	02000793          	li	a5,32
ffffffc05020c15e:	18e7e063          	bltu	a5,a4,ffffffc05020c2de <mini_vsnprintf+0x2ec>
ffffffc05020c162:	02069793          	slli	a5,a3,0x20
ffffffc05020c166:	9381                	srli	a5,a5,0x20
ffffffc05020c168:	00279713          	slli	a4,a5,0x2
ffffffc05020c16c:	00001797          	auipc	a5,0x1
ffffffc05020c170:	1c878793          	addi	a5,a5,456 # ffffffc05020d334 <__FUNCTION__.1631+0xc>
ffffffc05020c174:	97ba                	add	a5,a5,a4
ffffffc05020c176:	439c                	lw	a5,0(a5)
ffffffc05020c178:	0007871b          	sext.w	a4,a5
ffffffc05020c17c:	00001797          	auipc	a5,0x1
ffffffc05020c180:	1b878793          	addi	a5,a5,440 # ffffffc05020d334 <__FUNCTION__.1631+0xc>
ffffffc05020c184:	97ba                	add	a5,a5,a4
ffffffc05020c186:	8782                	jr	a5
ffffffc05020c188:	4785                	li	a5,1
ffffffc05020c18a:	fef42423          	sw	a5,-24(s0)
ffffffc05020c18e:	a295                	j	ffffffc05020c2f2 <mini_vsnprintf+0x300>
ffffffc05020c190:	fe842783          	lw	a5,-24(s0)
ffffffc05020c194:	2781                	sext.w	a5,a5
ffffffc05020c196:	ef81                	bnez	a5,ffffffc05020c1ae <mini_vsnprintf+0x1bc>
ffffffc05020c198:	f8043783          	ld	a5,-128(s0)
ffffffc05020c19c:	00878713          	addi	a4,a5,8
ffffffc05020c1a0:	f8e43023          	sd	a4,-128(s0)
ffffffc05020c1a4:	439c                	lw	a5,0(a5)
ffffffc05020c1a6:	02079513          	slli	a0,a5,0x20
ffffffc05020c1aa:	9101                	srli	a0,a0,0x20
ffffffc05020c1ac:	a809                	j	ffffffc05020c1be <mini_vsnprintf+0x1cc>
ffffffc05020c1ae:	f8043783          	ld	a5,-128(s0)
ffffffc05020c1b2:	00878713          	addi	a4,a5,8
ffffffc05020c1b6:	f8e43023          	sd	a4,-128(s0)
ffffffc05020c1ba:	639c                	ld	a5,0(a5)
ffffffc05020c1bc:	853e                	mv	a0,a5
ffffffc05020c1be:	fef44783          	lbu	a5,-17(s0)
ffffffc05020c1c2:	0007871b          	sext.w	a4,a5
ffffffc05020c1c6:	07500793          	li	a5,117
ffffffc05020c1ca:	40f707b3          	sub	a5,a4,a5
ffffffc05020c1ce:	0017b793          	seqz	a5,a5
ffffffc05020c1d2:	0ff7f793          	andi	a5,a5,255
ffffffc05020c1d6:	0007869b          	sext.w	a3,a5
ffffffc05020c1da:	fee44783          	lbu	a5,-18(s0)
ffffffc05020c1de:	2781                	sext.w	a5,a5
ffffffc05020c1e0:	fa840713          	addi	a4,s0,-88
ffffffc05020c1e4:	4601                	li	a2,0
ffffffc05020c1e6:	45a9                	li	a1,10
ffffffc05020c1e8:	ac9ff0ef          	jal	ra,ffffffc05020bcb0 <mini_itoa>
ffffffc05020c1ec:	87aa                	mv	a5,a0
ffffffc05020c1ee:	fcf42e23          	sw	a5,-36(s0)
ffffffc05020c1f2:	fc040693          	addi	a3,s0,-64
ffffffc05020c1f6:	fdc42703          	lw	a4,-36(s0)
ffffffc05020c1fa:	fa840793          	addi	a5,s0,-88
ffffffc05020c1fe:	8636                	mv	a2,a3
ffffffc05020c200:	85ba                	mv	a1,a4
ffffffc05020c202:	853e                	mv	a0,a5
ffffffc05020c204:	d39ff0ef          	jal	ra,ffffffc05020bf3c <_puts>
ffffffc05020c208:	fe042423          	sw	zero,-24(s0)
ffffffc05020c20c:	a0dd                	j	ffffffc05020c2f2 <mini_vsnprintf+0x300>
ffffffc05020c20e:	fe842783          	lw	a5,-24(s0)
ffffffc05020c212:	2781                	sext.w	a5,a5
ffffffc05020c214:	ef81                	bnez	a5,ffffffc05020c22c <mini_vsnprintf+0x23a>
ffffffc05020c216:	f8043783          	ld	a5,-128(s0)
ffffffc05020c21a:	00878713          	addi	a4,a5,8
ffffffc05020c21e:	f8e43023          	sd	a4,-128(s0)
ffffffc05020c222:	439c                	lw	a5,0(a5)
ffffffc05020c224:	02079513          	slli	a0,a5,0x20
ffffffc05020c228:	9101                	srli	a0,a0,0x20
ffffffc05020c22a:	a809                	j	ffffffc05020c23c <mini_vsnprintf+0x24a>
ffffffc05020c22c:	f8043783          	ld	a5,-128(s0)
ffffffc05020c230:	00878713          	addi	a4,a5,8
ffffffc05020c234:	f8e43023          	sd	a4,-128(s0)
ffffffc05020c238:	639c                	ld	a5,0(a5)
ffffffc05020c23a:	853e                	mv	a0,a5
ffffffc05020c23c:	fef44783          	lbu	a5,-17(s0)
ffffffc05020c240:	0007871b          	sext.w	a4,a5
ffffffc05020c244:	05800793          	li	a5,88
ffffffc05020c248:	40f707b3          	sub	a5,a4,a5
ffffffc05020c24c:	0017b793          	seqz	a5,a5
ffffffc05020c250:	0ff7f793          	andi	a5,a5,255
ffffffc05020c254:	0007861b          	sext.w	a2,a5
ffffffc05020c258:	fee44783          	lbu	a5,-18(s0)
ffffffc05020c25c:	2781                	sext.w	a5,a5
ffffffc05020c25e:	fa840713          	addi	a4,s0,-88
ffffffc05020c262:	4685                	li	a3,1
ffffffc05020c264:	45c1                	li	a1,16
ffffffc05020c266:	a4bff0ef          	jal	ra,ffffffc05020bcb0 <mini_itoa>
ffffffc05020c26a:	87aa                	mv	a5,a0
ffffffc05020c26c:	fcf42e23          	sw	a5,-36(s0)
ffffffc05020c270:	fc040693          	addi	a3,s0,-64
ffffffc05020c274:	fdc42703          	lw	a4,-36(s0)
ffffffc05020c278:	fa840793          	addi	a5,s0,-88
ffffffc05020c27c:	8636                	mv	a2,a3
ffffffc05020c27e:	85ba                	mv	a1,a4
ffffffc05020c280:	853e                	mv	a0,a5
ffffffc05020c282:	cbbff0ef          	jal	ra,ffffffc05020bf3c <_puts>
ffffffc05020c286:	fe042423          	sw	zero,-24(s0)
ffffffc05020c28a:	a0a5                	j	ffffffc05020c2f2 <mini_vsnprintf+0x300>
ffffffc05020c28c:	f8043783          	ld	a5,-128(s0)
ffffffc05020c290:	00878713          	addi	a4,a5,8
ffffffc05020c294:	f8e43023          	sd	a4,-128(s0)
ffffffc05020c298:	439c                	lw	a5,0(a5)
ffffffc05020c29a:	0ff7f793          	andi	a5,a5,255
ffffffc05020c29e:	2781                	sext.w	a5,a5
ffffffc05020c2a0:	fc040713          	addi	a4,s0,-64
ffffffc05020c2a4:	85ba                	mv	a1,a4
ffffffc05020c2a6:	853e                	mv	a0,a5
ffffffc05020c2a8:	c2fff0ef          	jal	ra,ffffffc05020bed6 <_putc>
ffffffc05020c2ac:	a099                	j	ffffffc05020c2f2 <mini_vsnprintf+0x300>
ffffffc05020c2ae:	f8043783          	ld	a5,-128(s0)
ffffffc05020c2b2:	00878713          	addi	a4,a5,8
ffffffc05020c2b6:	f8e43023          	sd	a4,-128(s0)
ffffffc05020c2ba:	639c                	ld	a5,0(a5)
ffffffc05020c2bc:	fef43023          	sd	a5,-32(s0)
ffffffc05020c2c0:	fe043503          	ld	a0,-32(s0)
ffffffc05020c2c4:	9b7ff0ef          	jal	ra,ffffffc05020bc7a <mini_strlen>
ffffffc05020c2c8:	87aa                	mv	a5,a0
ffffffc05020c2ca:	2781                	sext.w	a5,a5
ffffffc05020c2cc:	fc040713          	addi	a4,s0,-64
ffffffc05020c2d0:	863a                	mv	a2,a4
ffffffc05020c2d2:	85be                	mv	a1,a5
ffffffc05020c2d4:	fe043503          	ld	a0,-32(s0)
ffffffc05020c2d8:	c65ff0ef          	jal	ra,ffffffc05020bf3c <_puts>
ffffffc05020c2dc:	a819                	j	ffffffc05020c2f2 <mini_vsnprintf+0x300>
ffffffc05020c2de:	fef44783          	lbu	a5,-17(s0)
ffffffc05020c2e2:	2781                	sext.w	a5,a5
ffffffc05020c2e4:	fc040713          	addi	a4,s0,-64
ffffffc05020c2e8:	85ba                	mv	a1,a4
ffffffc05020c2ea:	853e                	mv	a0,a5
ffffffc05020c2ec:	bebff0ef          	jal	ra,ffffffc05020bed6 <_putc>
ffffffc05020c2f0:	0001                	nop
ffffffc05020c2f2:	f8843783          	ld	a5,-120(s0)
ffffffc05020c2f6:	00178713          	addi	a4,a5,1
ffffffc05020c2fa:	f8e43423          	sd	a4,-120(s0)
ffffffc05020c2fe:	0007c783          	lbu	a5,0(a5)
ffffffc05020c302:	fef407a3          	sb	a5,-17(s0)
ffffffc05020c306:	fef44783          	lbu	a5,-17(s0)
ffffffc05020c30a:	0ff7f793          	andi	a5,a5,255
ffffffc05020c30e:	d0079ce3          	bnez	a5,ffffffc05020c026 <mini_vsnprintf+0x34>
ffffffc05020c312:	a031                	j	ffffffc05020c31e <mini_vsnprintf+0x32c>
ffffffc05020c314:	0001                	nop
ffffffc05020c316:	a021                	j	ffffffc05020c31e <mini_vsnprintf+0x32c>
ffffffc05020c318:	0001                	nop
ffffffc05020c31a:	a011                	j	ffffffc05020c31e <mini_vsnprintf+0x32c>
ffffffc05020c31c:	0001                	nop
ffffffc05020c31e:	fc843703          	ld	a4,-56(s0)
ffffffc05020c322:	fc043783          	ld	a5,-64(s0)
ffffffc05020c326:	40f707b3          	sub	a5,a4,a5
ffffffc05020c32a:	2781                	sext.w	a5,a5
ffffffc05020c32c:	853e                	mv	a0,a5
ffffffc05020c32e:	70e6                	ld	ra,120(sp)
ffffffc05020c330:	7446                	ld	s0,112(sp)
ffffffc05020c332:	6109                	addi	sp,sp,128
ffffffc05020c334:	8082                	ret

ffffffc05020c336 <_vprint>:
ffffffc05020c336:	7129                	addi	sp,sp,-320
ffffffc05020c338:	fe06                	sd	ra,312(sp)
ffffffc05020c33a:	fa22                	sd	s0,304(sp)
ffffffc05020c33c:	0280                	addi	s0,sp,320
ffffffc05020c33e:	eca43c23          	sd	a0,-296(s0)
ffffffc05020c342:	ecb43823          	sd	a1,-304(s0)
ffffffc05020c346:	ecc43423          	sd	a2,-312(s0)
ffffffc05020c34a:	ed043783          	ld	a5,-304(s0)
ffffffc05020c34e:	fef43023          	sd	a5,-32(s0)
ffffffc05020c352:	fe043703          	ld	a4,-32(s0)
ffffffc05020c356:	ee040793          	addi	a5,s0,-288
ffffffc05020c35a:	86ba                	mv	a3,a4
ffffffc05020c35c:	ed843603          	ld	a2,-296(s0)
ffffffc05020c360:	10000593          	li	a1,256
ffffffc05020c364:	853e                	mv	a0,a5
ffffffc05020c366:	c8dff0ef          	jal	ra,ffffffc05020bff2 <mini_vsnprintf>
ffffffc05020c36a:	87aa                	mv	a5,a0
ffffffc05020c36c:	fef42623          	sw	a5,-20(s0)
ffffffc05020c370:	fec42783          	lw	a5,-20(s0)
ffffffc05020c374:	ff040713          	addi	a4,s0,-16
ffffffc05020c378:	97ba                	add	a5,a5,a4
ffffffc05020c37a:	ee078823          	sb	zero,-272(a5)
ffffffc05020c37e:	ee040793          	addi	a5,s0,-288
ffffffc05020c382:	ec843703          	ld	a4,-312(s0)
ffffffc05020c386:	853e                	mv	a0,a5
ffffffc05020c388:	9702                	jalr	a4
ffffffc05020c38a:	fec42783          	lw	a5,-20(s0)
ffffffc05020c38e:	853e                	mv	a0,a5
ffffffc05020c390:	70f2                	ld	ra,312(sp)
ffffffc05020c392:	7452                	ld	s0,304(sp)
ffffffc05020c394:	6131                	addi	sp,sp,320
ffffffc05020c396:	8082                	ret

ffffffc05020c398 <_output_wrapper>:
ffffffc05020c398:	1101                	addi	sp,sp,-32
ffffffc05020c39a:	ec06                	sd	ra,24(sp)
ffffffc05020c39c:	e822                	sd	s0,16(sp)
ffffffc05020c39e:	1000                	addi	s0,sp,32
ffffffc05020c3a0:	fea43423          	sd	a0,-24(s0)
ffffffc05020c3a4:	fe843503          	ld	a0,-24(s0)
ffffffc05020c3a8:	b0ef70ef          	jal	ra,ffffffc0502036b6 <screen_write>
ffffffc05020c3ac:	b68f70ef          	jal	ra,ffffffc050203714 <screen_reflush>
ffffffc05020c3b0:	0001                	nop
ffffffc05020c3b2:	60e2                	ld	ra,24(sp)
ffffffc05020c3b4:	6442                	ld	s0,16(sp)
ffffffc05020c3b6:	6105                	addi	sp,sp,32
ffffffc05020c3b8:	8082                	ret

ffffffc05020c3ba <vprintk>:
ffffffc05020c3ba:	1101                	addi	sp,sp,-32
ffffffc05020c3bc:	ec06                	sd	ra,24(sp)
ffffffc05020c3be:	e822                	sd	s0,16(sp)
ffffffc05020c3c0:	1000                	addi	s0,sp,32
ffffffc05020c3c2:	fea43423          	sd	a0,-24(s0)
ffffffc05020c3c6:	feb43023          	sd	a1,-32(s0)
ffffffc05020c3ca:	00000617          	auipc	a2,0x0
ffffffc05020c3ce:	fce60613          	addi	a2,a2,-50 # ffffffc05020c398 <_output_wrapper>
ffffffc05020c3d2:	fe043583          	ld	a1,-32(s0)
ffffffc05020c3d6:	fe843503          	ld	a0,-24(s0)
ffffffc05020c3da:	f5dff0ef          	jal	ra,ffffffc05020c336 <_vprint>
ffffffc05020c3de:	87aa                	mv	a5,a0
ffffffc05020c3e0:	853e                	mv	a0,a5
ffffffc05020c3e2:	60e2                	ld	ra,24(sp)
ffffffc05020c3e4:	6442                	ld	s0,16(sp)
ffffffc05020c3e6:	6105                	addi	sp,sp,32
ffffffc05020c3e8:	8082                	ret

ffffffc05020c3ea <printk>:
ffffffc05020c3ea:	7159                	addi	sp,sp,-112
ffffffc05020c3ec:	f406                	sd	ra,40(sp)
ffffffc05020c3ee:	f022                	sd	s0,32(sp)
ffffffc05020c3f0:	1800                	addi	s0,sp,48
ffffffc05020c3f2:	fca43c23          	sd	a0,-40(s0)
ffffffc05020c3f6:	e40c                	sd	a1,8(s0)
ffffffc05020c3f8:	e810                	sd	a2,16(s0)
ffffffc05020c3fa:	ec14                	sd	a3,24(s0)
ffffffc05020c3fc:	f018                	sd	a4,32(s0)
ffffffc05020c3fe:	f41c                	sd	a5,40(s0)
ffffffc05020c400:	03043823          	sd	a6,48(s0)
ffffffc05020c404:	03143c23          	sd	a7,56(s0)
ffffffc05020c408:	fe042623          	sw	zero,-20(s0)
ffffffc05020c40c:	04040793          	addi	a5,s0,64
ffffffc05020c410:	fcf43823          	sd	a5,-48(s0)
ffffffc05020c414:	fd043783          	ld	a5,-48(s0)
ffffffc05020c418:	fc878793          	addi	a5,a5,-56
ffffffc05020c41c:	fef43023          	sd	a5,-32(s0)
ffffffc05020c420:	fe043783          	ld	a5,-32(s0)
ffffffc05020c424:	85be                	mv	a1,a5
ffffffc05020c426:	fd843503          	ld	a0,-40(s0)
ffffffc05020c42a:	f91ff0ef          	jal	ra,ffffffc05020c3ba <vprintk>
ffffffc05020c42e:	87aa                	mv	a5,a0
ffffffc05020c430:	fef42623          	sw	a5,-20(s0)
ffffffc05020c434:	fec42783          	lw	a5,-20(s0)
ffffffc05020c438:	853e                	mv	a0,a5
ffffffc05020c43a:	70a2                	ld	ra,40(sp)
ffffffc05020c43c:	7402                	ld	s0,32(sp)
ffffffc05020c43e:	6165                	addi	sp,sp,112
ffffffc05020c440:	8082                	ret

ffffffc05020c442 <vprintv>:
ffffffc05020c442:	1101                	addi	sp,sp,-32
ffffffc05020c444:	ec06                	sd	ra,24(sp)
ffffffc05020c446:	e822                	sd	s0,16(sp)
ffffffc05020c448:	1000                	addi	s0,sp,32
ffffffc05020c44a:	fea43423          	sd	a0,-24(s0)
ffffffc05020c44e:	feb43023          	sd	a1,-32(s0)
ffffffc05020c452:	fffff617          	auipc	a2,0xfffff
ffffffc05020c456:	7cc60613          	addi	a2,a2,1996 # ffffffc05020bc1e <bios_putstr>
ffffffc05020c45a:	fe043583          	ld	a1,-32(s0)
ffffffc05020c45e:	fe843503          	ld	a0,-24(s0)
ffffffc05020c462:	ed5ff0ef          	jal	ra,ffffffc05020c336 <_vprint>
ffffffc05020c466:	87aa                	mv	a5,a0
ffffffc05020c468:	853e                	mv	a0,a5
ffffffc05020c46a:	60e2                	ld	ra,24(sp)
ffffffc05020c46c:	6442                	ld	s0,16(sp)
ffffffc05020c46e:	6105                	addi	sp,sp,32
ffffffc05020c470:	8082                	ret

ffffffc05020c472 <printv>:
ffffffc05020c472:	7159                	addi	sp,sp,-112
ffffffc05020c474:	f406                	sd	ra,40(sp)
ffffffc05020c476:	f022                	sd	s0,32(sp)
ffffffc05020c478:	1800                	addi	s0,sp,48
ffffffc05020c47a:	fca43c23          	sd	a0,-40(s0)
ffffffc05020c47e:	e40c                	sd	a1,8(s0)
ffffffc05020c480:	e810                	sd	a2,16(s0)
ffffffc05020c482:	ec14                	sd	a3,24(s0)
ffffffc05020c484:	f018                	sd	a4,32(s0)
ffffffc05020c486:	f41c                	sd	a5,40(s0)
ffffffc05020c488:	03043823          	sd	a6,48(s0)
ffffffc05020c48c:	03143c23          	sd	a7,56(s0)
ffffffc05020c490:	fe042623          	sw	zero,-20(s0)
ffffffc05020c494:	04040793          	addi	a5,s0,64
ffffffc05020c498:	fcf43823          	sd	a5,-48(s0)
ffffffc05020c49c:	fd043783          	ld	a5,-48(s0)
ffffffc05020c4a0:	fc878793          	addi	a5,a5,-56
ffffffc05020c4a4:	fef43023          	sd	a5,-32(s0)
ffffffc05020c4a8:	fe043783          	ld	a5,-32(s0)
ffffffc05020c4ac:	85be                	mv	a1,a5
ffffffc05020c4ae:	fd843503          	ld	a0,-40(s0)
ffffffc05020c4b2:	f91ff0ef          	jal	ra,ffffffc05020c442 <vprintv>
ffffffc05020c4b6:	87aa                	mv	a5,a0
ffffffc05020c4b8:	fef42623          	sw	a5,-20(s0)
ffffffc05020c4bc:	fec42783          	lw	a5,-20(s0)
ffffffc05020c4c0:	853e                	mv	a0,a5
ffffffc05020c4c2:	70a2                	ld	ra,40(sp)
ffffffc05020c4c4:	7402                	ld	s0,32(sp)
ffffffc05020c4c6:	6165                	addi	sp,sp,112
ffffffc05020c4c8:	8082                	ret

ffffffc05020c4ca <vprintl>:
ffffffc05020c4ca:	1101                	addi	sp,sp,-32
ffffffc05020c4cc:	ec06                	sd	ra,24(sp)
ffffffc05020c4ce:	e822                	sd	s0,16(sp)
ffffffc05020c4d0:	1000                	addi	s0,sp,32
ffffffc05020c4d2:	fea43423          	sd	a0,-24(s0)
ffffffc05020c4d6:	feb43023          	sd	a1,-32(s0)
ffffffc05020c4da:	fffff617          	auipc	a2,0xfffff
ffffffc05020c4de:	77260613          	addi	a2,a2,1906 # ffffffc05020bc4c <bios_logging>
ffffffc05020c4e2:	fe043583          	ld	a1,-32(s0)
ffffffc05020c4e6:	fe843503          	ld	a0,-24(s0)
ffffffc05020c4ea:	e4dff0ef          	jal	ra,ffffffc05020c336 <_vprint>
ffffffc05020c4ee:	87aa                	mv	a5,a0
ffffffc05020c4f0:	853e                	mv	a0,a5
ffffffc05020c4f2:	60e2                	ld	ra,24(sp)
ffffffc05020c4f4:	6442                	ld	s0,16(sp)
ffffffc05020c4f6:	6105                	addi	sp,sp,32
ffffffc05020c4f8:	8082                	ret

ffffffc05020c4fa <printl>:
ffffffc05020c4fa:	7159                	addi	sp,sp,-112
ffffffc05020c4fc:	f406                	sd	ra,40(sp)
ffffffc05020c4fe:	f022                	sd	s0,32(sp)
ffffffc05020c500:	1800                	addi	s0,sp,48
ffffffc05020c502:	fca43c23          	sd	a0,-40(s0)
ffffffc05020c506:	e40c                	sd	a1,8(s0)
ffffffc05020c508:	e810                	sd	a2,16(s0)
ffffffc05020c50a:	ec14                	sd	a3,24(s0)
ffffffc05020c50c:	f018                	sd	a4,32(s0)
ffffffc05020c50e:	f41c                	sd	a5,40(s0)
ffffffc05020c510:	03043823          	sd	a6,48(s0)
ffffffc05020c514:	03143c23          	sd	a7,56(s0)
ffffffc05020c518:	fe042623          	sw	zero,-20(s0)
ffffffc05020c51c:	04040793          	addi	a5,s0,64
ffffffc05020c520:	fcf43823          	sd	a5,-48(s0)
ffffffc05020c524:	fd043783          	ld	a5,-48(s0)
ffffffc05020c528:	fc878793          	addi	a5,a5,-56
ffffffc05020c52c:	fef43023          	sd	a5,-32(s0)
ffffffc05020c530:	fe043783          	ld	a5,-32(s0)
ffffffc05020c534:	85be                	mv	a1,a5
ffffffc05020c536:	fd843503          	ld	a0,-40(s0)
ffffffc05020c53a:	f91ff0ef          	jal	ra,ffffffc05020c4ca <vprintl>
ffffffc05020c53e:	87aa                	mv	a5,a0
ffffffc05020c540:	fef42623          	sw	a5,-20(s0)
ffffffc05020c544:	fec42783          	lw	a5,-20(s0)
ffffffc05020c548:	853e                	mv	a0,a5
ffffffc05020c54a:	70a2                	ld	ra,40(sp)
ffffffc05020c54c:	7402                	ld	s0,32(sp)
ffffffc05020c54e:	6165                	addi	sp,sp,112
ffffffc05020c550:	8082                	ret

ffffffc05020c552 <memcpy>:
ffffffc05020c552:	7179                	addi	sp,sp,-48
ffffffc05020c554:	f422                	sd	s0,40(sp)
ffffffc05020c556:	1800                	addi	s0,sp,48
ffffffc05020c558:	fea43423          	sd	a0,-24(s0)
ffffffc05020c55c:	feb43023          	sd	a1,-32(s0)
ffffffc05020c560:	87b2                	mv	a5,a2
ffffffc05020c562:	fcf42e23          	sw	a5,-36(s0)
ffffffc05020c566:	a035                	j	ffffffc05020c592 <memcpy+0x40>
ffffffc05020c568:	fe043703          	ld	a4,-32(s0)
ffffffc05020c56c:	00170793          	addi	a5,a4,1
ffffffc05020c570:	fef43023          	sd	a5,-32(s0)
ffffffc05020c574:	fe843783          	ld	a5,-24(s0)
ffffffc05020c578:	00178693          	addi	a3,a5,1
ffffffc05020c57c:	fed43423          	sd	a3,-24(s0)
ffffffc05020c580:	00074703          	lbu	a4,0(a4)
ffffffc05020c584:	00e78023          	sb	a4,0(a5)
ffffffc05020c588:	fdc42783          	lw	a5,-36(s0)
ffffffc05020c58c:	37fd                	addiw	a5,a5,-1
ffffffc05020c58e:	fcf42e23          	sw	a5,-36(s0)
ffffffc05020c592:	fdc42783          	lw	a5,-36(s0)
ffffffc05020c596:	2781                	sext.w	a5,a5
ffffffc05020c598:	fbe1                	bnez	a5,ffffffc05020c568 <memcpy+0x16>
ffffffc05020c59a:	0001                	nop
ffffffc05020c59c:	0001                	nop
ffffffc05020c59e:	7422                	ld	s0,40(sp)
ffffffc05020c5a0:	6145                	addi	sp,sp,48
ffffffc05020c5a2:	8082                	ret

ffffffc05020c5a4 <memset>:
ffffffc05020c5a4:	7179                	addi	sp,sp,-48
ffffffc05020c5a6:	f422                	sd	s0,40(sp)
ffffffc05020c5a8:	1800                	addi	s0,sp,48
ffffffc05020c5aa:	fca43c23          	sd	a0,-40(s0)
ffffffc05020c5ae:	87ae                	mv	a5,a1
ffffffc05020c5b0:	8732                	mv	a4,a2
ffffffc05020c5b2:	fcf40ba3          	sb	a5,-41(s0)
ffffffc05020c5b6:	87ba                	mv	a5,a4
ffffffc05020c5b8:	fcf42823          	sw	a5,-48(s0)
ffffffc05020c5bc:	fd843783          	ld	a5,-40(s0)
ffffffc05020c5c0:	fef43423          	sd	a5,-24(s0)
ffffffc05020c5c4:	a005                	j	ffffffc05020c5e4 <memset+0x40>
ffffffc05020c5c6:	fe843783          	ld	a5,-24(s0)
ffffffc05020c5ca:	00178713          	addi	a4,a5,1
ffffffc05020c5ce:	fee43423          	sd	a4,-24(s0)
ffffffc05020c5d2:	fd744703          	lbu	a4,-41(s0)
ffffffc05020c5d6:	00e78023          	sb	a4,0(a5)
ffffffc05020c5da:	fd042783          	lw	a5,-48(s0)
ffffffc05020c5de:	37fd                	addiw	a5,a5,-1
ffffffc05020c5e0:	fcf42823          	sw	a5,-48(s0)
ffffffc05020c5e4:	fd042783          	lw	a5,-48(s0)
ffffffc05020c5e8:	2781                	sext.w	a5,a5
ffffffc05020c5ea:	fff1                	bnez	a5,ffffffc05020c5c6 <memset+0x22>
ffffffc05020c5ec:	0001                	nop
ffffffc05020c5ee:	0001                	nop
ffffffc05020c5f0:	7422                	ld	s0,40(sp)
ffffffc05020c5f2:	6145                	addi	sp,sp,48
ffffffc05020c5f4:	8082                	ret

ffffffc05020c5f6 <bzero>:
ffffffc05020c5f6:	1101                	addi	sp,sp,-32
ffffffc05020c5f8:	ec06                	sd	ra,24(sp)
ffffffc05020c5fa:	e822                	sd	s0,16(sp)
ffffffc05020c5fc:	1000                	addi	s0,sp,32
ffffffc05020c5fe:	fea43423          	sd	a0,-24(s0)
ffffffc05020c602:	87ae                	mv	a5,a1
ffffffc05020c604:	fef42223          	sw	a5,-28(s0)
ffffffc05020c608:	fe442783          	lw	a5,-28(s0)
ffffffc05020c60c:	863e                	mv	a2,a5
ffffffc05020c60e:	4581                	li	a1,0
ffffffc05020c610:	fe843503          	ld	a0,-24(s0)
ffffffc05020c614:	f91ff0ef          	jal	ra,ffffffc05020c5a4 <memset>
ffffffc05020c618:	0001                	nop
ffffffc05020c61a:	60e2                	ld	ra,24(sp)
ffffffc05020c61c:	6442                	ld	s0,16(sp)
ffffffc05020c61e:	6105                	addi	sp,sp,32
ffffffc05020c620:	8082                	ret

ffffffc05020c622 <strlen>:
ffffffc05020c622:	7179                	addi	sp,sp,-48
ffffffc05020c624:	f422                	sd	s0,40(sp)
ffffffc05020c626:	1800                	addi	s0,sp,48
ffffffc05020c628:	fca43c23          	sd	a0,-40(s0)
ffffffc05020c62c:	fe042623          	sw	zero,-20(s0)
ffffffc05020c630:	a031                	j	ffffffc05020c63c <strlen+0x1a>
ffffffc05020c632:	fec42783          	lw	a5,-20(s0)
ffffffc05020c636:	2785                	addiw	a5,a5,1
ffffffc05020c638:	fef42623          	sw	a5,-20(s0)
ffffffc05020c63c:	fec42783          	lw	a5,-20(s0)
ffffffc05020c640:	fd843703          	ld	a4,-40(s0)
ffffffc05020c644:	97ba                	add	a5,a5,a4
ffffffc05020c646:	0007c783          	lbu	a5,0(a5)
ffffffc05020c64a:	f7e5                	bnez	a5,ffffffc05020c632 <strlen+0x10>
ffffffc05020c64c:	fec42783          	lw	a5,-20(s0)
ffffffc05020c650:	853e                	mv	a0,a5
ffffffc05020c652:	7422                	ld	s0,40(sp)
ffffffc05020c654:	6145                	addi	sp,sp,48
ffffffc05020c656:	8082                	ret

ffffffc05020c658 <strcmp>:
ffffffc05020c658:	1101                	addi	sp,sp,-32
ffffffc05020c65a:	ec22                	sd	s0,24(sp)
ffffffc05020c65c:	1000                	addi	s0,sp,32
ffffffc05020c65e:	fea43423          	sd	a0,-24(s0)
ffffffc05020c662:	feb43023          	sd	a1,-32(s0)
ffffffc05020c666:	a0a1                	j	ffffffc05020c6ae <strcmp+0x56>
ffffffc05020c668:	fe843783          	ld	a5,-24(s0)
ffffffc05020c66c:	0007c703          	lbu	a4,0(a5)
ffffffc05020c670:	fe043783          	ld	a5,-32(s0)
ffffffc05020c674:	0007c783          	lbu	a5,0(a5)
ffffffc05020c678:	02f70163          	beq	a4,a5,ffffffc05020c69a <strcmp+0x42>
ffffffc05020c67c:	fe843783          	ld	a5,-24(s0)
ffffffc05020c680:	0007c783          	lbu	a5,0(a5)
ffffffc05020c684:	0007871b          	sext.w	a4,a5
ffffffc05020c688:	fe043783          	ld	a5,-32(s0)
ffffffc05020c68c:	0007c783          	lbu	a5,0(a5)
ffffffc05020c690:	2781                	sext.w	a5,a5
ffffffc05020c692:	40f707bb          	subw	a5,a4,a5
ffffffc05020c696:	2781                	sext.w	a5,a5
ffffffc05020c698:	a099                	j	ffffffc05020c6de <strcmp+0x86>
ffffffc05020c69a:	fe843783          	ld	a5,-24(s0)
ffffffc05020c69e:	0785                	addi	a5,a5,1
ffffffc05020c6a0:	fef43423          	sd	a5,-24(s0)
ffffffc05020c6a4:	fe043783          	ld	a5,-32(s0)
ffffffc05020c6a8:	0785                	addi	a5,a5,1
ffffffc05020c6aa:	fef43023          	sd	a5,-32(s0)
ffffffc05020c6ae:	fe843783          	ld	a5,-24(s0)
ffffffc05020c6b2:	0007c783          	lbu	a5,0(a5)
ffffffc05020c6b6:	c791                	beqz	a5,ffffffc05020c6c2 <strcmp+0x6a>
ffffffc05020c6b8:	fe043783          	ld	a5,-32(s0)
ffffffc05020c6bc:	0007c783          	lbu	a5,0(a5)
ffffffc05020c6c0:	f7c5                	bnez	a5,ffffffc05020c668 <strcmp+0x10>
ffffffc05020c6c2:	fe843783          	ld	a5,-24(s0)
ffffffc05020c6c6:	0007c783          	lbu	a5,0(a5)
ffffffc05020c6ca:	0007871b          	sext.w	a4,a5
ffffffc05020c6ce:	fe043783          	ld	a5,-32(s0)
ffffffc05020c6d2:	0007c783          	lbu	a5,0(a5)
ffffffc05020c6d6:	2781                	sext.w	a5,a5
ffffffc05020c6d8:	40f707bb          	subw	a5,a4,a5
ffffffc05020c6dc:	2781                	sext.w	a5,a5
ffffffc05020c6de:	853e                	mv	a0,a5
ffffffc05020c6e0:	6462                	ld	s0,24(sp)
ffffffc05020c6e2:	6105                	addi	sp,sp,32
ffffffc05020c6e4:	8082                	ret

ffffffc05020c6e6 <strncmp>:
ffffffc05020c6e6:	7179                	addi	sp,sp,-48
ffffffc05020c6e8:	f422                	sd	s0,40(sp)
ffffffc05020c6ea:	1800                	addi	s0,sp,48
ffffffc05020c6ec:	fea43423          	sd	a0,-24(s0)
ffffffc05020c6f0:	feb43023          	sd	a1,-32(s0)
ffffffc05020c6f4:	87b2                	mv	a5,a2
ffffffc05020c6f6:	fcf42e23          	sw	a5,-36(s0)
ffffffc05020c6fa:	a0a1                	j	ffffffc05020c742 <strncmp+0x5c>
ffffffc05020c6fc:	fe843783          	ld	a5,-24(s0)
ffffffc05020c700:	0007c703          	lbu	a4,0(a5)
ffffffc05020c704:	fe043783          	ld	a5,-32(s0)
ffffffc05020c708:	0007c783          	lbu	a5,0(a5)
ffffffc05020c70c:	02f70163          	beq	a4,a5,ffffffc05020c72e <strncmp+0x48>
ffffffc05020c710:	fe843783          	ld	a5,-24(s0)
ffffffc05020c714:	0007c783          	lbu	a5,0(a5)
ffffffc05020c718:	0007871b          	sext.w	a4,a5
ffffffc05020c71c:	fe043783          	ld	a5,-32(s0)
ffffffc05020c720:	0007c783          	lbu	a5,0(a5)
ffffffc05020c724:	2781                	sext.w	a5,a5
ffffffc05020c726:	40f707bb          	subw	a5,a4,a5
ffffffc05020c72a:	2781                	sext.w	a5,a5
ffffffc05020c72c:	a899                	j	ffffffc05020c782 <strncmp+0x9c>
ffffffc05020c72e:	fe843783          	ld	a5,-24(s0)
ffffffc05020c732:	0785                	addi	a5,a5,1
ffffffc05020c734:	fef43423          	sd	a5,-24(s0)
ffffffc05020c738:	fe043783          	ld	a5,-32(s0)
ffffffc05020c73c:	0785                	addi	a5,a5,1
ffffffc05020c73e:	fef43023          	sd	a5,-32(s0)
ffffffc05020c742:	fe843783          	ld	a5,-24(s0)
ffffffc05020c746:	0007c783          	lbu	a5,0(a5)
ffffffc05020c74a:	cf91                	beqz	a5,ffffffc05020c766 <strncmp+0x80>
ffffffc05020c74c:	fe043783          	ld	a5,-32(s0)
ffffffc05020c750:	0007c783          	lbu	a5,0(a5)
ffffffc05020c754:	cb89                	beqz	a5,ffffffc05020c766 <strncmp+0x80>
ffffffc05020c756:	fdc42783          	lw	a5,-36(s0)
ffffffc05020c75a:	fff7871b          	addiw	a4,a5,-1
ffffffc05020c75e:	fce42e23          	sw	a4,-36(s0)
ffffffc05020c762:	f8f04de3          	bgtz	a5,ffffffc05020c6fc <strncmp+0x16>
ffffffc05020c766:	fe843783          	ld	a5,-24(s0)
ffffffc05020c76a:	0007c783          	lbu	a5,0(a5)
ffffffc05020c76e:	0007871b          	sext.w	a4,a5
ffffffc05020c772:	fe043783          	ld	a5,-32(s0)
ffffffc05020c776:	0007c783          	lbu	a5,0(a5)
ffffffc05020c77a:	2781                	sext.w	a5,a5
ffffffc05020c77c:	40f707bb          	subw	a5,a4,a5
ffffffc05020c780:	2781                	sext.w	a5,a5
ffffffc05020c782:	853e                	mv	a0,a5
ffffffc05020c784:	7422                	ld	s0,40(sp)
ffffffc05020c786:	6145                	addi	sp,sp,48
ffffffc05020c788:	8082                	ret

ffffffc05020c78a <strcpy>:
ffffffc05020c78a:	7179                	addi	sp,sp,-48
ffffffc05020c78c:	f422                	sd	s0,40(sp)
ffffffc05020c78e:	1800                	addi	s0,sp,48
ffffffc05020c790:	fca43c23          	sd	a0,-40(s0)
ffffffc05020c794:	fcb43823          	sd	a1,-48(s0)
ffffffc05020c798:	fd843783          	ld	a5,-40(s0)
ffffffc05020c79c:	fef43423          	sd	a5,-24(s0)
ffffffc05020c7a0:	a00d                	j	ffffffc05020c7c2 <strcpy+0x38>
ffffffc05020c7a2:	fd043703          	ld	a4,-48(s0)
ffffffc05020c7a6:	00170793          	addi	a5,a4,1
ffffffc05020c7aa:	fcf43823          	sd	a5,-48(s0)
ffffffc05020c7ae:	fd843783          	ld	a5,-40(s0)
ffffffc05020c7b2:	00178693          	addi	a3,a5,1
ffffffc05020c7b6:	fcd43c23          	sd	a3,-40(s0)
ffffffc05020c7ba:	00074703          	lbu	a4,0(a4)
ffffffc05020c7be:	00e78023          	sb	a4,0(a5)
ffffffc05020c7c2:	fd043783          	ld	a5,-48(s0)
ffffffc05020c7c6:	0007c783          	lbu	a5,0(a5)
ffffffc05020c7ca:	ffe1                	bnez	a5,ffffffc05020c7a2 <strcpy+0x18>
ffffffc05020c7cc:	fd843783          	ld	a5,-40(s0)
ffffffc05020c7d0:	00078023          	sb	zero,0(a5)
ffffffc05020c7d4:	fe843783          	ld	a5,-24(s0)
ffffffc05020c7d8:	853e                	mv	a0,a5
ffffffc05020c7da:	7422                	ld	s0,40(sp)
ffffffc05020c7dc:	6145                	addi	sp,sp,48
ffffffc05020c7de:	8082                	ret

ffffffc05020c7e0 <strncpy>:
ffffffc05020c7e0:	7139                	addi	sp,sp,-64
ffffffc05020c7e2:	fc22                	sd	s0,56(sp)
ffffffc05020c7e4:	0080                	addi	s0,sp,64
ffffffc05020c7e6:	fca43c23          	sd	a0,-40(s0)
ffffffc05020c7ea:	fcb43823          	sd	a1,-48(s0)
ffffffc05020c7ee:	87b2                	mv	a5,a2
ffffffc05020c7f0:	fcf42623          	sw	a5,-52(s0)
ffffffc05020c7f4:	fd843783          	ld	a5,-40(s0)
ffffffc05020c7f8:	fef43423          	sd	a5,-24(s0)
ffffffc05020c7fc:	a00d                	j	ffffffc05020c81e <strncpy+0x3e>
ffffffc05020c7fe:	fd043703          	ld	a4,-48(s0)
ffffffc05020c802:	00170793          	addi	a5,a4,1
ffffffc05020c806:	fcf43823          	sd	a5,-48(s0)
ffffffc05020c80a:	fd843783          	ld	a5,-40(s0)
ffffffc05020c80e:	00178693          	addi	a3,a5,1
ffffffc05020c812:	fcd43c23          	sd	a3,-40(s0)
ffffffc05020c816:	00074703          	lbu	a4,0(a4)
ffffffc05020c81a:	00e78023          	sb	a4,0(a5)
ffffffc05020c81e:	fd043783          	ld	a5,-48(s0)
ffffffc05020c822:	0007c783          	lbu	a5,0(a5)
ffffffc05020c826:	c395                	beqz	a5,ffffffc05020c84a <strncpy+0x6a>
ffffffc05020c828:	fcc42783          	lw	a5,-52(s0)
ffffffc05020c82c:	fff7871b          	addiw	a4,a5,-1
ffffffc05020c830:	fce42623          	sw	a4,-52(s0)
ffffffc05020c834:	fcf045e3          	bgtz	a5,ffffffc05020c7fe <strncpy+0x1e>
ffffffc05020c838:	a809                	j	ffffffc05020c84a <strncpy+0x6a>
ffffffc05020c83a:	fd843783          	ld	a5,-40(s0)
ffffffc05020c83e:	00178713          	addi	a4,a5,1
ffffffc05020c842:	fce43c23          	sd	a4,-40(s0)
ffffffc05020c846:	00078023          	sb	zero,0(a5)
ffffffc05020c84a:	fcc42783          	lw	a5,-52(s0)
ffffffc05020c84e:	fff7871b          	addiw	a4,a5,-1
ffffffc05020c852:	fce42623          	sw	a4,-52(s0)
ffffffc05020c856:	fef042e3          	bgtz	a5,ffffffc05020c83a <strncpy+0x5a>
ffffffc05020c85a:	fe843783          	ld	a5,-24(s0)
ffffffc05020c85e:	853e                	mv	a0,a5
ffffffc05020c860:	7462                	ld	s0,56(sp)
ffffffc05020c862:	6121                	addi	sp,sp,64
ffffffc05020c864:	8082                	ret

ffffffc05020c866 <strcat>:
ffffffc05020c866:	7179                	addi	sp,sp,-48
ffffffc05020c868:	f422                	sd	s0,40(sp)
ffffffc05020c86a:	1800                	addi	s0,sp,48
ffffffc05020c86c:	fca43c23          	sd	a0,-40(s0)
ffffffc05020c870:	fcb43823          	sd	a1,-48(s0)
ffffffc05020c874:	fd843783          	ld	a5,-40(s0)
ffffffc05020c878:	fef43423          	sd	a5,-24(s0)
ffffffc05020c87c:	a031                	j	ffffffc05020c888 <strcat+0x22>
ffffffc05020c87e:	fd843783          	ld	a5,-40(s0)
ffffffc05020c882:	0785                	addi	a5,a5,1
ffffffc05020c884:	fcf43c23          	sd	a5,-40(s0)
ffffffc05020c888:	fd843783          	ld	a5,-40(s0)
ffffffc05020c88c:	0007c783          	lbu	a5,0(a5)
ffffffc05020c890:	f7fd                	bnez	a5,ffffffc05020c87e <strcat+0x18>
ffffffc05020c892:	a00d                	j	ffffffc05020c8b4 <strcat+0x4e>
ffffffc05020c894:	fd043703          	ld	a4,-48(s0)
ffffffc05020c898:	00170793          	addi	a5,a4,1
ffffffc05020c89c:	fcf43823          	sd	a5,-48(s0)
ffffffc05020c8a0:	fd843783          	ld	a5,-40(s0)
ffffffc05020c8a4:	00178693          	addi	a3,a5,1
ffffffc05020c8a8:	fcd43c23          	sd	a3,-40(s0)
ffffffc05020c8ac:	00074703          	lbu	a4,0(a4)
ffffffc05020c8b0:	00e78023          	sb	a4,0(a5)
ffffffc05020c8b4:	fd043783          	ld	a5,-48(s0)
ffffffc05020c8b8:	0007c783          	lbu	a5,0(a5)
ffffffc05020c8bc:	ffe1                	bnez	a5,ffffffc05020c894 <strcat+0x2e>
ffffffc05020c8be:	fd843783          	ld	a5,-40(s0)
ffffffc05020c8c2:	00078023          	sb	zero,0(a5)
ffffffc05020c8c6:	fe843783          	ld	a5,-24(s0)
ffffffc05020c8ca:	853e                	mv	a0,a5
ffffffc05020c8cc:	7422                	ld	s0,40(sp)
ffffffc05020c8ce:	6145                	addi	sp,sp,48
ffffffc05020c8d0:	8082                	ret
