
build/main:     file format elf64-littleriscv


Disassembly of section .text:

0000000050201000 <_start>:
    50201000:	10401073          	csrw	sie,zero
    50201004:	14401073          	csrw	sip,zero
    50201008:	00003297          	auipc	t0,0x3
    5020100c:	78428293          	addi	t0,t0,1924 # 5020478c <_edata>
    50201010:	00006317          	auipc	t1,0x6
    50201014:	43830313          	addi	t1,t1,1080 # 50207448 <__BSS_END__>
    50201018:	00000393          	li	t2,0

000000005020101c <clbss>:
    5020101c:	0072a023          	sw	t2,0(t0)
    50201020:	0291                	addi	t0,t0,4
    50201022:	fe629de3          	bne	t0,t1,5020101c <clbss>
    50201026:	50500137          	lui	sp,0x50500
    5020102a:	195000ef          	jal	ra,502019be <main>

000000005020102e <loop>:
    5020102e:	10500073          	wfi
    50201032:	bff5                	j	5020102e <loop>
    50201034:	0000                	unimp
	...

0000000050201038 <enable_preempt>:
    50201038:	fff04293          	not	t0,zero
    5020103c:	1042a073          	csrs	sie,t0
    50201040:	8082                	ret
    50201042:	0001                	nop

0000000050201044 <disable_preempt>:
    50201044:	10401073          	csrw	sie,zero
    50201048:	8082                	ret
    5020104a:	0001                	nop

000000005020104c <enable_interrupt>:
    5020104c:	4289                	li	t0,2
    5020104e:	1002a073          	csrs	sstatus,t0
    50201052:	8082                	ret

0000000050201054 <disable_interrupt>:
    50201054:	4289                	li	t0,2
    50201056:	1002b073          	csrc	sstatus,t0
    5020105a:	8082                	ret

000000005020105c <switch_to>:
    5020105c:	00053283          	ld	t0,0(a0)
    50201060:	0012b023          	sd	ra,0(t0)
    50201064:	0022b423          	sd	sp,8(t0)
    50201068:	0082b823          	sd	s0,16(t0)
    5020106c:	0092bc23          	sd	s1,24(t0)
    50201070:	0322b023          	sd	s2,32(t0)
    50201074:	0332b423          	sd	s3,40(t0)
    50201078:	0342b823          	sd	s4,48(t0)
    5020107c:	0352bc23          	sd	s5,56(t0)
    50201080:	0562b023          	sd	s6,64(t0)
    50201084:	0572b423          	sd	s7,72(t0)
    50201088:	0582b823          	sd	s8,80(t0)
    5020108c:	0592bc23          	sd	s9,88(t0)
    50201090:	07a2b023          	sd	s10,96(t0)
    50201094:	07b2b423          	sd	s11,104(t0)
    50201098:	0005b283          	ld	t0,0(a1)
    5020109c:	0002b083          	ld	ra,0(t0)
    502010a0:	0082b103          	ld	sp,8(t0)
    502010a4:	0102b403          	ld	s0,16(t0)
    502010a8:	0182b483          	ld	s1,24(t0)
    502010ac:	0202b903          	ld	s2,32(t0)
    502010b0:	0282b983          	ld	s3,40(t0)
    502010b4:	0302ba03          	ld	s4,48(t0)
    502010b8:	0382ba83          	ld	s5,56(t0)
    502010bc:	0402bb03          	ld	s6,64(t0)
    502010c0:	0482bb83          	ld	s7,72(t0)
    502010c4:	0502bc03          	ld	s8,80(t0)
    502010c8:	0582bc83          	ld	s9,88(t0)
    502010cc:	0602bd03          	ld	s10,96(t0)
    502010d0:	0682bd83          	ld	s11,104(t0)
    502010d4:	00058213          	mv	tp,a1
    502010d8:	8082                	ret
    502010da:	0001                	nop

00000000502010dc <ret_from_exception>:
    502010dc:	00023103          	ld	sp,0(tp) # 0 <TEXT_START-0x50201000>
    502010e0:	6165                	addi	sp,sp,112
    502010e2:	62b2                	ld	t0,264(sp)
    502010e4:	14129073          	csrw	sepc,t0
    502010e8:	6292                	ld	t0,256(sp)
    502010ea:	10029073          	csrw	sstatus,t0
    502010ee:	60a2                	ld	ra,8(sp)
    502010f0:	61e2                	ld	gp,24(sp)
    502010f2:	72a2                	ld	t0,40(sp)
    502010f4:	7342                	ld	t1,48(sp)
    502010f6:	73e2                	ld	t2,56(sp)
    502010f8:	6406                	ld	s0,64(sp)
    502010fa:	64a6                	ld	s1,72(sp)
    502010fc:	6546                	ld	a0,80(sp)
    502010fe:	65e6                	ld	a1,88(sp)
    50201100:	7606                	ld	a2,96(sp)
    50201102:	76a6                	ld	a3,104(sp)
    50201104:	7746                	ld	a4,112(sp)
    50201106:	77e6                	ld	a5,120(sp)
    50201108:	680a                	ld	a6,128(sp)
    5020110a:	68aa                	ld	a7,136(sp)
    5020110c:	694a                	ld	s2,144(sp)
    5020110e:	69ea                	ld	s3,152(sp)
    50201110:	7a0a                	ld	s4,160(sp)
    50201112:	7aaa                	ld	s5,168(sp)
    50201114:	7b4a                	ld	s6,176(sp)
    50201116:	7bea                	ld	s7,184(sp)
    50201118:	6c0e                	ld	s8,192(sp)
    5020111a:	6cae                	ld	s9,200(sp)
    5020111c:	6d4e                	ld	s10,208(sp)
    5020111e:	6dee                	ld	s11,216(sp)
    50201120:	7e0e                	ld	t3,224(sp)
    50201122:	7eae                	ld	t4,232(sp)
    50201124:	7f4e                	ld	t5,240(sp)
    50201126:	7fee                	ld	t6,248(sp)
    50201128:	6142                	ld	sp,16(sp)
    5020112a:	10200073          	sret
    5020112e:	0001                	nop

0000000050201130 <exception_handler_entry>:
    50201130:	00223423          	sd	sp,8(tp) # 8 <TEXT_START-0x50200ff8>
    50201134:	00023103          	ld	sp,0(tp) # 0 <TEXT_START-0x50201000>
    50201138:	6165                	addi	sp,sp,112
    5020113a:	e002                	sd	zero,0(sp)
    5020113c:	e406                	sd	ra,8(sp)
    5020113e:	ec0e                	sd	gp,24(sp)
    50201140:	f416                	sd	t0,40(sp)
    50201142:	f81a                	sd	t1,48(sp)
    50201144:	fc1e                	sd	t2,56(sp)
    50201146:	e0a2                	sd	s0,64(sp)
    50201148:	e4a6                	sd	s1,72(sp)
    5020114a:	e8aa                	sd	a0,80(sp)
    5020114c:	ecae                	sd	a1,88(sp)
    5020114e:	f0b2                	sd	a2,96(sp)
    50201150:	f4b6                	sd	a3,104(sp)
    50201152:	f8ba                	sd	a4,112(sp)
    50201154:	fcbe                	sd	a5,120(sp)
    50201156:	e142                	sd	a6,128(sp)
    50201158:	e546                	sd	a7,136(sp)
    5020115a:	e94a                	sd	s2,144(sp)
    5020115c:	ed4e                	sd	s3,152(sp)
    5020115e:	f152                	sd	s4,160(sp)
    50201160:	f556                	sd	s5,168(sp)
    50201162:	f95a                	sd	s6,176(sp)
    50201164:	fd5e                	sd	s7,184(sp)
    50201166:	e1e2                	sd	s8,192(sp)
    50201168:	e5e6                	sd	s9,200(sp)
    5020116a:	e9ea                	sd	s10,208(sp)
    5020116c:	edee                	sd	s11,216(sp)
    5020116e:	f1f2                	sd	t3,224(sp)
    50201170:	f5f6                	sd	t4,232(sp)
    50201172:	f9fa                	sd	t5,240(sp)
    50201174:	fdfe                	sd	t6,248(sp)
    50201176:	00823283          	ld	t0,8(tp) # 8 <TEXT_START-0x50200ff8>
    5020117a:	e816                	sd	t0,16(sp)
    5020117c:	000462b7          	lui	t0,0x46
    50201180:	1002b073          	csrc	sstatus,t0
    50201184:	100022f3          	csrr	t0,sstatus
    50201188:	e216                	sd	t0,256(sp)
    5020118a:	141022f3          	csrr	t0,sepc
    5020118e:	e616                	sd	t0,264(sp)
    50201190:	143022f3          	csrr	t0,stval
    50201194:	ea16                	sd	t0,272(sp)
    50201196:	142022f3          	csrr	t0,scause
    5020119a:	ee16                	sd	t0,280(sp)
    5020119c:	00823103          	ld	sp,8(tp) # 8 <TEXT_START-0x50200ff8>
    502011a0:	00023283          	ld	t0,0(tp) # 0 <TEXT_START-0x50201000>
    502011a4:	07028513          	addi	a0,t0,112 # 46070 <TEXT_START-0x501baf90>
    502011a8:	143025f3          	csrr	a1,stval
    502011ac:	14202673          	csrr	a2,scause
    502011b0:	7d7000ef          	jal	ra,50202186 <interrupt_helper>
    502011b4:	00000097          	auipc	ra,0x0
    502011b8:	f2808093          	addi	ra,ra,-216 # 502010dc <ret_from_exception>
    502011bc:	8082                	ret
	...

00000000502011c0 <setup_exception>:
    502011c0:	00000297          	auipc	t0,0x0
    502011c4:	f7028293          	addi	t0,t0,-144 # 50201130 <exception_handler_entry>
    502011c8:	10529073          	csrw	stvec,t0
    502011cc:	00008313          	mv	t1,ra
    502011d0:	e7dff0ef          	jal	ra,5020104c <enable_interrupt>
    502011d4:	00030093          	mv	ra,t1
    502011d8:	8082                	ret

00000000502011da <Enqueue>:
    502011da:	7179                	addi	sp,sp,-48
    502011dc:	f422                	sd	s0,40(sp)
    502011de:	1800                	addi	s0,sp,48
    502011e0:	fca43c23          	sd	a0,-40(s0)
    502011e4:	fcb43823          	sd	a1,-48(s0)
    502011e8:	fd843783          	ld	a5,-40(s0)
    502011ec:	679c                	ld	a5,8(a5)
    502011ee:	fef43423          	sd	a5,-24(s0)
    502011f2:	fd843783          	ld	a5,-40(s0)
    502011f6:	639c                	ld	a5,0(a5)
    502011f8:	fef43023          	sd	a5,-32(s0)
    502011fc:	fe843703          	ld	a4,-24(s0)
    50201200:	fd843783          	ld	a5,-40(s0)
    50201204:	02f71f63          	bne	a4,a5,50201242 <Enqueue+0x68>
    50201208:	fe043703          	ld	a4,-32(s0)
    5020120c:	fd843783          	ld	a5,-40(s0)
    50201210:	02f71963          	bne	a4,a5,50201242 <Enqueue+0x68>
    50201214:	fd843783          	ld	a5,-40(s0)
    50201218:	fd043703          	ld	a4,-48(s0)
    5020121c:	e398                	sd	a4,0(a5)
    5020121e:	fd843783          	ld	a5,-40(s0)
    50201222:	6398                	ld	a4,0(a5)
    50201224:	fd843783          	ld	a5,-40(s0)
    50201228:	e798                	sd	a4,8(a5)
    5020122a:	fd043783          	ld	a5,-48(s0)
    5020122e:	fd843703          	ld	a4,-40(s0)
    50201232:	e398                	sd	a4,0(a5)
    50201234:	fd043783          	ld	a5,-48(s0)
    50201238:	6398                	ld	a4,0(a5)
    5020123a:	fd043783          	ld	a5,-48(s0)
    5020123e:	e798                	sd	a4,8(a5)
    50201240:	a035                	j	5020126c <Enqueue+0x92>
    50201242:	fd843783          	ld	a5,-40(s0)
    50201246:	fd043703          	ld	a4,-48(s0)
    5020124a:	e798                	sd	a4,8(a5)
    5020124c:	fd043783          	ld	a5,-48(s0)
    50201250:	fe843703          	ld	a4,-24(s0)
    50201254:	e398                	sd	a4,0(a5)
    50201256:	fd043783          	ld	a5,-48(s0)
    5020125a:	fd843703          	ld	a4,-40(s0)
    5020125e:	e798                	sd	a4,8(a5)
    50201260:	fe843783          	ld	a5,-24(s0)
    50201264:	fd043703          	ld	a4,-48(s0)
    50201268:	e798                	sd	a4,8(a5)
    5020126a:	0001                	nop
    5020126c:	0001                	nop
    5020126e:	7422                	ld	s0,40(sp)
    50201270:	6145                	addi	sp,sp,48
    50201272:	8082                	ret

0000000050201274 <Print_queue>:
    50201274:	7139                	addi	sp,sp,-64
    50201276:	fc06                	sd	ra,56(sp)
    50201278:	f822                	sd	s0,48(sp)
    5020127a:	0080                	addi	s0,sp,64
    5020127c:	fca43423          	sd	a0,-56(s0)
    50201280:	00003517          	auipc	a0,0x3
    50201284:	d4850513          	addi	a0,a0,-696 # 50203fc8 <strcat+0x6c>
    50201288:	169020ef          	jal	ra,50203bf0 <printl>
    5020128c:	fc843783          	ld	a5,-56(s0)
    50201290:	679c                	ld	a5,8(a5)
    50201292:	fef43023          	sd	a5,-32(s0)
    50201296:	fc843783          	ld	a5,-56(s0)
    5020129a:	639c                	ld	a5,0(a5)
    5020129c:	fcf43c23          	sd	a5,-40(s0)
    502012a0:	fe043783          	ld	a5,-32(s0)
    502012a4:	fef43423          	sd	a5,-24(s0)
    502012a8:	fe043703          	ld	a4,-32(s0)
    502012ac:	fc843783          	ld	a5,-56(s0)
    502012b0:	00f71f63          	bne	a4,a5,502012ce <Print_queue+0x5a>
    502012b4:	fd843703          	ld	a4,-40(s0)
    502012b8:	fc843783          	ld	a5,-56(s0)
    502012bc:	00f71963          	bne	a4,a5,502012ce <Print_queue+0x5a>
    502012c0:	00003517          	auipc	a0,0x3
    502012c4:	d2850513          	addi	a0,a0,-728 # 50203fe8 <strcat+0x8c>
    502012c8:	129020ef          	jal	ra,50203bf0 <printl>
    502012cc:	a081                	j	5020130c <Print_queue+0x98>
    502012ce:	00003517          	auipc	a0,0x3
    502012d2:	d2a50513          	addi	a0,a0,-726 # 50203ff8 <strcat+0x9c>
    502012d6:	11b020ef          	jal	ra,50203bf0 <printl>
    502012da:	fe843583          	ld	a1,-24(s0)
    502012de:	00003517          	auipc	a0,0x3
    502012e2:	d2250513          	addi	a0,a0,-734 # 50204000 <strcat+0xa4>
    502012e6:	10b020ef          	jal	ra,50203bf0 <printl>
    502012ea:	fe843783          	ld	a5,-24(s0)
    502012ee:	639c                	ld	a5,0(a5)
    502012f0:	fef43423          	sd	a5,-24(s0)
    502012f4:	fe843703          	ld	a4,-24(s0)
    502012f8:	fc843783          	ld	a5,-56(s0)
    502012fc:	fcf71fe3          	bne	a4,a5,502012da <Print_queue+0x66>
    50201300:	00003517          	auipc	a0,0x3
    50201304:	d0850513          	addi	a0,a0,-760 # 50204008 <strcat+0xac>
    50201308:	0e9020ef          	jal	ra,50203bf0 <printl>
    5020130c:	70e2                	ld	ra,56(sp)
    5020130e:	7442                	ld	s0,48(sp)
    50201310:	6121                	addi	sp,sp,64
    50201312:	8082                	ret

0000000050201314 <call_jmptab>:
    50201314:	7139                	addi	sp,sp,-64
    50201316:	fc06                	sd	ra,56(sp)
    50201318:	f822                	sd	s0,48(sp)
    5020131a:	0080                	addi	s0,sp,64
    5020131c:	fca43c23          	sd	a0,-40(s0)
    50201320:	fcb43823          	sd	a1,-48(s0)
    50201324:	fcc43423          	sd	a2,-56(s0)
    50201328:	fcd43023          	sd	a3,-64(s0)
    5020132c:	fd843703          	ld	a4,-40(s0)
    50201330:	0a4007b7          	lui	a5,0xa400
    50201334:	1781                	addi	a5,a5,-32
    50201336:	97ba                	add	a5,a5,a4
    50201338:	078e                	slli	a5,a5,0x3
    5020133a:	639c                	ld	a5,0(a5)
    5020133c:	fef43423          	sd	a5,-24(s0)
    50201340:	fe843783          	ld	a5,-24(s0)
    50201344:	fef43023          	sd	a5,-32(s0)
    50201348:	fe043783          	ld	a5,-32(s0)
    5020134c:	fc043603          	ld	a2,-64(s0)
    50201350:	fc843583          	ld	a1,-56(s0)
    50201354:	fd043503          	ld	a0,-48(s0)
    50201358:	9782                	jalr	a5
    5020135a:	87aa                	mv	a5,a0
    5020135c:	853e                	mv	a0,a5
    5020135e:	70e2                	ld	ra,56(sp)
    50201360:	7442                	ld	s0,48(sp)
    50201362:	6121                	addi	sp,sp,64
    50201364:	8082                	ret

0000000050201366 <bios_set_timer>:
    50201366:	1101                	addi	sp,sp,-32
    50201368:	ec06                	sd	ra,24(sp)
    5020136a:	e822                	sd	s0,16(sp)
    5020136c:	1000                	addi	s0,sp,32
    5020136e:	fea43423          	sd	a0,-24(s0)
    50201372:	fe843783          	ld	a5,-24(s0)
    50201376:	4681                	li	a3,0
    50201378:	4601                	li	a2,0
    5020137a:	85be                	mv	a1,a5
    5020137c:	4515                	li	a0,5
    5020137e:	f97ff0ef          	jal	ra,50201314 <call_jmptab>
    50201382:	0001                	nop
    50201384:	60e2                	ld	ra,24(sp)
    50201386:	6442                	ld	s0,16(sp)
    50201388:	6105                	addi	sp,sp,32
    5020138a:	8082                	ret

000000005020138c <bios_read_fdt>:
    5020138c:	1101                	addi	sp,sp,-32
    5020138e:	ec06                	sd	ra,24(sp)
    50201390:	e822                	sd	s0,16(sp)
    50201392:	1000                	addi	s0,sp,32
    50201394:	87aa                	mv	a5,a0
    50201396:	fef42623          	sw	a5,-20(s0)
    5020139a:	fec46783          	lwu	a5,-20(s0)
    5020139e:	4681                	li	a3,0
    502013a0:	4601                	li	a2,0
    502013a2:	85be                	mv	a1,a5
    502013a4:	4519                	li	a0,6
    502013a6:	f6fff0ef          	jal	ra,50201314 <call_jmptab>
    502013aa:	87aa                	mv	a5,a0
    502013ac:	853e                	mv	a0,a5
    502013ae:	60e2                	ld	ra,24(sp)
    502013b0:	6442                	ld	s0,16(sp)
    502013b2:	6105                	addi	sp,sp,32
    502013b4:	8082                	ret

00000000502013b6 <init_jmptab>:
    502013b6:	1101                	addi	sp,sp,-32
    502013b8:	ec22                	sd	s0,24(sp)
    502013ba:	1000                	addi	s0,sp,32
    502013bc:	520007b7          	lui	a5,0x52000
    502013c0:	f0078793          	addi	a5,a5,-256 # 51ffff00 <__BSS_END__+0x1df8ab8>
    502013c4:	fef43423          	sd	a5,-24(s0)
    502013c8:	fe843783          	ld	a5,-24(s0)
    502013cc:	00000717          	auipc	a4,0x0
    502013d0:	7ac70713          	addi	a4,a4,1964 # 50201b78 <port_write>
    502013d4:	e398                	sd	a4,0(a5)
    502013d6:	fe843783          	ld	a5,-24(s0)
    502013da:	07a1                	addi	a5,a5,8
    502013dc:	00000717          	auipc	a4,0x0
    502013e0:	77270713          	addi	a4,a4,1906 # 50201b4e <port_write_ch>
    502013e4:	e398                	sd	a4,0(a5)
    502013e6:	fe843783          	ld	a5,-24(s0)
    502013ea:	07c1                	addi	a5,a5,16
    502013ec:	00000717          	auipc	a4,0x0
    502013f0:	7b470713          	addi	a4,a4,1972 # 50201ba0 <port_read_ch>
    502013f4:	e398                	sd	a4,0(a5)
    502013f6:	fe843783          	ld	a5,-24(s0)
    502013fa:	07e1                	addi	a5,a5,24
    502013fc:	00000717          	auipc	a4,0x0
    50201400:	7ca70713          	addi	a4,a4,1994 # 50201bc6 <sd_read>
    50201404:	e398                	sd	a4,0(a5)
    50201406:	fe843783          	ld	a5,-24(s0)
    5020140a:	02078793          	addi	a5,a5,32
    5020140e:	00001717          	auipc	a4,0x1
    50201412:	84e70713          	addi	a4,a4,-1970 # 50201c5c <qemu_logging>
    50201416:	e398                	sd	a4,0(a5)
    50201418:	fe843783          	ld	a5,-24(s0)
    5020141c:	02878793          	addi	a5,a5,40
    50201420:	00000717          	auipc	a4,0x0
    50201424:	7e870713          	addi	a4,a4,2024 # 50201c08 <set_timer>
    50201428:	e398                	sd	a4,0(a5)
    5020142a:	fe843783          	ld	a5,-24(s0)
    5020142e:	03078793          	addi	a5,a5,48
    50201432:	00000717          	auipc	a4,0x0
    50201436:	7fe70713          	addi	a4,a4,2046 # 50201c30 <read_fdt>
    5020143a:	e398                	sd	a4,0(a5)
    5020143c:	fe843783          	ld	a5,-24(s0)
    50201440:	03878793          	addi	a5,a5,56
    50201444:	00001717          	auipc	a4,0x1
    50201448:	a8670713          	addi	a4,a4,-1402 # 50201eca <screen_move_cursor>
    5020144c:	e398                	sd	a4,0(a5)
    5020144e:	fe843783          	ld	a5,-24(s0)
    50201452:	04078793          	addi	a5,a5,64
    50201456:	00002717          	auipc	a4,0x2
    5020145a:	68a70713          	addi	a4,a4,1674 # 50203ae0 <printk>
    5020145e:	e398                	sd	a4,0(a5)
    50201460:	fe843783          	ld	a5,-24(s0)
    50201464:	04878793          	addi	a5,a5,72
    50201468:	00002717          	auipc	a4,0x2
    5020146c:	9e270713          	addi	a4,a4,-1566 # 50202e4a <do_scheduler>
    50201470:	e398                	sd	a4,0(a5)
    50201472:	fe843783          	ld	a5,-24(s0)
    50201476:	05078793          	addi	a5,a5,80
    5020147a:	00001717          	auipc	a4,0x1
    5020147e:	3bc70713          	addi	a4,a4,956 # 50202836 <do_mutex_lock_init>
    50201482:	e398                	sd	a4,0(a5)
    50201484:	fe843783          	ld	a5,-24(s0)
    50201488:	05878793          	addi	a5,a5,88
    5020148c:	00001717          	auipc	a4,0x1
    50201490:	45070713          	addi	a4,a4,1104 # 502028dc <do_mutex_lock_acquire>
    50201494:	e398                	sd	a4,0(a5)
    50201496:	fe843783          	ld	a5,-24(s0)
    5020149a:	06078793          	addi	a5,a5,96
    5020149e:	00001717          	auipc	a4,0x1
    502014a2:	50a70713          	addi	a4,a4,1290 # 502029a8 <do_mutex_lock_release>
    502014a6:	e398                	sd	a4,0(a5)
    502014a8:	0001                	nop
    502014aa:	6462                	ld	s0,24(sp)
    502014ac:	6105                	addi	sp,sp,32
    502014ae:	8082                	ret

00000000502014b0 <init_task_info>:
    502014b0:	7179                	addi	sp,sp,-48
    502014b2:	f406                	sd	ra,40(sp)
    502014b4:	f022                	sd	s0,32(sp)
    502014b6:	1800                	addi	s0,sp,48
    502014b8:	87aa                	mv	a5,a0
    502014ba:	872e                	mv	a4,a1
    502014bc:	fcf41f23          	sh	a5,-34(s0)
    502014c0:	87ba                	mv	a5,a4
    502014c2:	fcf41e23          	sh	a5,-36(s0)
    502014c6:	fde41783          	lh	a5,-34(s0)
    502014ca:	0007871b          	sext.w	a4,a5
    502014ce:	520307b7          	lui	a5,0x52030
    502014d2:	9fb9                	addw	a5,a5,a4
    502014d4:	fef42623          	sw	a5,-20(s0)
    502014d8:	fec42783          	lw	a5,-20(s0)
    502014dc:	fef43023          	sd	a5,-32(s0)
    502014e0:	fdc41783          	lh	a5,-36(s0)
    502014e4:	2781                	sext.w	a5,a5
    502014e6:	0047979b          	slliw	a5,a5,0x4
    502014ea:	2781                	sext.w	a5,a5
    502014ec:	863e                	mv	a2,a5
    502014ee:	fe043583          	ld	a1,-32(s0)
    502014f2:	00005517          	auipc	a0,0x5
    502014f6:	1ee50513          	addi	a0,a0,494 # 502066e0 <tasks>
    502014fa:	74e020ef          	jal	ra,50203c48 <memcpy>
    502014fe:	0001                	nop
    50201500:	70a2                	ld	ra,40(sp)
    50201502:	7402                	ld	s0,32(sp)
    50201504:	6145                	addi	sp,sp,48
    50201506:	8082                	ret

0000000050201508 <init_pcb_stack>:
    50201508:	7139                	addi	sp,sp,-64
    5020150a:	fc06                	sd	ra,56(sp)
    5020150c:	f822                	sd	s0,48(sp)
    5020150e:	0080                	addi	s0,sp,64
    50201510:	fca43c23          	sd	a0,-40(s0)
    50201514:	fcb43823          	sd	a1,-48(s0)
    50201518:	fcc43423          	sd	a2,-56(s0)
    5020151c:	fcd43023          	sd	a3,-64(s0)
    50201520:	fd843783          	ld	a5,-40(s0)
    50201524:	ee078793          	addi	a5,a5,-288 # 5202fee0 <__BSS_END__+0x1e28a98>
    50201528:	fef43423          	sd	a5,-24(s0)
    5020152c:	fc043783          	ld	a5,-64(s0)
    50201530:	fd043703          	ld	a4,-48(s0)
    50201534:	e798                	sd	a4,8(a5)
    50201536:	00000717          	auipc	a4,0x0
    5020153a:	ba670713          	addi	a4,a4,-1114 # 502010dc <ret_from_exception>
    5020153e:	fe843783          	ld	a5,-24(s0)
    50201542:	e798                	sd	a4,8(a5)
    50201544:	fe843783          	ld	a5,-24(s0)
    50201548:	fd043703          	ld	a4,-48(s0)
    5020154c:	eb98                	sd	a4,16(a5)
    5020154e:	fe843783          	ld	a5,-24(s0)
    50201552:	fc843703          	ld	a4,-56(s0)
    50201556:	10e7b423          	sd	a4,264(a5)
    5020155a:	fe843783          	ld	a5,-24(s0)
    5020155e:	02000713          	li	a4,32
    50201562:	10e7b023          	sd	a4,256(a5)
    50201566:	fe843783          	ld	a5,-24(s0)
    5020156a:	f9078793          	addi	a5,a5,-112
    5020156e:	fef43023          	sd	a5,-32(s0)
    50201572:	fe043703          	ld	a4,-32(s0)
    50201576:	fc043783          	ld	a5,-64(s0)
    5020157a:	e398                	sd	a4,0(a5)
    5020157c:	fe043583          	ld	a1,-32(s0)
    50201580:	00003517          	auipc	a0,0x3
    50201584:	a9050513          	addi	a0,a0,-1392 # 50204010 <strcat+0xb4>
    50201588:	668020ef          	jal	ra,50203bf0 <printl>
    5020158c:	00000717          	auipc	a4,0x0
    50201590:	b5070713          	addi	a4,a4,-1200 # 502010dc <ret_from_exception>
    50201594:	fe043783          	ld	a5,-32(s0)
    50201598:	e398                	sd	a4,0(a5)
    5020159a:	fe043783          	ld	a5,-32(s0)
    5020159e:	639c                	ld	a5,0(a5)
    502015a0:	85be                	mv	a1,a5
    502015a2:	00003517          	auipc	a0,0x3
    502015a6:	a8650513          	addi	a0,a0,-1402 # 50204028 <strcat+0xcc>
    502015aa:	646020ef          	jal	ra,50203bf0 <printl>
    502015ae:	fc843583          	ld	a1,-56(s0)
    502015b2:	00003517          	auipc	a0,0x3
    502015b6:	a9650513          	addi	a0,a0,-1386 # 50204048 <strcat+0xec>
    502015ba:	636020ef          	jal	ra,50203bf0 <printl>
    502015be:	fc043783          	ld	a5,-64(s0)
    502015c2:	6398                	ld	a4,0(a5)
    502015c4:	fe043783          	ld	a5,-32(s0)
    502015c8:	e798                	sd	a4,8(a5)
    502015ca:	fe043783          	ld	a5,-32(s0)
    502015ce:	679c                	ld	a5,8(a5)
    502015d0:	85be                	mv	a1,a5
    502015d2:	00003517          	auipc	a0,0x3
    502015d6:	a9650513          	addi	a0,a0,-1386 # 50204068 <strcat+0x10c>
    502015da:	616020ef          	jal	ra,50203bf0 <printl>
    502015de:	0001                	nop
    502015e0:	70e2                	ld	ra,56(sp)
    502015e2:	7442                	ld	s0,48(sp)
    502015e4:	6121                	addi	sp,sp,64
    502015e6:	8082                	ret

00000000502015e8 <init_pcb>:
    502015e8:	711d                	addi	sp,sp,-96
    502015ea:	ec86                	sd	ra,88(sp)
    502015ec:	e8a2                	sd	s0,80(sp)
    502015ee:	1080                	addi	s0,sp,96
    502015f0:	87aa                	mv	a5,a0
    502015f2:	faf41723          	sh	a5,-82(s0)
    502015f6:	479d                	li	a5,7
    502015f8:	faf41723          	sh	a5,-82(s0)
    502015fc:	00003797          	auipc	a5,0x3
    50201600:	b3478793          	addi	a5,a5,-1228 # 50204130 <strcat+0x1d4>
    50201604:	6398                	ld	a4,0(a5)
    50201606:	fae43823          	sd	a4,-80(s0)
    5020160a:	4798                	lw	a4,8(a5)
    5020160c:	fae42c23          	sw	a4,-72(s0)
    50201610:	00c7d783          	lhu	a5,12(a5)
    50201614:	faf41e23          	sh	a5,-68(s0)
    50201618:	00003517          	auipc	a0,0x3
    5020161c:	a7050513          	addi	a0,a0,-1424 # 50204088 <strcat+0x12c>
    50201620:	5d0020ef          	jal	ra,50203bf0 <printl>
    50201624:	fe042623          	sw	zero,-20(s0)
    50201628:	ac95                	j	5020189c <init_pcb+0x2b4>
    5020162a:	fec42783          	lw	a5,-20(s0)
    5020162e:	85be                	mv	a1,a5
    50201630:	00003517          	auipc	a0,0x3
    50201634:	a6850513          	addi	a0,a0,-1432 # 50204098 <strcat+0x13c>
    50201638:	5b8020ef          	jal	ra,50203bf0 <printl>
    5020163c:	fec42783          	lw	a5,-20(s0)
    50201640:	0786                	slli	a5,a5,0x1
    50201642:	ff040713          	addi	a4,s0,-16
    50201646:	97ba                	add	a5,a5,a4
    50201648:	fc079783          	lh	a5,-64(a5)
    5020164c:	2781                	sext.w	a5,a5
    5020164e:	853e                	mv	a0,a5
    50201650:	733000ef          	jal	ra,50202582 <load_task_img>
    50201654:	fea43023          	sd	a0,-32(s0)
    50201658:	fe043583          	ld	a1,-32(s0)
    5020165c:	00003517          	auipc	a0,0x3
    50201660:	a4c50513          	addi	a0,a0,-1460 # 502040a8 <strcat+0x14c>
    50201664:	58c020ef          	jal	ra,50203bf0 <printl>
    50201668:	fec42703          	lw	a4,-20(s0)
    5020166c:	87ba                	mv	a5,a4
    5020166e:	078a                	slli	a5,a5,0x2
    50201670:	97ba                	add	a5,a5,a4
    50201672:	0792                	slli	a5,a5,0x4
    50201674:	03078713          	addi	a4,a5,48
    50201678:	00005797          	auipc	a5,0x5
    5020167c:	6d078793          	addi	a5,a5,1744 # 50206d48 <pcb>
    50201680:	97ba                	add	a5,a5,a4
    50201682:	00878693          	addi	a3,a5,8
    50201686:	fec42783          	lw	a5,-20(s0)
    5020168a:	00479713          	slli	a4,a5,0x4
    5020168e:	00005797          	auipc	a5,0x5
    50201692:	05278793          	addi	a5,a5,82 # 502066e0 <tasks>
    50201696:	97ba                	add	a5,a5,a4
    50201698:	85be                	mv	a1,a5
    5020169a:	8536                	mv	a0,a3
    5020169c:	7e4020ef          	jal	ra,50203e80 <strcpy>
    502016a0:	fec42703          	lw	a4,-20(s0)
    502016a4:	87ba                	mv	a5,a4
    502016a6:	078a                	slli	a5,a5,0x2
    502016a8:	97ba                	add	a5,a5,a4
    502016aa:	0792                	slli	a5,a5,0x4
    502016ac:	03078713          	addi	a4,a5,48
    502016b0:	00005797          	auipc	a5,0x5
    502016b4:	69878793          	addi	a5,a5,1688 # 50206d48 <pcb>
    502016b8:	97ba                	add	a5,a5,a4
    502016ba:	07a1                	addi	a5,a5,8
    502016bc:	85be                	mv	a1,a5
    502016be:	00003517          	auipc	a0,0x3
    502016c2:	a0250513          	addi	a0,a0,-1534 # 502040c0 <strcat+0x164>
    502016c6:	52a020ef          	jal	ra,50203bf0 <printl>
    502016ca:	4505                	li	a0,1
    502016cc:	7c7000ef          	jal	ra,50202692 <allocKernelPage>
    502016d0:	fca43c23          	sd	a0,-40(s0)
    502016d4:	fd843583          	ld	a1,-40(s0)
    502016d8:	00003517          	auipc	a0,0x3
    502016dc:	9f850513          	addi	a0,a0,-1544 # 502040d0 <strcat+0x174>
    502016e0:	510020ef          	jal	ra,50203bf0 <printl>
    502016e4:	00005697          	auipc	a3,0x5
    502016e8:	66468693          	addi	a3,a3,1636 # 50206d48 <pcb>
    502016ec:	fec42703          	lw	a4,-20(s0)
    502016f0:	87ba                	mv	a5,a4
    502016f2:	078a                	slli	a5,a5,0x2
    502016f4:	97ba                	add	a5,a5,a4
    502016f6:	0792                	slli	a5,a5,0x4
    502016f8:	97b6                	add	a5,a5,a3
    502016fa:	4705                	li	a4,1
    502016fc:	c7b8                	sw	a4,72(a5)
    502016fe:	00005697          	auipc	a3,0x5
    50201702:	64a68693          	addi	a3,a3,1610 # 50206d48 <pcb>
    50201706:	fec42703          	lw	a4,-20(s0)
    5020170a:	87ba                	mv	a5,a4
    5020170c:	078a                	slli	a5,a5,0x2
    5020170e:	97ba                	add	a5,a5,a4
    50201710:	0792                	slli	a5,a5,0x4
    50201712:	97b6                	add	a5,a5,a3
    50201714:	47bc                	lw	a5,72(a5)
    50201716:	00c7979b          	slliw	a5,a5,0xc
    5020171a:	2781                	sext.w	a5,a5
    5020171c:	873e                	mv	a4,a5
    5020171e:	fd843783          	ld	a5,-40(s0)
    50201722:	97ba                	add	a5,a5,a4
    50201724:	fcf43823          	sd	a5,-48(s0)
    50201728:	fd043583          	ld	a1,-48(s0)
    5020172c:	00003517          	auipc	a0,0x3
    50201730:	9bc50513          	addi	a0,a0,-1604 # 502040e8 <strcat+0x18c>
    50201734:	4bc020ef          	jal	ra,50203bf0 <printl>
    50201738:	4505                	li	a0,1
    5020173a:	7a5000ef          	jal	ra,502026de <allocUserPage>
    5020173e:	fca43423          	sd	a0,-56(s0)
    50201742:	00005697          	auipc	a3,0x5
    50201746:	60668693          	addi	a3,a3,1542 # 50206d48 <pcb>
    5020174a:	fec42703          	lw	a4,-20(s0)
    5020174e:	87ba                	mv	a5,a4
    50201750:	078a                	slli	a5,a5,0x2
    50201752:	97ba                	add	a5,a5,a4
    50201754:	0792                	slli	a5,a5,0x4
    50201756:	97b6                	add	a5,a5,a3
    50201758:	4705                	li	a4,1
    5020175a:	c7f8                	sw	a4,76(a5)
    5020175c:	00005697          	auipc	a3,0x5
    50201760:	5ec68693          	addi	a3,a3,1516 # 50206d48 <pcb>
    50201764:	fec42703          	lw	a4,-20(s0)
    50201768:	87ba                	mv	a5,a4
    5020176a:	078a                	slli	a5,a5,0x2
    5020176c:	97ba                	add	a5,a5,a4
    5020176e:	0792                	slli	a5,a5,0x4
    50201770:	97b6                	add	a5,a5,a3
    50201772:	47fc                	lw	a5,76(a5)
    50201774:	00c7979b          	slliw	a5,a5,0xc
    50201778:	2781                	sext.w	a5,a5
    5020177a:	873e                	mv	a4,a5
    5020177c:	fc843783          	ld	a5,-56(s0)
    50201780:	97ba                	add	a5,a5,a4
    50201782:	fcf43023          	sd	a5,-64(s0)
    50201786:	fec42703          	lw	a4,-20(s0)
    5020178a:	87ba                	mv	a5,a4
    5020178c:	078a                	slli	a5,a5,0x2
    5020178e:	97ba                	add	a5,a5,a4
    50201790:	0792                	slli	a5,a5,0x4
    50201792:	00005717          	auipc	a4,0x5
    50201796:	5b670713          	addi	a4,a4,1462 # 50206d48 <pcb>
    5020179a:	97ba                	add	a5,a5,a4
    5020179c:	86be                	mv	a3,a5
    5020179e:	fe043603          	ld	a2,-32(s0)
    502017a2:	fc043583          	ld	a1,-64(s0)
    502017a6:	fd043503          	ld	a0,-48(s0)
    502017aa:	d5fff0ef          	jal	ra,50201508 <init_pcb_stack>
    502017ae:	fec42783          	lw	a5,-20(s0)
    502017b2:	2785                	addiw	a5,a5,1
    502017b4:	0007869b          	sext.w	a3,a5
    502017b8:	00005617          	auipc	a2,0x5
    502017bc:	59060613          	addi	a2,a2,1424 # 50206d48 <pcb>
    502017c0:	fec42703          	lw	a4,-20(s0)
    502017c4:	87ba                	mv	a5,a4
    502017c6:	078a                	slli	a5,a5,0x2
    502017c8:	97ba                	add	a5,a5,a4
    502017ca:	0792                	slli	a5,a5,0x4
    502017cc:	97b2                	add	a5,a5,a2
    502017ce:	d394                	sw	a3,32(a5)
    502017d0:	00005697          	auipc	a3,0x5
    502017d4:	57868693          	addi	a3,a3,1400 # 50206d48 <pcb>
    502017d8:	fec42703          	lw	a4,-20(s0)
    502017dc:	87ba                	mv	a5,a4
    502017de:	078a                	slli	a5,a5,0x2
    502017e0:	97ba                	add	a5,a5,a4
    502017e2:	0792                	slli	a5,a5,0x4
    502017e4:	97b6                	add	a5,a5,a3
    502017e6:	539c                	lw	a5,32(a5)
    502017e8:	85be                	mv	a1,a5
    502017ea:	00003517          	auipc	a0,0x3
    502017ee:	91650513          	addi	a0,a0,-1770 # 50204100 <strcat+0x1a4>
    502017f2:	3fe020ef          	jal	ra,50203bf0 <printl>
    502017f6:	00005697          	auipc	a3,0x5
    502017fa:	55268693          	addi	a3,a3,1362 # 50206d48 <pcb>
    502017fe:	fec42703          	lw	a4,-20(s0)
    50201802:	87ba                	mv	a5,a4
    50201804:	078a                	slli	a5,a5,0x2
    50201806:	97ba                	add	a5,a5,a4
    50201808:	0792                	slli	a5,a5,0x4
    5020180a:	97b6                	add	a5,a5,a3
    5020180c:	0207a423          	sw	zero,40(a5)
    50201810:	00005697          	auipc	a3,0x5
    50201814:	53868693          	addi	a3,a3,1336 # 50206d48 <pcb>
    50201818:	fec42703          	lw	a4,-20(s0)
    5020181c:	87ba                	mv	a5,a4
    5020181e:	078a                	slli	a5,a5,0x2
    50201820:	97ba                	add	a5,a5,a4
    50201822:	0792                	slli	a5,a5,0x4
    50201824:	97b6                	add	a5,a5,a3
    50201826:	0207a623          	sw	zero,44(a5)
    5020182a:	00005697          	auipc	a3,0x5
    5020182e:	51e68693          	addi	a3,a3,1310 # 50206d48 <pcb>
    50201832:	fec42703          	lw	a4,-20(s0)
    50201836:	87ba                	mv	a5,a4
    50201838:	078a                	slli	a5,a5,0x2
    5020183a:	97ba                	add	a5,a5,a4
    5020183c:	0792                	slli	a5,a5,0x4
    5020183e:	97b6                	add	a5,a5,a3
    50201840:	4709                	li	a4,2
    50201842:	d3d8                	sw	a4,36(a5)
    50201844:	00005697          	auipc	a3,0x5
    50201848:	50468693          	addi	a3,a3,1284 # 50206d48 <pcb>
    5020184c:	fec42703          	lw	a4,-20(s0)
    50201850:	87ba                	mv	a5,a4
    50201852:	078a                	slli	a5,a5,0x2
    50201854:	97ba                	add	a5,a5,a4
    50201856:	0792                	slli	a5,a5,0x4
    50201858:	97b6                	add	a5,a5,a3
    5020185a:	0207b823          	sd	zero,48(a5)
    5020185e:	fec42703          	lw	a4,-20(s0)
    50201862:	87ba                	mv	a5,a4
    50201864:	078a                	slli	a5,a5,0x2
    50201866:	97ba                	add	a5,a5,a4
    50201868:	0792                	slli	a5,a5,0x4
    5020186a:	01078713          	addi	a4,a5,16
    5020186e:	00005797          	auipc	a5,0x5
    50201872:	4da78793          	addi	a5,a5,1242 # 50206d48 <pcb>
    50201876:	97ba                	add	a5,a5,a4
    50201878:	85be                	mv	a1,a5
    5020187a:	00003517          	auipc	a0,0x3
    5020187e:	ed650513          	addi	a0,a0,-298 # 50204750 <ready_queue>
    50201882:	959ff0ef          	jal	ra,502011da <Enqueue>
    50201886:	00003517          	auipc	a0,0x3
    5020188a:	eca50513          	addi	a0,a0,-310 # 50204750 <ready_queue>
    5020188e:	9e7ff0ef          	jal	ra,50201274 <Print_queue>
    50201892:	fec42783          	lw	a5,-20(s0)
    50201896:	2785                	addiw	a5,a5,1
    50201898:	fef42623          	sw	a5,-20(s0)
    5020189c:	fae41783          	lh	a5,-82(s0)
    502018a0:	0007871b          	sext.w	a4,a5
    502018a4:	fec42783          	lw	a5,-20(s0)
    502018a8:	2781                	sext.w	a5,a5
    502018aa:	d8e7c0e3          	blt	a5,a4,5020162a <init_pcb+0x42>
    502018ae:	00005797          	auipc	a5,0x5
    502018b2:	49278793          	addi	a5,a5,1170 # 50206d40 <current_running>
    502018b6:	00003717          	auipc	a4,0x3
    502018ba:	e4a70713          	addi	a4,a4,-438 # 50204700 <pid0_pcb>
    502018be:	e398                	sd	a4,0(a5)
    502018c0:	00005797          	auipc	a5,0x5
    502018c4:	48078793          	addi	a5,a5,1152 # 50206d40 <current_running>
    502018c8:	639c                	ld	a5,0(a5)
    502018ca:	85be                	mv	a1,a5
    502018cc:	00003517          	auipc	a0,0x3
    502018d0:	84450513          	addi	a0,a0,-1980 # 50204110 <strcat+0x1b4>
    502018d4:	31c020ef          	jal	ra,50203bf0 <printl>
    502018d8:	0001                	nop
    502018da:	60e6                	ld	ra,88(sp)
    502018dc:	6446                	ld	s0,80(sp)
    502018de:	6125                	addi	sp,sp,96
    502018e0:	8082                	ret

00000000502018e2 <init_syscall>:
    502018e2:	1141                	addi	sp,sp,-16
    502018e4:	e422                	sd	s0,8(sp)
    502018e6:	0800                	addi	s0,sp,16
    502018e8:	00006797          	auipc	a5,0x6
    502018ec:	96078793          	addi	a5,a5,-1696 # 50207248 <syscall>
    502018f0:	00001717          	auipc	a4,0x1
    502018f4:	64270713          	addi	a4,a4,1602 # 50202f32 <do_sleep>
    502018f8:	eb98                	sd	a4,16(a5)
    502018fa:	00006797          	auipc	a5,0x6
    502018fe:	94e78793          	addi	a5,a5,-1714 # 50207248 <syscall>
    50201902:	00001717          	auipc	a4,0x1
    50201906:	54870713          	addi	a4,a4,1352 # 50202e4a <do_scheduler>
    5020190a:	ff98                	sd	a4,56(a5)
    5020190c:	00006797          	auipc	a5,0x6
    50201910:	93c78793          	addi	a5,a5,-1732 # 50207248 <syscall>
    50201914:	00000717          	auipc	a4,0x0
    50201918:	60670713          	addi	a4,a4,1542 # 50201f1a <screen_write>
    5020191c:	f3d8                	sd	a4,160(a5)
    5020191e:	00006797          	auipc	a5,0x6
    50201922:	92a78793          	addi	a5,a5,-1750 # 50207248 <syscall>
    50201926:	00000717          	auipc	a4,0x0
    5020192a:	5a470713          	addi	a4,a4,1444 # 50201eca <screen_move_cursor>
    5020192e:	fbd8                	sd	a4,176(a5)
    50201930:	00006797          	auipc	a5,0x6
    50201934:	91878793          	addi	a5,a5,-1768 # 50207248 <syscall>
    50201938:	00000717          	auipc	a4,0x0
    5020193c:	64070713          	addi	a4,a4,1600 # 50201f78 <screen_reflush>
    50201940:	ffd8                	sd	a4,184(a5)
    50201942:	00006797          	auipc	a5,0x6
    50201946:	90678793          	addi	a5,a5,-1786 # 50207248 <syscall>
    5020194a:	00001717          	auipc	a4,0x1
    5020194e:	24e70713          	addi	a4,a4,590 # 50202b98 <get_time_base>
    50201952:	fbf8                	sd	a4,240(a5)
    50201954:	00006797          	auipc	a5,0x6
    50201958:	8f478793          	addi	a5,a5,-1804 # 50207248 <syscall>
    5020195c:	00001717          	auipc	a4,0x1
    50201960:	1f070713          	addi	a4,a4,496 # 50202b4c <get_ticks>
    50201964:	fff8                	sd	a4,248(a5)
    50201966:	00006797          	auipc	a5,0x6
    5020196a:	8e278793          	addi	a5,a5,-1822 # 50207248 <syscall>
    5020196e:	00001717          	auipc	a4,0x1
    50201972:	ec870713          	addi	a4,a4,-312 # 50202836 <do_mutex_lock_init>
    50201976:	14e7b023          	sd	a4,320(a5)
    5020197a:	00006797          	auipc	a5,0x6
    5020197e:	8ce78793          	addi	a5,a5,-1842 # 50207248 <syscall>
    50201982:	00001717          	auipc	a4,0x1
    50201986:	f5a70713          	addi	a4,a4,-166 # 502028dc <do_mutex_lock_acquire>
    5020198a:	14e7b423          	sd	a4,328(a5)
    5020198e:	00006797          	auipc	a5,0x6
    50201992:	8ba78793          	addi	a5,a5,-1862 # 50207248 <syscall>
    50201996:	00001717          	auipc	a4,0x1
    5020199a:	01270713          	addi	a4,a4,18 # 502029a8 <do_mutex_lock_release>
    5020199e:	14e7b823          	sd	a4,336(a5)
    502019a2:	00006797          	auipc	a5,0x6
    502019a6:	8a678793          	addi	a5,a5,-1882 # 50207248 <syscall>
    502019aa:	00001717          	auipc	a4,0x1
    502019ae:	67670713          	addi	a4,a4,1654 # 50203020 <thread_create>
    502019b2:	14e7bc23          	sd	a4,344(a5)
    502019b6:	0001                	nop
    502019b8:	6422                	ld	s0,8(sp)
    502019ba:	0141                	addi	sp,sp,16
    502019bc:	8082                	ret

00000000502019be <main>:
    502019be:	7179                	addi	sp,sp,-48
    502019c0:	f406                	sd	ra,40(sp)
    502019c2:	f022                	sd	s0,32(sp)
    502019c4:	1800                	addi	s0,sp,48
    502019c6:	87aa                	mv	a5,a0
    502019c8:	872e                	mv	a4,a1
    502019ca:	fcf41f23          	sh	a5,-34(s0)
    502019ce:	87ba                	mv	a5,a4
    502019d0:	fcf41e23          	sh	a5,-36(s0)
    502019d4:	9e3ff0ef          	jal	ra,502013b6 <init_jmptab>
    502019d8:	00002517          	auipc	a0,0x2
    502019dc:	76850513          	addi	a0,a0,1896 # 50204140 <strcat+0x1e4>
    502019e0:	210020ef          	jal	ra,50203bf0 <printl>
    502019e4:	fdc41703          	lh	a4,-36(s0)
    502019e8:	fde41783          	lh	a5,-34(s0)
    502019ec:	85ba                	mv	a1,a4
    502019ee:	853e                	mv	a0,a5
    502019f0:	ac1ff0ef          	jal	ra,502014b0 <init_task_info>
    502019f4:	00002517          	auipc	a0,0x2
    502019f8:	76c50513          	addi	a0,a0,1900 # 50204160 <strcat+0x204>
    502019fc:	1f4020ef          	jal	ra,50203bf0 <printl>
    50201a00:	fdc41783          	lh	a5,-36(s0)
    50201a04:	853e                	mv	a0,a5
    50201a06:	be3ff0ef          	jal	ra,502015e8 <init_pcb>
    50201a0a:	00002517          	auipc	a0,0x2
    50201a0e:	77e50513          	addi	a0,a0,1918 # 50204188 <strcat+0x22c>
    50201a12:	1de020ef          	jal	ra,50203bf0 <printl>
    50201a16:	00002517          	auipc	a0,0x2
    50201a1a:	77250513          	addi	a0,a0,1906 # 50204188 <strcat+0x22c>
    50201a1e:	0c2020ef          	jal	ra,50203ae0 <printk>
    50201a22:	4501                	li	a0,0
    50201a24:	969ff0ef          	jal	ra,5020138c <bios_read_fdt>
    50201a28:	872a                	mv	a4,a0
    50201a2a:	00003797          	auipc	a5,0x3
    50201a2e:	d6e78793          	addi	a5,a5,-658 # 50204798 <time_base>
    50201a32:	e398                	sd	a4,0(a5)
    50201a34:	00003797          	auipc	a5,0x3
    50201a38:	d6478793          	addi	a5,a5,-668 # 50204798 <time_base>
    50201a3c:	639c                	ld	a5,0(a5)
    50201a3e:	85be                	mv	a1,a5
    50201a40:	00002517          	auipc	a0,0x2
    50201a44:	77050513          	addi	a0,a0,1904 # 502041b0 <strcat+0x254>
    50201a48:	1a8020ef          	jal	ra,50203bf0 <printl>
    50201a4c:	56b000ef          	jal	ra,502027b6 <init_locks>
    50201a50:	00002517          	auipc	a0,0x2
    50201a54:	78050513          	addi	a0,a0,1920 # 502041d0 <strcat+0x274>
    50201a58:	198020ef          	jal	ra,50203bf0 <printl>
    50201a5c:	00002517          	auipc	a0,0x2
    50201a60:	77450513          	addi	a0,a0,1908 # 502041d0 <strcat+0x274>
    50201a64:	07c020ef          	jal	ra,50203ae0 <printk>
    50201a68:	7e8000ef          	jal	ra,50202250 <init_exception>
    50201a6c:	00002517          	auipc	a0,0x2
    50201a70:	79c50513          	addi	a0,a0,1948 # 50204208 <strcat+0x2ac>
    50201a74:	17c020ef          	jal	ra,50203bf0 <printl>
    50201a78:	00002517          	auipc	a0,0x2
    50201a7c:	79050513          	addi	a0,a0,1936 # 50204208 <strcat+0x2ac>
    50201a80:	060020ef          	jal	ra,50203ae0 <printk>
    50201a84:	e5fff0ef          	jal	ra,502018e2 <init_syscall>
    50201a88:	00002517          	auipc	a0,0x2
    50201a8c:	7c050513          	addi	a0,a0,1984 # 50204248 <strcat+0x2ec>
    50201a90:	160020ef          	jal	ra,50203bf0 <printl>
    50201a94:	00002517          	auipc	a0,0x2
    50201a98:	7b450513          	addi	a0,a0,1972 # 50204248 <strcat+0x2ec>
    50201a9c:	044020ef          	jal	ra,50203ae0 <printk>
    50201aa0:	36e000ef          	jal	ra,50201e0e <init_screen>
    50201aa4:	00002517          	auipc	a0,0x2
    50201aa8:	7d450513          	addi	a0,a0,2004 # 50204278 <strcat+0x31c>
    50201aac:	144020ef          	jal	ra,50203bf0 <printl>
    50201ab0:	00002517          	auipc	a0,0x2
    50201ab4:	7c850513          	addi	a0,a0,1992 # 50204278 <strcat+0x31c>
    50201ab8:	028020ef          	jal	ra,50203ae0 <printk>
    50201abc:	00002517          	auipc	a0,0x2
    50201ac0:	7ec50513          	addi	a0,a0,2028 # 502042a8 <strcat+0x34c>
    50201ac4:	12c020ef          	jal	ra,50203bf0 <printl>
    50201ac8:	00003797          	auipc	a5,0x3
    50201acc:	c3878793          	addi	a5,a5,-968 # 50204700 <pid0_pcb>
    50201ad0:	fef43423          	sd	a5,-24(s0)
    50201ad4:	fe843783          	ld	a5,-24(s0)
    50201ad8:	0001                	nop
    50201ada:	823e                	mv	tp,a5
    50201adc:	d5cff0ef          	jal	ra,50201038 <enable_preempt>
    50201ae0:	092010ef          	jal	ra,50202b72 <get_timer>
    50201ae4:	872a                	mv	a4,a0
    50201ae6:	000257b7          	lui	a5,0x25
    50201aea:	9f078793          	addi	a5,a5,-1552 # 249f0 <TEXT_START-0x501dc610>
    50201aee:	97ba                	add	a5,a5,a4
    50201af0:	853e                	mv	a0,a5
    50201af2:	875ff0ef          	jal	ra,50201366 <bios_set_timer>
    50201af6:	10500073          	wfi
    50201afa:	b7cd                	j	50201adc <main+0x11e>

0000000050201afc <call_bios>:
    50201afc:	715d                	addi	sp,sp,-80
    50201afe:	e486                	sd	ra,72(sp)
    50201b00:	e0a2                	sd	s0,64(sp)
    50201b02:	0880                	addi	s0,sp,80
    50201b04:	fca43c23          	sd	a0,-40(s0)
    50201b08:	fcb43823          	sd	a1,-48(s0)
    50201b0c:	fcc43423          	sd	a2,-56(s0)
    50201b10:	fcd43023          	sd	a3,-64(s0)
    50201b14:	fae43c23          	sd	a4,-72(s0)
    50201b18:	faf43823          	sd	a5,-80(s0)
    50201b1c:	501507b7          	lui	a5,0x50150
    50201b20:	fef43423          	sd	a5,-24(s0)
    50201b24:	fe843803          	ld	a6,-24(s0)
    50201b28:	fb043783          	ld	a5,-80(s0)
    50201b2c:	fb843703          	ld	a4,-72(s0)
    50201b30:	fc043683          	ld	a3,-64(s0)
    50201b34:	fc843603          	ld	a2,-56(s0)
    50201b38:	fd043583          	ld	a1,-48(s0)
    50201b3c:	fd843503          	ld	a0,-40(s0)
    50201b40:	9802                	jalr	a6
    50201b42:	87aa                	mv	a5,a0
    50201b44:	853e                	mv	a0,a5
    50201b46:	60a6                	ld	ra,72(sp)
    50201b48:	6406                	ld	s0,64(sp)
    50201b4a:	6161                	addi	sp,sp,80
    50201b4c:	8082                	ret

0000000050201b4e <port_write_ch>:
    50201b4e:	1101                	addi	sp,sp,-32
    50201b50:	ec06                	sd	ra,24(sp)
    50201b52:	e822                	sd	s0,16(sp)
    50201b54:	1000                	addi	s0,sp,32
    50201b56:	87aa                	mv	a5,a0
    50201b58:	fef407a3          	sb	a5,-17(s0)
    50201b5c:	fef44583          	lbu	a1,-17(s0)
    50201b60:	4781                	li	a5,0
    50201b62:	4701                	li	a4,0
    50201b64:	4681                	li	a3,0
    50201b66:	4601                	li	a2,0
    50201b68:	4505                	li	a0,1
    50201b6a:	f93ff0ef          	jal	ra,50201afc <call_bios>
    50201b6e:	0001                	nop
    50201b70:	60e2                	ld	ra,24(sp)
    50201b72:	6442                	ld	s0,16(sp)
    50201b74:	6105                	addi	sp,sp,32
    50201b76:	8082                	ret

0000000050201b78 <port_write>:
    50201b78:	1101                	addi	sp,sp,-32
    50201b7a:	ec06                	sd	ra,24(sp)
    50201b7c:	e822                	sd	s0,16(sp)
    50201b7e:	1000                	addi	s0,sp,32
    50201b80:	fea43423          	sd	a0,-24(s0)
    50201b84:	fe843583          	ld	a1,-24(s0)
    50201b88:	4781                	li	a5,0
    50201b8a:	4701                	li	a4,0
    50201b8c:	4681                	li	a3,0
    50201b8e:	4601                	li	a2,0
    50201b90:	4525                	li	a0,9
    50201b92:	f6bff0ef          	jal	ra,50201afc <call_bios>
    50201b96:	0001                	nop
    50201b98:	60e2                	ld	ra,24(sp)
    50201b9a:	6442                	ld	s0,16(sp)
    50201b9c:	6105                	addi	sp,sp,32
    50201b9e:	8082                	ret

0000000050201ba0 <port_read_ch>:
    50201ba0:	1141                	addi	sp,sp,-16
    50201ba2:	e406                	sd	ra,8(sp)
    50201ba4:	e022                	sd	s0,0(sp)
    50201ba6:	0800                	addi	s0,sp,16
    50201ba8:	4781                	li	a5,0
    50201baa:	4701                	li	a4,0
    50201bac:	4681                	li	a3,0
    50201bae:	4601                	li	a2,0
    50201bb0:	4581                	li	a1,0
    50201bb2:	4509                	li	a0,2
    50201bb4:	f49ff0ef          	jal	ra,50201afc <call_bios>
    50201bb8:	87aa                	mv	a5,a0
    50201bba:	2781                	sext.w	a5,a5
    50201bbc:	853e                	mv	a0,a5
    50201bbe:	60a2                	ld	ra,8(sp)
    50201bc0:	6402                	ld	s0,0(sp)
    50201bc2:	0141                	addi	sp,sp,16
    50201bc4:	8082                	ret

0000000050201bc6 <sd_read>:
    50201bc6:	1101                	addi	sp,sp,-32
    50201bc8:	ec06                	sd	ra,24(sp)
    50201bca:	e822                	sd	s0,16(sp)
    50201bcc:	1000                	addi	s0,sp,32
    50201bce:	87aa                	mv	a5,a0
    50201bd0:	86ae                	mv	a3,a1
    50201bd2:	8732                	mv	a4,a2
    50201bd4:	fef42623          	sw	a5,-20(s0)
    50201bd8:	87b6                	mv	a5,a3
    50201bda:	fef42423          	sw	a5,-24(s0)
    50201bde:	87ba                	mv	a5,a4
    50201be0:	fef42223          	sw	a5,-28(s0)
    50201be4:	fec46583          	lwu	a1,-20(s0)
    50201be8:	fe846603          	lwu	a2,-24(s0)
    50201bec:	fe446683          	lwu	a3,-28(s0)
    50201bf0:	4781                	li	a5,0
    50201bf2:	4701                	li	a4,0
    50201bf4:	452d                	li	a0,11
    50201bf6:	f07ff0ef          	jal	ra,50201afc <call_bios>
    50201bfa:	87aa                	mv	a5,a0
    50201bfc:	2781                	sext.w	a5,a5
    50201bfe:	853e                	mv	a0,a5
    50201c00:	60e2                	ld	ra,24(sp)
    50201c02:	6442                	ld	s0,16(sp)
    50201c04:	6105                	addi	sp,sp,32
    50201c06:	8082                	ret

0000000050201c08 <set_timer>:
    50201c08:	1101                	addi	sp,sp,-32
    50201c0a:	ec06                	sd	ra,24(sp)
    50201c0c:	e822                	sd	s0,16(sp)
    50201c0e:	1000                	addi	s0,sp,32
    50201c10:	fea43423          	sd	a0,-24(s0)
    50201c14:	fe843583          	ld	a1,-24(s0)
    50201c18:	4781                	li	a5,0
    50201c1a:	4701                	li	a4,0
    50201c1c:	4681                	li	a3,0
    50201c1e:	4601                	li	a2,0
    50201c20:	4501                	li	a0,0
    50201c22:	edbff0ef          	jal	ra,50201afc <call_bios>
    50201c26:	0001                	nop
    50201c28:	60e2                	ld	ra,24(sp)
    50201c2a:	6442                	ld	s0,16(sp)
    50201c2c:	6105                	addi	sp,sp,32
    50201c2e:	8082                	ret

0000000050201c30 <read_fdt>:
    50201c30:	1101                	addi	sp,sp,-32
    50201c32:	ec06                	sd	ra,24(sp)
    50201c34:	e822                	sd	s0,16(sp)
    50201c36:	1000                	addi	s0,sp,32
    50201c38:	87aa                	mv	a5,a0
    50201c3a:	fef42623          	sw	a5,-20(s0)
    50201c3e:	fec46583          	lwu	a1,-20(s0)
    50201c42:	4781                	li	a5,0
    50201c44:	4701                	li	a4,0
    50201c46:	4681                	li	a3,0
    50201c48:	4601                	li	a2,0
    50201c4a:	4531                	li	a0,12
    50201c4c:	eb1ff0ef          	jal	ra,50201afc <call_bios>
    50201c50:	87aa                	mv	a5,a0
    50201c52:	853e                	mv	a0,a5
    50201c54:	60e2                	ld	ra,24(sp)
    50201c56:	6442                	ld	s0,16(sp)
    50201c58:	6105                	addi	sp,sp,32
    50201c5a:	8082                	ret

0000000050201c5c <qemu_logging>:
    50201c5c:	1101                	addi	sp,sp,-32
    50201c5e:	ec06                	sd	ra,24(sp)
    50201c60:	e822                	sd	s0,16(sp)
    50201c62:	1000                	addi	s0,sp,32
    50201c64:	fea43423          	sd	a0,-24(s0)
    50201c68:	fe843583          	ld	a1,-24(s0)
    50201c6c:	4781                	li	a5,0
    50201c6e:	4701                	li	a4,0
    50201c70:	4681                	li	a3,0
    50201c72:	4601                	li	a2,0
    50201c74:	4539                	li	a0,14
    50201c76:	e87ff0ef          	jal	ra,50201afc <call_bios>
    50201c7a:	0001                	nop
    50201c7c:	60e2                	ld	ra,24(sp)
    50201c7e:	6442                	ld	s0,16(sp)
    50201c80:	6105                	addi	sp,sp,32
    50201c82:	8082                	ret

0000000050201c84 <call_jmptab>:
    50201c84:	7139                	addi	sp,sp,-64
    50201c86:	fc06                	sd	ra,56(sp)
    50201c88:	f822                	sd	s0,48(sp)
    50201c8a:	0080                	addi	s0,sp,64
    50201c8c:	fca43c23          	sd	a0,-40(s0)
    50201c90:	fcb43823          	sd	a1,-48(s0)
    50201c94:	fcc43423          	sd	a2,-56(s0)
    50201c98:	fcd43023          	sd	a3,-64(s0)
    50201c9c:	fd843703          	ld	a4,-40(s0)
    50201ca0:	0a4007b7          	lui	a5,0xa400
    50201ca4:	1781                	addi	a5,a5,-32
    50201ca6:	97ba                	add	a5,a5,a4
    50201ca8:	078e                	slli	a5,a5,0x3
    50201caa:	639c                	ld	a5,0(a5)
    50201cac:	fef43423          	sd	a5,-24(s0)
    50201cb0:	fe843783          	ld	a5,-24(s0)
    50201cb4:	fef43023          	sd	a5,-32(s0)
    50201cb8:	fe043783          	ld	a5,-32(s0)
    50201cbc:	fc043603          	ld	a2,-64(s0)
    50201cc0:	fc843583          	ld	a1,-56(s0)
    50201cc4:	fd043503          	ld	a0,-48(s0)
    50201cc8:	9782                	jalr	a5
    50201cca:	87aa                	mv	a5,a0
    50201ccc:	853e                	mv	a0,a5
    50201cce:	70e2                	ld	ra,56(sp)
    50201cd0:	7442                	ld	s0,48(sp)
    50201cd2:	6121                	addi	sp,sp,64
    50201cd4:	8082                	ret

0000000050201cd6 <bios_putchar>:
    50201cd6:	1101                	addi	sp,sp,-32
    50201cd8:	ec06                	sd	ra,24(sp)
    50201cda:	e822                	sd	s0,16(sp)
    50201cdc:	1000                	addi	s0,sp,32
    50201cde:	87aa                	mv	a5,a0
    50201ce0:	fef42623          	sw	a5,-20(s0)
    50201ce4:	fec42783          	lw	a5,-20(s0)
    50201ce8:	4681                	li	a3,0
    50201cea:	4601                	li	a2,0
    50201cec:	85be                	mv	a1,a5
    50201cee:	4505                	li	a0,1
    50201cf0:	f95ff0ef          	jal	ra,50201c84 <call_jmptab>
    50201cf4:	0001                	nop
    50201cf6:	60e2                	ld	ra,24(sp)
    50201cf8:	6442                	ld	s0,16(sp)
    50201cfa:	6105                	addi	sp,sp,32
    50201cfc:	8082                	ret

0000000050201cfe <vt100_move_cursor>:
    50201cfe:	1101                	addi	sp,sp,-32
    50201d00:	ec06                	sd	ra,24(sp)
    50201d02:	e822                	sd	s0,16(sp)
    50201d04:	1000                	addi	s0,sp,32
    50201d06:	87aa                	mv	a5,a0
    50201d08:	872e                	mv	a4,a1
    50201d0a:	fef42623          	sw	a5,-20(s0)
    50201d0e:	87ba                	mv	a5,a4
    50201d10:	fef42423          	sw	a5,-24(s0)
    50201d14:	fec42703          	lw	a4,-20(s0)
    50201d18:	fe842783          	lw	a5,-24(s0)
    50201d1c:	86ba                	mv	a3,a4
    50201d1e:	863e                	mv	a2,a5
    50201d20:	45ed                	li	a1,27
    50201d22:	00002517          	auipc	a0,0x2
    50201d26:	5ae50513          	addi	a0,a0,1454 # 502042d0 <strcat+0x374>
    50201d2a:	63f010ef          	jal	ra,50203b68 <printv>
    50201d2e:	0001                	nop
    50201d30:	60e2                	ld	ra,24(sp)
    50201d32:	6442                	ld	s0,16(sp)
    50201d34:	6105                	addi	sp,sp,32
    50201d36:	8082                	ret

0000000050201d38 <vt100_clear>:
    50201d38:	1141                	addi	sp,sp,-16
    50201d3a:	e406                	sd	ra,8(sp)
    50201d3c:	e022                	sd	s0,0(sp)
    50201d3e:	0800                	addi	s0,sp,16
    50201d40:	45ed                	li	a1,27
    50201d42:	00002517          	auipc	a0,0x2
    50201d46:	59e50513          	addi	a0,a0,1438 # 502042e0 <strcat+0x384>
    50201d4a:	61f010ef          	jal	ra,50203b68 <printv>
    50201d4e:	0001                	nop
    50201d50:	60a2                	ld	ra,8(sp)
    50201d52:	6402                	ld	s0,0(sp)
    50201d54:	0141                	addi	sp,sp,16
    50201d56:	8082                	ret

0000000050201d58 <vt100_hidden_cursor>:
    50201d58:	1141                	addi	sp,sp,-16
    50201d5a:	e406                	sd	ra,8(sp)
    50201d5c:	e022                	sd	s0,0(sp)
    50201d5e:	0800                	addi	s0,sp,16
    50201d60:	45ed                	li	a1,27
    50201d62:	00002517          	auipc	a0,0x2
    50201d66:	58650513          	addi	a0,a0,1414 # 502042e8 <strcat+0x38c>
    50201d6a:	5ff010ef          	jal	ra,50203b68 <printv>
    50201d6e:	0001                	nop
    50201d70:	60a2                	ld	ra,8(sp)
    50201d72:	6402                	ld	s0,0(sp)
    50201d74:	0141                	addi	sp,sp,16
    50201d76:	8082                	ret

0000000050201d78 <screen_write_ch>:
    50201d78:	1101                	addi	sp,sp,-32
    50201d7a:	ec22                	sd	s0,24(sp)
    50201d7c:	1000                	addi	s0,sp,32
    50201d7e:	87aa                	mv	a5,a0
    50201d80:	fef407a3          	sb	a5,-17(s0)
    50201d84:	fef44783          	lbu	a5,-17(s0)
    50201d88:	0ff7f713          	andi	a4,a5,255
    50201d8c:	47a9                	li	a5,10
    50201d8e:	02f71363          	bne	a4,a5,50201db4 <screen_write_ch+0x3c>
    50201d92:	00005797          	auipc	a5,0x5
    50201d96:	fae78793          	addi	a5,a5,-82 # 50206d40 <current_running>
    50201d9a:	639c                	ld	a5,0(a5)
    50201d9c:	0207a423          	sw	zero,40(a5)
    50201da0:	00005797          	auipc	a5,0x5
    50201da4:	fa078793          	addi	a5,a5,-96 # 50206d40 <current_running>
    50201da8:	639c                	ld	a5,0(a5)
    50201daa:	57d8                	lw	a4,44(a5)
    50201dac:	2705                	addiw	a4,a4,1
    50201dae:	2701                	sext.w	a4,a4
    50201db0:	d7d8                	sw	a4,44(a5)
    50201db2:	a891                	j	50201e06 <screen_write_ch+0x8e>
    50201db4:	00005797          	auipc	a5,0x5
    50201db8:	f8c78793          	addi	a5,a5,-116 # 50206d40 <current_running>
    50201dbc:	639c                	ld	a5,0(a5)
    50201dbe:	57dc                	lw	a5,44(a5)
    50201dc0:	873e                	mv	a4,a5
    50201dc2:	87ba                	mv	a5,a4
    50201dc4:	0027979b          	slliw	a5,a5,0x2
    50201dc8:	9fb9                	addw	a5,a5,a4
    50201dca:	0047979b          	slliw	a5,a5,0x4
    50201dce:	0007871b          	sext.w	a4,a5
    50201dd2:	00005797          	auipc	a5,0x5
    50201dd6:	f6e78793          	addi	a5,a5,-146 # 50206d40 <current_running>
    50201dda:	639c                	ld	a5,0(a5)
    50201ddc:	579c                	lw	a5,40(a5)
    50201dde:	9fb9                	addw	a5,a5,a4
    50201de0:	2781                	sext.w	a5,a5
    50201de2:	00003717          	auipc	a4,0x3
    50201de6:	9be70713          	addi	a4,a4,-1602 # 502047a0 <new_screen>
    50201dea:	97ba                	add	a5,a5,a4
    50201dec:	fef44703          	lbu	a4,-17(s0)
    50201df0:	00e78023          	sb	a4,0(a5)
    50201df4:	00005797          	auipc	a5,0x5
    50201df8:	f4c78793          	addi	a5,a5,-180 # 50206d40 <current_running>
    50201dfc:	639c                	ld	a5,0(a5)
    50201dfe:	5798                	lw	a4,40(a5)
    50201e00:	2705                	addiw	a4,a4,1
    50201e02:	2701                	sext.w	a4,a4
    50201e04:	d798                	sw	a4,40(a5)
    50201e06:	0001                	nop
    50201e08:	6462                	ld	s0,24(sp)
    50201e0a:	6105                	addi	sp,sp,32
    50201e0c:	8082                	ret

0000000050201e0e <init_screen>:
    50201e0e:	1141                	addi	sp,sp,-16
    50201e10:	e406                	sd	ra,8(sp)
    50201e12:	e022                	sd	s0,0(sp)
    50201e14:	0800                	addi	s0,sp,16
    50201e16:	f43ff0ef          	jal	ra,50201d58 <vt100_hidden_cursor>
    50201e1a:	f1fff0ef          	jal	ra,50201d38 <vt100_clear>
    50201e1e:	00e000ef          	jal	ra,50201e2c <screen_clear>
    50201e22:	0001                	nop
    50201e24:	60a2                	ld	ra,8(sp)
    50201e26:	6402                	ld	s0,0(sp)
    50201e28:	0141                	addi	sp,sp,16
    50201e2a:	8082                	ret

0000000050201e2c <screen_clear>:
    50201e2c:	1101                	addi	sp,sp,-32
    50201e2e:	ec06                	sd	ra,24(sp)
    50201e30:	e822                	sd	s0,16(sp)
    50201e32:	1000                	addi	s0,sp,32
    50201e34:	fe042623          	sw	zero,-20(s0)
    50201e38:	a8a1                	j	50201e90 <screen_clear+0x64>
    50201e3a:	fe042423          	sw	zero,-24(s0)
    50201e3e:	a825                	j	50201e76 <screen_clear+0x4a>
    50201e40:	fec42703          	lw	a4,-20(s0)
    50201e44:	87ba                	mv	a5,a4
    50201e46:	0027979b          	slliw	a5,a5,0x2
    50201e4a:	9fb9                	addw	a5,a5,a4
    50201e4c:	0047979b          	slliw	a5,a5,0x4
    50201e50:	2781                	sext.w	a5,a5
    50201e52:	fe842703          	lw	a4,-24(s0)
    50201e56:	9fb9                	addw	a5,a5,a4
    50201e58:	2781                	sext.w	a5,a5
    50201e5a:	00003717          	auipc	a4,0x3
    50201e5e:	94670713          	addi	a4,a4,-1722 # 502047a0 <new_screen>
    50201e62:	97ba                	add	a5,a5,a4
    50201e64:	02000713          	li	a4,32
    50201e68:	00e78023          	sb	a4,0(a5)
    50201e6c:	fe842783          	lw	a5,-24(s0)
    50201e70:	2785                	addiw	a5,a5,1
    50201e72:	fef42423          	sw	a5,-24(s0)
    50201e76:	fe842783          	lw	a5,-24(s0)
    50201e7a:	0007871b          	sext.w	a4,a5
    50201e7e:	04f00793          	li	a5,79
    50201e82:	fae7dfe3          	bge	a5,a4,50201e40 <screen_clear+0x14>
    50201e86:	fec42783          	lw	a5,-20(s0)
    50201e8a:	2785                	addiw	a5,a5,1
    50201e8c:	fef42623          	sw	a5,-20(s0)
    50201e90:	fec42783          	lw	a5,-20(s0)
    50201e94:	0007871b          	sext.w	a4,a5
    50201e98:	03100793          	li	a5,49
    50201e9c:	f8e7dfe3          	bge	a5,a4,50201e3a <screen_clear+0xe>
    50201ea0:	00005797          	auipc	a5,0x5
    50201ea4:	ea078793          	addi	a5,a5,-352 # 50206d40 <current_running>
    50201ea8:	639c                	ld	a5,0(a5)
    50201eaa:	0207a423          	sw	zero,40(a5)
    50201eae:	00005797          	auipc	a5,0x5
    50201eb2:	e9278793          	addi	a5,a5,-366 # 50206d40 <current_running>
    50201eb6:	639c                	ld	a5,0(a5)
    50201eb8:	0207a623          	sw	zero,44(a5)
    50201ebc:	0bc000ef          	jal	ra,50201f78 <screen_reflush>
    50201ec0:	0001                	nop
    50201ec2:	60e2                	ld	ra,24(sp)
    50201ec4:	6442                	ld	s0,16(sp)
    50201ec6:	6105                	addi	sp,sp,32
    50201ec8:	8082                	ret

0000000050201eca <screen_move_cursor>:
    50201eca:	1101                	addi	sp,sp,-32
    50201ecc:	ec06                	sd	ra,24(sp)
    50201ece:	e822                	sd	s0,16(sp)
    50201ed0:	1000                	addi	s0,sp,32
    50201ed2:	87aa                	mv	a5,a0
    50201ed4:	872e                	mv	a4,a1
    50201ed6:	fef42623          	sw	a5,-20(s0)
    50201eda:	87ba                	mv	a5,a4
    50201edc:	fef42423          	sw	a5,-24(s0)
    50201ee0:	00005797          	auipc	a5,0x5
    50201ee4:	e6078793          	addi	a5,a5,-416 # 50206d40 <current_running>
    50201ee8:	639c                	ld	a5,0(a5)
    50201eea:	fec42703          	lw	a4,-20(s0)
    50201eee:	d798                	sw	a4,40(a5)
    50201ef0:	00005797          	auipc	a5,0x5
    50201ef4:	e5078793          	addi	a5,a5,-432 # 50206d40 <current_running>
    50201ef8:	639c                	ld	a5,0(a5)
    50201efa:	fe842703          	lw	a4,-24(s0)
    50201efe:	d7d8                	sw	a4,44(a5)
    50201f00:	fe842703          	lw	a4,-24(s0)
    50201f04:	fec42783          	lw	a5,-20(s0)
    50201f08:	85ba                	mv	a1,a4
    50201f0a:	853e                	mv	a0,a5
    50201f0c:	df3ff0ef          	jal	ra,50201cfe <vt100_move_cursor>
    50201f10:	0001                	nop
    50201f12:	60e2                	ld	ra,24(sp)
    50201f14:	6442                	ld	s0,16(sp)
    50201f16:	6105                	addi	sp,sp,32
    50201f18:	8082                	ret

0000000050201f1a <screen_write>:
    50201f1a:	7179                	addi	sp,sp,-48
    50201f1c:	f406                	sd	ra,40(sp)
    50201f1e:	f022                	sd	s0,32(sp)
    50201f20:	1800                	addi	s0,sp,48
    50201f22:	fca43c23          	sd	a0,-40(s0)
    50201f26:	fe042623          	sw	zero,-20(s0)
    50201f2a:	fd843503          	ld	a0,-40(s0)
    50201f2e:	5eb010ef          	jal	ra,50203d18 <strlen>
    50201f32:	87aa                	mv	a5,a0
    50201f34:	fef42423          	sw	a5,-24(s0)
    50201f38:	fe042623          	sw	zero,-20(s0)
    50201f3c:	a005                	j	50201f5c <screen_write+0x42>
    50201f3e:	fec42783          	lw	a5,-20(s0)
    50201f42:	fd843703          	ld	a4,-40(s0)
    50201f46:	97ba                	add	a5,a5,a4
    50201f48:	0007c783          	lbu	a5,0(a5)
    50201f4c:	853e                	mv	a0,a5
    50201f4e:	e2bff0ef          	jal	ra,50201d78 <screen_write_ch>
    50201f52:	fec42783          	lw	a5,-20(s0)
    50201f56:	2785                	addiw	a5,a5,1
    50201f58:	fef42623          	sw	a5,-20(s0)
    50201f5c:	fec42703          	lw	a4,-20(s0)
    50201f60:	fe842783          	lw	a5,-24(s0)
    50201f64:	2701                	sext.w	a4,a4
    50201f66:	2781                	sext.w	a5,a5
    50201f68:	fcf74be3          	blt	a4,a5,50201f3e <screen_write+0x24>
    50201f6c:	0001                	nop
    50201f6e:	0001                	nop
    50201f70:	70a2                	ld	ra,40(sp)
    50201f72:	7402                	ld	s0,32(sp)
    50201f74:	6145                	addi	sp,sp,48
    50201f76:	8082                	ret

0000000050201f78 <screen_reflush>:
    50201f78:	1101                	addi	sp,sp,-32
    50201f7a:	ec06                	sd	ra,24(sp)
    50201f7c:	e822                	sd	s0,16(sp)
    50201f7e:	1000                	addi	s0,sp,32
    50201f80:	fe042623          	sw	zero,-20(s0)
    50201f84:	aa39                	j	502020a2 <screen_reflush+0x12a>
    50201f86:	fe042423          	sw	zero,-24(s0)
    50201f8a:	a8fd                	j	50202088 <screen_reflush+0x110>
    50201f8c:	fec42703          	lw	a4,-20(s0)
    50201f90:	87ba                	mv	a5,a4
    50201f92:	0027979b          	slliw	a5,a5,0x2
    50201f96:	9fb9                	addw	a5,a5,a4
    50201f98:	0047979b          	slliw	a5,a5,0x4
    50201f9c:	2781                	sext.w	a5,a5
    50201f9e:	fe842703          	lw	a4,-24(s0)
    50201fa2:	9fb9                	addw	a5,a5,a4
    50201fa4:	2781                	sext.w	a5,a5
    50201fa6:	00002717          	auipc	a4,0x2
    50201faa:	7fa70713          	addi	a4,a4,2042 # 502047a0 <new_screen>
    50201fae:	97ba                	add	a5,a5,a4
    50201fb0:	0007c683          	lbu	a3,0(a5)
    50201fb4:	fec42703          	lw	a4,-20(s0)
    50201fb8:	87ba                	mv	a5,a4
    50201fba:	0027979b          	slliw	a5,a5,0x2
    50201fbe:	9fb9                	addw	a5,a5,a4
    50201fc0:	0047979b          	slliw	a5,a5,0x4
    50201fc4:	2781                	sext.w	a5,a5
    50201fc6:	fe842703          	lw	a4,-24(s0)
    50201fca:	9fb9                	addw	a5,a5,a4
    50201fcc:	2781                	sext.w	a5,a5
    50201fce:	00003717          	auipc	a4,0x3
    50201fd2:	77270713          	addi	a4,a4,1906 # 50205740 <old_screen>
    50201fd6:	97ba                	add	a5,a5,a4
    50201fd8:	0007c783          	lbu	a5,0(a5)
    50201fdc:	8736                	mv	a4,a3
    50201fde:	0af70063          	beq	a4,a5,5020207e <screen_reflush+0x106>
    50201fe2:	fe842783          	lw	a5,-24(s0)
    50201fe6:	2785                	addiw	a5,a5,1
    50201fe8:	0007871b          	sext.w	a4,a5
    50201fec:	fec42783          	lw	a5,-20(s0)
    50201ff0:	2785                	addiw	a5,a5,1
    50201ff2:	2781                	sext.w	a5,a5
    50201ff4:	85be                	mv	a1,a5
    50201ff6:	853a                	mv	a0,a4
    50201ff8:	d07ff0ef          	jal	ra,50201cfe <vt100_move_cursor>
    50201ffc:	fec42703          	lw	a4,-20(s0)
    50202000:	87ba                	mv	a5,a4
    50202002:	0027979b          	slliw	a5,a5,0x2
    50202006:	9fb9                	addw	a5,a5,a4
    50202008:	0047979b          	slliw	a5,a5,0x4
    5020200c:	2781                	sext.w	a5,a5
    5020200e:	fe842703          	lw	a4,-24(s0)
    50202012:	9fb9                	addw	a5,a5,a4
    50202014:	2781                	sext.w	a5,a5
    50202016:	00002717          	auipc	a4,0x2
    5020201a:	78a70713          	addi	a4,a4,1930 # 502047a0 <new_screen>
    5020201e:	97ba                	add	a5,a5,a4
    50202020:	0007c783          	lbu	a5,0(a5)
    50202024:	2781                	sext.w	a5,a5
    50202026:	853e                	mv	a0,a5
    50202028:	cafff0ef          	jal	ra,50201cd6 <bios_putchar>
    5020202c:	fec42703          	lw	a4,-20(s0)
    50202030:	87ba                	mv	a5,a4
    50202032:	0027979b          	slliw	a5,a5,0x2
    50202036:	9fb9                	addw	a5,a5,a4
    50202038:	0047979b          	slliw	a5,a5,0x4
    5020203c:	2781                	sext.w	a5,a5
    5020203e:	fe842703          	lw	a4,-24(s0)
    50202042:	9fb9                	addw	a5,a5,a4
    50202044:	0007869b          	sext.w	a3,a5
    50202048:	fec42703          	lw	a4,-20(s0)
    5020204c:	87ba                	mv	a5,a4
    5020204e:	0027979b          	slliw	a5,a5,0x2
    50202052:	9fb9                	addw	a5,a5,a4
    50202054:	0047979b          	slliw	a5,a5,0x4
    50202058:	2781                	sext.w	a5,a5
    5020205a:	fe842703          	lw	a4,-24(s0)
    5020205e:	9fb9                	addw	a5,a5,a4
    50202060:	2781                	sext.w	a5,a5
    50202062:	00002717          	auipc	a4,0x2
    50202066:	73e70713          	addi	a4,a4,1854 # 502047a0 <new_screen>
    5020206a:	9736                	add	a4,a4,a3
    5020206c:	00074703          	lbu	a4,0(a4)
    50202070:	00003697          	auipc	a3,0x3
    50202074:	6d068693          	addi	a3,a3,1744 # 50205740 <old_screen>
    50202078:	97b6                	add	a5,a5,a3
    5020207a:	00e78023          	sb	a4,0(a5)
    5020207e:	fe842783          	lw	a5,-24(s0)
    50202082:	2785                	addiw	a5,a5,1
    50202084:	fef42423          	sw	a5,-24(s0)
    50202088:	fe842783          	lw	a5,-24(s0)
    5020208c:	0007871b          	sext.w	a4,a5
    50202090:	04f00793          	li	a5,79
    50202094:	eee7dce3          	bge	a5,a4,50201f8c <screen_reflush+0x14>
    50202098:	fec42783          	lw	a5,-20(s0)
    5020209c:	2785                	addiw	a5,a5,1
    5020209e:	fef42623          	sw	a5,-20(s0)
    502020a2:	fec42783          	lw	a5,-20(s0)
    502020a6:	0007871b          	sext.w	a4,a5
    502020aa:	03100793          	li	a5,49
    502020ae:	ece7dce3          	bge	a5,a4,50201f86 <screen_reflush+0xe>
    502020b2:	00005797          	auipc	a5,0x5
    502020b6:	c8e78793          	addi	a5,a5,-882 # 50206d40 <current_running>
    502020ba:	639c                	ld	a5,0(a5)
    502020bc:	5798                	lw	a4,40(a5)
    502020be:	00005797          	auipc	a5,0x5
    502020c2:	c8278793          	addi	a5,a5,-894 # 50206d40 <current_running>
    502020c6:	639c                	ld	a5,0(a5)
    502020c8:	57dc                	lw	a5,44(a5)
    502020ca:	85be                	mv	a1,a5
    502020cc:	853a                	mv	a0,a4
    502020ce:	c31ff0ef          	jal	ra,50201cfe <vt100_move_cursor>
    502020d2:	0001                	nop
    502020d4:	60e2                	ld	ra,24(sp)
    502020d6:	6442                	ld	s0,16(sp)
    502020d8:	6105                	addi	sp,sp,32
    502020da:	8082                	ret

00000000502020dc <call_jmptab>:
    502020dc:	7139                	addi	sp,sp,-64
    502020de:	fc06                	sd	ra,56(sp)
    502020e0:	f822                	sd	s0,48(sp)
    502020e2:	0080                	addi	s0,sp,64
    502020e4:	fca43c23          	sd	a0,-40(s0)
    502020e8:	fcb43823          	sd	a1,-48(s0)
    502020ec:	fcc43423          	sd	a2,-56(s0)
    502020f0:	fcd43023          	sd	a3,-64(s0)
    502020f4:	fd843703          	ld	a4,-40(s0)
    502020f8:	0a4007b7          	lui	a5,0xa400
    502020fc:	1781                	addi	a5,a5,-32
    502020fe:	97ba                	add	a5,a5,a4
    50202100:	078e                	slli	a5,a5,0x3
    50202102:	639c                	ld	a5,0(a5)
    50202104:	fef43423          	sd	a5,-24(s0)
    50202108:	fe843783          	ld	a5,-24(s0)
    5020210c:	fef43023          	sd	a5,-32(s0)
    50202110:	fe043783          	ld	a5,-32(s0)
    50202114:	fc043603          	ld	a2,-64(s0)
    50202118:	fc843583          	ld	a1,-56(s0)
    5020211c:	fd043503          	ld	a0,-48(s0)
    50202120:	9782                	jalr	a5
    50202122:	87aa                	mv	a5,a0
    50202124:	853e                	mv	a0,a5
    50202126:	70e2                	ld	ra,56(sp)
    50202128:	7442                	ld	s0,48(sp)
    5020212a:	6121                	addi	sp,sp,64
    5020212c:	8082                	ret

000000005020212e <bios_set_timer>:
    5020212e:	1101                	addi	sp,sp,-32
    50202130:	ec06                	sd	ra,24(sp)
    50202132:	e822                	sd	s0,16(sp)
    50202134:	1000                	addi	s0,sp,32
    50202136:	fea43423          	sd	a0,-24(s0)
    5020213a:	fe843783          	ld	a5,-24(s0)
    5020213e:	4681                	li	a3,0
    50202140:	4601                	li	a2,0
    50202142:	85be                	mv	a1,a5
    50202144:	4515                	li	a0,5
    50202146:	f97ff0ef          	jal	ra,502020dc <call_jmptab>
    5020214a:	0001                	nop
    5020214c:	60e2                	ld	ra,24(sp)
    5020214e:	6442                	ld	s0,16(sp)
    50202150:	6105                	addi	sp,sp,32
    50202152:	8082                	ret

0000000050202154 <_panic>:
    50202154:	7179                	addi	sp,sp,-48
    50202156:	f406                	sd	ra,40(sp)
    50202158:	f022                	sd	s0,32(sp)
    5020215a:	1800                	addi	s0,sp,48
    5020215c:	fea43423          	sd	a0,-24(s0)
    50202160:	87ae                	mv	a5,a1
    50202162:	fcc43c23          	sd	a2,-40(s0)
    50202166:	fef42223          	sw	a5,-28(s0)
    5020216a:	fe442783          	lw	a5,-28(s0)
    5020216e:	86be                	mv	a3,a5
    50202170:	fe843603          	ld	a2,-24(s0)
    50202174:	fd843583          	ld	a1,-40(s0)
    50202178:	00002517          	auipc	a0,0x2
    5020217c:	27850513          	addi	a0,a0,632 # 502043f0 <strcat+0x494>
    50202180:	161010ef          	jal	ra,50203ae0 <printk>
    50202184:	a001                	j	50202184 <_panic+0x30>

0000000050202186 <interrupt_helper>:
    50202186:	715d                	addi	sp,sp,-80
    50202188:	e486                	sd	ra,72(sp)
    5020218a:	e0a2                	sd	s0,64(sp)
    5020218c:	0880                	addi	s0,sp,80
    5020218e:	fca43423          	sd	a0,-56(s0)
    50202192:	fcb43023          	sd	a1,-64(s0)
    50202196:	fac43c23          	sd	a2,-72(s0)
    5020219a:	fb843703          	ld	a4,-72(s0)
    5020219e:	57fd                	li	a5,-1
    502021a0:	17fe                	slli	a5,a5,0x3f
    502021a2:	8ff9                	and	a5,a5,a4
    502021a4:	fef43423          	sd	a5,-24(s0)
    502021a8:	fb843703          	ld	a4,-72(s0)
    502021ac:	57fd                	li	a5,-1
    502021ae:	8385                	srli	a5,a5,0x1
    502021b0:	8ff9                	and	a5,a5,a4
    502021b2:	fef43023          	sd	a5,-32(s0)
    502021b6:	fe843783          	ld	a5,-24(s0)
    502021ba:	c795                	beqz	a5,502021e6 <interrupt_helper+0x60>
    502021bc:	00004717          	auipc	a4,0x4
    502021c0:	6a470713          	addi	a4,a4,1700 # 50206860 <irq_table>
    502021c4:	fe043783          	ld	a5,-32(s0)
    502021c8:	078e                	slli	a5,a5,0x3
    502021ca:	97ba                	add	a5,a5,a4
    502021cc:	639c                	ld	a5,0(a5)
    502021ce:	fcf43823          	sd	a5,-48(s0)
    502021d2:	fd043783          	ld	a5,-48(s0)
    502021d6:	fb843603          	ld	a2,-72(s0)
    502021da:	fc043583          	ld	a1,-64(s0)
    502021de:	fc843503          	ld	a0,-56(s0)
    502021e2:	9782                	jalr	a5
    502021e4:	a02d                	j	5020220e <interrupt_helper+0x88>
    502021e6:	00004717          	auipc	a4,0x4
    502021ea:	5fa70713          	addi	a4,a4,1530 # 502067e0 <exc_table>
    502021ee:	fe043783          	ld	a5,-32(s0)
    502021f2:	078e                	slli	a5,a5,0x3
    502021f4:	97ba                	add	a5,a5,a4
    502021f6:	639c                	ld	a5,0(a5)
    502021f8:	fcf43c23          	sd	a5,-40(s0)
    502021fc:	fd843783          	ld	a5,-40(s0)
    50202200:	fb843603          	ld	a2,-72(s0)
    50202204:	fc043583          	ld	a1,-64(s0)
    50202208:	fc843503          	ld	a0,-56(s0)
    5020220c:	9782                	jalr	a5
    5020220e:	0001                	nop
    50202210:	60a6                	ld	ra,72(sp)
    50202212:	6406                	ld	s0,64(sp)
    50202214:	6161                	addi	sp,sp,80
    50202216:	8082                	ret

0000000050202218 <handle_irq_timer>:
    50202218:	7179                	addi	sp,sp,-48
    5020221a:	f406                	sd	ra,40(sp)
    5020221c:	f022                	sd	s0,32(sp)
    5020221e:	1800                	addi	s0,sp,48
    50202220:	fea43423          	sd	a0,-24(s0)
    50202224:	feb43023          	sd	a1,-32(s0)
    50202228:	fcc43c23          	sd	a2,-40(s0)
    5020222c:	121000ef          	jal	ra,50202b4c <get_ticks>
    50202230:	872a                	mv	a4,a0
    50202232:	000257b7          	lui	a5,0x25
    50202236:	9f078793          	addi	a5,a5,-1552 # 249f0 <TEXT_START-0x501dc610>
    5020223a:	97ba                	add	a5,a5,a4
    5020223c:	853e                	mv	a0,a5
    5020223e:	ef1ff0ef          	jal	ra,5020212e <bios_set_timer>
    50202242:	409000ef          	jal	ra,50202e4a <do_scheduler>
    50202246:	0001                	nop
    50202248:	70a2                	ld	ra,40(sp)
    5020224a:	7402                	ld	s0,32(sp)
    5020224c:	6145                	addi	sp,sp,48
    5020224e:	8082                	ret

0000000050202250 <init_exception>:
    50202250:	1141                	addi	sp,sp,-16
    50202252:	e406                	sd	ra,8(sp)
    50202254:	e022                	sd	s0,0(sp)
    50202256:	0800                	addi	s0,sp,16
    50202258:	00004797          	auipc	a5,0x4
    5020225c:	58878793          	addi	a5,a5,1416 # 502067e0 <exc_table>
    50202260:	00001717          	auipc	a4,0x1
    50202264:	00070713          	mv	a4,a4
    50202268:	e3b8                	sd	a4,64(a5)
    5020226a:	00004797          	auipc	a5,0x4
    5020226e:	57678793          	addi	a5,a5,1398 # 502067e0 <exc_table>
    50202272:	00000717          	auipc	a4,0x0
    50202276:	13e70713          	addi	a4,a4,318 # 502023b0 <handle_other>
    5020227a:	e398                	sd	a4,0(a5)
    5020227c:	00004797          	auipc	a5,0x4
    50202280:	56478793          	addi	a5,a5,1380 # 502067e0 <exc_table>
    50202284:	00000717          	auipc	a4,0x0
    50202288:	12c70713          	addi	a4,a4,300 # 502023b0 <handle_other>
    5020228c:	e798                	sd	a4,8(a5)
    5020228e:	00004797          	auipc	a5,0x4
    50202292:	55278793          	addi	a5,a5,1362 # 502067e0 <exc_table>
    50202296:	00000717          	auipc	a4,0x0
    5020229a:	11a70713          	addi	a4,a4,282 # 502023b0 <handle_other>
    5020229e:	ef98                	sd	a4,24(a5)
    502022a0:	00004797          	auipc	a5,0x4
    502022a4:	54078793          	addi	a5,a5,1344 # 502067e0 <exc_table>
    502022a8:	00000717          	auipc	a4,0x0
    502022ac:	10870713          	addi	a4,a4,264 # 502023b0 <handle_other>
    502022b0:	f798                	sd	a4,40(a5)
    502022b2:	00004797          	auipc	a5,0x4
    502022b6:	52e78793          	addi	a5,a5,1326 # 502067e0 <exc_table>
    502022ba:	00000717          	auipc	a4,0x0
    502022be:	0f670713          	addi	a4,a4,246 # 502023b0 <handle_other>
    502022c2:	ff98                	sd	a4,56(a5)
    502022c4:	00004797          	auipc	a5,0x4
    502022c8:	51c78793          	addi	a5,a5,1308 # 502067e0 <exc_table>
    502022cc:	00000717          	auipc	a4,0x0
    502022d0:	0e470713          	addi	a4,a4,228 # 502023b0 <handle_other>
    502022d4:	f3b8                	sd	a4,96(a5)
    502022d6:	00004797          	auipc	a5,0x4
    502022da:	50a78793          	addi	a5,a5,1290 # 502067e0 <exc_table>
    502022de:	00000717          	auipc	a4,0x0
    502022e2:	0d270713          	addi	a4,a4,210 # 502023b0 <handle_other>
    502022e6:	f7b8                	sd	a4,104(a5)
    502022e8:	00002517          	auipc	a0,0x2
    502022ec:	13050513          	addi	a0,a0,304 # 50204418 <strcat+0x4bc>
    502022f0:	101010ef          	jal	ra,50203bf0 <printl>
    502022f4:	00004797          	auipc	a5,0x4
    502022f8:	56c78793          	addi	a5,a5,1388 # 50206860 <irq_table>
    502022fc:	00000717          	auipc	a4,0x0
    50202300:	f1c70713          	addi	a4,a4,-228 # 50202218 <handle_irq_timer>
    50202304:	f798                	sd	a4,40(a5)
    50202306:	00004797          	auipc	a5,0x4
    5020230a:	55a78793          	addi	a5,a5,1370 # 50206860 <irq_table>
    5020230e:	00000717          	auipc	a4,0x0
    50202312:	0a270713          	addi	a4,a4,162 # 502023b0 <handle_other>
    50202316:	e398                	sd	a4,0(a5)
    50202318:	00004797          	auipc	a5,0x4
    5020231c:	54878793          	addi	a5,a5,1352 # 50206860 <irq_table>
    50202320:	00000717          	auipc	a4,0x0
    50202324:	09070713          	addi	a4,a4,144 # 502023b0 <handle_other>
    50202328:	e798                	sd	a4,8(a5)
    5020232a:	00004797          	auipc	a5,0x4
    5020232e:	53678793          	addi	a5,a5,1334 # 50206860 <irq_table>
    50202332:	00000717          	auipc	a4,0x0
    50202336:	07e70713          	addi	a4,a4,126 # 502023b0 <handle_other>
    5020233a:	ef98                	sd	a4,24(a5)
    5020233c:	00004797          	auipc	a5,0x4
    50202340:	52478793          	addi	a5,a5,1316 # 50206860 <irq_table>
    50202344:	00000717          	auipc	a4,0x0
    50202348:	06c70713          	addi	a4,a4,108 # 502023b0 <handle_other>
    5020234c:	f398                	sd	a4,32(a5)
    5020234e:	00004797          	auipc	a5,0x4
    50202352:	51278793          	addi	a5,a5,1298 # 50206860 <irq_table>
    50202356:	00000717          	auipc	a4,0x0
    5020235a:	05a70713          	addi	a4,a4,90 # 502023b0 <handle_other>
    5020235e:	ff98                	sd	a4,56(a5)
    50202360:	00004797          	auipc	a5,0x4
    50202364:	50078793          	addi	a5,a5,1280 # 50206860 <irq_table>
    50202368:	00000717          	auipc	a4,0x0
    5020236c:	04870713          	addi	a4,a4,72 # 502023b0 <handle_other>
    50202370:	e3b8                	sd	a4,64(a5)
    50202372:	00004797          	auipc	a5,0x4
    50202376:	4ee78793          	addi	a5,a5,1262 # 50206860 <irq_table>
    5020237a:	00000717          	auipc	a4,0x0
    5020237e:	03670713          	addi	a4,a4,54 # 502023b0 <handle_other>
    50202382:	e7b8                	sd	a4,72(a5)
    50202384:	00004797          	auipc	a5,0x4
    50202388:	4dc78793          	addi	a5,a5,1244 # 50206860 <irq_table>
    5020238c:	00000717          	auipc	a4,0x0
    50202390:	02470713          	addi	a4,a4,36 # 502023b0 <handle_other>
    50202394:	efb8                	sd	a4,88(a5)
    50202396:	e2bfe0ef          	jal	ra,502011c0 <setup_exception>
    5020239a:	00002517          	auipc	a0,0x2
    5020239e:	09650513          	addi	a0,a0,150 # 50204430 <strcat+0x4d4>
    502023a2:	04f010ef          	jal	ra,50203bf0 <printl>
    502023a6:	0001                	nop
    502023a8:	60a2                	ld	ra,8(sp)
    502023aa:	6402                	ld	s0,0(sp)
    502023ac:	0141                	addi	sp,sp,16
    502023ae:	8082                	ret

00000000502023b0 <handle_other>:
    502023b0:	7129                	addi	sp,sp,-320
    502023b2:	fe06                	sd	ra,312(sp)
    502023b4:	fa22                	sd	s0,304(sp)
    502023b6:	0280                	addi	s0,sp,320
    502023b8:	eca43c23          	sd	a0,-296(s0)
    502023bc:	ecb43823          	sd	a1,-304(s0)
    502023c0:	ecc43423          	sd	a2,-312(s0)
    502023c4:	00002717          	auipc	a4,0x2
    502023c8:	11470713          	addi	a4,a4,276 # 502044d8 <strcat+0x57c>
    502023cc:	ee840793          	addi	a5,s0,-280
    502023d0:	86ba                	mv	a3,a4
    502023d2:	10000713          	li	a4,256
    502023d6:	863a                	mv	a2,a4
    502023d8:	85b6                	mv	a1,a3
    502023da:	853e                	mv	a0,a5
    502023dc:	06d010ef          	jal	ra,50203c48 <memcpy>
    502023e0:	fe042623          	sw	zero,-20(s0)
    502023e4:	a061                	j	5020246c <handle_other+0xbc>
    502023e6:	fe042423          	sw	zero,-24(s0)
    502023ea:	a0a9                	j	50202434 <handle_other+0x84>
    502023ec:	fec42703          	lw	a4,-20(s0)
    502023f0:	fe842783          	lw	a5,-24(s0)
    502023f4:	9fb9                	addw	a5,a5,a4
    502023f6:	2781                	sext.w	a5,a5
    502023f8:	078e                	slli	a5,a5,0x3
    502023fa:	ff040713          	addi	a4,s0,-16
    502023fe:	97ba                	add	a5,a5,a4
    50202400:	ef87b683          	ld	a3,-264(a5)
    50202404:	fec42703          	lw	a4,-20(s0)
    50202408:	fe842783          	lw	a5,-24(s0)
    5020240c:	9fb9                	addw	a5,a5,a4
    5020240e:	2781                	sext.w	a5,a5
    50202410:	ed843703          	ld	a4,-296(s0)
    50202414:	078e                	slli	a5,a5,0x3
    50202416:	97ba                	add	a5,a5,a4
    50202418:	639c                	ld	a5,0(a5)
    5020241a:	863e                	mv	a2,a5
    5020241c:	85b6                	mv	a1,a3
    5020241e:	00002517          	auipc	a0,0x2
    50202422:	02a50513          	addi	a0,a0,42 # 50204448 <strcat+0x4ec>
    50202426:	6ba010ef          	jal	ra,50203ae0 <printk>
    5020242a:	fe842783          	lw	a5,-24(s0)
    5020242e:	2785                	addiw	a5,a5,1
    50202430:	fef42423          	sw	a5,-24(s0)
    50202434:	fe842783          	lw	a5,-24(s0)
    50202438:	0007871b          	sext.w	a4,a5
    5020243c:	4789                	li	a5,2
    5020243e:	00e7cc63          	blt	a5,a4,50202456 <handle_other+0xa6>
    50202442:	fec42703          	lw	a4,-20(s0)
    50202446:	fe842783          	lw	a5,-24(s0)
    5020244a:	9fb9                	addw	a5,a5,a4
    5020244c:	2781                	sext.w	a5,a5
    5020244e:	873e                	mv	a4,a5
    50202450:	47fd                	li	a5,31
    50202452:	f8e7dde3          	bge	a5,a4,502023ec <handle_other+0x3c>
    50202456:	00002517          	auipc	a0,0x2
    5020245a:	00250513          	addi	a0,a0,2 # 50204458 <strcat+0x4fc>
    5020245e:	682010ef          	jal	ra,50203ae0 <printk>
    50202462:	fec42783          	lw	a5,-20(s0)
    50202466:	278d                	addiw	a5,a5,3
    50202468:	fef42623          	sw	a5,-20(s0)
    5020246c:	fec42783          	lw	a5,-20(s0)
    50202470:	0007871b          	sext.w	a4,a5
    50202474:	47fd                	li	a5,31
    50202476:	f6e7d8e3          	bge	a5,a4,502023e6 <handle_other+0x36>
    5020247a:	ed843783          	ld	a5,-296(s0)
    5020247e:	1007b703          	ld	a4,256(a5)
    50202482:	ed843783          	ld	a5,-296(s0)
    50202486:	1107b603          	ld	a2,272(a5)
    5020248a:	ed843783          	ld	a5,-296(s0)
    5020248e:	1187b783          	ld	a5,280(a5)
    50202492:	86be                	mv	a3,a5
    50202494:	85ba                	mv	a1,a4
    50202496:	00002517          	auipc	a0,0x2
    5020249a:	fca50513          	addi	a0,a0,-54 # 50204460 <strcat+0x504>
    5020249e:	642010ef          	jal	ra,50203ae0 <printk>
    502024a2:	ed843783          	ld	a5,-296(s0)
    502024a6:	1087b783          	ld	a5,264(a5)
    502024aa:	85be                	mv	a1,a5
    502024ac:	00002517          	auipc	a0,0x2
    502024b0:	fe450513          	addi	a0,a0,-28 # 50204490 <strcat+0x534>
    502024b4:	62c010ef          	jal	ra,50203ae0 <printk>
    502024b8:	ec843603          	ld	a2,-312(s0)
    502024bc:	ed043583          	ld	a1,-304(s0)
    502024c0:	00002517          	auipc	a0,0x2
    502024c4:	fe050513          	addi	a0,a0,-32 # 502044a0 <strcat+0x544>
    502024c8:	618010ef          	jal	ra,50203ae0 <printk>
    502024cc:	00002617          	auipc	a2,0x2
    502024d0:	10c60613          	addi	a2,a2,268 # 502045d8 <__FUNCTION__.1320>
    502024d4:	08300593          	li	a1,131
    502024d8:	00002517          	auipc	a0,0x2
    502024dc:	fe850513          	addi	a0,a0,-24 # 502044c0 <strcat+0x564>
    502024e0:	c75ff0ef          	jal	ra,50202154 <_panic>
    502024e4:	0001                	nop
    502024e6:	70f2                	ld	ra,312(sp)
    502024e8:	7452                	ld	s0,304(sp)
    502024ea:	6131                	addi	sp,sp,320
    502024ec:	8082                	ret

00000000502024ee <call_jmptab>:
    502024ee:	7139                	addi	sp,sp,-64
    502024f0:	fc06                	sd	ra,56(sp)
    502024f2:	f822                	sd	s0,48(sp)
    502024f4:	0080                	addi	s0,sp,64
    502024f6:	fca43c23          	sd	a0,-40(s0)
    502024fa:	fcb43823          	sd	a1,-48(s0)
    502024fe:	fcc43423          	sd	a2,-56(s0)
    50202502:	fcd43023          	sd	a3,-64(s0)
    50202506:	fd843703          	ld	a4,-40(s0)
    5020250a:	0a4007b7          	lui	a5,0xa400
    5020250e:	1781                	addi	a5,a5,-32
    50202510:	97ba                	add	a5,a5,a4
    50202512:	078e                	slli	a5,a5,0x3
    50202514:	639c                	ld	a5,0(a5)
    50202516:	fef43423          	sd	a5,-24(s0)
    5020251a:	fe843783          	ld	a5,-24(s0)
    5020251e:	fef43023          	sd	a5,-32(s0)
    50202522:	fe043783          	ld	a5,-32(s0)
    50202526:	fc043603          	ld	a2,-64(s0)
    5020252a:	fc843583          	ld	a1,-56(s0)
    5020252e:	fd043503          	ld	a0,-48(s0)
    50202532:	9782                	jalr	a5
    50202534:	87aa                	mv	a5,a0
    50202536:	853e                	mv	a0,a5
    50202538:	70e2                	ld	ra,56(sp)
    5020253a:	7442                	ld	s0,48(sp)
    5020253c:	6121                	addi	sp,sp,64
    5020253e:	8082                	ret

0000000050202540 <bios_sdread>:
    50202540:	1101                	addi	sp,sp,-32
    50202542:	ec06                	sd	ra,24(sp)
    50202544:	e822                	sd	s0,16(sp)
    50202546:	1000                	addi	s0,sp,32
    50202548:	87aa                	mv	a5,a0
    5020254a:	86ae                	mv	a3,a1
    5020254c:	8732                	mv	a4,a2
    5020254e:	fef42623          	sw	a5,-20(s0)
    50202552:	87b6                	mv	a5,a3
    50202554:	fef42423          	sw	a5,-24(s0)
    50202558:	87ba                	mv	a5,a4
    5020255a:	fef42223          	sw	a5,-28(s0)
    5020255e:	fec46783          	lwu	a5,-20(s0)
    50202562:	fe846703          	lwu	a4,-24(s0)
    50202566:	fe446683          	lwu	a3,-28(s0)
    5020256a:	863a                	mv	a2,a4
    5020256c:	85be                	mv	a1,a5
    5020256e:	450d                	li	a0,3
    50202570:	f7fff0ef          	jal	ra,502024ee <call_jmptab>
    50202574:	87aa                	mv	a5,a0
    50202576:	2781                	sext.w	a5,a5
    50202578:	853e                	mv	a0,a5
    5020257a:	60e2                	ld	ra,24(sp)
    5020257c:	6442                	ld	s0,16(sp)
    5020257e:	6105                	addi	sp,sp,32
    50202580:	8082                	ret

0000000050202582 <load_task_img>:
    50202582:	715d                	addi	sp,sp,-80
    50202584:	e486                	sd	ra,72(sp)
    50202586:	e0a2                	sd	s0,64(sp)
    50202588:	0880                	addi	s0,sp,80
    5020258a:	87aa                	mv	a5,a0
    5020258c:	faf42e23          	sw	a5,-68(s0)
    50202590:	fbc42783          	lw	a5,-68(s0)
    50202594:	fef42623          	sw	a5,-20(s0)
    50202598:	fec42703          	lw	a4,-20(s0)
    5020259c:	6795                	lui	a5,0x5
    5020259e:	2007879b          	addiw	a5,a5,512
    502025a2:	9fb9                	addw	a5,a5,a4
    502025a4:	2781                	sext.w	a5,a5
    502025a6:	0107979b          	slliw	a5,a5,0x10
    502025aa:	2781                	sext.w	a5,a5
    502025ac:	fef43023          	sd	a5,-32(s0)
    502025b0:	00004717          	auipc	a4,0x4
    502025b4:	13070713          	addi	a4,a4,304 # 502066e0 <tasks>
    502025b8:	fec42783          	lw	a5,-20(s0)
    502025bc:	0792                	slli	a5,a5,0x4
    502025be:	97ba                	add	a5,a5,a4
    502025c0:	479c                	lw	a5,8(a5)
    502025c2:	41f7d71b          	sraiw	a4,a5,0x1f
    502025c6:	0177571b          	srliw	a4,a4,0x17
    502025ca:	9fb9                	addw	a5,a5,a4
    502025cc:	4097d79b          	sraiw	a5,a5,0x9
    502025d0:	fcf42e23          	sw	a5,-36(s0)
    502025d4:	00004717          	auipc	a4,0x4
    502025d8:	10c70713          	addi	a4,a4,268 # 502066e0 <tasks>
    502025dc:	fec42783          	lw	a5,-20(s0)
    502025e0:	0792                	slli	a5,a5,0x4
    502025e2:	97ba                	add	a5,a5,a4
    502025e4:	4798                	lw	a4,8(a5)
    502025e6:	fdc42783          	lw	a5,-36(s0)
    502025ea:	0097979b          	slliw	a5,a5,0x9
    502025ee:	2781                	sext.w	a5,a5
    502025f0:	40f707bb          	subw	a5,a4,a5
    502025f4:	2781                	sext.w	a5,a5
    502025f6:	873e                	mv	a4,a5
    502025f8:	fe043783          	ld	a5,-32(s0)
    502025fc:	97ba                	add	a5,a5,a4
    502025fe:	fcf43823          	sd	a5,-48(s0)
    50202602:	00004717          	auipc	a4,0x4
    50202606:	0de70713          	addi	a4,a4,222 # 502066e0 <tasks>
    5020260a:	fec42783          	lw	a5,-20(s0)
    5020260e:	0792                	slli	a5,a5,0x4
    50202610:	97ba                	add	a5,a5,a4
    50202612:	47d8                	lw	a4,12(a5)
    50202614:	00004697          	auipc	a3,0x4
    50202618:	0cc68693          	addi	a3,a3,204 # 502066e0 <tasks>
    5020261c:	fec42783          	lw	a5,-20(s0)
    50202620:	0792                	slli	a5,a5,0x4
    50202622:	97b6                	add	a5,a5,a3
    50202624:	479c                	lw	a5,8(a5)
    50202626:	9fb9                	addw	a5,a5,a4
    50202628:	fcf42623          	sw	a5,-52(s0)
    5020262c:	fcc42783          	lw	a5,-52(s0)
    50202630:	41f7d71b          	sraiw	a4,a5,0x1f
    50202634:	0177571b          	srliw	a4,a4,0x17
    50202638:	9fb9                	addw	a5,a5,a4
    5020263a:	4097d79b          	sraiw	a5,a5,0x9
    5020263e:	0007871b          	sext.w	a4,a5
    50202642:	fcc42783          	lw	a5,-52(s0)
    50202646:	1ff7f793          	andi	a5,a5,511
    5020264a:	2781                	sext.w	a5,a5
    5020264c:	00f037b3          	snez	a5,a5
    50202650:	0ff7f793          	andi	a5,a5,255
    50202654:	2781                	sext.w	a5,a5
    50202656:	9fb9                	addw	a5,a5,a4
    50202658:	fcf42423          	sw	a5,-56(s0)
    5020265c:	fc842703          	lw	a4,-56(s0)
    50202660:	fdc42783          	lw	a5,-36(s0)
    50202664:	40f707bb          	subw	a5,a4,a5
    50202668:	fcf42223          	sw	a5,-60(s0)
    5020266c:	fe043783          	ld	a5,-32(s0)
    50202670:	2781                	sext.w	a5,a5
    50202672:	fc442703          	lw	a4,-60(s0)
    50202676:	fdc42683          	lw	a3,-36(s0)
    5020267a:	8636                	mv	a2,a3
    5020267c:	85ba                	mv	a1,a4
    5020267e:	853e                	mv	a0,a5
    50202680:	ec1ff0ef          	jal	ra,50202540 <bios_sdread>
    50202684:	fd043783          	ld	a5,-48(s0)
    50202688:	853e                	mv	a0,a5
    5020268a:	60a6                	ld	ra,72(sp)
    5020268c:	6406                	ld	s0,64(sp)
    5020268e:	6161                	addi	sp,sp,80
    50202690:	8082                	ret

0000000050202692 <allocKernelPage>:
    50202692:	7179                	addi	sp,sp,-48
    50202694:	f422                	sd	s0,40(sp)
    50202696:	1800                	addi	s0,sp,48
    50202698:	87aa                	mv	a5,a0
    5020269a:	fcf42e23          	sw	a5,-36(s0)
    5020269e:	00002797          	auipc	a5,0x2
    502026a2:	0da78793          	addi	a5,a5,218 # 50204778 <kernMemCurr>
    502026a6:	6398                	ld	a4,0(a5)
    502026a8:	6785                	lui	a5,0x1
    502026aa:	17fd                	addi	a5,a5,-1
    502026ac:	973e                	add	a4,a4,a5
    502026ae:	77fd                	lui	a5,0xfffff
    502026b0:	8ff9                	and	a5,a5,a4
    502026b2:	fef43423          	sd	a5,-24(s0)
    502026b6:	fdc42783          	lw	a5,-36(s0)
    502026ba:	00c7979b          	slliw	a5,a5,0xc
    502026be:	2781                	sext.w	a5,a5
    502026c0:	873e                	mv	a4,a5
    502026c2:	fe843783          	ld	a5,-24(s0)
    502026c6:	973e                	add	a4,a4,a5
    502026c8:	00002797          	auipc	a5,0x2
    502026cc:	0b078793          	addi	a5,a5,176 # 50204778 <kernMemCurr>
    502026d0:	e398                	sd	a4,0(a5)
    502026d2:	fe843783          	ld	a5,-24(s0)
    502026d6:	853e                	mv	a0,a5
    502026d8:	7422                	ld	s0,40(sp)
    502026da:	6145                	addi	sp,sp,48
    502026dc:	8082                	ret

00000000502026de <allocUserPage>:
    502026de:	7179                	addi	sp,sp,-48
    502026e0:	f422                	sd	s0,40(sp)
    502026e2:	1800                	addi	s0,sp,48
    502026e4:	87aa                	mv	a5,a0
    502026e6:	fcf42e23          	sw	a5,-36(s0)
    502026ea:	00002797          	auipc	a5,0x2
    502026ee:	09678793          	addi	a5,a5,150 # 50204780 <userMemCurr>
    502026f2:	6398                	ld	a4,0(a5)
    502026f4:	6785                	lui	a5,0x1
    502026f6:	17fd                	addi	a5,a5,-1
    502026f8:	973e                	add	a4,a4,a5
    502026fa:	77fd                	lui	a5,0xfffff
    502026fc:	8ff9                	and	a5,a5,a4
    502026fe:	fef43423          	sd	a5,-24(s0)
    50202702:	fdc42783          	lw	a5,-36(s0)
    50202706:	00c7979b          	slliw	a5,a5,0xc
    5020270a:	2781                	sext.w	a5,a5
    5020270c:	873e                	mv	a4,a5
    5020270e:	fe843783          	ld	a5,-24(s0)
    50202712:	973e                	add	a4,a4,a5
    50202714:	00002797          	auipc	a5,0x2
    50202718:	06c78793          	addi	a5,a5,108 # 50204780 <userMemCurr>
    5020271c:	e398                	sd	a4,0(a5)
    5020271e:	fe843783          	ld	a5,-24(s0)
    50202722:	853e                	mv	a0,a5
    50202724:	7422                	ld	s0,40(sp)
    50202726:	6145                	addi	sp,sp,48
    50202728:	8082                	ret

000000005020272a <Dequeue>:
    5020272a:	7139                	addi	sp,sp,-64
    5020272c:	fc22                	sd	s0,56(sp)
    5020272e:	0080                	addi	s0,sp,64
    50202730:	fca43423          	sd	a0,-56(s0)
    50202734:	fc843783          	ld	a5,-56(s0)
    50202738:	679c                	ld	a5,8(a5)
    5020273a:	fef43423          	sd	a5,-24(s0)
    5020273e:	fc843783          	ld	a5,-56(s0)
    50202742:	639c                	ld	a5,0(a5)
    50202744:	fef43023          	sd	a5,-32(s0)
    50202748:	fe843703          	ld	a4,-24(s0)
    5020274c:	fc843783          	ld	a5,-56(s0)
    50202750:	00f71a63          	bne	a4,a5,50202764 <Dequeue+0x3a>
    50202754:	fe043703          	ld	a4,-32(s0)
    50202758:	fc843783          	ld	a5,-56(s0)
    5020275c:	00f71463          	bne	a4,a5,50202764 <Dequeue+0x3a>
    50202760:	4781                	li	a5,0
    50202762:	a0b1                	j	502027ae <Dequeue+0x84>
    50202764:	fe043703          	ld	a4,-32(s0)
    50202768:	fe843783          	ld	a5,-24(s0)
    5020276c:	02f71063          	bne	a4,a5,5020278c <Dequeue+0x62>
    50202770:	fc843783          	ld	a5,-56(s0)
    50202774:	fc843703          	ld	a4,-56(s0)
    50202778:	e398                	sd	a4,0(a5)
    5020277a:	fc843783          	ld	a5,-56(s0)
    5020277e:	6398                	ld	a4,0(a5)
    50202780:	fc843783          	ld	a5,-56(s0)
    50202784:	e798                	sd	a4,8(a5)
    50202786:	fe043783          	ld	a5,-32(s0)
    5020278a:	a015                	j	502027ae <Dequeue+0x84>
    5020278c:	fe043783          	ld	a5,-32(s0)
    50202790:	679c                	ld	a5,8(a5)
    50202792:	fcf43c23          	sd	a5,-40(s0)
    50202796:	fd843783          	ld	a5,-40(s0)
    5020279a:	fc843703          	ld	a4,-56(s0)
    5020279e:	e398                	sd	a4,0(a5)
    502027a0:	fc843783          	ld	a5,-56(s0)
    502027a4:	fd843703          	ld	a4,-40(s0)
    502027a8:	e398                	sd	a4,0(a5)
    502027aa:	fe043783          	ld	a5,-32(s0)
    502027ae:	853e                	mv	a0,a5
    502027b0:	7462                	ld	s0,56(sp)
    502027b2:	6121                	addi	sp,sp,64
    502027b4:	8082                	ret

00000000502027b6 <init_locks>:
    502027b6:	1141                	addi	sp,sp,-16
    502027b8:	e422                	sd	s0,8(sp)
    502027ba:	0800                	addi	s0,sp,16
    502027bc:	0001                	nop
    502027be:	6422                	ld	s0,8(sp)
    502027c0:	0141                	addi	sp,sp,16
    502027c2:	8082                	ret

00000000502027c4 <spin_lock_init>:
    502027c4:	1101                	addi	sp,sp,-32
    502027c6:	ec22                	sd	s0,24(sp)
    502027c8:	1000                	addi	s0,sp,32
    502027ca:	fea43423          	sd	a0,-24(s0)
    502027ce:	fe843783          	ld	a5,-24(s0)
    502027d2:	0007a023          	sw	zero,0(a5)
    502027d6:	0001                	nop
    502027d8:	6462                	ld	s0,24(sp)
    502027da:	6105                	addi	sp,sp,32
    502027dc:	8082                	ret

00000000502027de <spin_lock_try_acquire>:
    502027de:	1101                	addi	sp,sp,-32
    502027e0:	ec22                	sd	s0,24(sp)
    502027e2:	1000                	addi	s0,sp,32
    502027e4:	fea43423          	sd	a0,-24(s0)
    502027e8:	fe843783          	ld	a5,-24(s0)
    502027ec:	439c                	lw	a5,0(a5)
    502027ee:	2781                	sext.w	a5,a5
    502027f0:	0017b793          	seqz	a5,a5
    502027f4:	0ff7f793          	andi	a5,a5,255
    502027f8:	2781                	sext.w	a5,a5
    502027fa:	853e                	mv	a0,a5
    502027fc:	6462                	ld	s0,24(sp)
    502027fe:	6105                	addi	sp,sp,32
    50202800:	8082                	ret

0000000050202802 <spin_lock_acquire>:
    50202802:	1101                	addi	sp,sp,-32
    50202804:	ec22                	sd	s0,24(sp)
    50202806:	1000                	addi	s0,sp,32
    50202808:	fea43423          	sd	a0,-24(s0)
    5020280c:	fe843783          	ld	a5,-24(s0)
    50202810:	4705                	li	a4,1
    50202812:	c398                	sw	a4,0(a5)
    50202814:	0001                	nop
    50202816:	6462                	ld	s0,24(sp)
    50202818:	6105                	addi	sp,sp,32
    5020281a:	8082                	ret

000000005020281c <spin_lock_release>:
    5020281c:	1101                	addi	sp,sp,-32
    5020281e:	ec22                	sd	s0,24(sp)
    50202820:	1000                	addi	s0,sp,32
    50202822:	fea43423          	sd	a0,-24(s0)
    50202826:	fe843783          	ld	a5,-24(s0)
    5020282a:	0007a023          	sw	zero,0(a5)
    5020282e:	0001                	nop
    50202830:	6462                	ld	s0,24(sp)
    50202832:	6105                	addi	sp,sp,32
    50202834:	8082                	ret

0000000050202836 <do_mutex_lock_init>:
    50202836:	7179                	addi	sp,sp,-48
    50202838:	f406                	sd	ra,40(sp)
    5020283a:	f022                	sd	s0,32(sp)
    5020283c:	1800                	addi	s0,sp,48
    5020283e:	87aa                	mv	a5,a0
    50202840:	fcf42e23          	sw	a5,-36(s0)
    50202844:	fdc42703          	lw	a4,-36(s0)
    50202848:	41f7579b          	sraiw	a5,a4,0x1f
    5020284c:	01c7d79b          	srliw	a5,a5,0x1c
    50202850:	9f3d                	addw	a4,a4,a5
    50202852:	8b3d                	andi	a4,a4,15
    50202854:	40f707bb          	subw	a5,a4,a5
    50202858:	fef42623          	sw	a5,-20(s0)
    5020285c:	00004717          	auipc	a4,0x4
    50202860:	06470713          	addi	a4,a4,100 # 502068c0 <mlocks>
    50202864:	fec42783          	lw	a5,-20(s0)
    50202868:	0796                	slli	a5,a5,0x5
    5020286a:	97ba                	add	a5,a5,a4
    5020286c:	fdc42703          	lw	a4,-36(s0)
    50202870:	cf98                	sw	a4,24(a5)
    50202872:	fec42783          	lw	a5,-20(s0)
    50202876:	00579713          	slli	a4,a5,0x5
    5020287a:	00004797          	auipc	a5,0x4
    5020287e:	04678793          	addi	a5,a5,70 # 502068c0 <mlocks>
    50202882:	97ba                	add	a5,a5,a4
    50202884:	07a1                	addi	a5,a5,8
    50202886:	fef43023          	sd	a5,-32(s0)
    5020288a:	00004717          	auipc	a4,0x4
    5020288e:	03670713          	addi	a4,a4,54 # 502068c0 <mlocks>
    50202892:	fec42783          	lw	a5,-20(s0)
    50202896:	0796                	slli	a5,a5,0x5
    50202898:	97ba                	add	a5,a5,a4
    5020289a:	fe043703          	ld	a4,-32(s0)
    5020289e:	eb98                	sd	a4,16(a5)
    502028a0:	00004717          	auipc	a4,0x4
    502028a4:	02070713          	addi	a4,a4,32 # 502068c0 <mlocks>
    502028a8:	fec42783          	lw	a5,-20(s0)
    502028ac:	0796                	slli	a5,a5,0x5
    502028ae:	97ba                	add	a5,a5,a4
    502028b0:	fe043703          	ld	a4,-32(s0)
    502028b4:	e798                	sd	a4,8(a5)
    502028b6:	fec42783          	lw	a5,-20(s0)
    502028ba:	00579713          	slli	a4,a5,0x5
    502028be:	00004797          	auipc	a5,0x4
    502028c2:	00278793          	addi	a5,a5,2 # 502068c0 <mlocks>
    502028c6:	97ba                	add	a5,a5,a4
    502028c8:	853e                	mv	a0,a5
    502028ca:	efbff0ef          	jal	ra,502027c4 <spin_lock_init>
    502028ce:	fec42783          	lw	a5,-20(s0)
    502028d2:	853e                	mv	a0,a5
    502028d4:	70a2                	ld	ra,40(sp)
    502028d6:	7402                	ld	s0,32(sp)
    502028d8:	6145                	addi	sp,sp,48
    502028da:	8082                	ret

00000000502028dc <do_mutex_lock_acquire>:
    502028dc:	7139                	addi	sp,sp,-64
    502028de:	fc06                	sd	ra,56(sp)
    502028e0:	f822                	sd	s0,48(sp)
    502028e2:	0080                	addi	s0,sp,64
    502028e4:	87aa                	mv	a5,a0
    502028e6:	fcf42623          	sw	a5,-52(s0)
    502028ea:	fcc42783          	lw	a5,-52(s0)
    502028ee:	00579713          	slli	a4,a5,0x5
    502028f2:	00004797          	auipc	a5,0x4
    502028f6:	fce78793          	addi	a5,a5,-50 # 502068c0 <mlocks>
    502028fa:	97ba                	add	a5,a5,a4
    502028fc:	853e                	mv	a0,a5
    502028fe:	ee1ff0ef          	jal	ra,502027de <spin_lock_try_acquire>
    50202902:	87aa                	mv	a5,a0
    50202904:	cf91                	beqz	a5,50202920 <do_mutex_lock_acquire+0x44>
    50202906:	fcc42783          	lw	a5,-52(s0)
    5020290a:	00579713          	slli	a4,a5,0x5
    5020290e:	00004797          	auipc	a5,0x4
    50202912:	fb278793          	addi	a5,a5,-78 # 502068c0 <mlocks>
    50202916:	97ba                	add	a5,a5,a4
    50202918:	853e                	mv	a0,a5
    5020291a:	ee9ff0ef          	jal	ra,50202802 <spin_lock_acquire>
    5020291e:	a041                	j	5020299e <do_mutex_lock_acquire+0xc2>
    50202920:	00004797          	auipc	a5,0x4
    50202924:	42078793          	addi	a5,a5,1056 # 50206d40 <current_running>
    50202928:	639c                	ld	a5,0(a5)
    5020292a:	01078693          	addi	a3,a5,16
    5020292e:	fcc42783          	lw	a5,-52(s0)
    50202932:	00579713          	slli	a4,a5,0x5
    50202936:	00004797          	auipc	a5,0x4
    5020293a:	f8a78793          	addi	a5,a5,-118 # 502068c0 <mlocks>
    5020293e:	97ba                	add	a5,a5,a4
    50202940:	07a1                	addi	a5,a5,8
    50202942:	85be                	mv	a1,a5
    50202944:	8536                	mv	a0,a3
    50202946:	648000ef          	jal	ra,50202f8e <do_block>
    5020294a:	00002517          	auipc	a0,0x2
    5020294e:	e0650513          	addi	a0,a0,-506 # 50204750 <ready_queue>
    50202952:	dd9ff0ef          	jal	ra,5020272a <Dequeue>
    50202956:	fea43423          	sd	a0,-24(s0)
    5020295a:	fe843783          	ld	a5,-24(s0)
    5020295e:	17c1                	addi	a5,a5,-16
    50202960:	fef43023          	sd	a5,-32(s0)
    50202964:	00004797          	auipc	a5,0x4
    50202968:	3dc78793          	addi	a5,a5,988 # 50206d40 <current_running>
    5020296c:	639c                	ld	a5,0(a5)
    5020296e:	fcf43c23          	sd	a5,-40(s0)
    50202972:	fe043783          	ld	a5,-32(s0)
    50202976:	4705                	li	a4,1
    50202978:	d3d8                	sw	a4,36(a5)
    5020297a:	00004797          	auipc	a5,0x4
    5020297e:	3c678793          	addi	a5,a5,966 # 50206d40 <current_running>
    50202982:	fe043703          	ld	a4,-32(s0)
    50202986:	e398                	sd	a4,0(a5)
    50202988:	fe043583          	ld	a1,-32(s0)
    5020298c:	fd843503          	ld	a0,-40(s0)
    50202990:	eccfe0ef          	jal	ra,5020105c <switch_to>
    50202994:	fcc42783          	lw	a5,-52(s0)
    50202998:	853e                	mv	a0,a5
    5020299a:	f43ff0ef          	jal	ra,502028dc <do_mutex_lock_acquire>
    5020299e:	0001                	nop
    502029a0:	70e2                	ld	ra,56(sp)
    502029a2:	7442                	ld	s0,48(sp)
    502029a4:	6121                	addi	sp,sp,64
    502029a6:	8082                	ret

00000000502029a8 <do_mutex_lock_release>:
    502029a8:	1101                	addi	sp,sp,-32
    502029aa:	ec06                	sd	ra,24(sp)
    502029ac:	e822                	sd	s0,16(sp)
    502029ae:	1000                	addi	s0,sp,32
    502029b0:	87aa                	mv	a5,a0
    502029b2:	fef42623          	sw	a5,-20(s0)
    502029b6:	fec42783          	lw	a5,-20(s0)
    502029ba:	00579713          	slli	a4,a5,0x5
    502029be:	00004797          	auipc	a5,0x4
    502029c2:	f0278793          	addi	a5,a5,-254 # 502068c0 <mlocks>
    502029c6:	97ba                	add	a5,a5,a4
    502029c8:	853e                	mv	a0,a5
    502029ca:	e53ff0ef          	jal	ra,5020281c <spin_lock_release>
    502029ce:	fec42783          	lw	a5,-20(s0)
    502029d2:	00579713          	slli	a4,a5,0x5
    502029d6:	00004797          	auipc	a5,0x4
    502029da:	eea78793          	addi	a5,a5,-278 # 502068c0 <mlocks>
    502029de:	97ba                	add	a5,a5,a4
    502029e0:	07a1                	addi	a5,a5,8
    502029e2:	853e                	mv	a0,a5
    502029e4:	5e2000ef          	jal	ra,50202fc6 <do_unblock>
    502029e8:	0001                	nop
    502029ea:	60e2                	ld	ra,24(sp)
    502029ec:	6442                	ld	s0,16(sp)
    502029ee:	6105                	addi	sp,sp,32
    502029f0:	8082                	ret

00000000502029f2 <Dequeue>:
    502029f2:	7139                	addi	sp,sp,-64
    502029f4:	fc22                	sd	s0,56(sp)
    502029f6:	0080                	addi	s0,sp,64
    502029f8:	fca43423          	sd	a0,-56(s0)
    502029fc:	fc843783          	ld	a5,-56(s0)
    50202a00:	679c                	ld	a5,8(a5)
    50202a02:	fef43423          	sd	a5,-24(s0)
    50202a06:	fc843783          	ld	a5,-56(s0)
    50202a0a:	639c                	ld	a5,0(a5)
    50202a0c:	fef43023          	sd	a5,-32(s0)
    50202a10:	fe843703          	ld	a4,-24(s0)
    50202a14:	fc843783          	ld	a5,-56(s0)
    50202a18:	00f71a63          	bne	a4,a5,50202a2c <Dequeue+0x3a>
    50202a1c:	fe043703          	ld	a4,-32(s0)
    50202a20:	fc843783          	ld	a5,-56(s0)
    50202a24:	00f71463          	bne	a4,a5,50202a2c <Dequeue+0x3a>
    50202a28:	4781                	li	a5,0
    50202a2a:	a0b1                	j	50202a76 <Dequeue+0x84>
    50202a2c:	fe043703          	ld	a4,-32(s0)
    50202a30:	fe843783          	ld	a5,-24(s0)
    50202a34:	02f71063          	bne	a4,a5,50202a54 <Dequeue+0x62>
    50202a38:	fc843783          	ld	a5,-56(s0)
    50202a3c:	fc843703          	ld	a4,-56(s0)
    50202a40:	e398                	sd	a4,0(a5)
    50202a42:	fc843783          	ld	a5,-56(s0)
    50202a46:	6398                	ld	a4,0(a5)
    50202a48:	fc843783          	ld	a5,-56(s0)
    50202a4c:	e798                	sd	a4,8(a5)
    50202a4e:	fe043783          	ld	a5,-32(s0)
    50202a52:	a015                	j	50202a76 <Dequeue+0x84>
    50202a54:	fe043783          	ld	a5,-32(s0)
    50202a58:	679c                	ld	a5,8(a5)
    50202a5a:	fcf43c23          	sd	a5,-40(s0)
    50202a5e:	fd843783          	ld	a5,-40(s0)
    50202a62:	fc843703          	ld	a4,-56(s0)
    50202a66:	e398                	sd	a4,0(a5)
    50202a68:	fc843783          	ld	a5,-56(s0)
    50202a6c:	fd843703          	ld	a4,-40(s0)
    50202a70:	e398                	sd	a4,0(a5)
    50202a72:	fe043783          	ld	a5,-32(s0)
    50202a76:	853e                	mv	a0,a5
    50202a78:	7462                	ld	s0,56(sp)
    50202a7a:	6121                	addi	sp,sp,64
    50202a7c:	8082                	ret

0000000050202a7e <Enqueue>:
    50202a7e:	7179                	addi	sp,sp,-48
    50202a80:	f422                	sd	s0,40(sp)
    50202a82:	1800                	addi	s0,sp,48
    50202a84:	fca43c23          	sd	a0,-40(s0)
    50202a88:	fcb43823          	sd	a1,-48(s0)
    50202a8c:	fd843783          	ld	a5,-40(s0)
    50202a90:	679c                	ld	a5,8(a5)
    50202a92:	fef43423          	sd	a5,-24(s0)
    50202a96:	fd843783          	ld	a5,-40(s0)
    50202a9a:	639c                	ld	a5,0(a5)
    50202a9c:	fef43023          	sd	a5,-32(s0)
    50202aa0:	fe843703          	ld	a4,-24(s0)
    50202aa4:	fd843783          	ld	a5,-40(s0)
    50202aa8:	02f71f63          	bne	a4,a5,50202ae6 <Enqueue+0x68>
    50202aac:	fe043703          	ld	a4,-32(s0)
    50202ab0:	fd843783          	ld	a5,-40(s0)
    50202ab4:	02f71963          	bne	a4,a5,50202ae6 <Enqueue+0x68>
    50202ab8:	fd843783          	ld	a5,-40(s0)
    50202abc:	fd043703          	ld	a4,-48(s0)
    50202ac0:	e398                	sd	a4,0(a5)
    50202ac2:	fd843783          	ld	a5,-40(s0)
    50202ac6:	6398                	ld	a4,0(a5)
    50202ac8:	fd843783          	ld	a5,-40(s0)
    50202acc:	e798                	sd	a4,8(a5)
    50202ace:	fd043783          	ld	a5,-48(s0)
    50202ad2:	fd843703          	ld	a4,-40(s0)
    50202ad6:	e398                	sd	a4,0(a5)
    50202ad8:	fd043783          	ld	a5,-48(s0)
    50202adc:	6398                	ld	a4,0(a5)
    50202ade:	fd043783          	ld	a5,-48(s0)
    50202ae2:	e798                	sd	a4,8(a5)
    50202ae4:	a035                	j	50202b10 <Enqueue+0x92>
    50202ae6:	fd843783          	ld	a5,-40(s0)
    50202aea:	fd043703          	ld	a4,-48(s0)
    50202aee:	e798                	sd	a4,8(a5)
    50202af0:	fd043783          	ld	a5,-48(s0)
    50202af4:	fe843703          	ld	a4,-24(s0)
    50202af8:	e398                	sd	a4,0(a5)
    50202afa:	fd043783          	ld	a5,-48(s0)
    50202afe:	fd843703          	ld	a4,-40(s0)
    50202b02:	e798                	sd	a4,8(a5)
    50202b04:	fe843783          	ld	a5,-24(s0)
    50202b08:	fd043703          	ld	a4,-48(s0)
    50202b0c:	e798                	sd	a4,8(a5)
    50202b0e:	0001                	nop
    50202b10:	0001                	nop
    50202b12:	7422                	ld	s0,40(sp)
    50202b14:	6145                	addi	sp,sp,48
    50202b16:	8082                	ret

0000000050202b18 <if_queue_empty>:
    50202b18:	1101                	addi	sp,sp,-32
    50202b1a:	ec22                	sd	s0,24(sp)
    50202b1c:	1000                	addi	s0,sp,32
    50202b1e:	fea43423          	sd	a0,-24(s0)
    50202b22:	fe843783          	ld	a5,-24(s0)
    50202b26:	679c                	ld	a5,8(a5)
    50202b28:	fe843703          	ld	a4,-24(s0)
    50202b2c:	00f71b63          	bne	a4,a5,50202b42 <if_queue_empty+0x2a>
    50202b30:	fe843783          	ld	a5,-24(s0)
    50202b34:	639c                	ld	a5,0(a5)
    50202b36:	fe843703          	ld	a4,-24(s0)
    50202b3a:	00f71463          	bne	a4,a5,50202b42 <if_queue_empty+0x2a>
    50202b3e:	4785                	li	a5,1
    50202b40:	a011                	j	50202b44 <if_queue_empty+0x2c>
    50202b42:	4781                	li	a5,0
    50202b44:	853e                	mv	a0,a5
    50202b46:	6462                	ld	s0,24(sp)
    50202b48:	6105                	addi	sp,sp,32
    50202b4a:	8082                	ret

0000000050202b4c <get_ticks>:
    50202b4c:	1141                	addi	sp,sp,-16
    50202b4e:	e422                	sd	s0,8(sp)
    50202b50:	0800                	addi	s0,sp,16
    50202b52:	c0102773          	rdtime	a4
    50202b56:	00002797          	auipc	a5,0x2
    50202b5a:	c3a78793          	addi	a5,a5,-966 # 50204790 <time_elapsed>
    50202b5e:	e398                	sd	a4,0(a5)
    50202b60:	00002797          	auipc	a5,0x2
    50202b64:	c3078793          	addi	a5,a5,-976 # 50204790 <time_elapsed>
    50202b68:	639c                	ld	a5,0(a5)
    50202b6a:	853e                	mv	a0,a5
    50202b6c:	6422                	ld	s0,8(sp)
    50202b6e:	0141                	addi	sp,sp,16
    50202b70:	8082                	ret

0000000050202b72 <get_timer>:
    50202b72:	1141                	addi	sp,sp,-16
    50202b74:	e406                	sd	ra,8(sp)
    50202b76:	e022                	sd	s0,0(sp)
    50202b78:	0800                	addi	s0,sp,16
    50202b7a:	fd3ff0ef          	jal	ra,50202b4c <get_ticks>
    50202b7e:	872a                	mv	a4,a0
    50202b80:	00002797          	auipc	a5,0x2
    50202b84:	c1878793          	addi	a5,a5,-1000 # 50204798 <time_base>
    50202b88:	639c                	ld	a5,0(a5)
    50202b8a:	02f757b3          	divu	a5,a4,a5
    50202b8e:	853e                	mv	a0,a5
    50202b90:	60a2                	ld	ra,8(sp)
    50202b92:	6402                	ld	s0,0(sp)
    50202b94:	0141                	addi	sp,sp,16
    50202b96:	8082                	ret

0000000050202b98 <get_time_base>:
    50202b98:	1141                	addi	sp,sp,-16
    50202b9a:	e422                	sd	s0,8(sp)
    50202b9c:	0800                	addi	s0,sp,16
    50202b9e:	00002797          	auipc	a5,0x2
    50202ba2:	bfa78793          	addi	a5,a5,-1030 # 50204798 <time_base>
    50202ba6:	639c                	ld	a5,0(a5)
    50202ba8:	853e                	mv	a0,a5
    50202baa:	6422                	ld	s0,8(sp)
    50202bac:	0141                	addi	sp,sp,16
    50202bae:	8082                	ret

0000000050202bb0 <latency>:
    50202bb0:	7179                	addi	sp,sp,-48
    50202bb2:	f406                	sd	ra,40(sp)
    50202bb4:	f022                	sd	s0,32(sp)
    50202bb6:	1800                	addi	s0,sp,48
    50202bb8:	fca43c23          	sd	a0,-40(s0)
    50202bbc:	fb7ff0ef          	jal	ra,50202b72 <get_timer>
    50202bc0:	fea43423          	sd	a0,-24(s0)
    50202bc4:	0001                	nop
    50202bc6:	fadff0ef          	jal	ra,50202b72 <get_timer>
    50202bca:	872a                	mv	a4,a0
    50202bcc:	fe843783          	ld	a5,-24(s0)
    50202bd0:	40f707b3          	sub	a5,a4,a5
    50202bd4:	fd843703          	ld	a4,-40(s0)
    50202bd8:	fee7e7e3          	bltu	a5,a4,50202bc6 <latency+0x16>
    50202bdc:	0001                	nop
    50202bde:	70a2                	ld	ra,40(sp)
    50202be0:	7402                	ld	s0,32(sp)
    50202be2:	6145                	addi	sp,sp,48
    50202be4:	8082                	ret

0000000050202be6 <check_sleeping>:
    50202be6:	7179                	addi	sp,sp,-48
    50202be8:	f406                	sd	ra,40(sp)
    50202bea:	f022                	sd	s0,32(sp)
    50202bec:	1800                	addi	s0,sp,48
    50202bee:	00002797          	auipc	a5,0x2
    50202bf2:	b7278793          	addi	a5,a5,-1166 # 50204760 <sleep_queue>
    50202bf6:	679c                	ld	a5,8(a5)
    50202bf8:	fef43423          	sd	a5,-24(s0)
    50202bfc:	a0ad                	j	50202c66 <check_sleeping+0x80>
    50202bfe:	00002517          	auipc	a0,0x2
    50202c02:	b6250513          	addi	a0,a0,-1182 # 50204760 <sleep_queue>
    50202c06:	dedff0ef          	jal	ra,502029f2 <Dequeue>
    50202c0a:	fea43023          	sd	a0,-32(s0)
    50202c0e:	fe043783          	ld	a5,-32(s0)
    50202c12:	17c1                	addi	a5,a5,-16
    50202c14:	fcf43c23          	sd	a5,-40(s0)
    50202c18:	f5bff0ef          	jal	ra,50202b72 <get_timer>
    50202c1c:	872a                	mv	a4,a0
    50202c1e:	fd843783          	ld	a5,-40(s0)
    50202c22:	7b9c                	ld	a5,48(a5)
    50202c24:	02f76363          	bltu	a4,a5,50202c4a <check_sleeping+0x64>
    50202c28:	fd843783          	ld	a5,-40(s0)
    50202c2c:	4709                	li	a4,2
    50202c2e:	d3d8                	sw	a4,36(a5)
    50202c30:	fd843783          	ld	a5,-40(s0)
    50202c34:	0207b823          	sd	zero,48(a5)
    50202c38:	fe043583          	ld	a1,-32(s0)
    50202c3c:	00002517          	auipc	a0,0x2
    50202c40:	b1450513          	addi	a0,a0,-1260 # 50204750 <ready_queue>
    50202c44:	e3bff0ef          	jal	ra,50202a7e <Enqueue>
    50202c48:	a809                	j	50202c5a <check_sleeping+0x74>
    50202c4a:	fe043583          	ld	a1,-32(s0)
    50202c4e:	00002517          	auipc	a0,0x2
    50202c52:	b1250513          	addi	a0,a0,-1262 # 50204760 <sleep_queue>
    50202c56:	e29ff0ef          	jal	ra,50202a7e <Enqueue>
    50202c5a:	fe043703          	ld	a4,-32(s0)
    50202c5e:	fe843783          	ld	a5,-24(s0)
    50202c62:	00f70b63          	beq	a4,a5,50202c78 <check_sleeping+0x92>
    50202c66:	00002517          	auipc	a0,0x2
    50202c6a:	afa50513          	addi	a0,a0,-1286 # 50204760 <sleep_queue>
    50202c6e:	eabff0ef          	jal	ra,50202b18 <if_queue_empty>
    50202c72:	87aa                	mv	a5,a0
    50202c74:	d7c9                	beqz	a5,50202bfe <check_sleeping+0x18>
    50202c76:	a011                	j	50202c7a <check_sleeping+0x94>
    50202c78:	0001                	nop
    50202c7a:	0001                	nop
    50202c7c:	70a2                	ld	ra,40(sp)
    50202c7e:	7402                	ld	s0,32(sp)
    50202c80:	6145                	addi	sp,sp,48
    50202c82:	8082                	ret

0000000050202c84 <Dequeue>:
    50202c84:	7139                	addi	sp,sp,-64
    50202c86:	fc22                	sd	s0,56(sp)
    50202c88:	0080                	addi	s0,sp,64
    50202c8a:	fca43423          	sd	a0,-56(s0)
    50202c8e:	fc843783          	ld	a5,-56(s0)
    50202c92:	679c                	ld	a5,8(a5)
    50202c94:	fef43423          	sd	a5,-24(s0)
    50202c98:	fc843783          	ld	a5,-56(s0)
    50202c9c:	639c                	ld	a5,0(a5)
    50202c9e:	fef43023          	sd	a5,-32(s0)
    50202ca2:	fe843703          	ld	a4,-24(s0)
    50202ca6:	fc843783          	ld	a5,-56(s0)
    50202caa:	00f71a63          	bne	a4,a5,50202cbe <Dequeue+0x3a>
    50202cae:	fe043703          	ld	a4,-32(s0)
    50202cb2:	fc843783          	ld	a5,-56(s0)
    50202cb6:	00f71463          	bne	a4,a5,50202cbe <Dequeue+0x3a>
    50202cba:	4781                	li	a5,0
    50202cbc:	a0b1                	j	50202d08 <Dequeue+0x84>
    50202cbe:	fe043703          	ld	a4,-32(s0)
    50202cc2:	fe843783          	ld	a5,-24(s0)
    50202cc6:	02f71063          	bne	a4,a5,50202ce6 <Dequeue+0x62>
    50202cca:	fc843783          	ld	a5,-56(s0)
    50202cce:	fc843703          	ld	a4,-56(s0)
    50202cd2:	e398                	sd	a4,0(a5)
    50202cd4:	fc843783          	ld	a5,-56(s0)
    50202cd8:	6398                	ld	a4,0(a5)
    50202cda:	fc843783          	ld	a5,-56(s0)
    50202cde:	e798                	sd	a4,8(a5)
    50202ce0:	fe043783          	ld	a5,-32(s0)
    50202ce4:	a015                	j	50202d08 <Dequeue+0x84>
    50202ce6:	fe043783          	ld	a5,-32(s0)
    50202cea:	679c                	ld	a5,8(a5)
    50202cec:	fcf43c23          	sd	a5,-40(s0)
    50202cf0:	fd843783          	ld	a5,-40(s0)
    50202cf4:	fc843703          	ld	a4,-56(s0)
    50202cf8:	e398                	sd	a4,0(a5)
    50202cfa:	fc843783          	ld	a5,-56(s0)
    50202cfe:	fd843703          	ld	a4,-40(s0)
    50202d02:	e398                	sd	a4,0(a5)
    50202d04:	fe043783          	ld	a5,-32(s0)
    50202d08:	853e                	mv	a0,a5
    50202d0a:	7462                	ld	s0,56(sp)
    50202d0c:	6121                	addi	sp,sp,64
    50202d0e:	8082                	ret

0000000050202d10 <Enqueue>:
    50202d10:	7179                	addi	sp,sp,-48
    50202d12:	f422                	sd	s0,40(sp)
    50202d14:	1800                	addi	s0,sp,48
    50202d16:	fca43c23          	sd	a0,-40(s0)
    50202d1a:	fcb43823          	sd	a1,-48(s0)
    50202d1e:	fd843783          	ld	a5,-40(s0)
    50202d22:	679c                	ld	a5,8(a5)
    50202d24:	fef43423          	sd	a5,-24(s0)
    50202d28:	fd843783          	ld	a5,-40(s0)
    50202d2c:	639c                	ld	a5,0(a5)
    50202d2e:	fef43023          	sd	a5,-32(s0)
    50202d32:	fe843703          	ld	a4,-24(s0)
    50202d36:	fd843783          	ld	a5,-40(s0)
    50202d3a:	02f71f63          	bne	a4,a5,50202d78 <Enqueue+0x68>
    50202d3e:	fe043703          	ld	a4,-32(s0)
    50202d42:	fd843783          	ld	a5,-40(s0)
    50202d46:	02f71963          	bne	a4,a5,50202d78 <Enqueue+0x68>
    50202d4a:	fd843783          	ld	a5,-40(s0)
    50202d4e:	fd043703          	ld	a4,-48(s0)
    50202d52:	e398                	sd	a4,0(a5)
    50202d54:	fd843783          	ld	a5,-40(s0)
    50202d58:	6398                	ld	a4,0(a5)
    50202d5a:	fd843783          	ld	a5,-40(s0)
    50202d5e:	e798                	sd	a4,8(a5)
    50202d60:	fd043783          	ld	a5,-48(s0)
    50202d64:	fd843703          	ld	a4,-40(s0)
    50202d68:	e398                	sd	a4,0(a5)
    50202d6a:	fd043783          	ld	a5,-48(s0)
    50202d6e:	6398                	ld	a4,0(a5)
    50202d70:	fd043783          	ld	a5,-48(s0)
    50202d74:	e798                	sd	a4,8(a5)
    50202d76:	a035                	j	50202da2 <Enqueue+0x92>
    50202d78:	fd843783          	ld	a5,-40(s0)
    50202d7c:	fd043703          	ld	a4,-48(s0)
    50202d80:	e798                	sd	a4,8(a5)
    50202d82:	fd043783          	ld	a5,-48(s0)
    50202d86:	fe843703          	ld	a4,-24(s0)
    50202d8a:	e398                	sd	a4,0(a5)
    50202d8c:	fd043783          	ld	a5,-48(s0)
    50202d90:	fd843703          	ld	a4,-40(s0)
    50202d94:	e798                	sd	a4,8(a5)
    50202d96:	fe843783          	ld	a5,-24(s0)
    50202d9a:	fd043703          	ld	a4,-48(s0)
    50202d9e:	e798                	sd	a4,8(a5)
    50202da0:	0001                	nop
    50202da2:	0001                	nop
    50202da4:	7422                	ld	s0,40(sp)
    50202da6:	6145                	addi	sp,sp,48
    50202da8:	8082                	ret

0000000050202daa <Print_queue>:
    50202daa:	7139                	addi	sp,sp,-64
    50202dac:	fc06                	sd	ra,56(sp)
    50202dae:	f822                	sd	s0,48(sp)
    50202db0:	0080                	addi	s0,sp,64
    50202db2:	fca43423          	sd	a0,-56(s0)
    50202db6:	00002517          	auipc	a0,0x2
    50202dba:	83250513          	addi	a0,a0,-1998 # 502045e8 <__FUNCTION__.1320+0x10>
    50202dbe:	633000ef          	jal	ra,50203bf0 <printl>
    50202dc2:	fc843783          	ld	a5,-56(s0)
    50202dc6:	679c                	ld	a5,8(a5)
    50202dc8:	fef43023          	sd	a5,-32(s0)
    50202dcc:	fc843783          	ld	a5,-56(s0)
    50202dd0:	639c                	ld	a5,0(a5)
    50202dd2:	fcf43c23          	sd	a5,-40(s0)
    50202dd6:	fe043783          	ld	a5,-32(s0)
    50202dda:	fef43423          	sd	a5,-24(s0)
    50202dde:	fe043703          	ld	a4,-32(s0)
    50202de2:	fc843783          	ld	a5,-56(s0)
    50202de6:	00f71f63          	bne	a4,a5,50202e04 <Print_queue+0x5a>
    50202dea:	fd843703          	ld	a4,-40(s0)
    50202dee:	fc843783          	ld	a5,-56(s0)
    50202df2:	00f71963          	bne	a4,a5,50202e04 <Print_queue+0x5a>
    50202df6:	00002517          	auipc	a0,0x2
    50202dfa:	81250513          	addi	a0,a0,-2030 # 50204608 <__FUNCTION__.1320+0x30>
    50202dfe:	5f3000ef          	jal	ra,50203bf0 <printl>
    50202e02:	a081                	j	50202e42 <Print_queue+0x98>
    50202e04:	00002517          	auipc	a0,0x2
    50202e08:	81450513          	addi	a0,a0,-2028 # 50204618 <__FUNCTION__.1320+0x40>
    50202e0c:	5e5000ef          	jal	ra,50203bf0 <printl>
    50202e10:	fe843583          	ld	a1,-24(s0)
    50202e14:	00002517          	auipc	a0,0x2
    50202e18:	80c50513          	addi	a0,a0,-2036 # 50204620 <__FUNCTION__.1320+0x48>
    50202e1c:	5d5000ef          	jal	ra,50203bf0 <printl>
    50202e20:	fe843783          	ld	a5,-24(s0)
    50202e24:	639c                	ld	a5,0(a5)
    50202e26:	fef43423          	sd	a5,-24(s0)
    50202e2a:	fe843703          	ld	a4,-24(s0)
    50202e2e:	fc843783          	ld	a5,-56(s0)
    50202e32:	fcf71fe3          	bne	a4,a5,50202e10 <Print_queue+0x66>
    50202e36:	00001517          	auipc	a0,0x1
    50202e3a:	7f250513          	addi	a0,a0,2034 # 50204628 <__FUNCTION__.1320+0x50>
    50202e3e:	5b3000ef          	jal	ra,50203bf0 <printl>
    50202e42:	70e2                	ld	ra,56(sp)
    50202e44:	7442                	ld	s0,48(sp)
    50202e46:	6121                	addi	sp,sp,64
    50202e48:	8082                	ret

0000000050202e4a <do_scheduler>:
    50202e4a:	7179                	addi	sp,sp,-48
    50202e4c:	f406                	sd	ra,40(sp)
    50202e4e:	f022                	sd	s0,32(sp)
    50202e50:	1800                	addi	s0,sp,48
    50202e52:	00001517          	auipc	a0,0x1
    50202e56:	7de50513          	addi	a0,a0,2014 # 50204630 <__FUNCTION__.1320+0x58>
    50202e5a:	597000ef          	jal	ra,50203bf0 <printl>
    50202e5e:	00002517          	auipc	a0,0x2
    50202e62:	8f250513          	addi	a0,a0,-1806 # 50204750 <ready_queue>
    50202e66:	f45ff0ef          	jal	ra,50202daa <Print_queue>
    50202e6a:	d7dff0ef          	jal	ra,50202be6 <check_sleeping>
    50202e6e:	00002517          	auipc	a0,0x2
    50202e72:	8e250513          	addi	a0,a0,-1822 # 50204750 <ready_queue>
    50202e76:	e0fff0ef          	jal	ra,50202c84 <Dequeue>
    50202e7a:	fea43423          	sd	a0,-24(s0)
    50202e7e:	fe843783          	ld	a5,-24(s0)
    50202e82:	17c1                	addi	a5,a5,-16
    50202e84:	fef43023          	sd	a5,-32(s0)
    50202e88:	00004797          	auipc	a5,0x4
    50202e8c:	eb878793          	addi	a5,a5,-328 # 50206d40 <current_running>
    50202e90:	639c                	ld	a5,0(a5)
    50202e92:	fcf43c23          	sd	a5,-40(s0)
    50202e96:	fe043783          	ld	a5,-32(s0)
    50202e9a:	4705                	li	a4,1
    50202e9c:	d3d8                	sw	a4,36(a5)
    50202e9e:	fd843783          	ld	a5,-40(s0)
    50202ea2:	53dc                	lw	a5,36(a5)
    50202ea4:	873e                	mv	a4,a5
    50202ea6:	4785                	li	a5,1
    50202ea8:	00f71663          	bne	a4,a5,50202eb4 <do_scheduler+0x6a>
    50202eac:	fd843783          	ld	a5,-40(s0)
    50202eb0:	4709                	li	a4,2
    50202eb2:	d3d8                	sw	a4,36(a5)
    50202eb4:	fd843703          	ld	a4,-40(s0)
    50202eb8:	00002797          	auipc	a5,0x2
    50202ebc:	84878793          	addi	a5,a5,-1976 # 50204700 <pid0_pcb>
    50202ec0:	02f70363          	beq	a4,a5,50202ee6 <do_scheduler+0x9c>
    50202ec4:	fd843783          	ld	a5,-40(s0)
    50202ec8:	53dc                	lw	a5,36(a5)
    50202eca:	873e                	mv	a4,a5
    50202ecc:	4789                	li	a5,2
    50202ece:	00f71c63          	bne	a4,a5,50202ee6 <do_scheduler+0x9c>
    50202ed2:	fd843783          	ld	a5,-40(s0)
    50202ed6:	07c1                	addi	a5,a5,16
    50202ed8:	85be                	mv	a1,a5
    50202eda:	00002517          	auipc	a0,0x2
    50202ede:	87650513          	addi	a0,a0,-1930 # 50204750 <ready_queue>
    50202ee2:	e2fff0ef          	jal	ra,50202d10 <Enqueue>
    50202ee6:	00004797          	auipc	a5,0x4
    50202eea:	e5a78793          	addi	a5,a5,-422 # 50206d40 <current_running>
    50202eee:	fe043703          	ld	a4,-32(s0)
    50202ef2:	e398                	sd	a4,0(a5)
    50202ef4:	00001517          	auipc	a0,0x1
    50202ef8:	75c50513          	addi	a0,a0,1884 # 50204650 <__FUNCTION__.1320+0x78>
    50202efc:	4f5000ef          	jal	ra,50203bf0 <printl>
    50202f00:	00004797          	auipc	a5,0x4
    50202f04:	e4078793          	addi	a5,a5,-448 # 50206d40 <current_running>
    50202f08:	639c                	ld	a5,0(a5)
    50202f0a:	03878793          	addi	a5,a5,56
    50202f0e:	85be                	mv	a1,a5
    50202f10:	00001517          	auipc	a0,0x1
    50202f14:	75050513          	addi	a0,a0,1872 # 50204660 <__FUNCTION__.1320+0x88>
    50202f18:	4d9000ef          	jal	ra,50203bf0 <printl>
    50202f1c:	fe043583          	ld	a1,-32(s0)
    50202f20:	fd843503          	ld	a0,-40(s0)
    50202f24:	938fe0ef          	jal	ra,5020105c <switch_to>
    50202f28:	0001                	nop
    50202f2a:	70a2                	ld	ra,40(sp)
    50202f2c:	7402                	ld	s0,32(sp)
    50202f2e:	6145                	addi	sp,sp,48
    50202f30:	8082                	ret

0000000050202f32 <do_sleep>:
    50202f32:	1101                	addi	sp,sp,-32
    50202f34:	ec06                	sd	ra,24(sp)
    50202f36:	e822                	sd	s0,16(sp)
    50202f38:	1000                	addi	s0,sp,32
    50202f3a:	87aa                	mv	a5,a0
    50202f3c:	fef42623          	sw	a5,-20(s0)
    50202f40:	00004797          	auipc	a5,0x4
    50202f44:	e0078793          	addi	a5,a5,-512 # 50206d40 <current_running>
    50202f48:	639c                	ld	a5,0(a5)
    50202f4a:	0207a223          	sw	zero,36(a5)
    50202f4e:	c25ff0ef          	jal	ra,50202b72 <get_timer>
    50202f52:	86aa                	mv	a3,a0
    50202f54:	fec46703          	lwu	a4,-20(s0)
    50202f58:	00004797          	auipc	a5,0x4
    50202f5c:	de878793          	addi	a5,a5,-536 # 50206d40 <current_running>
    50202f60:	639c                	ld	a5,0(a5)
    50202f62:	9736                	add	a4,a4,a3
    50202f64:	fb98                	sd	a4,48(a5)
    50202f66:	00004797          	auipc	a5,0x4
    50202f6a:	dda78793          	addi	a5,a5,-550 # 50206d40 <current_running>
    50202f6e:	639c                	ld	a5,0(a5)
    50202f70:	07c1                	addi	a5,a5,16
    50202f72:	85be                	mv	a1,a5
    50202f74:	00001517          	auipc	a0,0x1
    50202f78:	7ec50513          	addi	a0,a0,2028 # 50204760 <sleep_queue>
    50202f7c:	d95ff0ef          	jal	ra,50202d10 <Enqueue>
    50202f80:	ecbff0ef          	jal	ra,50202e4a <do_scheduler>
    50202f84:	0001                	nop
    50202f86:	60e2                	ld	ra,24(sp)
    50202f88:	6442                	ld	s0,16(sp)
    50202f8a:	6105                	addi	sp,sp,32
    50202f8c:	8082                	ret

0000000050202f8e <do_block>:
    50202f8e:	7179                	addi	sp,sp,-48
    50202f90:	f406                	sd	ra,40(sp)
    50202f92:	f022                	sd	s0,32(sp)
    50202f94:	1800                	addi	s0,sp,48
    50202f96:	fca43c23          	sd	a0,-40(s0)
    50202f9a:	fcb43823          	sd	a1,-48(s0)
    50202f9e:	fd843783          	ld	a5,-40(s0)
    50202fa2:	17c1                	addi	a5,a5,-16
    50202fa4:	fef43423          	sd	a5,-24(s0)
    50202fa8:	fe843783          	ld	a5,-24(s0)
    50202fac:	0207a223          	sw	zero,36(a5)
    50202fb0:	fd843583          	ld	a1,-40(s0)
    50202fb4:	fd043503          	ld	a0,-48(s0)
    50202fb8:	d59ff0ef          	jal	ra,50202d10 <Enqueue>
    50202fbc:	0001                	nop
    50202fbe:	70a2                	ld	ra,40(sp)
    50202fc0:	7402                	ld	s0,32(sp)
    50202fc2:	6145                	addi	sp,sp,48
    50202fc4:	8082                	ret

0000000050202fc6 <do_unblock>:
    50202fc6:	7179                	addi	sp,sp,-48
    50202fc8:	f406                	sd	ra,40(sp)
    50202fca:	f022                	sd	s0,32(sp)
    50202fcc:	1800                	addi	s0,sp,48
    50202fce:	fca43c23          	sd	a0,-40(s0)
    50202fd2:	fd843503          	ld	a0,-40(s0)
    50202fd6:	cafff0ef          	jal	ra,50202c84 <Dequeue>
    50202fda:	fea43423          	sd	a0,-24(s0)
    50202fde:	a805                	j	5020300e <do_unblock+0x48>
    50202fe0:	fe843783          	ld	a5,-24(s0)
    50202fe4:	17c1                	addi	a5,a5,-16
    50202fe6:	fef43023          	sd	a5,-32(s0)
    50202fea:	fe043783          	ld	a5,-32(s0)
    50202fee:	4709                	li	a4,2
    50202ff0:	d3d8                	sw	a4,36(a5)
    50202ff2:	fe843583          	ld	a1,-24(s0)
    50202ff6:	00001517          	auipc	a0,0x1
    50202ffa:	75a50513          	addi	a0,a0,1882 # 50204750 <ready_queue>
    50202ffe:	d13ff0ef          	jal	ra,50202d10 <Enqueue>
    50203002:	fd843503          	ld	a0,-40(s0)
    50203006:	c7fff0ef          	jal	ra,50202c84 <Dequeue>
    5020300a:	fea43423          	sd	a0,-24(s0)
    5020300e:	fe843783          	ld	a5,-24(s0)
    50203012:	f7f9                	bnez	a5,50202fe0 <do_unblock+0x1a>
    50203014:	0001                	nop
    50203016:	0001                	nop
    50203018:	70a2                	ld	ra,40(sp)
    5020301a:	7402                	ld	s0,32(sp)
    5020301c:	6145                	addi	sp,sp,48
    5020301e:	8082                	ret

0000000050203020 <thread_create>:
    50203020:	715d                	addi	sp,sp,-80
    50203022:	e486                	sd	ra,72(sp)
    50203024:	e0a2                	sd	s0,64(sp)
    50203026:	0880                	addi	s0,sp,80
    50203028:	faa43c23          	sd	a0,-72(s0)
    5020302c:	87ae                	mv	a5,a1
    5020302e:	faf42a23          	sw	a5,-76(s0)
    50203032:	4505                	li	a0,1
    50203034:	e5eff0ef          	jal	ra,50202692 <allocKernelPage>
    50203038:	fea43423          	sd	a0,-24(s0)
    5020303c:	fb442783          	lw	a5,-76(s0)
    50203040:	37fd                	addiw	a5,a5,-1
    50203042:	0007871b          	sext.w	a4,a5
    50203046:	00004697          	auipc	a3,0x4
    5020304a:	d0268693          	addi	a3,a3,-766 # 50206d48 <pcb>
    5020304e:	87ba                	mv	a5,a4
    50203050:	078a                	slli	a5,a5,0x2
    50203052:	97ba                	add	a5,a5,a4
    50203054:	0792                	slli	a5,a5,0x4
    50203056:	97b6                	add	a5,a5,a3
    50203058:	47bc                	lw	a5,72(a5)
    5020305a:	00c7979b          	slliw	a5,a5,0xc
    5020305e:	2781                	sext.w	a5,a5
    50203060:	873e                	mv	a4,a5
    50203062:	fe843783          	ld	a5,-24(s0)
    50203066:	97ba                	add	a5,a5,a4
    50203068:	fef43023          	sd	a5,-32(s0)
    5020306c:	4505                	li	a0,1
    5020306e:	e70ff0ef          	jal	ra,502026de <allocUserPage>
    50203072:	fca43c23          	sd	a0,-40(s0)
    50203076:	fb442783          	lw	a5,-76(s0)
    5020307a:	37fd                	addiw	a5,a5,-1
    5020307c:	0007871b          	sext.w	a4,a5
    50203080:	00004697          	auipc	a3,0x4
    50203084:	cc868693          	addi	a3,a3,-824 # 50206d48 <pcb>
    50203088:	87ba                	mv	a5,a4
    5020308a:	078a                	slli	a5,a5,0x2
    5020308c:	97ba                	add	a5,a5,a4
    5020308e:	0792                	slli	a5,a5,0x4
    50203090:	97b6                	add	a5,a5,a3
    50203092:	47fc                	lw	a5,76(a5)
    50203094:	00c7979b          	slliw	a5,a5,0xc
    50203098:	2781                	sext.w	a5,a5
    5020309a:	873e                	mv	a4,a5
    5020309c:	fd843783          	ld	a5,-40(s0)
    502030a0:	97ba                	add	a5,a5,a4
    502030a2:	fcf43823          	sd	a5,-48(s0)
    502030a6:	fb442783          	lw	a5,-76(s0)
    502030aa:	37fd                	addiw	a5,a5,-1
    502030ac:	0007871b          	sext.w	a4,a5
    502030b0:	00004697          	auipc	a3,0x4
    502030b4:	a1068693          	addi	a3,a3,-1520 # 50206ac0 <tcb>
    502030b8:	87ba                	mv	a5,a4
    502030ba:	078a                	slli	a5,a5,0x2
    502030bc:	97ba                	add	a5,a5,a4
    502030be:	0792                	slli	a5,a5,0x4
    502030c0:	97b6                	add	a5,a5,a3
    502030c2:	4705                	li	a4,1
    502030c4:	c7b8                	sw	a4,72(a5)
    502030c6:	fb442783          	lw	a5,-76(s0)
    502030ca:	37fd                	addiw	a5,a5,-1
    502030cc:	0007871b          	sext.w	a4,a5
    502030d0:	00004697          	auipc	a3,0x4
    502030d4:	9f068693          	addi	a3,a3,-1552 # 50206ac0 <tcb>
    502030d8:	87ba                	mv	a5,a4
    502030da:	078a                	slli	a5,a5,0x2
    502030dc:	97ba                	add	a5,a5,a4
    502030de:	0792                	slli	a5,a5,0x4
    502030e0:	97b6                	add	a5,a5,a3
    502030e2:	4705                	li	a4,1
    502030e4:	c7f8                	sw	a4,76(a5)
    502030e6:	fe043783          	ld	a5,-32(s0)
    502030ea:	ee078793          	addi	a5,a5,-288
    502030ee:	fcf43423          	sd	a5,-56(s0)
    502030f2:	fc843783          	ld	a5,-56(s0)
    502030f6:	fb843703          	ld	a4,-72(s0)
    502030fa:	e798                	sd	a4,8(a5)
    502030fc:	fc843783          	ld	a5,-56(s0)
    50203100:	fd043703          	ld	a4,-48(s0)
    50203104:	eb98                	sd	a4,16(a5)
    50203106:	fc843783          	ld	a5,-56(s0)
    5020310a:	02000713          	li	a4,32
    5020310e:	10e7b023          	sd	a4,256(a5)
    50203112:	fc843783          	ld	a5,-56(s0)
    50203116:	fb843703          	ld	a4,-72(s0)
    5020311a:	10e7b423          	sd	a4,264(a5)
    5020311e:	fc843783          	ld	a5,-56(s0)
    50203122:	f9078793          	addi	a5,a5,-112
    50203126:	fcf43023          	sd	a5,-64(s0)
    5020312a:	fb442783          	lw	a5,-76(s0)
    5020312e:	37fd                	addiw	a5,a5,-1
    50203130:	0007871b          	sext.w	a4,a5
    50203134:	fc043683          	ld	a3,-64(s0)
    50203138:	00004617          	auipc	a2,0x4
    5020313c:	98860613          	addi	a2,a2,-1656 # 50206ac0 <tcb>
    50203140:	87ba                	mv	a5,a4
    50203142:	078a                	slli	a5,a5,0x2
    50203144:	97ba                	add	a5,a5,a4
    50203146:	0792                	slli	a5,a5,0x4
    50203148:	97b2                	add	a5,a5,a2
    5020314a:	e394                	sd	a3,0(a5)
    5020314c:	fb442783          	lw	a5,-76(s0)
    50203150:	37fd                	addiw	a5,a5,-1
    50203152:	0007871b          	sext.w	a4,a5
    50203156:	00004697          	auipc	a3,0x4
    5020315a:	96a68693          	addi	a3,a3,-1686 # 50206ac0 <tcb>
    5020315e:	87ba                	mv	a5,a4
    50203160:	078a                	slli	a5,a5,0x2
    50203162:	97ba                	add	a5,a5,a4
    50203164:	0792                	slli	a5,a5,0x4
    50203166:	97b6                	add	a5,a5,a3
    50203168:	fd043703          	ld	a4,-48(s0)
    5020316c:	e798                	sd	a4,8(a5)
    5020316e:	ffffe717          	auipc	a4,0xffffe
    50203172:	f6e70713          	addi	a4,a4,-146 # 502010dc <ret_from_exception>
    50203176:	fc043783          	ld	a5,-64(s0)
    5020317a:	e398                	sd	a4,0(a5)
    5020317c:	fc043703          	ld	a4,-64(s0)
    50203180:	fc043783          	ld	a5,-64(s0)
    50203184:	e798                	sd	a4,8(a5)
    50203186:	fb442783          	lw	a5,-76(s0)
    5020318a:	37fd                	addiw	a5,a5,-1
    5020318c:	0007871b          	sext.w	a4,a5
    50203190:	00004697          	auipc	a3,0x4
    50203194:	93068693          	addi	a3,a3,-1744 # 50206ac0 <tcb>
    50203198:	87ba                	mv	a5,a4
    5020319a:	078a                	slli	a5,a5,0x2
    5020319c:	97ba                	add	a5,a5,a4
    5020319e:	0792                	slli	a5,a5,0x4
    502031a0:	97b6                	add	a5,a5,a3
    502031a2:	fb442703          	lw	a4,-76(s0)
    502031a6:	d398                	sw	a4,32(a5)
    502031a8:	fb442783          	lw	a5,-76(s0)
    502031ac:	37fd                	addiw	a5,a5,-1
    502031ae:	0007871b          	sext.w	a4,a5
    502031b2:	00004697          	auipc	a3,0x4
    502031b6:	90e68693          	addi	a3,a3,-1778 # 50206ac0 <tcb>
    502031ba:	87ba                	mv	a5,a4
    502031bc:	078a                	slli	a5,a5,0x2
    502031be:	97ba                	add	a5,a5,a4
    502031c0:	0792                	slli	a5,a5,0x4
    502031c2:	97b6                	add	a5,a5,a3
    502031c4:	4709                	li	a4,2
    502031c6:	d3d8                	sw	a4,36(a5)
    502031c8:	fb442783          	lw	a5,-76(s0)
    502031cc:	37fd                	addiw	a5,a5,-1
    502031ce:	0007871b          	sext.w	a4,a5
    502031d2:	00004697          	auipc	a3,0x4
    502031d6:	8ee68693          	addi	a3,a3,-1810 # 50206ac0 <tcb>
    502031da:	87ba                	mv	a5,a4
    502031dc:	078a                	slli	a5,a5,0x2
    502031de:	97ba                	add	a5,a5,a4
    502031e0:	0792                	slli	a5,a5,0x4
    502031e2:	97b6                	add	a5,a5,a3
    502031e4:	0207a423          	sw	zero,40(a5)
    502031e8:	fb442783          	lw	a5,-76(s0)
    502031ec:	37fd                	addiw	a5,a5,-1
    502031ee:	0007871b          	sext.w	a4,a5
    502031f2:	00004697          	auipc	a3,0x4
    502031f6:	8ce68693          	addi	a3,a3,-1842 # 50206ac0 <tcb>
    502031fa:	87ba                	mv	a5,a4
    502031fc:	078a                	slli	a5,a5,0x2
    502031fe:	97ba                	add	a5,a5,a4
    50203200:	0792                	slli	a5,a5,0x4
    50203202:	97b6                	add	a5,a5,a3
    50203204:	0207a623          	sw	zero,44(a5)
    50203208:	fb442783          	lw	a5,-76(s0)
    5020320c:	37fd                	addiw	a5,a5,-1
    5020320e:	0007871b          	sext.w	a4,a5
    50203212:	00004697          	auipc	a3,0x4
    50203216:	8ae68693          	addi	a3,a3,-1874 # 50206ac0 <tcb>
    5020321a:	87ba                	mv	a5,a4
    5020321c:	078a                	slli	a5,a5,0x2
    5020321e:	97ba                	add	a5,a5,a4
    50203220:	0792                	slli	a5,a5,0x4
    50203222:	97b6                	add	a5,a5,a3
    50203224:	0207b823          	sd	zero,48(a5)
    50203228:	fb442783          	lw	a5,-76(s0)
    5020322c:	37fd                	addiw	a5,a5,-1
    5020322e:	0007871b          	sext.w	a4,a5
    50203232:	87ba                	mv	a5,a4
    50203234:	078a                	slli	a5,a5,0x2
    50203236:	97ba                	add	a5,a5,a4
    50203238:	0792                	slli	a5,a5,0x4
    5020323a:	01078713          	addi	a4,a5,16
    5020323e:	00004797          	auipc	a5,0x4
    50203242:	88278793          	addi	a5,a5,-1918 # 50206ac0 <tcb>
    50203246:	97ba                	add	a5,a5,a4
    50203248:	85be                	mv	a1,a5
    5020324a:	00001517          	auipc	a0,0x1
    5020324e:	50650513          	addi	a0,a0,1286 # 50204750 <ready_queue>
    50203252:	abfff0ef          	jal	ra,50202d10 <Enqueue>
    50203256:	0001                	nop
    50203258:	60a6                	ld	ra,72(sp)
    5020325a:	6406                	ld	s0,64(sp)
    5020325c:	6161                	addi	sp,sp,80
    5020325e:	8082                	ret

0000000050203260 <handle_syscall>:
    50203260:	715d                	addi	sp,sp,-80
    50203262:	e486                	sd	ra,72(sp)
    50203264:	e0a2                	sd	s0,64(sp)
    50203266:	0880                	addi	s0,sp,80
    50203268:	fca43423          	sd	a0,-56(s0)
    5020326c:	fcb43023          	sd	a1,-64(s0)
    50203270:	fac43c23          	sd	a2,-72(s0)
    50203274:	fc843783          	ld	a5,-56(s0)
    50203278:	67dc                	ld	a5,136(a5)
    5020327a:	fef42623          	sw	a5,-20(s0)
    5020327e:	fc843783          	ld	a5,-56(s0)
    50203282:	6bbc                	ld	a5,80(a5)
    50203284:	fef42423          	sw	a5,-24(s0)
    50203288:	fc843783          	ld	a5,-56(s0)
    5020328c:	6fbc                	ld	a5,88(a5)
    5020328e:	fef42223          	sw	a5,-28(s0)
    50203292:	fc843783          	ld	a5,-56(s0)
    50203296:	73bc                	ld	a5,96(a5)
    50203298:	fef42023          	sw	a5,-32(s0)
    5020329c:	fc843783          	ld	a5,-56(s0)
    502032a0:	77bc                	ld	a5,104(a5)
    502032a2:	fcf42e23          	sw	a5,-36(s0)
    502032a6:	fc843783          	ld	a5,-56(s0)
    502032aa:	7bbc                	ld	a5,112(a5)
    502032ac:	fcf42c23          	sw	a5,-40(s0)
    502032b0:	00004717          	auipc	a4,0x4
    502032b4:	f9870713          	addi	a4,a4,-104 # 50207248 <syscall>
    502032b8:	fec42783          	lw	a5,-20(s0)
    502032bc:	078e                	slli	a5,a5,0x3
    502032be:	97ba                	add	a5,a5,a4
    502032c0:	0007b803          	ld	a6,0(a5)
    502032c4:	fd842703          	lw	a4,-40(s0)
    502032c8:	fdc42683          	lw	a3,-36(s0)
    502032cc:	fe042603          	lw	a2,-32(s0)
    502032d0:	fe442583          	lw	a1,-28(s0)
    502032d4:	fe842783          	lw	a5,-24(s0)
    502032d8:	853e                	mv	a0,a5
    502032da:	9802                	jalr	a6
    502032dc:	fca43823          	sd	a0,-48(s0)
    502032e0:	fd043703          	ld	a4,-48(s0)
    502032e4:	fc843783          	ld	a5,-56(s0)
    502032e8:	ebb8                	sd	a4,80(a5)
    502032ea:	fc843783          	ld	a5,-56(s0)
    502032ee:	1087b783          	ld	a5,264(a5)
    502032f2:	00478713          	addi	a4,a5,4
    502032f6:	fc843783          	ld	a5,-56(s0)
    502032fa:	10e7b423          	sd	a4,264(a5)
    502032fe:	0001                	nop
    50203300:	60a6                	ld	ra,72(sp)
    50203302:	6406                	ld	s0,64(sp)
    50203304:	6161                	addi	sp,sp,80
    50203306:	8082                	ret

0000000050203308 <call_jmptab>:
    50203308:	7139                	addi	sp,sp,-64
    5020330a:	fc06                	sd	ra,56(sp)
    5020330c:	f822                	sd	s0,48(sp)
    5020330e:	0080                	addi	s0,sp,64
    50203310:	fca43c23          	sd	a0,-40(s0)
    50203314:	fcb43823          	sd	a1,-48(s0)
    50203318:	fcc43423          	sd	a2,-56(s0)
    5020331c:	fcd43023          	sd	a3,-64(s0)
    50203320:	fd843703          	ld	a4,-40(s0)
    50203324:	0a4007b7          	lui	a5,0xa400
    50203328:	1781                	addi	a5,a5,-32
    5020332a:	97ba                	add	a5,a5,a4
    5020332c:	078e                	slli	a5,a5,0x3
    5020332e:	639c                	ld	a5,0(a5)
    50203330:	fef43423          	sd	a5,-24(s0)
    50203334:	fe843783          	ld	a5,-24(s0)
    50203338:	fef43023          	sd	a5,-32(s0)
    5020333c:	fe043783          	ld	a5,-32(s0)
    50203340:	fc043603          	ld	a2,-64(s0)
    50203344:	fc843583          	ld	a1,-56(s0)
    50203348:	fd043503          	ld	a0,-48(s0)
    5020334c:	9782                	jalr	a5
    5020334e:	87aa                	mv	a5,a0
    50203350:	853e                	mv	a0,a5
    50203352:	70e2                	ld	ra,56(sp)
    50203354:	7442                	ld	s0,48(sp)
    50203356:	6121                	addi	sp,sp,64
    50203358:	8082                	ret

000000005020335a <bios_putstr>:
    5020335a:	1101                	addi	sp,sp,-32
    5020335c:	ec06                	sd	ra,24(sp)
    5020335e:	e822                	sd	s0,16(sp)
    50203360:	1000                	addi	s0,sp,32
    50203362:	fea43423          	sd	a0,-24(s0)
    50203366:	fe843783          	ld	a5,-24(s0)
    5020336a:	4681                	li	a3,0
    5020336c:	4601                	li	a2,0
    5020336e:	85be                	mv	a1,a5
    50203370:	4501                	li	a0,0
    50203372:	f97ff0ef          	jal	ra,50203308 <call_jmptab>
    50203376:	0001                	nop
    50203378:	60e2                	ld	ra,24(sp)
    5020337a:	6442                	ld	s0,16(sp)
    5020337c:	6105                	addi	sp,sp,32
    5020337e:	8082                	ret

0000000050203380 <bios_logging>:
    50203380:	1101                	addi	sp,sp,-32
    50203382:	ec06                	sd	ra,24(sp)
    50203384:	e822                	sd	s0,16(sp)
    50203386:	1000                	addi	s0,sp,32
    50203388:	fea43423          	sd	a0,-24(s0)
    5020338c:	fe843783          	ld	a5,-24(s0)
    50203390:	4681                	li	a3,0
    50203392:	4601                	li	a2,0
    50203394:	85be                	mv	a1,a5
    50203396:	4511                	li	a0,4
    50203398:	f71ff0ef          	jal	ra,50203308 <call_jmptab>
    5020339c:	0001                	nop
    5020339e:	60e2                	ld	ra,24(sp)
    502033a0:	6442                	ld	s0,16(sp)
    502033a2:	6105                	addi	sp,sp,32
    502033a4:	8082                	ret

00000000502033a6 <mini_strlen>:
    502033a6:	7179                	addi	sp,sp,-48
    502033a8:	f422                	sd	s0,40(sp)
    502033aa:	1800                	addi	s0,sp,48
    502033ac:	fca43c23          	sd	a0,-40(s0)
    502033b0:	fe042623          	sw	zero,-20(s0)
    502033b4:	a031                	j	502033c0 <mini_strlen+0x1a>
    502033b6:	fec42783          	lw	a5,-20(s0)
    502033ba:	2785                	addiw	a5,a5,1
    502033bc:	fef42623          	sw	a5,-20(s0)
    502033c0:	fec46783          	lwu	a5,-20(s0)
    502033c4:	fd843703          	ld	a4,-40(s0)
    502033c8:	97ba                	add	a5,a5,a4
    502033ca:	0007c783          	lbu	a5,0(a5) # a400000 <TEXT_START-0x45e01000>
    502033ce:	f7e5                	bnez	a5,502033b6 <mini_strlen+0x10>
    502033d0:	fec42783          	lw	a5,-20(s0)
    502033d4:	853e                	mv	a0,a5
    502033d6:	7422                	ld	s0,40(sp)
    502033d8:	6145                	addi	sp,sp,48
    502033da:	8082                	ret

00000000502033dc <mini_itoa>:
    502033dc:	715d                	addi	sp,sp,-80
    502033de:	e4a2                	sd	s0,72(sp)
    502033e0:	0880                	addi	s0,sp,80
    502033e2:	fca43423          	sd	a0,-56(s0)
    502033e6:	fae43823          	sd	a4,-80(s0)
    502033ea:	873e                	mv	a4,a5
    502033ec:	87ae                	mv	a5,a1
    502033ee:	fcf42223          	sw	a5,-60(s0)
    502033f2:	87b2                	mv	a5,a2
    502033f4:	fcf42023          	sw	a5,-64(s0)
    502033f8:	87b6                	mv	a5,a3
    502033fa:	faf42e23          	sw	a5,-68(s0)
    502033fe:	87ba                	mv	a5,a4
    50203400:	faf42c23          	sw	a5,-72(s0)
    50203404:	fb043783          	ld	a5,-80(s0)
    50203408:	fef43423          	sd	a5,-24(s0)
    5020340c:	fe042223          	sw	zero,-28(s0)
    50203410:	fc442783          	lw	a5,-60(s0)
    50203414:	0007871b          	sext.w	a4,a5
    50203418:	47c1                	li	a5,16
    5020341a:	00e7f463          	bgeu	a5,a4,50203422 <mini_itoa+0x46>
    5020341e:	4781                	li	a5,0
    50203420:	a255                	j	502035c4 <mini_itoa+0x1e8>
    50203422:	fc843783          	ld	a5,-56(s0)
    50203426:	0007df63          	bgez	a5,50203444 <mini_itoa+0x68>
    5020342a:	fbc42783          	lw	a5,-68(s0)
    5020342e:	2781                	sext.w	a5,a5
    50203430:	eb91                	bnez	a5,50203444 <mini_itoa+0x68>
    50203432:	4785                	li	a5,1
    50203434:	fef42223          	sw	a5,-28(s0)
    50203438:	fc843783          	ld	a5,-56(s0)
    5020343c:	40f007b3          	neg	a5,a5
    50203440:	fcf43423          	sd	a5,-56(s0)
    50203444:	fc446783          	lwu	a5,-60(s0)
    50203448:	fc843703          	ld	a4,-56(s0)
    5020344c:	02f767b3          	rem	a5,a4,a5
    50203450:	fcf42e23          	sw	a5,-36(s0)
    50203454:	fdc42783          	lw	a5,-36(s0)
    50203458:	0007871b          	sext.w	a4,a5
    5020345c:	47a5                	li	a5,9
    5020345e:	00e7cb63          	blt	a5,a4,50203474 <mini_itoa+0x98>
    50203462:	fdc42783          	lw	a5,-36(s0)
    50203466:	0ff7f793          	andi	a5,a5,255
    5020346a:	0307879b          	addiw	a5,a5,48
    5020346e:	0ff7f713          	andi	a4,a5,255
    50203472:	a025                	j	5020349a <mini_itoa+0xbe>
    50203474:	fc042783          	lw	a5,-64(s0)
    50203478:	2781                	sext.w	a5,a5
    5020347a:	c781                	beqz	a5,50203482 <mini_itoa+0xa6>
    5020347c:	04100793          	li	a5,65
    50203480:	a019                	j	50203486 <mini_itoa+0xaa>
    50203482:	06100793          	li	a5,97
    50203486:	fdc42703          	lw	a4,-36(s0)
    5020348a:	0ff77713          	andi	a4,a4,255
    5020348e:	9fb9                	addw	a5,a5,a4
    50203490:	0ff7f793          	andi	a5,a5,255
    50203494:	37d9                	addiw	a5,a5,-10
    50203496:	0ff7f713          	andi	a4,a5,255
    5020349a:	fe843783          	ld	a5,-24(s0)
    5020349e:	00178693          	addi	a3,a5,1
    502034a2:	fed43423          	sd	a3,-24(s0)
    502034a6:	00e78023          	sb	a4,0(a5)
    502034aa:	fc446783          	lwu	a5,-60(s0)
    502034ae:	fc843703          	ld	a4,-56(s0)
    502034b2:	02f747b3          	div	a5,a4,a5
    502034b6:	fcf43423          	sd	a5,-56(s0)
    502034ba:	fc843783          	ld	a5,-56(s0)
    502034be:	f8f043e3          	bgtz	a5,50203444 <mini_itoa+0x68>
    502034c2:	fe843703          	ld	a4,-24(s0)
    502034c6:	fb043783          	ld	a5,-80(s0)
    502034ca:	40f707b3          	sub	a5,a4,a5
    502034ce:	fef42023          	sw	a5,-32(s0)
    502034d2:	a005                	j	502034f2 <mini_itoa+0x116>
    502034d4:	fe843783          	ld	a5,-24(s0)
    502034d8:	00178713          	addi	a4,a5,1
    502034dc:	fee43423          	sd	a4,-24(s0)
    502034e0:	03000713          	li	a4,48
    502034e4:	00e78023          	sb	a4,0(a5)
    502034e8:	fe042783          	lw	a5,-32(s0)
    502034ec:	2785                	addiw	a5,a5,1
    502034ee:	fef42023          	sw	a5,-32(s0)
    502034f2:	fe042703          	lw	a4,-32(s0)
    502034f6:	fb842783          	lw	a5,-72(s0)
    502034fa:	2701                	sext.w	a4,a4
    502034fc:	2781                	sext.w	a5,a5
    502034fe:	fcf76be3          	bltu	a4,a5,502034d4 <mini_itoa+0xf8>
    50203502:	fe442783          	lw	a5,-28(s0)
    50203506:	2781                	sext.w	a5,a5
    50203508:	cb99                	beqz	a5,5020351e <mini_itoa+0x142>
    5020350a:	fe843783          	ld	a5,-24(s0)
    5020350e:	00178713          	addi	a4,a5,1
    50203512:	fee43423          	sd	a4,-24(s0)
    50203516:	02d00713          	li	a4,45
    5020351a:	00e78023          	sb	a4,0(a5)
    5020351e:	fe843783          	ld	a5,-24(s0)
    50203522:	00078023          	sb	zero,0(a5)
    50203526:	fe843703          	ld	a4,-24(s0)
    5020352a:	fb043783          	ld	a5,-80(s0)
    5020352e:	40f707b3          	sub	a5,a4,a5
    50203532:	fcf42c23          	sw	a5,-40(s0)
    50203536:	fe042023          	sw	zero,-32(s0)
    5020353a:	a885                	j	502035aa <mini_itoa+0x1ce>
    5020353c:	fe046783          	lwu	a5,-32(s0)
    50203540:	fb043703          	ld	a4,-80(s0)
    50203544:	97ba                	add	a5,a5,a4
    50203546:	0007c783          	lbu	a5,0(a5)
    5020354a:	fcf40ba3          	sb	a5,-41(s0)
    5020354e:	fd842703          	lw	a4,-40(s0)
    50203552:	fe042783          	lw	a5,-32(s0)
    50203556:	40f707bb          	subw	a5,a4,a5
    5020355a:	2781                	sext.w	a5,a5
    5020355c:	37fd                	addiw	a5,a5,-1
    5020355e:	2781                	sext.w	a5,a5
    50203560:	1782                	slli	a5,a5,0x20
    50203562:	9381                	srli	a5,a5,0x20
    50203564:	fb043703          	ld	a4,-80(s0)
    50203568:	973e                	add	a4,a4,a5
    5020356a:	fe046783          	lwu	a5,-32(s0)
    5020356e:	fb043683          	ld	a3,-80(s0)
    50203572:	97b6                	add	a5,a5,a3
    50203574:	00074703          	lbu	a4,0(a4)
    50203578:	00e78023          	sb	a4,0(a5)
    5020357c:	fd842703          	lw	a4,-40(s0)
    50203580:	fe042783          	lw	a5,-32(s0)
    50203584:	40f707bb          	subw	a5,a4,a5
    50203588:	2781                	sext.w	a5,a5
    5020358a:	37fd                	addiw	a5,a5,-1
    5020358c:	2781                	sext.w	a5,a5
    5020358e:	1782                	slli	a5,a5,0x20
    50203590:	9381                	srli	a5,a5,0x20
    50203592:	fb043703          	ld	a4,-80(s0)
    50203596:	97ba                	add	a5,a5,a4
    50203598:	fd744703          	lbu	a4,-41(s0)
    5020359c:	00e78023          	sb	a4,0(a5)
    502035a0:	fe042783          	lw	a5,-32(s0)
    502035a4:	2785                	addiw	a5,a5,1
    502035a6:	fef42023          	sw	a5,-32(s0)
    502035aa:	fd842783          	lw	a5,-40(s0)
    502035ae:	0017d79b          	srliw	a5,a5,0x1
    502035b2:	0007871b          	sext.w	a4,a5
    502035b6:	fe042783          	lw	a5,-32(s0)
    502035ba:	2781                	sext.w	a5,a5
    502035bc:	f8e7e0e3          	bltu	a5,a4,5020353c <mini_itoa+0x160>
    502035c0:	fd842783          	lw	a5,-40(s0)
    502035c4:	853e                	mv	a0,a5
    502035c6:	6426                	ld	s0,72(sp)
    502035c8:	6161                	addi	sp,sp,80
    502035ca:	8082                	ret

00000000502035cc <_putc>:
    502035cc:	1101                	addi	sp,sp,-32
    502035ce:	ec22                	sd	s0,24(sp)
    502035d0:	1000                	addi	s0,sp,32
    502035d2:	87aa                	mv	a5,a0
    502035d4:	feb43023          	sd	a1,-32(s0)
    502035d8:	fef42623          	sw	a5,-20(s0)
    502035dc:	fe043783          	ld	a5,-32(s0)
    502035e0:	6798                	ld	a4,8(a5)
    502035e2:	fe043783          	ld	a5,-32(s0)
    502035e6:	639c                	ld	a5,0(a5)
    502035e8:	40f707b3          	sub	a5,a4,a5
    502035ec:	2781                	sext.w	a5,a5
    502035ee:	2785                	addiw	a5,a5,1
    502035f0:	0007871b          	sext.w	a4,a5
    502035f4:	fe043783          	ld	a5,-32(s0)
    502035f8:	4b9c                	lw	a5,16(a5)
    502035fa:	00f76463          	bltu	a4,a5,50203602 <_putc+0x36>
    502035fe:	4781                	li	a5,0
    50203600:	a02d                	j	5020362a <_putc+0x5e>
    50203602:	fe043783          	ld	a5,-32(s0)
    50203606:	679c                	ld	a5,8(a5)
    50203608:	00178693          	addi	a3,a5,1
    5020360c:	fe043703          	ld	a4,-32(s0)
    50203610:	e714                	sd	a3,8(a4)
    50203612:	fec42703          	lw	a4,-20(s0)
    50203616:	0ff77713          	andi	a4,a4,255
    5020361a:	00e78023          	sb	a4,0(a5)
    5020361e:	fe043783          	ld	a5,-32(s0)
    50203622:	679c                	ld	a5,8(a5)
    50203624:	00078023          	sb	zero,0(a5)
    50203628:	4785                	li	a5,1
    5020362a:	853e                	mv	a0,a5
    5020362c:	6462                	ld	s0,24(sp)
    5020362e:	6105                	addi	sp,sp,32
    50203630:	8082                	ret

0000000050203632 <_puts>:
    50203632:	7139                	addi	sp,sp,-64
    50203634:	fc22                	sd	s0,56(sp)
    50203636:	0080                	addi	s0,sp,64
    50203638:	fca43c23          	sd	a0,-40(s0)
    5020363c:	87ae                	mv	a5,a1
    5020363e:	fcc43423          	sd	a2,-56(s0)
    50203642:	fcf42a23          	sw	a5,-44(s0)
    50203646:	fc843783          	ld	a5,-56(s0)
    5020364a:	4b9c                	lw	a5,16(a5)
    5020364c:	02079713          	slli	a4,a5,0x20
    50203650:	9301                	srli	a4,a4,0x20
    50203652:	fc843783          	ld	a5,-56(s0)
    50203656:	6794                	ld	a3,8(a5)
    50203658:	fc843783          	ld	a5,-56(s0)
    5020365c:	639c                	ld	a5,0(a5)
    5020365e:	40f687b3          	sub	a5,a3,a5
    50203662:	8f1d                	sub	a4,a4,a5
    50203664:	fd446783          	lwu	a5,-44(s0)
    50203668:	02e7c463          	blt	a5,a4,50203690 <_puts+0x5e>
    5020366c:	fc843783          	ld	a5,-56(s0)
    50203670:	4b98                	lw	a4,16(a5)
    50203672:	fc843783          	ld	a5,-56(s0)
    50203676:	6794                	ld	a3,8(a5)
    50203678:	fc843783          	ld	a5,-56(s0)
    5020367c:	639c                	ld	a5,0(a5)
    5020367e:	40f687b3          	sub	a5,a3,a5
    50203682:	2781                	sext.w	a5,a5
    50203684:	40f707bb          	subw	a5,a4,a5
    50203688:	2781                	sext.w	a5,a5
    5020368a:	37fd                	addiw	a5,a5,-1
    5020368c:	fcf42a23          	sw	a5,-44(s0)
    50203690:	fe042623          	sw	zero,-20(s0)
    50203694:	a03d                	j	502036c2 <_puts+0x90>
    50203696:	fec46783          	lwu	a5,-20(s0)
    5020369a:	fd843703          	ld	a4,-40(s0)
    5020369e:	973e                	add	a4,a4,a5
    502036a0:	fc843783          	ld	a5,-56(s0)
    502036a4:	679c                	ld	a5,8(a5)
    502036a6:	00178613          	addi	a2,a5,1
    502036aa:	fc843683          	ld	a3,-56(s0)
    502036ae:	e690                	sd	a2,8(a3)
    502036b0:	00074703          	lbu	a4,0(a4)
    502036b4:	00e78023          	sb	a4,0(a5)
    502036b8:	fec42783          	lw	a5,-20(s0)
    502036bc:	2785                	addiw	a5,a5,1
    502036be:	fef42623          	sw	a5,-20(s0)
    502036c2:	fec42703          	lw	a4,-20(s0)
    502036c6:	fd442783          	lw	a5,-44(s0)
    502036ca:	2701                	sext.w	a4,a4
    502036cc:	2781                	sext.w	a5,a5
    502036ce:	fcf764e3          	bltu	a4,a5,50203696 <_puts+0x64>
    502036d2:	fc843783          	ld	a5,-56(s0)
    502036d6:	679c                	ld	a5,8(a5)
    502036d8:	00078023          	sb	zero,0(a5)
    502036dc:	fd442783          	lw	a5,-44(s0)
    502036e0:	853e                	mv	a0,a5
    502036e2:	7462                	ld	s0,56(sp)
    502036e4:	6121                	addi	sp,sp,64
    502036e6:	8082                	ret

00000000502036e8 <mini_vsnprintf>:
    502036e8:	7119                	addi	sp,sp,-128
    502036ea:	fc86                	sd	ra,120(sp)
    502036ec:	f8a2                	sd	s0,112(sp)
    502036ee:	0100                	addi	s0,sp,128
    502036f0:	f8a43c23          	sd	a0,-104(s0)
    502036f4:	87ae                	mv	a5,a1
    502036f6:	f8c43423          	sd	a2,-120(s0)
    502036fa:	f8d43023          	sd	a3,-128(s0)
    502036fe:	f8f42a23          	sw	a5,-108(s0)
    50203702:	f9843783          	ld	a5,-104(s0)
    50203706:	fcf43023          	sd	a5,-64(s0)
    5020370a:	f9843783          	ld	a5,-104(s0)
    5020370e:	fcf43423          	sd	a5,-56(s0)
    50203712:	f9442783          	lw	a5,-108(s0)
    50203716:	fcf42823          	sw	a5,-48(s0)
    5020371a:	a4f9                	j	502039e8 <mini_vsnprintf+0x300>
    5020371c:	fc843703          	ld	a4,-56(s0)
    50203720:	fc043783          	ld	a5,-64(s0)
    50203724:	40f707b3          	sub	a5,a4,a5
    50203728:	2781                	sext.w	a5,a5
    5020372a:	2785                	addiw	a5,a5,1
    5020372c:	0007871b          	sext.w	a4,a5
    50203730:	fd042783          	lw	a5,-48(s0)
    50203734:	2cf77b63          	bgeu	a4,a5,50203a0a <mini_vsnprintf+0x322>
    50203738:	fef44783          	lbu	a5,-17(s0)
    5020373c:	0ff7f713          	andi	a4,a5,255
    50203740:	02500793          	li	a5,37
    50203744:	00f70c63          	beq	a4,a5,5020375c <mini_vsnprintf+0x74>
    50203748:	fef44783          	lbu	a5,-17(s0)
    5020374c:	2781                	sext.w	a5,a5
    5020374e:	fc040713          	addi	a4,s0,-64
    50203752:	85ba                	mv	a1,a4
    50203754:	853e                	mv	a0,a5
    50203756:	e77ff0ef          	jal	ra,502035cc <_putc>
    5020375a:	a479                	j	502039e8 <mini_vsnprintf+0x300>
    5020375c:	fe040723          	sb	zero,-18(s0)
    50203760:	fe042423          	sw	zero,-24(s0)
    50203764:	f8843783          	ld	a5,-120(s0)
    50203768:	00178713          	addi	a4,a5,1
    5020376c:	f8e43423          	sd	a4,-120(s0)
    50203770:	0007c783          	lbu	a5,0(a5)
    50203774:	fef407a3          	sb	a5,-17(s0)
    50203778:	fef44783          	lbu	a5,-17(s0)
    5020377c:	0ff7f713          	andi	a4,a5,255
    50203780:	03000793          	li	a5,48
    50203784:	06f71b63          	bne	a4,a5,502037fa <mini_vsnprintf+0x112>
    50203788:	a891                	j	502037dc <mini_vsnprintf+0xf4>
    5020378a:	fef44783          	lbu	a5,-17(s0)
    5020378e:	0ff7f793          	andi	a5,a5,255
    50203792:	26078e63          	beqz	a5,50203a0e <mini_vsnprintf+0x326>
    50203796:	fef44783          	lbu	a5,-17(s0)
    5020379a:	0ff7f713          	andi	a4,a5,255
    5020379e:	02f00793          	li	a5,47
    502037a2:	04e7fc63          	bgeu	a5,a4,502037fa <mini_vsnprintf+0x112>
    502037a6:	fef44783          	lbu	a5,-17(s0)
    502037aa:	0ff7f713          	andi	a4,a5,255
    502037ae:	03900793          	li	a5,57
    502037b2:	04e7e463          	bltu	a5,a4,502037fa <mini_vsnprintf+0x112>
    502037b6:	fee44703          	lbu	a4,-18(s0)
    502037ba:	87ba                	mv	a5,a4
    502037bc:	0027979b          	slliw	a5,a5,0x2
    502037c0:	9fb9                	addw	a5,a5,a4
    502037c2:	0017979b          	slliw	a5,a5,0x1
    502037c6:	0ff7f793          	andi	a5,a5,255
    502037ca:	fef44703          	lbu	a4,-17(s0)
    502037ce:	9fb9                	addw	a5,a5,a4
    502037d0:	0ff7f793          	andi	a5,a5,255
    502037d4:	fd07879b          	addiw	a5,a5,-48
    502037d8:	fef40723          	sb	a5,-18(s0)
    502037dc:	f8843783          	ld	a5,-120(s0)
    502037e0:	00178713          	addi	a4,a5,1
    502037e4:	f8e43423          	sd	a4,-120(s0)
    502037e8:	0007c783          	lbu	a5,0(a5)
    502037ec:	fef407a3          	sb	a5,-17(s0)
    502037f0:	fef44783          	lbu	a5,-17(s0)
    502037f4:	0ff7f793          	andi	a5,a5,255
    502037f8:	fbc9                	bnez	a5,5020378a <mini_vsnprintf+0xa2>
    502037fa:	fef44783          	lbu	a5,-17(s0)
    502037fe:	0ff7f713          	andi	a4,a5,255
    50203802:	06c00793          	li	a5,108
    50203806:	00f71f63          	bne	a4,a5,50203824 <mini_vsnprintf+0x13c>
    5020380a:	4785                	li	a5,1
    5020380c:	fef42423          	sw	a5,-24(s0)
    50203810:	f8843783          	ld	a5,-120(s0)
    50203814:	00178713          	addi	a4,a5,1
    50203818:	f8e43423          	sd	a4,-120(s0)
    5020381c:	0007c783          	lbu	a5,0(a5)
    50203820:	fef407a3          	sb	a5,-17(s0)
    50203824:	fef44783          	lbu	a5,-17(s0)
    50203828:	2781                	sext.w	a5,a5
    5020382a:	1e078463          	beqz	a5,50203a12 <mini_vsnprintf+0x32a>
    5020382e:	873e                	mv	a4,a5
    50203830:	1a074263          	bltz	a4,502039d4 <mini_vsnprintf+0x2ec>
    50203834:	86be                	mv	a3,a5
    50203836:	07800713          	li	a4,120
    5020383a:	18d74d63          	blt	a4,a3,502039d4 <mini_vsnprintf+0x2ec>
    5020383e:	86be                	mv	a3,a5
    50203840:	05800713          	li	a4,88
    50203844:	18e6c863          	blt	a3,a4,502039d4 <mini_vsnprintf+0x2ec>
    50203848:	fa87869b          	addiw	a3,a5,-88
    5020384c:	0006871b          	sext.w	a4,a3
    50203850:	02000793          	li	a5,32
    50203854:	18e7e063          	bltu	a5,a4,502039d4 <mini_vsnprintf+0x2ec>
    50203858:	02069793          	slli	a5,a3,0x20
    5020385c:	9381                	srli	a5,a5,0x20
    5020385e:	00279713          	slli	a4,a5,0x2
    50203862:	00001797          	auipc	a5,0x1
    50203866:	e1a78793          	addi	a5,a5,-486 # 5020467c <__FUNCTION__.1320+0xa4>
    5020386a:	97ba                	add	a5,a5,a4
    5020386c:	439c                	lw	a5,0(a5)
    5020386e:	0007871b          	sext.w	a4,a5
    50203872:	00001797          	auipc	a5,0x1
    50203876:	e0a78793          	addi	a5,a5,-502 # 5020467c <__FUNCTION__.1320+0xa4>
    5020387a:	97ba                	add	a5,a5,a4
    5020387c:	8782                	jr	a5
    5020387e:	4785                	li	a5,1
    50203880:	fef42423          	sw	a5,-24(s0)
    50203884:	a295                	j	502039e8 <mini_vsnprintf+0x300>
    50203886:	fe842783          	lw	a5,-24(s0)
    5020388a:	2781                	sext.w	a5,a5
    5020388c:	ef81                	bnez	a5,502038a4 <mini_vsnprintf+0x1bc>
    5020388e:	f8043783          	ld	a5,-128(s0)
    50203892:	00878713          	addi	a4,a5,8
    50203896:	f8e43023          	sd	a4,-128(s0)
    5020389a:	439c                	lw	a5,0(a5)
    5020389c:	02079513          	slli	a0,a5,0x20
    502038a0:	9101                	srli	a0,a0,0x20
    502038a2:	a809                	j	502038b4 <mini_vsnprintf+0x1cc>
    502038a4:	f8043783          	ld	a5,-128(s0)
    502038a8:	00878713          	addi	a4,a5,8
    502038ac:	f8e43023          	sd	a4,-128(s0)
    502038b0:	639c                	ld	a5,0(a5)
    502038b2:	853e                	mv	a0,a5
    502038b4:	fef44783          	lbu	a5,-17(s0)
    502038b8:	0007871b          	sext.w	a4,a5
    502038bc:	07500793          	li	a5,117
    502038c0:	40f707b3          	sub	a5,a4,a5
    502038c4:	0017b793          	seqz	a5,a5
    502038c8:	0ff7f793          	andi	a5,a5,255
    502038cc:	0007869b          	sext.w	a3,a5
    502038d0:	fee44783          	lbu	a5,-18(s0)
    502038d4:	2781                	sext.w	a5,a5
    502038d6:	fa840713          	addi	a4,s0,-88
    502038da:	4601                	li	a2,0
    502038dc:	45a9                	li	a1,10
    502038de:	affff0ef          	jal	ra,502033dc <mini_itoa>
    502038e2:	87aa                	mv	a5,a0
    502038e4:	fcf42e23          	sw	a5,-36(s0)
    502038e8:	fc040693          	addi	a3,s0,-64
    502038ec:	fdc42703          	lw	a4,-36(s0)
    502038f0:	fa840793          	addi	a5,s0,-88
    502038f4:	8636                	mv	a2,a3
    502038f6:	85ba                	mv	a1,a4
    502038f8:	853e                	mv	a0,a5
    502038fa:	d39ff0ef          	jal	ra,50203632 <_puts>
    502038fe:	fe042423          	sw	zero,-24(s0)
    50203902:	a0dd                	j	502039e8 <mini_vsnprintf+0x300>
    50203904:	fe842783          	lw	a5,-24(s0)
    50203908:	2781                	sext.w	a5,a5
    5020390a:	ef81                	bnez	a5,50203922 <mini_vsnprintf+0x23a>
    5020390c:	f8043783          	ld	a5,-128(s0)
    50203910:	00878713          	addi	a4,a5,8
    50203914:	f8e43023          	sd	a4,-128(s0)
    50203918:	439c                	lw	a5,0(a5)
    5020391a:	02079513          	slli	a0,a5,0x20
    5020391e:	9101                	srli	a0,a0,0x20
    50203920:	a809                	j	50203932 <mini_vsnprintf+0x24a>
    50203922:	f8043783          	ld	a5,-128(s0)
    50203926:	00878713          	addi	a4,a5,8
    5020392a:	f8e43023          	sd	a4,-128(s0)
    5020392e:	639c                	ld	a5,0(a5)
    50203930:	853e                	mv	a0,a5
    50203932:	fef44783          	lbu	a5,-17(s0)
    50203936:	0007871b          	sext.w	a4,a5
    5020393a:	05800793          	li	a5,88
    5020393e:	40f707b3          	sub	a5,a4,a5
    50203942:	0017b793          	seqz	a5,a5
    50203946:	0ff7f793          	andi	a5,a5,255
    5020394a:	0007861b          	sext.w	a2,a5
    5020394e:	fee44783          	lbu	a5,-18(s0)
    50203952:	2781                	sext.w	a5,a5
    50203954:	fa840713          	addi	a4,s0,-88
    50203958:	4685                	li	a3,1
    5020395a:	45c1                	li	a1,16
    5020395c:	a81ff0ef          	jal	ra,502033dc <mini_itoa>
    50203960:	87aa                	mv	a5,a0
    50203962:	fcf42e23          	sw	a5,-36(s0)
    50203966:	fc040693          	addi	a3,s0,-64
    5020396a:	fdc42703          	lw	a4,-36(s0)
    5020396e:	fa840793          	addi	a5,s0,-88
    50203972:	8636                	mv	a2,a3
    50203974:	85ba                	mv	a1,a4
    50203976:	853e                	mv	a0,a5
    50203978:	cbbff0ef          	jal	ra,50203632 <_puts>
    5020397c:	fe042423          	sw	zero,-24(s0)
    50203980:	a0a5                	j	502039e8 <mini_vsnprintf+0x300>
    50203982:	f8043783          	ld	a5,-128(s0)
    50203986:	00878713          	addi	a4,a5,8
    5020398a:	f8e43023          	sd	a4,-128(s0)
    5020398e:	439c                	lw	a5,0(a5)
    50203990:	0ff7f793          	andi	a5,a5,255
    50203994:	2781                	sext.w	a5,a5
    50203996:	fc040713          	addi	a4,s0,-64
    5020399a:	85ba                	mv	a1,a4
    5020399c:	853e                	mv	a0,a5
    5020399e:	c2fff0ef          	jal	ra,502035cc <_putc>
    502039a2:	a099                	j	502039e8 <mini_vsnprintf+0x300>
    502039a4:	f8043783          	ld	a5,-128(s0)
    502039a8:	00878713          	addi	a4,a5,8
    502039ac:	f8e43023          	sd	a4,-128(s0)
    502039b0:	639c                	ld	a5,0(a5)
    502039b2:	fef43023          	sd	a5,-32(s0)
    502039b6:	fe043503          	ld	a0,-32(s0)
    502039ba:	9edff0ef          	jal	ra,502033a6 <mini_strlen>
    502039be:	87aa                	mv	a5,a0
    502039c0:	2781                	sext.w	a5,a5
    502039c2:	fc040713          	addi	a4,s0,-64
    502039c6:	863a                	mv	a2,a4
    502039c8:	85be                	mv	a1,a5
    502039ca:	fe043503          	ld	a0,-32(s0)
    502039ce:	c65ff0ef          	jal	ra,50203632 <_puts>
    502039d2:	a819                	j	502039e8 <mini_vsnprintf+0x300>
    502039d4:	fef44783          	lbu	a5,-17(s0)
    502039d8:	2781                	sext.w	a5,a5
    502039da:	fc040713          	addi	a4,s0,-64
    502039de:	85ba                	mv	a1,a4
    502039e0:	853e                	mv	a0,a5
    502039e2:	bebff0ef          	jal	ra,502035cc <_putc>
    502039e6:	0001                	nop
    502039e8:	f8843783          	ld	a5,-120(s0)
    502039ec:	00178713          	addi	a4,a5,1
    502039f0:	f8e43423          	sd	a4,-120(s0)
    502039f4:	0007c783          	lbu	a5,0(a5)
    502039f8:	fef407a3          	sb	a5,-17(s0)
    502039fc:	fef44783          	lbu	a5,-17(s0)
    50203a00:	0ff7f793          	andi	a5,a5,255
    50203a04:	d0079ce3          	bnez	a5,5020371c <mini_vsnprintf+0x34>
    50203a08:	a031                	j	50203a14 <mini_vsnprintf+0x32c>
    50203a0a:	0001                	nop
    50203a0c:	a021                	j	50203a14 <mini_vsnprintf+0x32c>
    50203a0e:	0001                	nop
    50203a10:	a011                	j	50203a14 <mini_vsnprintf+0x32c>
    50203a12:	0001                	nop
    50203a14:	fc843703          	ld	a4,-56(s0)
    50203a18:	fc043783          	ld	a5,-64(s0)
    50203a1c:	40f707b3          	sub	a5,a4,a5
    50203a20:	2781                	sext.w	a5,a5
    50203a22:	853e                	mv	a0,a5
    50203a24:	70e6                	ld	ra,120(sp)
    50203a26:	7446                	ld	s0,112(sp)
    50203a28:	6109                	addi	sp,sp,128
    50203a2a:	8082                	ret

0000000050203a2c <_vprint>:
    50203a2c:	7129                	addi	sp,sp,-320
    50203a2e:	fe06                	sd	ra,312(sp)
    50203a30:	fa22                	sd	s0,304(sp)
    50203a32:	0280                	addi	s0,sp,320
    50203a34:	eca43c23          	sd	a0,-296(s0)
    50203a38:	ecb43823          	sd	a1,-304(s0)
    50203a3c:	ecc43423          	sd	a2,-312(s0)
    50203a40:	ed043783          	ld	a5,-304(s0)
    50203a44:	fef43023          	sd	a5,-32(s0)
    50203a48:	fe043703          	ld	a4,-32(s0)
    50203a4c:	ee040793          	addi	a5,s0,-288
    50203a50:	86ba                	mv	a3,a4
    50203a52:	ed843603          	ld	a2,-296(s0)
    50203a56:	10000593          	li	a1,256
    50203a5a:	853e                	mv	a0,a5
    50203a5c:	c8dff0ef          	jal	ra,502036e8 <mini_vsnprintf>
    50203a60:	87aa                	mv	a5,a0
    50203a62:	fef42623          	sw	a5,-20(s0)
    50203a66:	fec42783          	lw	a5,-20(s0)
    50203a6a:	ff040713          	addi	a4,s0,-16
    50203a6e:	97ba                	add	a5,a5,a4
    50203a70:	ee078823          	sb	zero,-272(a5)
    50203a74:	ee040793          	addi	a5,s0,-288
    50203a78:	ec843703          	ld	a4,-312(s0)
    50203a7c:	853e                	mv	a0,a5
    50203a7e:	9702                	jalr	a4
    50203a80:	fec42783          	lw	a5,-20(s0)
    50203a84:	853e                	mv	a0,a5
    50203a86:	70f2                	ld	ra,312(sp)
    50203a88:	7452                	ld	s0,304(sp)
    50203a8a:	6131                	addi	sp,sp,320
    50203a8c:	8082                	ret

0000000050203a8e <_output_wrapper>:
    50203a8e:	1101                	addi	sp,sp,-32
    50203a90:	ec06                	sd	ra,24(sp)
    50203a92:	e822                	sd	s0,16(sp)
    50203a94:	1000                	addi	s0,sp,32
    50203a96:	fea43423          	sd	a0,-24(s0)
    50203a9a:	fe843503          	ld	a0,-24(s0)
    50203a9e:	c7cfe0ef          	jal	ra,50201f1a <screen_write>
    50203aa2:	cd6fe0ef          	jal	ra,50201f78 <screen_reflush>
    50203aa6:	0001                	nop
    50203aa8:	60e2                	ld	ra,24(sp)
    50203aaa:	6442                	ld	s0,16(sp)
    50203aac:	6105                	addi	sp,sp,32
    50203aae:	8082                	ret

0000000050203ab0 <vprintk>:
    50203ab0:	1101                	addi	sp,sp,-32
    50203ab2:	ec06                	sd	ra,24(sp)
    50203ab4:	e822                	sd	s0,16(sp)
    50203ab6:	1000                	addi	s0,sp,32
    50203ab8:	fea43423          	sd	a0,-24(s0)
    50203abc:	feb43023          	sd	a1,-32(s0)
    50203ac0:	00000617          	auipc	a2,0x0
    50203ac4:	fce60613          	addi	a2,a2,-50 # 50203a8e <_output_wrapper>
    50203ac8:	fe043583          	ld	a1,-32(s0)
    50203acc:	fe843503          	ld	a0,-24(s0)
    50203ad0:	f5dff0ef          	jal	ra,50203a2c <_vprint>
    50203ad4:	87aa                	mv	a5,a0
    50203ad6:	853e                	mv	a0,a5
    50203ad8:	60e2                	ld	ra,24(sp)
    50203ada:	6442                	ld	s0,16(sp)
    50203adc:	6105                	addi	sp,sp,32
    50203ade:	8082                	ret

0000000050203ae0 <printk>:
    50203ae0:	7159                	addi	sp,sp,-112
    50203ae2:	f406                	sd	ra,40(sp)
    50203ae4:	f022                	sd	s0,32(sp)
    50203ae6:	1800                	addi	s0,sp,48
    50203ae8:	fca43c23          	sd	a0,-40(s0)
    50203aec:	e40c                	sd	a1,8(s0)
    50203aee:	e810                	sd	a2,16(s0)
    50203af0:	ec14                	sd	a3,24(s0)
    50203af2:	f018                	sd	a4,32(s0)
    50203af4:	f41c                	sd	a5,40(s0)
    50203af6:	03043823          	sd	a6,48(s0)
    50203afa:	03143c23          	sd	a7,56(s0)
    50203afe:	fe042623          	sw	zero,-20(s0)
    50203b02:	04040793          	addi	a5,s0,64
    50203b06:	fcf43823          	sd	a5,-48(s0)
    50203b0a:	fd043783          	ld	a5,-48(s0)
    50203b0e:	fc878793          	addi	a5,a5,-56
    50203b12:	fef43023          	sd	a5,-32(s0)
    50203b16:	fe043783          	ld	a5,-32(s0)
    50203b1a:	85be                	mv	a1,a5
    50203b1c:	fd843503          	ld	a0,-40(s0)
    50203b20:	f91ff0ef          	jal	ra,50203ab0 <vprintk>
    50203b24:	87aa                	mv	a5,a0
    50203b26:	fef42623          	sw	a5,-20(s0)
    50203b2a:	fec42783          	lw	a5,-20(s0)
    50203b2e:	853e                	mv	a0,a5
    50203b30:	70a2                	ld	ra,40(sp)
    50203b32:	7402                	ld	s0,32(sp)
    50203b34:	6165                	addi	sp,sp,112
    50203b36:	8082                	ret

0000000050203b38 <vprintv>:
    50203b38:	1101                	addi	sp,sp,-32
    50203b3a:	ec06                	sd	ra,24(sp)
    50203b3c:	e822                	sd	s0,16(sp)
    50203b3e:	1000                	addi	s0,sp,32
    50203b40:	fea43423          	sd	a0,-24(s0)
    50203b44:	feb43023          	sd	a1,-32(s0)
    50203b48:	00000617          	auipc	a2,0x0
    50203b4c:	81260613          	addi	a2,a2,-2030 # 5020335a <bios_putstr>
    50203b50:	fe043583          	ld	a1,-32(s0)
    50203b54:	fe843503          	ld	a0,-24(s0)
    50203b58:	ed5ff0ef          	jal	ra,50203a2c <_vprint>
    50203b5c:	87aa                	mv	a5,a0
    50203b5e:	853e                	mv	a0,a5
    50203b60:	60e2                	ld	ra,24(sp)
    50203b62:	6442                	ld	s0,16(sp)
    50203b64:	6105                	addi	sp,sp,32
    50203b66:	8082                	ret

0000000050203b68 <printv>:
    50203b68:	7159                	addi	sp,sp,-112
    50203b6a:	f406                	sd	ra,40(sp)
    50203b6c:	f022                	sd	s0,32(sp)
    50203b6e:	1800                	addi	s0,sp,48
    50203b70:	fca43c23          	sd	a0,-40(s0)
    50203b74:	e40c                	sd	a1,8(s0)
    50203b76:	e810                	sd	a2,16(s0)
    50203b78:	ec14                	sd	a3,24(s0)
    50203b7a:	f018                	sd	a4,32(s0)
    50203b7c:	f41c                	sd	a5,40(s0)
    50203b7e:	03043823          	sd	a6,48(s0)
    50203b82:	03143c23          	sd	a7,56(s0)
    50203b86:	fe042623          	sw	zero,-20(s0)
    50203b8a:	04040793          	addi	a5,s0,64
    50203b8e:	fcf43823          	sd	a5,-48(s0)
    50203b92:	fd043783          	ld	a5,-48(s0)
    50203b96:	fc878793          	addi	a5,a5,-56
    50203b9a:	fef43023          	sd	a5,-32(s0)
    50203b9e:	fe043783          	ld	a5,-32(s0)
    50203ba2:	85be                	mv	a1,a5
    50203ba4:	fd843503          	ld	a0,-40(s0)
    50203ba8:	f91ff0ef          	jal	ra,50203b38 <vprintv>
    50203bac:	87aa                	mv	a5,a0
    50203bae:	fef42623          	sw	a5,-20(s0)
    50203bb2:	fec42783          	lw	a5,-20(s0)
    50203bb6:	853e                	mv	a0,a5
    50203bb8:	70a2                	ld	ra,40(sp)
    50203bba:	7402                	ld	s0,32(sp)
    50203bbc:	6165                	addi	sp,sp,112
    50203bbe:	8082                	ret

0000000050203bc0 <vprintl>:
    50203bc0:	1101                	addi	sp,sp,-32
    50203bc2:	ec06                	sd	ra,24(sp)
    50203bc4:	e822                	sd	s0,16(sp)
    50203bc6:	1000                	addi	s0,sp,32
    50203bc8:	fea43423          	sd	a0,-24(s0)
    50203bcc:	feb43023          	sd	a1,-32(s0)
    50203bd0:	fffff617          	auipc	a2,0xfffff
    50203bd4:	7b060613          	addi	a2,a2,1968 # 50203380 <bios_logging>
    50203bd8:	fe043583          	ld	a1,-32(s0)
    50203bdc:	fe843503          	ld	a0,-24(s0)
    50203be0:	e4dff0ef          	jal	ra,50203a2c <_vprint>
    50203be4:	87aa                	mv	a5,a0
    50203be6:	853e                	mv	a0,a5
    50203be8:	60e2                	ld	ra,24(sp)
    50203bea:	6442                	ld	s0,16(sp)
    50203bec:	6105                	addi	sp,sp,32
    50203bee:	8082                	ret

0000000050203bf0 <printl>:
    50203bf0:	7159                	addi	sp,sp,-112
    50203bf2:	f406                	sd	ra,40(sp)
    50203bf4:	f022                	sd	s0,32(sp)
    50203bf6:	1800                	addi	s0,sp,48
    50203bf8:	fca43c23          	sd	a0,-40(s0)
    50203bfc:	e40c                	sd	a1,8(s0)
    50203bfe:	e810                	sd	a2,16(s0)
    50203c00:	ec14                	sd	a3,24(s0)
    50203c02:	f018                	sd	a4,32(s0)
    50203c04:	f41c                	sd	a5,40(s0)
    50203c06:	03043823          	sd	a6,48(s0)
    50203c0a:	03143c23          	sd	a7,56(s0)
    50203c0e:	fe042623          	sw	zero,-20(s0)
    50203c12:	04040793          	addi	a5,s0,64
    50203c16:	fcf43823          	sd	a5,-48(s0)
    50203c1a:	fd043783          	ld	a5,-48(s0)
    50203c1e:	fc878793          	addi	a5,a5,-56
    50203c22:	fef43023          	sd	a5,-32(s0)
    50203c26:	fe043783          	ld	a5,-32(s0)
    50203c2a:	85be                	mv	a1,a5
    50203c2c:	fd843503          	ld	a0,-40(s0)
    50203c30:	f91ff0ef          	jal	ra,50203bc0 <vprintl>
    50203c34:	87aa                	mv	a5,a0
    50203c36:	fef42623          	sw	a5,-20(s0)
    50203c3a:	fec42783          	lw	a5,-20(s0)
    50203c3e:	853e                	mv	a0,a5
    50203c40:	70a2                	ld	ra,40(sp)
    50203c42:	7402                	ld	s0,32(sp)
    50203c44:	6165                	addi	sp,sp,112
    50203c46:	8082                	ret

0000000050203c48 <memcpy>:
    50203c48:	7179                	addi	sp,sp,-48
    50203c4a:	f422                	sd	s0,40(sp)
    50203c4c:	1800                	addi	s0,sp,48
    50203c4e:	fea43423          	sd	a0,-24(s0)
    50203c52:	feb43023          	sd	a1,-32(s0)
    50203c56:	87b2                	mv	a5,a2
    50203c58:	fcf42e23          	sw	a5,-36(s0)
    50203c5c:	a035                	j	50203c88 <memcpy+0x40>
    50203c5e:	fe043703          	ld	a4,-32(s0)
    50203c62:	00170793          	addi	a5,a4,1
    50203c66:	fef43023          	sd	a5,-32(s0)
    50203c6a:	fe843783          	ld	a5,-24(s0)
    50203c6e:	00178693          	addi	a3,a5,1
    50203c72:	fed43423          	sd	a3,-24(s0)
    50203c76:	00074703          	lbu	a4,0(a4)
    50203c7a:	00e78023          	sb	a4,0(a5)
    50203c7e:	fdc42783          	lw	a5,-36(s0)
    50203c82:	37fd                	addiw	a5,a5,-1
    50203c84:	fcf42e23          	sw	a5,-36(s0)
    50203c88:	fdc42783          	lw	a5,-36(s0)
    50203c8c:	2781                	sext.w	a5,a5
    50203c8e:	fbe1                	bnez	a5,50203c5e <memcpy+0x16>
    50203c90:	0001                	nop
    50203c92:	0001                	nop
    50203c94:	7422                	ld	s0,40(sp)
    50203c96:	6145                	addi	sp,sp,48
    50203c98:	8082                	ret

0000000050203c9a <memset>:
    50203c9a:	7179                	addi	sp,sp,-48
    50203c9c:	f422                	sd	s0,40(sp)
    50203c9e:	1800                	addi	s0,sp,48
    50203ca0:	fca43c23          	sd	a0,-40(s0)
    50203ca4:	87ae                	mv	a5,a1
    50203ca6:	8732                	mv	a4,a2
    50203ca8:	fcf40ba3          	sb	a5,-41(s0)
    50203cac:	87ba                	mv	a5,a4
    50203cae:	fcf42823          	sw	a5,-48(s0)
    50203cb2:	fd843783          	ld	a5,-40(s0)
    50203cb6:	fef43423          	sd	a5,-24(s0)
    50203cba:	a005                	j	50203cda <memset+0x40>
    50203cbc:	fe843783          	ld	a5,-24(s0)
    50203cc0:	00178713          	addi	a4,a5,1
    50203cc4:	fee43423          	sd	a4,-24(s0)
    50203cc8:	fd744703          	lbu	a4,-41(s0)
    50203ccc:	00e78023          	sb	a4,0(a5)
    50203cd0:	fd042783          	lw	a5,-48(s0)
    50203cd4:	37fd                	addiw	a5,a5,-1
    50203cd6:	fcf42823          	sw	a5,-48(s0)
    50203cda:	fd042783          	lw	a5,-48(s0)
    50203cde:	2781                	sext.w	a5,a5
    50203ce0:	fff1                	bnez	a5,50203cbc <memset+0x22>
    50203ce2:	0001                	nop
    50203ce4:	0001                	nop
    50203ce6:	7422                	ld	s0,40(sp)
    50203ce8:	6145                	addi	sp,sp,48
    50203cea:	8082                	ret

0000000050203cec <bzero>:
    50203cec:	1101                	addi	sp,sp,-32
    50203cee:	ec06                	sd	ra,24(sp)
    50203cf0:	e822                	sd	s0,16(sp)
    50203cf2:	1000                	addi	s0,sp,32
    50203cf4:	fea43423          	sd	a0,-24(s0)
    50203cf8:	87ae                	mv	a5,a1
    50203cfa:	fef42223          	sw	a5,-28(s0)
    50203cfe:	fe442783          	lw	a5,-28(s0)
    50203d02:	863e                	mv	a2,a5
    50203d04:	4581                	li	a1,0
    50203d06:	fe843503          	ld	a0,-24(s0)
    50203d0a:	f91ff0ef          	jal	ra,50203c9a <memset>
    50203d0e:	0001                	nop
    50203d10:	60e2                	ld	ra,24(sp)
    50203d12:	6442                	ld	s0,16(sp)
    50203d14:	6105                	addi	sp,sp,32
    50203d16:	8082                	ret

0000000050203d18 <strlen>:
    50203d18:	7179                	addi	sp,sp,-48
    50203d1a:	f422                	sd	s0,40(sp)
    50203d1c:	1800                	addi	s0,sp,48
    50203d1e:	fca43c23          	sd	a0,-40(s0)
    50203d22:	fe042623          	sw	zero,-20(s0)
    50203d26:	a031                	j	50203d32 <strlen+0x1a>
    50203d28:	fec42783          	lw	a5,-20(s0)
    50203d2c:	2785                	addiw	a5,a5,1
    50203d2e:	fef42623          	sw	a5,-20(s0)
    50203d32:	fec42783          	lw	a5,-20(s0)
    50203d36:	fd843703          	ld	a4,-40(s0)
    50203d3a:	97ba                	add	a5,a5,a4
    50203d3c:	0007c783          	lbu	a5,0(a5)
    50203d40:	f7e5                	bnez	a5,50203d28 <strlen+0x10>
    50203d42:	fec42783          	lw	a5,-20(s0)
    50203d46:	853e                	mv	a0,a5
    50203d48:	7422                	ld	s0,40(sp)
    50203d4a:	6145                	addi	sp,sp,48
    50203d4c:	8082                	ret

0000000050203d4e <strcmp>:
    50203d4e:	1101                	addi	sp,sp,-32
    50203d50:	ec22                	sd	s0,24(sp)
    50203d52:	1000                	addi	s0,sp,32
    50203d54:	fea43423          	sd	a0,-24(s0)
    50203d58:	feb43023          	sd	a1,-32(s0)
    50203d5c:	a0a1                	j	50203da4 <strcmp+0x56>
    50203d5e:	fe843783          	ld	a5,-24(s0)
    50203d62:	0007c703          	lbu	a4,0(a5)
    50203d66:	fe043783          	ld	a5,-32(s0)
    50203d6a:	0007c783          	lbu	a5,0(a5)
    50203d6e:	02f70163          	beq	a4,a5,50203d90 <strcmp+0x42>
    50203d72:	fe843783          	ld	a5,-24(s0)
    50203d76:	0007c783          	lbu	a5,0(a5)
    50203d7a:	0007871b          	sext.w	a4,a5
    50203d7e:	fe043783          	ld	a5,-32(s0)
    50203d82:	0007c783          	lbu	a5,0(a5)
    50203d86:	2781                	sext.w	a5,a5
    50203d88:	40f707bb          	subw	a5,a4,a5
    50203d8c:	2781                	sext.w	a5,a5
    50203d8e:	a099                	j	50203dd4 <strcmp+0x86>
    50203d90:	fe843783          	ld	a5,-24(s0)
    50203d94:	0785                	addi	a5,a5,1
    50203d96:	fef43423          	sd	a5,-24(s0)
    50203d9a:	fe043783          	ld	a5,-32(s0)
    50203d9e:	0785                	addi	a5,a5,1
    50203da0:	fef43023          	sd	a5,-32(s0)
    50203da4:	fe843783          	ld	a5,-24(s0)
    50203da8:	0007c783          	lbu	a5,0(a5)
    50203dac:	c791                	beqz	a5,50203db8 <strcmp+0x6a>
    50203dae:	fe043783          	ld	a5,-32(s0)
    50203db2:	0007c783          	lbu	a5,0(a5)
    50203db6:	f7c5                	bnez	a5,50203d5e <strcmp+0x10>
    50203db8:	fe843783          	ld	a5,-24(s0)
    50203dbc:	0007c783          	lbu	a5,0(a5)
    50203dc0:	0007871b          	sext.w	a4,a5
    50203dc4:	fe043783          	ld	a5,-32(s0)
    50203dc8:	0007c783          	lbu	a5,0(a5)
    50203dcc:	2781                	sext.w	a5,a5
    50203dce:	40f707bb          	subw	a5,a4,a5
    50203dd2:	2781                	sext.w	a5,a5
    50203dd4:	853e                	mv	a0,a5
    50203dd6:	6462                	ld	s0,24(sp)
    50203dd8:	6105                	addi	sp,sp,32
    50203dda:	8082                	ret

0000000050203ddc <strncmp>:
    50203ddc:	7179                	addi	sp,sp,-48
    50203dde:	f422                	sd	s0,40(sp)
    50203de0:	1800                	addi	s0,sp,48
    50203de2:	fea43423          	sd	a0,-24(s0)
    50203de6:	feb43023          	sd	a1,-32(s0)
    50203dea:	87b2                	mv	a5,a2
    50203dec:	fcf42e23          	sw	a5,-36(s0)
    50203df0:	a0a1                	j	50203e38 <strncmp+0x5c>
    50203df2:	fe843783          	ld	a5,-24(s0)
    50203df6:	0007c703          	lbu	a4,0(a5)
    50203dfa:	fe043783          	ld	a5,-32(s0)
    50203dfe:	0007c783          	lbu	a5,0(a5)
    50203e02:	02f70163          	beq	a4,a5,50203e24 <strncmp+0x48>
    50203e06:	fe843783          	ld	a5,-24(s0)
    50203e0a:	0007c783          	lbu	a5,0(a5)
    50203e0e:	0007871b          	sext.w	a4,a5
    50203e12:	fe043783          	ld	a5,-32(s0)
    50203e16:	0007c783          	lbu	a5,0(a5)
    50203e1a:	2781                	sext.w	a5,a5
    50203e1c:	40f707bb          	subw	a5,a4,a5
    50203e20:	2781                	sext.w	a5,a5
    50203e22:	a899                	j	50203e78 <strncmp+0x9c>
    50203e24:	fe843783          	ld	a5,-24(s0)
    50203e28:	0785                	addi	a5,a5,1
    50203e2a:	fef43423          	sd	a5,-24(s0)
    50203e2e:	fe043783          	ld	a5,-32(s0)
    50203e32:	0785                	addi	a5,a5,1
    50203e34:	fef43023          	sd	a5,-32(s0)
    50203e38:	fe843783          	ld	a5,-24(s0)
    50203e3c:	0007c783          	lbu	a5,0(a5)
    50203e40:	cf91                	beqz	a5,50203e5c <strncmp+0x80>
    50203e42:	fe043783          	ld	a5,-32(s0)
    50203e46:	0007c783          	lbu	a5,0(a5)
    50203e4a:	cb89                	beqz	a5,50203e5c <strncmp+0x80>
    50203e4c:	fdc42783          	lw	a5,-36(s0)
    50203e50:	fff7871b          	addiw	a4,a5,-1
    50203e54:	fce42e23          	sw	a4,-36(s0)
    50203e58:	f8f04de3          	bgtz	a5,50203df2 <strncmp+0x16>
    50203e5c:	fe843783          	ld	a5,-24(s0)
    50203e60:	0007c783          	lbu	a5,0(a5)
    50203e64:	0007871b          	sext.w	a4,a5
    50203e68:	fe043783          	ld	a5,-32(s0)
    50203e6c:	0007c783          	lbu	a5,0(a5)
    50203e70:	2781                	sext.w	a5,a5
    50203e72:	40f707bb          	subw	a5,a4,a5
    50203e76:	2781                	sext.w	a5,a5
    50203e78:	853e                	mv	a0,a5
    50203e7a:	7422                	ld	s0,40(sp)
    50203e7c:	6145                	addi	sp,sp,48
    50203e7e:	8082                	ret

0000000050203e80 <strcpy>:
    50203e80:	7179                	addi	sp,sp,-48
    50203e82:	f422                	sd	s0,40(sp)
    50203e84:	1800                	addi	s0,sp,48
    50203e86:	fca43c23          	sd	a0,-40(s0)
    50203e8a:	fcb43823          	sd	a1,-48(s0)
    50203e8e:	fd843783          	ld	a5,-40(s0)
    50203e92:	fef43423          	sd	a5,-24(s0)
    50203e96:	a00d                	j	50203eb8 <strcpy+0x38>
    50203e98:	fd043703          	ld	a4,-48(s0)
    50203e9c:	00170793          	addi	a5,a4,1
    50203ea0:	fcf43823          	sd	a5,-48(s0)
    50203ea4:	fd843783          	ld	a5,-40(s0)
    50203ea8:	00178693          	addi	a3,a5,1
    50203eac:	fcd43c23          	sd	a3,-40(s0)
    50203eb0:	00074703          	lbu	a4,0(a4)
    50203eb4:	00e78023          	sb	a4,0(a5)
    50203eb8:	fd043783          	ld	a5,-48(s0)
    50203ebc:	0007c783          	lbu	a5,0(a5)
    50203ec0:	ffe1                	bnez	a5,50203e98 <strcpy+0x18>
    50203ec2:	fd843783          	ld	a5,-40(s0)
    50203ec6:	00078023          	sb	zero,0(a5)
    50203eca:	fe843783          	ld	a5,-24(s0)
    50203ece:	853e                	mv	a0,a5
    50203ed0:	7422                	ld	s0,40(sp)
    50203ed2:	6145                	addi	sp,sp,48
    50203ed4:	8082                	ret

0000000050203ed6 <strncpy>:
    50203ed6:	7139                	addi	sp,sp,-64
    50203ed8:	fc22                	sd	s0,56(sp)
    50203eda:	0080                	addi	s0,sp,64
    50203edc:	fca43c23          	sd	a0,-40(s0)
    50203ee0:	fcb43823          	sd	a1,-48(s0)
    50203ee4:	87b2                	mv	a5,a2
    50203ee6:	fcf42623          	sw	a5,-52(s0)
    50203eea:	fd843783          	ld	a5,-40(s0)
    50203eee:	fef43423          	sd	a5,-24(s0)
    50203ef2:	a00d                	j	50203f14 <strncpy+0x3e>
    50203ef4:	fd043703          	ld	a4,-48(s0)
    50203ef8:	00170793          	addi	a5,a4,1
    50203efc:	fcf43823          	sd	a5,-48(s0)
    50203f00:	fd843783          	ld	a5,-40(s0)
    50203f04:	00178693          	addi	a3,a5,1
    50203f08:	fcd43c23          	sd	a3,-40(s0)
    50203f0c:	00074703          	lbu	a4,0(a4)
    50203f10:	00e78023          	sb	a4,0(a5)
    50203f14:	fd043783          	ld	a5,-48(s0)
    50203f18:	0007c783          	lbu	a5,0(a5)
    50203f1c:	c395                	beqz	a5,50203f40 <strncpy+0x6a>
    50203f1e:	fcc42783          	lw	a5,-52(s0)
    50203f22:	fff7871b          	addiw	a4,a5,-1
    50203f26:	fce42623          	sw	a4,-52(s0)
    50203f2a:	fcf045e3          	bgtz	a5,50203ef4 <strncpy+0x1e>
    50203f2e:	a809                	j	50203f40 <strncpy+0x6a>
    50203f30:	fd843783          	ld	a5,-40(s0)
    50203f34:	00178713          	addi	a4,a5,1
    50203f38:	fce43c23          	sd	a4,-40(s0)
    50203f3c:	00078023          	sb	zero,0(a5)
    50203f40:	fcc42783          	lw	a5,-52(s0)
    50203f44:	fff7871b          	addiw	a4,a5,-1
    50203f48:	fce42623          	sw	a4,-52(s0)
    50203f4c:	fef042e3          	bgtz	a5,50203f30 <strncpy+0x5a>
    50203f50:	fe843783          	ld	a5,-24(s0)
    50203f54:	853e                	mv	a0,a5
    50203f56:	7462                	ld	s0,56(sp)
    50203f58:	6121                	addi	sp,sp,64
    50203f5a:	8082                	ret

0000000050203f5c <strcat>:
    50203f5c:	7179                	addi	sp,sp,-48
    50203f5e:	f422                	sd	s0,40(sp)
    50203f60:	1800                	addi	s0,sp,48
    50203f62:	fca43c23          	sd	a0,-40(s0)
    50203f66:	fcb43823          	sd	a1,-48(s0)
    50203f6a:	fd843783          	ld	a5,-40(s0)
    50203f6e:	fef43423          	sd	a5,-24(s0)
    50203f72:	a031                	j	50203f7e <strcat+0x22>
    50203f74:	fd843783          	ld	a5,-40(s0)
    50203f78:	0785                	addi	a5,a5,1
    50203f7a:	fcf43c23          	sd	a5,-40(s0)
    50203f7e:	fd843783          	ld	a5,-40(s0)
    50203f82:	0007c783          	lbu	a5,0(a5)
    50203f86:	f7fd                	bnez	a5,50203f74 <strcat+0x18>
    50203f88:	a00d                	j	50203faa <strcat+0x4e>
    50203f8a:	fd043703          	ld	a4,-48(s0)
    50203f8e:	00170793          	addi	a5,a4,1
    50203f92:	fcf43823          	sd	a5,-48(s0)
    50203f96:	fd843783          	ld	a5,-40(s0)
    50203f9a:	00178693          	addi	a3,a5,1
    50203f9e:	fcd43c23          	sd	a3,-40(s0)
    50203fa2:	00074703          	lbu	a4,0(a4)
    50203fa6:	00e78023          	sb	a4,0(a5)
    50203faa:	fd043783          	ld	a5,-48(s0)
    50203fae:	0007c783          	lbu	a5,0(a5)
    50203fb2:	ffe1                	bnez	a5,50203f8a <strcat+0x2e>
    50203fb4:	fd843783          	ld	a5,-40(s0)
    50203fb8:	00078023          	sb	zero,0(a5)
    50203fbc:	fe843783          	ld	a5,-24(s0)
    50203fc0:	853e                	mv	a0,a5
    50203fc2:	7422                	ld	s0,40(sp)
    50203fc4:	6145                	addi	sp,sp,48
    50203fc6:	8082                	ret
